ARM GAS  C:\Users\RYANCA~1\AppData\Local\Temp\ccuGCfpb.s 			page 1


   1              		.syntax unified
   2              		.cpu cortex-m0
   3              		.fpu softvfp
   4              		.eabi_attribute 20, 1
   5              		.eabi_attribute 21, 1
   6              		.eabi_attribute 23, 3
   7              		.eabi_attribute 24, 1
   8              		.eabi_attribute 25, 1
   9              		.eabi_attribute 26, 1
  10              		.eabi_attribute 30, 4
  11              		.eabi_attribute 34, 0
  12              		.eabi_attribute 18, 4
  13              		.thumb
  14              		.syntax unified
  15              		.file	"CAN.c"
  16              		.text
  17              	.Ltext0:
  18              		.cfi_sections	.debug_frame
  19              		.section	.text.CAN_Stop,"ax",%progbits
  20              		.align	1
  21              		.global	CAN_Stop
  22              		.code	16
  23              		.thumb_func
  24              		.type	CAN_Stop, %function
  25              	CAN_Stop:
  26              	.LFB5:
  27              		.file 1 "Generated_Source\\PSoC4\\CAN.c"
   1:Generated_Source\PSoC4/CAN.c **** /*******************************************************************************
   2:Generated_Source\PSoC4/CAN.c **** * File Name: CAN.c
   3:Generated_Source\PSoC4/CAN.c **** * Version 3.0
   4:Generated_Source\PSoC4/CAN.c **** *
   5:Generated_Source\PSoC4/CAN.c **** * Description:
   6:Generated_Source\PSoC4/CAN.c **** *  The CAN Component provides functionality of Control Area Network.
   7:Generated_Source\PSoC4/CAN.c **** *  The two types of mailbox configuration available are "Full" and "Basic".
   8:Generated_Source\PSoC4/CAN.c **** *
   9:Generated_Source\PSoC4/CAN.c **** * Note:
  10:Generated_Source\PSoC4/CAN.c **** *  The CAN configuration is put as constant to ROM and can be changed
  11:Generated_Source\PSoC4/CAN.c **** *  only directly by the registers written by the user.
  12:Generated_Source\PSoC4/CAN.c **** *
  13:Generated_Source\PSoC4/CAN.c **** ********************************************************************************
  14:Generated_Source\PSoC4/CAN.c **** * Copyright 2008-2015, Cypress Semiconductor Corporation.  All rights reserved.
  15:Generated_Source\PSoC4/CAN.c **** * You may use this file only in accordance with the license, terms, conditions,
  16:Generated_Source\PSoC4/CAN.c **** * disclaimers, and limitations in the end user license agreement accompanying
  17:Generated_Source\PSoC4/CAN.c **** * the software package with which this file was provided.
  18:Generated_Source\PSoC4/CAN.c **** *******************************************************************************/
  19:Generated_Source\PSoC4/CAN.c **** 
  20:Generated_Source\PSoC4/CAN.c **** #include "CAN.h"
  21:Generated_Source\PSoC4/CAN.c **** 
  22:Generated_Source\PSoC4/CAN.c **** uint8 CAN_initVar = 0u;
  23:Generated_Source\PSoC4/CAN.c **** 
  24:Generated_Source\PSoC4/CAN.c **** 
  25:Generated_Source\PSoC4/CAN.c **** /*******************************************************************************
  26:Generated_Source\PSoC4/CAN.c **** * FUNCTION NAME:   CAN_RxTxBuffersConfig
  27:Generated_Source\PSoC4/CAN.c **** ********************************************************************************
  28:Generated_Source\PSoC4/CAN.c **** *
  29:Generated_Source\PSoC4/CAN.c **** * Summary:
  30:Generated_Source\PSoC4/CAN.c **** *  Inits/Restores default CAN Rx and Tx Buffers control registers configuration
ARM GAS  C:\Users\RYANCA~1\AppData\Local\Temp\ccuGCfpb.s 			page 2


  31:Generated_Source\PSoC4/CAN.c **** *  provided by the customizer.
  32:Generated_Source\PSoC4/CAN.c **** *
  33:Generated_Source\PSoC4/CAN.c **** * Parameters:
  34:Generated_Source\PSoC4/CAN.c **** *  None.
  35:Generated_Source\PSoC4/CAN.c **** *
  36:Generated_Source\PSoC4/CAN.c **** * Return:
  37:Generated_Source\PSoC4/CAN.c **** *  The indication whether the configuration has been accepted or rejected.
  38:Generated_Source\PSoC4/CAN.c **** *   Define                             Description
  39:Generated_Source\PSoC4/CAN.c **** *    CYRET_SUCCESS                      The function passed successfully
  40:Generated_Source\PSoC4/CAN.c **** *    CAN_FAIL              The function failed
  41:Generated_Source\PSoC4/CAN.c **** *
  42:Generated_Source\PSoC4/CAN.c **** * Side Effects:
  43:Generated_Source\PSoC4/CAN.c **** *  All the Rx and Tx Buffers control registers will be reset to their initial
  44:Generated_Source\PSoC4/CAN.c **** *  values.
  45:Generated_Source\PSoC4/CAN.c **** *
  46:Generated_Source\PSoC4/CAN.c **** *******************************************************************************/
  47:Generated_Source\PSoC4/CAN.c **** uint8 CAN_RxTxBuffersConfig(void) 
  48:Generated_Source\PSoC4/CAN.c **** {
  49:Generated_Source\PSoC4/CAN.c ****     /* Initial values of CAN RX and TX registers */
  50:Generated_Source\PSoC4/CAN.c ****     static const CAN_RX_CFG CYCODE CAN_RXConfigStruct[] =
  51:Generated_Source\PSoC4/CAN.c ****     {
  52:Generated_Source\PSoC4/CAN.c ****         { 0u, 0x28u, 0x1FFFF9u, 0xECC00000u },
  53:Generated_Source\PSoC4/CAN.c ****         { 1u, 0x28u, 0x1FFFF9u, 0x70000000u },
  54:Generated_Source\PSoC4/CAN.c ****         { 2u, 0x28u, 0x1FFFF9u, 0x71200000u },
  55:Generated_Source\PSoC4/CAN.c ****         { 3u, 0x28u, 0x1FFFF9u, 0xACC00000u },
  56:Generated_Source\PSoC4/CAN.c ****         { 4u, 0x28u, 0x1FFFF9u, 0xCCC00000u },
  57:Generated_Source\PSoC4/CAN.c ****         { 5u, 0x28u, 0x1FFFF9u, 0x70E00000u },
  58:Generated_Source\PSoC4/CAN.c ****         { 6u, 0x8000A8u, 0xFFFFFFFFu, 0x0u },
  59:Generated_Source\PSoC4/CAN.c ****         { 7u, 0x8000A8u, 0xFFFFFFFFu, 0x0u },
  60:Generated_Source\PSoC4/CAN.c ****         { 8u, 0x8000A8u, 0xFFFFFFFFu, 0x0u },
  61:Generated_Source\PSoC4/CAN.c ****         { 9u, 0x8000A8u, 0xFFFFFFFFu, 0x0u },
  62:Generated_Source\PSoC4/CAN.c ****         { 10u, 0x8000A8u, 0xFFFFFFFFu, 0x0u },
  63:Generated_Source\PSoC4/CAN.c ****         { 11u, 0x8000A8u, 0xFFFFFFFFu, 0x0u },
  64:Generated_Source\PSoC4/CAN.c ****         { 12u, 0x8000A8u, 0xFFFFFFFFu, 0x0u },
  65:Generated_Source\PSoC4/CAN.c ****         { 13u, 0x8000A8u, 0xFFFFFFFFu, 0x0u },
  66:Generated_Source\PSoC4/CAN.c ****         { 14u, 0x8000A8u, 0xFFFFFFFFu, 0x0u },
  67:Generated_Source\PSoC4/CAN.c ****         { 15u, 0x8000A8u, 0xFFFFFFFFu, 0x0u }
  68:Generated_Source\PSoC4/CAN.c ****     };
  69:Generated_Source\PSoC4/CAN.c **** 
  70:Generated_Source\PSoC4/CAN.c ****     static const CAN_TX_CFG CYCODE CAN_TXConfigStruct[] =
  71:Generated_Source\PSoC4/CAN.c ****     {
  72:Generated_Source\PSoC4/CAN.c ****         { 0u, 0x10000u, 0x1A000000u },
  73:Generated_Source\PSoC4/CAN.c ****         { 1u, 0x0u, 0x0u },
  74:Generated_Source\PSoC4/CAN.c ****         { 2u, 0x0u, 0x0u },
  75:Generated_Source\PSoC4/CAN.c ****         { 3u, 0x0u, 0x0u },
  76:Generated_Source\PSoC4/CAN.c ****         { 4u, 0x0u, 0x0u },
  77:Generated_Source\PSoC4/CAN.c ****         { 5u, 0x0u, 0x0u },
  78:Generated_Source\PSoC4/CAN.c ****         { 6u, 0x0u, 0x0u },
  79:Generated_Source\PSoC4/CAN.c ****         { 7u, 0x0u, 0x0u }
  80:Generated_Source\PSoC4/CAN.c ****     };
  81:Generated_Source\PSoC4/CAN.c **** 
  82:Generated_Source\PSoC4/CAN.c ****     uint8 result = CYRET_SUCCESS;
  83:Generated_Source\PSoC4/CAN.c ****     uint8 i;
  84:Generated_Source\PSoC4/CAN.c **** 
  85:Generated_Source\PSoC4/CAN.c ****     /* Initialize TX mailboxes */
  86:Generated_Source\PSoC4/CAN.c ****     for (i = 0u; i < CAN_NUMBER_OF_TX_MAILBOXES; i++)
  87:Generated_Source\PSoC4/CAN.c ****     {
ARM GAS  C:\Users\RYANCA~1\AppData\Local\Temp\ccuGCfpb.s 			page 3


  88:Generated_Source\PSoC4/CAN.c ****         if (CAN_TxBufConfig((const CAN_TX_CFG *)
  89:Generated_Source\PSoC4/CAN.c ****             (&CAN_TXConfigStruct[i])) != CYRET_SUCCESS)
  90:Generated_Source\PSoC4/CAN.c ****         {
  91:Generated_Source\PSoC4/CAN.c ****             result = CAN_FAIL;
  92:Generated_Source\PSoC4/CAN.c ****             break;
  93:Generated_Source\PSoC4/CAN.c ****         }
  94:Generated_Source\PSoC4/CAN.c ****     }
  95:Generated_Source\PSoC4/CAN.c **** 
  96:Generated_Source\PSoC4/CAN.c ****     if (result == CYRET_SUCCESS)
  97:Generated_Source\PSoC4/CAN.c ****     {
  98:Generated_Source\PSoC4/CAN.c ****         /* Initialize RX mailboxes */
  99:Generated_Source\PSoC4/CAN.c ****         for (i = 0u; i < CAN_NUMBER_OF_RX_MAILBOXES; i++)
 100:Generated_Source\PSoC4/CAN.c ****         {
 101:Generated_Source\PSoC4/CAN.c ****             if (CAN_RxBufConfig((const CAN_RX_CFG *)
 102:Generated_Source\PSoC4/CAN.c ****                 (&CAN_RXConfigStruct[i])) != CYRET_SUCCESS)
 103:Generated_Source\PSoC4/CAN.c ****             {
 104:Generated_Source\PSoC4/CAN.c ****                 result = CAN_FAIL;
 105:Generated_Source\PSoC4/CAN.c ****                 break;
 106:Generated_Source\PSoC4/CAN.c ****             }
 107:Generated_Source\PSoC4/CAN.c ****         }
 108:Generated_Source\PSoC4/CAN.c ****     }
 109:Generated_Source\PSoC4/CAN.c **** 
 110:Generated_Source\PSoC4/CAN.c ****     return (result);
 111:Generated_Source\PSoC4/CAN.c **** }
 112:Generated_Source\PSoC4/CAN.c **** 
 113:Generated_Source\PSoC4/CAN.c **** 
 114:Generated_Source\PSoC4/CAN.c **** /*******************************************************************************
 115:Generated_Source\PSoC4/CAN.c **** * FUNCTION NAME:   CAN_Init
 116:Generated_Source\PSoC4/CAN.c **** ********************************************************************************
 117:Generated_Source\PSoC4/CAN.c **** *
 118:Generated_Source\PSoC4/CAN.c **** * Summary:
 119:Generated_Source\PSoC4/CAN.c **** *  Inits/Restores default CAN configuration provided by the customizer.
 120:Generated_Source\PSoC4/CAN.c **** *
 121:Generated_Source\PSoC4/CAN.c **** * Parameters:
 122:Generated_Source\PSoC4/CAN.c **** *  None.
 123:Generated_Source\PSoC4/CAN.c **** *
 124:Generated_Source\PSoC4/CAN.c **** * Return:
 125:Generated_Source\PSoC4/CAN.c **** *  The indication whether the configuration has been accepted or rejected.
 126:Generated_Source\PSoC4/CAN.c **** *   Define                             Description
 127:Generated_Source\PSoC4/CAN.c **** *    CYRET_SUCCESS                      The function passed successfully
 128:Generated_Source\PSoC4/CAN.c **** *    CAN_FAIL              The function failed
 129:Generated_Source\PSoC4/CAN.c **** *
 130:Generated_Source\PSoC4/CAN.c **** * Side Effects:
 131:Generated_Source\PSoC4/CAN.c **** *  All the registers will be reset to their initial values. This will
 132:Generated_Source\PSoC4/CAN.c **** *  re-initialize the component with the following exceptions - it will not clear
 133:Generated_Source\PSoC4/CAN.c **** *  data from the mailboxes.
 134:Generated_Source\PSoC4/CAN.c **** *  Enable power to the CAN Core.
 135:Generated_Source\PSoC4/CAN.c **** *
 136:Generated_Source\PSoC4/CAN.c **** *******************************************************************************/
 137:Generated_Source\PSoC4/CAN.c **** uint8 CAN_Init(void) 
 138:Generated_Source\PSoC4/CAN.c **** {
 139:Generated_Source\PSoC4/CAN.c ****     uint32 timeout = CAN_MODE_STATE_STOP_TIMEOUT;
 140:Generated_Source\PSoC4/CAN.c ****     uint8 result = CAN_FAIL;
 141:Generated_Source\PSoC4/CAN.c ****     uint8 localResult = CAN_FAIL;
 142:Generated_Source\PSoC4/CAN.c **** 
 143:Generated_Source\PSoC4/CAN.c ****     #if (CY_PSOC3 || CY_PSOC5)
 144:Generated_Source\PSoC4/CAN.c ****         uint8 enableInterrupts;
ARM GAS  C:\Users\RYANCA~1\AppData\Local\Temp\ccuGCfpb.s 			page 4


 145:Generated_Source\PSoC4/CAN.c **** 
 146:Generated_Source\PSoC4/CAN.c ****         enableInterrupts = CyEnterCriticalSection();
 147:Generated_Source\PSoC4/CAN.c ****         /* Enable CAN block in Active mode */
 148:Generated_Source\PSoC4/CAN.c ****         CAN_PM_ACT_CFG_REG |= CAN_ACT_PWR_EN;
 149:Generated_Source\PSoC4/CAN.c ****         /* Enable CAN block in Alternate Active (Standby) mode */
 150:Generated_Source\PSoC4/CAN.c ****         CAN_PM_STBY_CFG_REG |= CAN_STBY_PWR_EN;
 151:Generated_Source\PSoC4/CAN.c ****         CyExitCriticalSection(enableInterrupts);
 152:Generated_Source\PSoC4/CAN.c **** 
 153:Generated_Source\PSoC4/CAN.c ****         /* Sets CAN controller to stop mode */
 154:Generated_Source\PSoC4/CAN.c ****         CAN_CMD_REG.byte[0u] &= (uint8) (~CAN_MODE_MASK);
 155:Generated_Source\PSoC4/CAN.c **** 
 156:Generated_Source\PSoC4/CAN.c ****         /* Timeout for CAN state machine to switch mode to Stop */
 157:Generated_Source\PSoC4/CAN.c ****         while ((timeout != 0u) && ((CAN_CMD_REG.byte[0u] & CAN_MODE_MASK) != 0u))
 158:Generated_Source\PSoC4/CAN.c ****         {
 159:Generated_Source\PSoC4/CAN.c ****             timeout--;
 160:Generated_Source\PSoC4/CAN.c ****         }
 161:Generated_Source\PSoC4/CAN.c ****     #else  /* CY_PSOC4 */
 162:Generated_Source\PSoC4/CAN.c ****         /* Enable CAN IP Block */
 163:Generated_Source\PSoC4/CAN.c ****         CAN_CNTL_REG = CAN_IP_ENABLE;
 164:Generated_Source\PSoC4/CAN.c **** 
 165:Generated_Source\PSoC4/CAN.c ****         /* Sets CAN controller to stop mode */
 166:Generated_Source\PSoC4/CAN.c ****         CAN_CMD_REG &= (uint32) (~((uint32) CAN_MODE_MASK));
 167:Generated_Source\PSoC4/CAN.c **** 
 168:Generated_Source\PSoC4/CAN.c ****         /* Timeout for CAN state machine to switch mode to Stop */
 169:Generated_Source\PSoC4/CAN.c ****         while ((timeout != 0u) && ((CAN_CMD_REG & CAN_MODE_MASK) != 0u))
 170:Generated_Source\PSoC4/CAN.c ****         {
 171:Generated_Source\PSoC4/CAN.c ****             timeout--;
 172:Generated_Source\PSoC4/CAN.c ****         }
 173:Generated_Source\PSoC4/CAN.c ****     #endif /* CY_PSOC3 || CY_PSOC5 */
 174:Generated_Source\PSoC4/CAN.c ****         if (timeout != 0u)
 175:Generated_Source\PSoC4/CAN.c ****         {
 176:Generated_Source\PSoC4/CAN.c ****             /* Disable Interrupt. */
 177:Generated_Source\PSoC4/CAN.c ****         CyIntDisable(CAN_ISR_NUMBER);
 178:Generated_Source\PSoC4/CAN.c **** 
 179:Generated_Source\PSoC4/CAN.c ****         /* Set the ISR to point to the CAN_ISR Interrupt. */
 180:Generated_Source\PSoC4/CAN.c ****         (void) CyIntSetVector(CAN_ISR_NUMBER, & CAN_ISR);
 181:Generated_Source\PSoC4/CAN.c **** 
 182:Generated_Source\PSoC4/CAN.c ****         /* Set the priority. */
 183:Generated_Source\PSoC4/CAN.c ****         CyIntSetPriority(CAN_ISR_NUMBER, CAN_ISR_PRIORITY);
 184:Generated_Source\PSoC4/CAN.c **** 
 185:Generated_Source\PSoC4/CAN.c ****             if (CAN_SetPreScaler(CAN_BITRATE) == CYRET_SUCCESS)
 186:Generated_Source\PSoC4/CAN.c ****             {
 187:Generated_Source\PSoC4/CAN.c ****                 if (CAN_SetArbiter(CAN_ARBITER) == CYRET_SUCCESS)
 188:Generated_Source\PSoC4/CAN.c ****                 {
 189:Generated_Source\PSoC4/CAN.c ****                     #if (!(CY_PSOC3 || CY_PSOC5))
 190:Generated_Source\PSoC4/CAN.c ****                         if (CAN_SetSwapDataEndianness(CAN_SWAP_DATA_END) == CYRET_SUCCESS)
 191:Generated_Source\PSoC4/CAN.c ****                     #endif /* (!(CY_PSOC3 || CY_PSOC5)) */
 192:Generated_Source\PSoC4/CAN.c ****                         {
 193:Generated_Source\PSoC4/CAN.c ****                             if (CAN_SetTsegSample(CAN_CFG_REG_TSEG1,
 194:Generated_Source\PSoC4/CAN.c ****                                 CAN_CFG_REG_TSEG2, CAN_CFG_REG_SJW,
 195:Generated_Source\PSoC4/CAN.c ****                                 CAN_SAMPLING_MODE) == CYRET_SUCCESS)
 196:Generated_Source\PSoC4/CAN.c ****                             {
 197:Generated_Source\PSoC4/CAN.c ****                                 if (CAN_SetRestartType(CAN_RESET_TYPE) == CYRET_SUCCESS)
 198:Generated_Source\PSoC4/CAN.c ****                                 {
 199:Generated_Source\PSoC4/CAN.c ****                                     if (CAN_SetEdgeMode(CAN_SYNC_EDGE) == CYRET_SUCCESS)
 200:Generated_Source\PSoC4/CAN.c ****                                     {
 201:Generated_Source\PSoC4/CAN.c ****                                         localResult = CYRET_SUCCESS;
ARM GAS  C:\Users\RYANCA~1\AppData\Local\Temp\ccuGCfpb.s 			page 5


 202:Generated_Source\PSoC4/CAN.c ****                                     }
 203:Generated_Source\PSoC4/CAN.c ****                                 }
 204:Generated_Source\PSoC4/CAN.c ****                             }
 205:Generated_Source\PSoC4/CAN.c ****                         }
 206:Generated_Source\PSoC4/CAN.c ****                 }
 207:Generated_Source\PSoC4/CAN.c ****             }
 208:Generated_Source\PSoC4/CAN.c **** 
 209:Generated_Source\PSoC4/CAN.c ****             if (localResult == CYRET_SUCCESS)
 210:Generated_Source\PSoC4/CAN.c ****             {
 211:Generated_Source\PSoC4/CAN.c ****                 if (CAN_RxTxBuffersConfig() == CYRET_SUCCESS)
 212:Generated_Source\PSoC4/CAN.c ****                 {
 213:Generated_Source\PSoC4/CAN.c ****                     /* Write IRQ Mask */
 214:Generated_Source\PSoC4/CAN.c ****                     if (CAN_SetIrqMask(CAN_INIT_INTERRUPT_MASK) ==
 215:Generated_Source\PSoC4/CAN.c ****                         CYRET_SUCCESS)
 216:Generated_Source\PSoC4/CAN.c ****                     {
 217:Generated_Source\PSoC4/CAN.c ****                         /* Set CAN Operation Mode to Active mode always */
 218:Generated_Source\PSoC4/CAN.c ****                         #if (CY_PSOC3 || CY_PSOC5)
 219:Generated_Source\PSoC4/CAN.c ****                             CAN_CMD_REG.byte[0u] = CAN_INITIAL_MODE;
 220:Generated_Source\PSoC4/CAN.c ****                             if ((CAN_CMD_REG.byte[0u] & CAN_MODE_MASK) == 0u)
 221:Generated_Source\PSoC4/CAN.c ****                         #else  /* CY_PSOC4 */
 222:Generated_Source\PSoC4/CAN.c ****                             CAN_CMD_REG &= (uint32) (~((uint32) CAN_OPMODE_FIELD_MASK));
 223:Generated_Source\PSoC4/CAN.c ****                             if ((CAN_CMD_REG & CAN_OPMODE_FIELD_MASK) == 0u)
 224:Generated_Source\PSoC4/CAN.c ****                         #endif /* CY_PSOC3 || CY_PSOC5 */
 225:Generated_Source\PSoC4/CAN.c ****                             {
 226:Generated_Source\PSoC4/CAN.c ****                                 result = CYRET_SUCCESS;
 227:Generated_Source\PSoC4/CAN.c ****                             }
 228:Generated_Source\PSoC4/CAN.c ****                     }
 229:Generated_Source\PSoC4/CAN.c ****                 }
 230:Generated_Source\PSoC4/CAN.c ****             }
 231:Generated_Source\PSoC4/CAN.c ****         }
 232:Generated_Source\PSoC4/CAN.c **** 
 233:Generated_Source\PSoC4/CAN.c ****     return (result);
 234:Generated_Source\PSoC4/CAN.c **** }
 235:Generated_Source\PSoC4/CAN.c **** 
 236:Generated_Source\PSoC4/CAN.c **** 
 237:Generated_Source\PSoC4/CAN.c **** /*******************************************************************************
 238:Generated_Source\PSoC4/CAN.c **** * Function Name: CAN_Enable
 239:Generated_Source\PSoC4/CAN.c **** ********************************************************************************
 240:Generated_Source\PSoC4/CAN.c **** *
 241:Generated_Source\PSoC4/CAN.c **** * Summary:
 242:Generated_Source\PSoC4/CAN.c **** *  This function enables the CAN Component and ISR of CAN Component.
 243:Generated_Source\PSoC4/CAN.c **** *
 244:Generated_Source\PSoC4/CAN.c **** * Parameters:
 245:Generated_Source\PSoC4/CAN.c **** *  None.
 246:Generated_Source\PSoC4/CAN.c **** *
 247:Generated_Source\PSoC4/CAN.c **** * Return:
 248:Generated_Source\PSoC4/CAN.c **** *  The indication whether the register is written and verified.
 249:Generated_Source\PSoC4/CAN.c **** *   Define                             Description
 250:Generated_Source\PSoC4/CAN.c **** *    CYRET_SUCCESS                      The function passed successfully
 251:Generated_Source\PSoC4/CAN.c **** *    CAN_FAIL              The function failed
 252:Generated_Source\PSoC4/CAN.c **** *
 253:Generated_Source\PSoC4/CAN.c **** *******************************************************************************/
 254:Generated_Source\PSoC4/CAN.c **** uint8 CAN_Enable(void) 
 255:Generated_Source\PSoC4/CAN.c **** {
 256:Generated_Source\PSoC4/CAN.c ****     uint32 timeout = CAN_MODE_STATE_RUN_TIMEOUT;
 257:Generated_Source\PSoC4/CAN.c ****     uint8 result = CAN_FAIL;
 258:Generated_Source\PSoC4/CAN.c **** 
ARM GAS  C:\Users\RYANCA~1\AppData\Local\Temp\ccuGCfpb.s 			page 6


 259:Generated_Source\PSoC4/CAN.c ****     #if (CY_PSOC3 || CY_PSOC5)
 260:Generated_Source\PSoC4/CAN.c ****         uint8 enableInterrupts;
 261:Generated_Source\PSoC4/CAN.c **** 
 262:Generated_Source\PSoC4/CAN.c ****         enableInterrupts = CyEnterCriticalSection();
 263:Generated_Source\PSoC4/CAN.c **** 
 264:Generated_Source\PSoC4/CAN.c ****         /* Enable CAN block in Active mode */
 265:Generated_Source\PSoC4/CAN.c ****         CAN_PM_ACT_CFG_REG |= CAN_ACT_PWR_EN;
 266:Generated_Source\PSoC4/CAN.c **** 
 267:Generated_Source\PSoC4/CAN.c ****         /* Enable CAN block in Alternate Active (Standby) mode */
 268:Generated_Source\PSoC4/CAN.c ****         CAN_PM_STBY_CFG_REG |= CAN_STBY_PWR_EN;
 269:Generated_Source\PSoC4/CAN.c **** 
 270:Generated_Source\PSoC4/CAN.c ****         CyExitCriticalSection(enableInterrupts);
 271:Generated_Source\PSoC4/CAN.c ****     #endif /* CY_PSOC3 || CY_PSOC5 */
 272:Generated_Source\PSoC4/CAN.c **** 
 273:Generated_Source\PSoC4/CAN.c ****     /* Clear interrupts status */
 274:Generated_Source\PSoC4/CAN.c ****     CY_SET_REG32(CAN_INT_SR_PTR, CAN_INIT_INTERRUPT_MASK);
 275:Generated_Source\PSoC4/CAN.c ****     (void) CAN_GlobalIntEnable();
 276:Generated_Source\PSoC4/CAN.c **** 
 277:Generated_Source\PSoC4/CAN.c ****     /* Enable isr */
 278:Generated_Source\PSoC4/CAN.c ****     CyIntEnable(CAN_ISR_NUMBER);
 279:Generated_Source\PSoC4/CAN.c **** 
 280:Generated_Source\PSoC4/CAN.c ****     /* Sets CAN controller to run mode */
 281:Generated_Source\PSoC4/CAN.c ****     CY_SET_REG32(CAN_CMD_PTR, CY_GET_REG32(CAN_CMD_PTR) | CAN_MODE_MASK);
 282:Generated_Source\PSoC4/CAN.c **** 
 283:Generated_Source\PSoC4/CAN.c ****     /* Timeout for CAN state machine to switch mode to Run */
 284:Generated_Source\PSoC4/CAN.c ****     while ((timeout != 0u) && ((CY_GET_REG32(CAN_CMD_PTR) & CAN_MODE_MASK) == 0u))
 285:Generated_Source\PSoC4/CAN.c ****     {
 286:Generated_Source\PSoC4/CAN.c ****         timeout--;
 287:Generated_Source\PSoC4/CAN.c ****     }
 288:Generated_Source\PSoC4/CAN.c **** 
 289:Generated_Source\PSoC4/CAN.c ****     if (timeout != 0u)
 290:Generated_Source\PSoC4/CAN.c ****     {
 291:Generated_Source\PSoC4/CAN.c ****         result = CYRET_SUCCESS;
 292:Generated_Source\PSoC4/CAN.c ****     }
 293:Generated_Source\PSoC4/CAN.c **** 
 294:Generated_Source\PSoC4/CAN.c ****     return (result);
 295:Generated_Source\PSoC4/CAN.c **** }
 296:Generated_Source\PSoC4/CAN.c **** 
 297:Generated_Source\PSoC4/CAN.c **** 
 298:Generated_Source\PSoC4/CAN.c **** /*******************************************************************************
 299:Generated_Source\PSoC4/CAN.c **** * FUNCTION NAME:   CAN_Start
 300:Generated_Source\PSoC4/CAN.c **** ********************************************************************************
 301:Generated_Source\PSoC4/CAN.c **** *
 302:Generated_Source\PSoC4/CAN.c **** * Summary:
 303:Generated_Source\PSoC4/CAN.c **** *  This function sets CAN Component into the Run mode. Starts Rate Counter if
 304:Generated_Source\PSoC4/CAN.c **** *  polling mailboxes are available.
 305:Generated_Source\PSoC4/CAN.c **** *
 306:Generated_Source\PSoC4/CAN.c **** * Parameters:
 307:Generated_Source\PSoC4/CAN.c **** *  None.
 308:Generated_Source\PSoC4/CAN.c **** *
 309:Generated_Source\PSoC4/CAN.c **** * Return:
 310:Generated_Source\PSoC4/CAN.c **** *  The indication whether the register is written and verified.
 311:Generated_Source\PSoC4/CAN.c **** *   Define                             Description
 312:Generated_Source\PSoC4/CAN.c **** *    CYRET_SUCCESS                      The function passed successfully
 313:Generated_Source\PSoC4/CAN.c **** *    CAN_FAIL              The function failed
 314:Generated_Source\PSoC4/CAN.c **** *
 315:Generated_Source\PSoC4/CAN.c **** * Global variables:
ARM GAS  C:\Users\RYANCA~1\AppData\Local\Temp\ccuGCfpb.s 			page 7


 316:Generated_Source\PSoC4/CAN.c **** *  CAN_initVar - used to check the initial configuration, modified
 317:Generated_Source\PSoC4/CAN.c **** *  on the first function call.
 318:Generated_Source\PSoC4/CAN.c **** *
 319:Generated_Source\PSoC4/CAN.c **** * Reentrant:
 320:Generated_Source\PSoC4/CAN.c **** *  No.
 321:Generated_Source\PSoC4/CAN.c **** *
 322:Generated_Source\PSoC4/CAN.c **** *******************************************************************************/
 323:Generated_Source\PSoC4/CAN.c **** uint8 CAN_Start(void) 
 324:Generated_Source\PSoC4/CAN.c **** {
 325:Generated_Source\PSoC4/CAN.c ****     uint8 result = CYRET_SUCCESS;
 326:Generated_Source\PSoC4/CAN.c **** 
 327:Generated_Source\PSoC4/CAN.c ****     if (CAN_initVar == 0u)
 328:Generated_Source\PSoC4/CAN.c ****     {
 329:Generated_Source\PSoC4/CAN.c ****         result = CAN_Init();
 330:Generated_Source\PSoC4/CAN.c ****     }
 331:Generated_Source\PSoC4/CAN.c **** 
 332:Generated_Source\PSoC4/CAN.c ****     if (result == CYRET_SUCCESS)
 333:Generated_Source\PSoC4/CAN.c ****     {
 334:Generated_Source\PSoC4/CAN.c ****         CAN_initVar = 1u;
 335:Generated_Source\PSoC4/CAN.c ****         result = CAN_Enable();
 336:Generated_Source\PSoC4/CAN.c ****     }
 337:Generated_Source\PSoC4/CAN.c **** 
 338:Generated_Source\PSoC4/CAN.c ****     return (result);
 339:Generated_Source\PSoC4/CAN.c **** }
 340:Generated_Source\PSoC4/CAN.c **** 
 341:Generated_Source\PSoC4/CAN.c **** 
 342:Generated_Source\PSoC4/CAN.c **** /*******************************************************************************
 343:Generated_Source\PSoC4/CAN.c **** * FUNCTION NAME:   CAN_Stop
 344:Generated_Source\PSoC4/CAN.c **** ********************************************************************************
 345:Generated_Source\PSoC4/CAN.c **** *
 346:Generated_Source\PSoC4/CAN.c **** * Summary:
 347:Generated_Source\PSoC4/CAN.c **** *  This function sets CAN Component into the Stop mode.
 348:Generated_Source\PSoC4/CAN.c **** *
 349:Generated_Source\PSoC4/CAN.c **** * Parameters:
 350:Generated_Source\PSoC4/CAN.c **** *  None.
 351:Generated_Source\PSoC4/CAN.c **** *
 352:Generated_Source\PSoC4/CAN.c **** * Return:
 353:Generated_Source\PSoC4/CAN.c **** *  The indication whether the register is written and verified.
 354:Generated_Source\PSoC4/CAN.c **** *   Define                             Description
 355:Generated_Source\PSoC4/CAN.c **** *    CYRET_SUCCESS                      The function passed successfully
 356:Generated_Source\PSoC4/CAN.c **** *    CAN_FAIL              The function failed
 357:Generated_Source\PSoC4/CAN.c **** *
 358:Generated_Source\PSoC4/CAN.c **** * Side Effects:
 359:Generated_Source\PSoC4/CAN.c **** *  Disable power to CAN Core in case of PSoC 3/5.
 360:Generated_Source\PSoC4/CAN.c **** *  Pending message in the Tx buffer of PSoC 3/5 will not be aborted on calling
 361:Generated_Source\PSoC4/CAN.c **** *  the CAN_Stop() API. User has to abort all pending messages
 362:Generated_Source\PSoC4/CAN.c **** *  before calling the CAN_Stop() function to make sure that the
 363:Generated_Source\PSoC4/CAN.c **** *  block stops all the message transmission immediately.
 364:Generated_Source\PSoC4/CAN.c **** *
 365:Generated_Source\PSoC4/CAN.c **** *******************************************************************************/
 366:Generated_Source\PSoC4/CAN.c **** uint8 CAN_Stop(void) 
 367:Generated_Source\PSoC4/CAN.c **** {
  28              		.loc 1 367 0
  29              		.cfi_startproc
  30              		@ args = 0, pretend = 0, frame = 0
  31              		@ frame_needed = 0, uses_anonymous_args = 0
  32              	.LVL0:
ARM GAS  C:\Users\RYANCA~1\AppData\Local\Temp\ccuGCfpb.s 			page 8


 368:Generated_Source\PSoC4/CAN.c ****     uint32 timeout = CAN_MODE_STATE_STOP_TIMEOUT;
 369:Generated_Source\PSoC4/CAN.c ****     uint8 result = CAN_FAIL;
 370:Generated_Source\PSoC4/CAN.c **** 
 371:Generated_Source\PSoC4/CAN.c ****     #if (CY_PSOC3 || CY_PSOC5)
 372:Generated_Source\PSoC4/CAN.c ****         uint8 enableInterrupts;
 373:Generated_Source\PSoC4/CAN.c ****     #endif /* CY_PSOC3 || CY_PSOC5 */
 374:Generated_Source\PSoC4/CAN.c **** 
 375:Generated_Source\PSoC4/CAN.c ****     /* Set CAN controller to stop mode */
 376:Generated_Source\PSoC4/CAN.c ****     CY_SET_REG32(CAN_CMD_PTR, (CY_GET_REG32(CAN_CMD_PTR) &
  33              		.loc 1 376 0
  34 0000 0122     		movs	r2, #1
  35 0002 094B     		ldr	r3, .L11
 367:Generated_Source\PSoC4/CAN.c ****     uint32 timeout = CAN_MODE_STATE_STOP_TIMEOUT;
  36              		.loc 1 367 0
  37 0004 10B5     		push	{r4, lr}
  38              		.cfi_def_cfa_offset 8
  39              		.cfi_offset 4, -8
  40              		.cfi_offset 14, -4
  41              		.loc 1 376 0
  42 0006 1968     		ldr	r1, [r3]
  43 0008 9143     		bics	r1, r2
  44 000a 1960     		str	r1, [r3]
  45 000c 0749     		ldr	r1, .L11+4
  46              	.LVL1:
  47              	.L2:
 377:Generated_Source\PSoC4/CAN.c ****                                             ((uint32) (~((uint32)CAN_MODE_MASK)))));
 378:Generated_Source\PSoC4/CAN.c **** 
 379:Generated_Source\PSoC4/CAN.c ****     /* Timeout for CAN state machine to switch mode to Stop */
 380:Generated_Source\PSoC4/CAN.c ****     while ((timeout != 0u) && ((CY_GET_REG32(CAN_CMD_PTR) & CAN_MODE_MASK) != 0u))
  48              		.loc 1 380 0 discriminator 1
  49 000e 1C68     		ldr	r4, [r3]
  50 0010 1440     		ands	r4, r2
  51 0012 04D0     		beq	.L10
  52              	.LVL2:
  53 0014 0139     		subs	r1, r1, #1
  54              	.LVL3:
  55              		.loc 1 380 0 is_stmt 0
  56 0016 0029     		cmp	r1, #0
  57 0018 F9D1     		bne	.L2
 369:Generated_Source\PSoC4/CAN.c **** 
  58              		.loc 1 369 0 is_stmt 1
  59 001a 0120     		movs	r0, #1
  60 001c 03E0     		b	.L8
  61              	.L10:
  62              	.LVL4:
 381:Generated_Source\PSoC4/CAN.c ****     {
 382:Generated_Source\PSoC4/CAN.c ****         timeout--;
 383:Generated_Source\PSoC4/CAN.c ****     }
 384:Generated_Source\PSoC4/CAN.c **** 
 385:Generated_Source\PSoC4/CAN.c ****     /* Verify that bit is cleared */
 386:Generated_Source\PSoC4/CAN.c ****     if (timeout != 0u)
 387:Generated_Source\PSoC4/CAN.c ****     {
 388:Generated_Source\PSoC4/CAN.c ****         result = CYRET_SUCCESS;
 389:Generated_Source\PSoC4/CAN.c **** 
 390:Generated_Source\PSoC4/CAN.c ****         /* Disable isr */
 391:Generated_Source\PSoC4/CAN.c ****     CyIntDisable(CAN_ISR_NUMBER);
  63              		.loc 1 391 0
ARM GAS  C:\Users\RYANCA~1\AppData\Local\Temp\ccuGCfpb.s 			page 9


  64 001e 1C20     		movs	r0, #28
  65 0020 FFF7FEFF 		bl	CyIntDisable
  66              	.LVL5:
 388:Generated_Source\PSoC4/CAN.c **** 
  67              		.loc 1 388 0
  68 0024 2000     		movs	r0, r4
  69              	.LVL6:
  70              	.L8:
 392:Generated_Source\PSoC4/CAN.c **** 
 393:Generated_Source\PSoC4/CAN.c ****         #if (CY_PSOC3 || CY_PSOC5)
 394:Generated_Source\PSoC4/CAN.c ****             enableInterrupts = CyEnterCriticalSection();
 395:Generated_Source\PSoC4/CAN.c **** 
 396:Generated_Source\PSoC4/CAN.c ****             /* Disable CAN block in Active mode */
 397:Generated_Source\PSoC4/CAN.c ****             CAN_PM_ACT_CFG_REG &= (uint8) (~CAN_ACT_PWR_EN);
 398:Generated_Source\PSoC4/CAN.c **** 
 399:Generated_Source\PSoC4/CAN.c ****             /* Disable CAN block in Alternate Active (Standby) mode template */
 400:Generated_Source\PSoC4/CAN.c ****             CAN_PM_STBY_CFG_REG &= (uint8) (~CAN_STBY_PWR_EN);
 401:Generated_Source\PSoC4/CAN.c **** 
 402:Generated_Source\PSoC4/CAN.c ****             CyExitCriticalSection(enableInterrupts);
 403:Generated_Source\PSoC4/CAN.c ****         #endif /* CY_PSOC3 || CY_PSOC5 */
 404:Generated_Source\PSoC4/CAN.c ****     }
 405:Generated_Source\PSoC4/CAN.c **** 
 406:Generated_Source\PSoC4/CAN.c ****     return (result);
 407:Generated_Source\PSoC4/CAN.c **** }
  71              		.loc 1 407 0
  72              		@ sp needed
  73 0026 10BD     		pop	{r4, pc}
  74              	.L12:
  75              		.align	2
  76              	.L11:
  77 0028 10002F40 		.word	1076822032
  78 002c C0760000 		.word	30400
  79              		.cfi_endproc
  80              	.LFE5:
  81              		.size	CAN_Stop, .-CAN_Stop
  82              		.section	.text.CAN_GlobalIntEnable,"ax",%progbits
  83              		.align	1
  84              		.global	CAN_GlobalIntEnable
  85              		.code	16
  86              		.thumb_func
  87              		.type	CAN_GlobalIntEnable, %function
  88              	CAN_GlobalIntEnable:
  89              	.LFB6:
 408:Generated_Source\PSoC4/CAN.c **** 
 409:Generated_Source\PSoC4/CAN.c **** 
 410:Generated_Source\PSoC4/CAN.c **** /*******************************************************************************
 411:Generated_Source\PSoC4/CAN.c **** * FUNCTION NAME:   CAN_GlobalIntEnable
 412:Generated_Source\PSoC4/CAN.c **** ********************************************************************************
 413:Generated_Source\PSoC4/CAN.c **** *
 414:Generated_Source\PSoC4/CAN.c **** * Summary:
 415:Generated_Source\PSoC4/CAN.c **** *  This function enables Global Interrupts from CAN Core.
 416:Generated_Source\PSoC4/CAN.c **** *
 417:Generated_Source\PSoC4/CAN.c **** * Parameters:
 418:Generated_Source\PSoC4/CAN.c **** *  None.
 419:Generated_Source\PSoC4/CAN.c **** *
 420:Generated_Source\PSoC4/CAN.c **** * Return:
 421:Generated_Source\PSoC4/CAN.c **** *  The indication whether the register is written and verified.
ARM GAS  C:\Users\RYANCA~1\AppData\Local\Temp\ccuGCfpb.s 			page 10


 422:Generated_Source\PSoC4/CAN.c **** *   Define                             Description
 423:Generated_Source\PSoC4/CAN.c **** *    CYRET_SUCCESS                      The function passed successfully
 424:Generated_Source\PSoC4/CAN.c **** *    CAN_FAIL              The function failed
 425:Generated_Source\PSoC4/CAN.c **** *
 426:Generated_Source\PSoC4/CAN.c **** *******************************************************************************/
 427:Generated_Source\PSoC4/CAN.c **** uint8 CAN_GlobalIntEnable(void) 
 428:Generated_Source\PSoC4/CAN.c **** {
  90              		.loc 1 428 0
  91              		.cfi_startproc
  92              		@ args = 0, pretend = 0, frame = 0
  93              		@ frame_needed = 0, uses_anonymous_args = 0
  94              		@ link register save eliminated.
  95              	.LVL7:
 429:Generated_Source\PSoC4/CAN.c ****     uint8 result = CAN_FAIL;
 430:Generated_Source\PSoC4/CAN.c **** 
 431:Generated_Source\PSoC4/CAN.c ****     #if (CY_PSOC3 || CY_PSOC5)
 432:Generated_Source\PSoC4/CAN.c ****         CAN_INT_EN_REG.byte[0u] |= CAN_GLOBAL_INT_MASK;
 433:Generated_Source\PSoC4/CAN.c **** 
 434:Generated_Source\PSoC4/CAN.c ****         /* Verify that bit is set */
 435:Generated_Source\PSoC4/CAN.c ****         if ((CAN_INT_EN_REG.byte[0u] & CAN_GLOBAL_INT_MASK) != 0u)
 436:Generated_Source\PSoC4/CAN.c ****         {
 437:Generated_Source\PSoC4/CAN.c ****             result = CYRET_SUCCESS;
 438:Generated_Source\PSoC4/CAN.c ****         }
 439:Generated_Source\PSoC4/CAN.c ****     #else  /* CY_PSOC4 */
 440:Generated_Source\PSoC4/CAN.c ****         CAN_INT_EN_REG |= CAN_GLOBAL_INT_MASK;
  96              		.loc 1 440 0
  97 0000 0120     		movs	r0, #1
  98 0002 034B     		ldr	r3, .L14
 441:Generated_Source\PSoC4/CAN.c ****         /* Verify that bit is set */
 442:Generated_Source\PSoC4/CAN.c ****         if ((CAN_INT_EN_REG & CAN_GLOBAL_INT_MASK) != 0u)
 443:Generated_Source\PSoC4/CAN.c ****         {
 444:Generated_Source\PSoC4/CAN.c ****             result = CYRET_SUCCESS;
 445:Generated_Source\PSoC4/CAN.c ****         }
 446:Generated_Source\PSoC4/CAN.c ****     #endif /* CY_PSOC3 || CY_PSOC5 */
 447:Generated_Source\PSoC4/CAN.c **** 
 448:Generated_Source\PSoC4/CAN.c ****     return (result);
 449:Generated_Source\PSoC4/CAN.c **** }
  99              		.loc 1 449 0
 100              		@ sp needed
 440:Generated_Source\PSoC4/CAN.c ****         /* Verify that bit is set */
 101              		.loc 1 440 0
 102 0004 1A68     		ldr	r2, [r3]
 103 0006 0243     		orrs	r2, r0
 104 0008 1A60     		str	r2, [r3]
 442:Generated_Source\PSoC4/CAN.c ****         {
 105              		.loc 1 442 0
 106 000a 1B68     		ldr	r3, [r3]
 107              	.LVL8:
 448:Generated_Source\PSoC4/CAN.c **** }
 108              		.loc 1 448 0
 109 000c 9843     		bics	r0, r3
 110              		.loc 1 449 0
 111 000e 7047     		bx	lr
 112              	.L15:
 113              		.align	2
 114              	.L14:
 115 0010 04002F40 		.word	1076822020
ARM GAS  C:\Users\RYANCA~1\AppData\Local\Temp\ccuGCfpb.s 			page 11


 116              		.cfi_endproc
 117              	.LFE6:
 118              		.size	CAN_GlobalIntEnable, .-CAN_GlobalIntEnable
 119              		.section	.text.CAN_Enable,"ax",%progbits
 120              		.align	1
 121              		.global	CAN_Enable
 122              		.code	16
 123              		.thumb_func
 124              		.type	CAN_Enable, %function
 125              	CAN_Enable:
 126              	.LFB3:
 255:Generated_Source\PSoC4/CAN.c ****     uint32 timeout = CAN_MODE_STATE_RUN_TIMEOUT;
 127              		.loc 1 255 0
 128              		.cfi_startproc
 129              		@ args = 0, pretend = 0, frame = 0
 130              		@ frame_needed = 0, uses_anonymous_args = 0
 131              	.LVL9:
 274:Generated_Source\PSoC4/CAN.c ****     (void) CAN_GlobalIntEnable();
 132              		.loc 1 274 0
 133 0000 0C4A     		ldr	r2, .L22
 134 0002 0D4B     		ldr	r3, .L22+4
 255:Generated_Source\PSoC4/CAN.c ****     uint32 timeout = CAN_MODE_STATE_RUN_TIMEOUT;
 135              		.loc 1 255 0
 136 0004 10B5     		push	{r4, lr}
 137              		.cfi_def_cfa_offset 8
 138              		.cfi_offset 4, -8
 139              		.cfi_offset 14, -4
 274:Generated_Source\PSoC4/CAN.c ****     (void) CAN_GlobalIntEnable();
 140              		.loc 1 274 0
 141 0006 1A60     		str	r2, [r3]
 275:Generated_Source\PSoC4/CAN.c **** 
 142              		.loc 1 275 0
 143 0008 FFF7FEFF 		bl	CAN_GlobalIntEnable
 144              	.LVL10:
 278:Generated_Source\PSoC4/CAN.c **** 
 145              		.loc 1 278 0
 146 000c 1C20     		movs	r0, #28
 147 000e FFF7FEFF 		bl	CyIntEnable
 148              	.LVL11:
 281:Generated_Source\PSoC4/CAN.c **** 
 149              		.loc 1 281 0
 150 0012 0122     		movs	r2, #1
 151 0014 094B     		ldr	r3, .L22+8
 152 0016 1968     		ldr	r1, [r3]
 153 0018 1143     		orrs	r1, r2
 154 001a 1960     		str	r1, [r3]
 155 001c 0849     		ldr	r1, .L22+12
 156              	.LVL12:
 157              	.L17:
 284:Generated_Source\PSoC4/CAN.c ****     {
 158              		.loc 1 284 0 discriminator 1
 159 001e 1868     		ldr	r0, [r3]
 160 0020 1042     		tst	r0, r2
 161 0022 04D1     		bne	.L21
 162              	.LVL13:
 163 0024 0139     		subs	r1, r1, #1
 164              	.LVL14:
ARM GAS  C:\Users\RYANCA~1\AppData\Local\Temp\ccuGCfpb.s 			page 12


 284:Generated_Source\PSoC4/CAN.c ****     {
 165              		.loc 1 284 0 is_stmt 0
 166 0026 0029     		cmp	r1, #0
 167 0028 F9D1     		bne	.L17
 257:Generated_Source\PSoC4/CAN.c **** 
 168              		.loc 1 257 0 is_stmt 1
 169 002a 0120     		movs	r0, #1
 170 002c 00E0     		b	.L18
 171              	.L21:
 291:Generated_Source\PSoC4/CAN.c ****     }
 172              		.loc 1 291 0
 173 002e 0020     		movs	r0, #0
 174              	.LVL15:
 175              	.L18:
 295:Generated_Source\PSoC4/CAN.c **** 
 176              		.loc 1 295 0
 177              		@ sp needed
 178 0030 10BD     		pop	{r4, pc}
 179              	.L23:
 180 0032 C046     		.align	2
 181              	.L22:
 182 0034 01100000 		.word	4097
 183 0038 00002F40 		.word	1076822016
 184 003c 10002F40 		.word	1076822032
 185 0040 E8080000 		.word	2280
 186              		.cfi_endproc
 187              	.LFE3:
 188              		.size	CAN_Enable, .-CAN_Enable
 189              		.section	.text.CAN_GlobalIntDisable,"ax",%progbits
 190              		.align	1
 191              		.global	CAN_GlobalIntDisable
 192              		.code	16
 193              		.thumb_func
 194              		.type	CAN_GlobalIntDisable, %function
 195              	CAN_GlobalIntDisable:
 196              	.LFB7:
 450:Generated_Source\PSoC4/CAN.c **** 
 451:Generated_Source\PSoC4/CAN.c **** 
 452:Generated_Source\PSoC4/CAN.c **** /*******************************************************************************
 453:Generated_Source\PSoC4/CAN.c **** * FUNCTION NAME:   CAN_GlobalIntDisable
 454:Generated_Source\PSoC4/CAN.c **** ********************************************************************************
 455:Generated_Source\PSoC4/CAN.c **** *
 456:Generated_Source\PSoC4/CAN.c **** * Summary:
 457:Generated_Source\PSoC4/CAN.c **** *  This function disables Global Interrupts from CAN Core.
 458:Generated_Source\PSoC4/CAN.c **** *
 459:Generated_Source\PSoC4/CAN.c **** * Parameters:
 460:Generated_Source\PSoC4/CAN.c **** *  None.
 461:Generated_Source\PSoC4/CAN.c **** *
 462:Generated_Source\PSoC4/CAN.c **** * Return:
 463:Generated_Source\PSoC4/CAN.c **** *  The indication whether the register is written and verified.
 464:Generated_Source\PSoC4/CAN.c **** *   Define                             Description
 465:Generated_Source\PSoC4/CAN.c **** *    CYRET_SUCCESS                      The function passed successfully
 466:Generated_Source\PSoC4/CAN.c **** *    CAN_FAIL              The function failed
 467:Generated_Source\PSoC4/CAN.c **** *
 468:Generated_Source\PSoC4/CAN.c **** *******************************************************************************/
 469:Generated_Source\PSoC4/CAN.c **** uint8 CAN_GlobalIntDisable(void) 
 470:Generated_Source\PSoC4/CAN.c **** {
ARM GAS  C:\Users\RYANCA~1\AppData\Local\Temp\ccuGCfpb.s 			page 13


 197              		.loc 1 470 0
 198              		.cfi_startproc
 199              		@ args = 0, pretend = 0, frame = 0
 200              		@ frame_needed = 0, uses_anonymous_args = 0
 201              		@ link register save eliminated.
 202              	.LVL16:
 471:Generated_Source\PSoC4/CAN.c ****     uint8 result = CAN_FAIL;
 472:Generated_Source\PSoC4/CAN.c **** 
 473:Generated_Source\PSoC4/CAN.c ****     #if (CY_PSOC3 || CY_PSOC5)
 474:Generated_Source\PSoC4/CAN.c ****         CAN_INT_EN_REG.byte[0u] &= (uint8) (~CAN_GLOBAL_INT_MASK);
 475:Generated_Source\PSoC4/CAN.c **** 
 476:Generated_Source\PSoC4/CAN.c ****         /* Verify that bit is cleared */
 477:Generated_Source\PSoC4/CAN.c ****         if ((CAN_INT_EN_REG.byte[0u] & CAN_GLOBAL_INT_MASK) == 0u)
 478:Generated_Source\PSoC4/CAN.c ****         {
 479:Generated_Source\PSoC4/CAN.c ****             result = CYRET_SUCCESS;
 480:Generated_Source\PSoC4/CAN.c ****         }
 481:Generated_Source\PSoC4/CAN.c ****     #else  /* CY_PSOC4 */
 482:Generated_Source\PSoC4/CAN.c ****         CAN_INT_EN_REG &= (uint32) (~((uint32) CAN_GLOBAL_INT_MASK));
 203              		.loc 1 482 0
 204 0000 0120     		movs	r0, #1
 205 0002 034B     		ldr	r3, .L25
 483:Generated_Source\PSoC4/CAN.c **** 
 484:Generated_Source\PSoC4/CAN.c ****         /* Verify that bit is cleared */
 485:Generated_Source\PSoC4/CAN.c ****         if ((CAN_INT_EN_REG & CAN_GLOBAL_INT_MASK) == 0u)
 486:Generated_Source\PSoC4/CAN.c ****         {
 487:Generated_Source\PSoC4/CAN.c ****             result = CYRET_SUCCESS;
 488:Generated_Source\PSoC4/CAN.c ****         }
 489:Generated_Source\PSoC4/CAN.c ****     #endif /* CY_PSOC3 || CY_PSOC5 */
 490:Generated_Source\PSoC4/CAN.c **** 
 491:Generated_Source\PSoC4/CAN.c ****     return (result);
 492:Generated_Source\PSoC4/CAN.c **** }
 206              		.loc 1 492 0
 207              		@ sp needed
 482:Generated_Source\PSoC4/CAN.c **** 
 208              		.loc 1 482 0
 209 0004 1A68     		ldr	r2, [r3]
 210 0006 8243     		bics	r2, r0
 211 0008 1A60     		str	r2, [r3]
 485:Generated_Source\PSoC4/CAN.c ****         {
 212              		.loc 1 485 0
 213 000a 1B68     		ldr	r3, [r3]
 214              	.LVL17:
 491:Generated_Source\PSoC4/CAN.c **** }
 215              		.loc 1 491 0
 216 000c 1840     		ands	r0, r3
 217              		.loc 1 492 0
 218 000e 7047     		bx	lr
 219              	.L26:
 220              		.align	2
 221              	.L25:
 222 0010 04002F40 		.word	1076822020
 223              		.cfi_endproc
 224              	.LFE7:
 225              		.size	CAN_GlobalIntDisable, .-CAN_GlobalIntDisable
 226              		.section	.text.CAN_SetPreScaler,"ax",%progbits
 227              		.align	1
 228              		.global	CAN_SetPreScaler
ARM GAS  C:\Users\RYANCA~1\AppData\Local\Temp\ccuGCfpb.s 			page 14


 229              		.code	16
 230              		.thumb_func
 231              		.type	CAN_SetPreScaler, %function
 232              	CAN_SetPreScaler:
 233              	.LFB8:
 493:Generated_Source\PSoC4/CAN.c **** 
 494:Generated_Source\PSoC4/CAN.c **** 
 495:Generated_Source\PSoC4/CAN.c **** /*******************************************************************************
 496:Generated_Source\PSoC4/CAN.c **** * FUNCTION NAME:   CAN_SetPreScaler
 497:Generated_Source\PSoC4/CAN.c **** ********************************************************************************
 498:Generated_Source\PSoC4/CAN.c **** *
 499:Generated_Source\PSoC4/CAN.c **** * Summary:
 500:Generated_Source\PSoC4/CAN.c **** *  This function sets PreScaler for generating the time quantum which defines
 501:Generated_Source\PSoC4/CAN.c **** *  the time quanta. The values between 0x0 and 0x7FFF are valid.
 502:Generated_Source\PSoC4/CAN.c **** *
 503:Generated_Source\PSoC4/CAN.c **** * Parameters:
 504:Generated_Source\PSoC4/CAN.c **** *  bitrate: PreScaler value.
 505:Generated_Source\PSoC4/CAN.c **** *   Value           Description
 506:Generated_Source\PSoC4/CAN.c **** *    0               One time quantum equals 1 clock cycle
 507:Generated_Source\PSoC4/CAN.c **** *    1               One time quantum equals 2 clock cycles
 508:Generated_Source\PSoC4/CAN.c **** *    ...             ...
 509:Generated_Source\PSoC4/CAN.c **** *    32767           One time quantum equals 32768 clock cycles
 510:Generated_Source\PSoC4/CAN.c **** *
 511:Generated_Source\PSoC4/CAN.c **** * Return:
 512:Generated_Source\PSoC4/CAN.c **** *  The indication whether the register is written and verified.
 513:Generated_Source\PSoC4/CAN.c **** *   Define                             Description
 514:Generated_Source\PSoC4/CAN.c **** *    CYRET_SUCCESS                      The function passed successfully
 515:Generated_Source\PSoC4/CAN.c **** *    CAN_FAIL              The function failed
 516:Generated_Source\PSoC4/CAN.c **** *    CAN_OUT_OF_RANGE      The function parameter is out of range
 517:Generated_Source\PSoC4/CAN.c **** *
 518:Generated_Source\PSoC4/CAN.c **** *******************************************************************************/
 519:Generated_Source\PSoC4/CAN.c **** uint8 CAN_SetPreScaler(uint16 bitrate) 
 520:Generated_Source\PSoC4/CAN.c **** {
 234              		.loc 1 520 0
 235              		.cfi_startproc
 236              		@ args = 0, pretend = 0, frame = 0
 237              		@ frame_needed = 0, uses_anonymous_args = 0
 238              		@ link register save eliminated.
 239              	.LVL18:
 521:Generated_Source\PSoC4/CAN.c ****     uint8 result = CAN_OUT_OF_RANGE;
 522:Generated_Source\PSoC4/CAN.c **** 
 523:Generated_Source\PSoC4/CAN.c ****     if (bitrate <= CAN_BITRATE_MASK)
 240              		.loc 1 523 0
 241 0000 02B2     		sxth	r2, r0
 521:Generated_Source\PSoC4/CAN.c ****     uint8 result = CAN_OUT_OF_RANGE;
 242              		.loc 1 521 0
 243 0002 0223     		movs	r3, #2
 244              		.loc 1 523 0
 245 0004 002A     		cmp	r2, #0
 246 0006 0DDB     		blt	.L28
 247              	.LVL19:
 248              	.LBB24:
 249              	.LBB25:
 524:Generated_Source\PSoC4/CAN.c ****     {
 525:Generated_Source\PSoC4/CAN.c ****         result = CAN_FAIL;
 526:Generated_Source\PSoC4/CAN.c **** 
 527:Generated_Source\PSoC4/CAN.c ****         #if (CY_PSOC3 || CY_PSOC5)
ARM GAS  C:\Users\RYANCA~1\AppData\Local\Temp\ccuGCfpb.s 			page 15


 528:Generated_Source\PSoC4/CAN.c ****             /* Set prescaler */
 529:Generated_Source\PSoC4/CAN.c ****             CY_SET_REG16((reg16 *) (&CAN_CFG_REG.byte[2u]), bitrate);
 530:Generated_Source\PSoC4/CAN.c **** 
 531:Generated_Source\PSoC4/CAN.c ****             /* Verify that prescaler is set */
 532:Generated_Source\PSoC4/CAN.c ****             if (CY_GET_REG16((reg16 *) (&CAN_CFG_REG.byte[2u])) == bitrate)
 533:Generated_Source\PSoC4/CAN.c ****             {
 534:Generated_Source\PSoC4/CAN.c ****                 result = CYRET_SUCCESS;
 535:Generated_Source\PSoC4/CAN.c ****             }
 536:Generated_Source\PSoC4/CAN.c ****         #else  /* CY_PSOC4 */
 537:Generated_Source\PSoC4/CAN.c ****             /* Set prescaler */
 538:Generated_Source\PSoC4/CAN.c ****             CAN_CFG_REG = (CAN_CFG_REG & (uint32) (~CAN_BITRATE_MASK_SHIFTED)) |
 250              		.loc 1 538 0
 251 0008 074A     		ldr	r2, .L30
 252 000a 084B     		ldr	r3, .L30+4
 253 000c 1168     		ldr	r1, [r2]
 539:Generated_Source\PSoC4/CAN.c ****             (uint32) ((uint32) bitrate << CAN_BITRATE_SHIFT);
 254              		.loc 1 539 0
 255 000e 0004     		lsls	r0, r0, #16
 256              	.LVL20:
 538:Generated_Source\PSoC4/CAN.c ****             (uint32) ((uint32) bitrate << CAN_BITRATE_SHIFT);
 257              		.loc 1 538 0
 258 0010 0B40     		ands	r3, r1
 259 0012 0343     		orrs	r3, r0
 260 0014 1360     		str	r3, [r2]
 540:Generated_Source\PSoC4/CAN.c **** 
 541:Generated_Source\PSoC4/CAN.c ****             /* Verify that prescaler is set */
 542:Generated_Source\PSoC4/CAN.c ****             if ((CAN_CFG_REG & CAN_BITRATE_MASK_SHIFTED) ==
 261              		.loc 1 542 0
 262 0016 1368     		ldr	r3, [r2]
 263              	.LBE25:
 264              	.LBE24:
 521:Generated_Source\PSoC4/CAN.c **** 
 265              		.loc 1 521 0
 266 0018 054A     		ldr	r2, .L30+8
 267 001a 1340     		ands	r3, r2
 268 001c 1B1A     		subs	r3, r3, r0
 269 001e 581E     		subs	r0, r3, #1
 270 0020 8341     		sbcs	r3, r3, r0
 271 0022 DBB2     		uxtb	r3, r3
 272              	.LVL21:
 273              	.L28:
 543:Generated_Source\PSoC4/CAN.c ****                ((uint32) ((uint32) bitrate << CAN_BITRATE_SHIFT)))
 544:Generated_Source\PSoC4/CAN.c ****             {
 545:Generated_Source\PSoC4/CAN.c ****                 result = CYRET_SUCCESS;
 546:Generated_Source\PSoC4/CAN.c ****             }
 547:Generated_Source\PSoC4/CAN.c ****         #endif /* CY_PSOC3 || CY_PSOC5 */
 548:Generated_Source\PSoC4/CAN.c ****     }
 549:Generated_Source\PSoC4/CAN.c **** 
 550:Generated_Source\PSoC4/CAN.c ****     return (result);
 551:Generated_Source\PSoC4/CAN.c **** }
 274              		.loc 1 551 0
 275 0024 1800     		movs	r0, r3
 276              		@ sp needed
 277 0026 7047     		bx	lr
 278              	.L31:
 279              		.align	2
 280              	.L30:
ARM GAS  C:\Users\RYANCA~1\AppData\Local\Temp\ccuGCfpb.s 			page 16


 281 0028 14002F40 		.word	1076822036
 282 002c FFFF0080 		.word	-2147418113
 283 0030 0000FF7F 		.word	2147418112
 284              		.cfi_endproc
 285              	.LFE8:
 286              		.size	CAN_SetPreScaler, .-CAN_SetPreScaler
 287              		.section	.text.CAN_SetArbiter,"ax",%progbits
 288              		.align	1
 289              		.global	CAN_SetArbiter
 290              		.code	16
 291              		.thumb_func
 292              		.type	CAN_SetArbiter, %function
 293              	CAN_SetArbiter:
 294              	.LFB9:
 552:Generated_Source\PSoC4/CAN.c **** 
 553:Generated_Source\PSoC4/CAN.c **** 
 554:Generated_Source\PSoC4/CAN.c **** /*******************************************************************************
 555:Generated_Source\PSoC4/CAN.c **** * FUNCTION NAME:   CAN_SetArbiter
 556:Generated_Source\PSoC4/CAN.c **** ********************************************************************************
 557:Generated_Source\PSoC4/CAN.c **** *
 558:Generated_Source\PSoC4/CAN.c **** * Summary:
 559:Generated_Source\PSoC4/CAN.c **** *  This function sets the arbitration type for transmit mailboxes. The types of
 560:Generated_Source\PSoC4/CAN.c **** *  the arbiters are Round Robin and Fixed Priority. Values 0 and 1 are valid.
 561:Generated_Source\PSoC4/CAN.c **** *
 562:Generated_Source\PSoC4/CAN.c **** * Parameters:
 563:Generated_Source\PSoC4/CAN.c **** *  arbiter: The arbitration type for transmit mailboxes.
 564:Generated_Source\PSoC4/CAN.c **** *   Value                              Description
 565:Generated_Source\PSoC4/CAN.c **** *    CAN_ROUND_ROBIN       The Round Robin arbitration
 566:Generated_Source\PSoC4/CAN.c **** *    CAN_FIXED_PRIORITY    The Fixed Priority arbitration.
 567:Generated_Source\PSoC4/CAN.c **** *
 568:Generated_Source\PSoC4/CAN.c **** * Return:
 569:Generated_Source\PSoC4/CAN.c **** *  The indication whether the register is written and verified.
 570:Generated_Source\PSoC4/CAN.c **** *   Define                             Description
 571:Generated_Source\PSoC4/CAN.c **** *    CYRET_SUCCESS                      The function passed successfully
 572:Generated_Source\PSoC4/CAN.c **** *    CAN_FAIL              The function failed
 573:Generated_Source\PSoC4/CAN.c **** *
 574:Generated_Source\PSoC4/CAN.c **** *******************************************************************************/
 575:Generated_Source\PSoC4/CAN.c **** uint8 CAN_SetArbiter(uint8 arbiter) 
 576:Generated_Source\PSoC4/CAN.c **** {
 295              		.loc 1 576 0
 296              		.cfi_startproc
 297              		@ args = 0, pretend = 0, frame = 0
 298              		@ frame_needed = 0, uses_anonymous_args = 0
 299              		@ link register save eliminated.
 300              	.LVL22:
 301 0000 0A4B     		ldr	r3, .L35
 577:Generated_Source\PSoC4/CAN.c ****     uint8 result = CAN_FAIL;
 578:Generated_Source\PSoC4/CAN.c **** 
 579:Generated_Source\PSoC4/CAN.c ****     #if (CY_PSOC3 || CY_PSOC5)
 580:Generated_Source\PSoC4/CAN.c ****         if (arbiter == CAN_ROUND_ROBIN)
 581:Generated_Source\PSoC4/CAN.c ****         {
 582:Generated_Source\PSoC4/CAN.c ****             CAN_CFG_REG.byte[1u] &= (uint8) (~CAN_ARBITRATION_MASK);
 583:Generated_Source\PSoC4/CAN.c **** 
 584:Generated_Source\PSoC4/CAN.c ****             /* Verify that bit is cleared */
 585:Generated_Source\PSoC4/CAN.c ****             if ((CAN_CFG_REG.byte[1u] & CAN_ARBITRATION_MASK) == 0u)
 586:Generated_Source\PSoC4/CAN.c ****             {
 587:Generated_Source\PSoC4/CAN.c ****                 result = CYRET_SUCCESS;
ARM GAS  C:\Users\RYANCA~1\AppData\Local\Temp\ccuGCfpb.s 			page 17


 588:Generated_Source\PSoC4/CAN.c ****             }
 589:Generated_Source\PSoC4/CAN.c ****         }
 590:Generated_Source\PSoC4/CAN.c ****         else    /* Fixed Priority */
 591:Generated_Source\PSoC4/CAN.c ****         {
 592:Generated_Source\PSoC4/CAN.c ****             CAN_CFG_REG.byte[1u] |= CAN_ARBITRATION_MASK;
 593:Generated_Source\PSoC4/CAN.c **** 
 594:Generated_Source\PSoC4/CAN.c ****             /* Verify that bit is set */
 595:Generated_Source\PSoC4/CAN.c ****             if ((CAN_CFG_REG.byte[1u] & CAN_ARBITRATION_MASK) != 0u)
 596:Generated_Source\PSoC4/CAN.c ****             {
 597:Generated_Source\PSoC4/CAN.c ****                 result = CYRET_SUCCESS;
 598:Generated_Source\PSoC4/CAN.c ****             }
 599:Generated_Source\PSoC4/CAN.c ****         }
 600:Generated_Source\PSoC4/CAN.c ****     #else  /* CY_PSOC4 */
 601:Generated_Source\PSoC4/CAN.c ****         if (arbiter == CAN_ROUND_ROBIN)
 302              		.loc 1 601 0
 303 0002 0028     		cmp	r0, #0
 304 0004 07D1     		bne	.L33
 305              	.LVL23:
 306              	.LBB28:
 307              	.LBB29:
 602:Generated_Source\PSoC4/CAN.c ****         {
 603:Generated_Source\PSoC4/CAN.c ****             CAN_CFG_REG &= (uint32) (~CAN_ARBITRATION_MASK);
 308              		.loc 1 603 0
 309 0006 1968     		ldr	r1, [r3]
 310 0008 094A     		ldr	r2, .L35+4
 311 000a 0A40     		ands	r2, r1
 312 000c 1A60     		str	r2, [r3]
 604:Generated_Source\PSoC4/CAN.c **** 
 605:Generated_Source\PSoC4/CAN.c ****             /* Verify that bit is cleared */
 606:Generated_Source\PSoC4/CAN.c ****             if ((CAN_CFG_REG & CAN_ARBITRATION_MASK) == 0u)
 313              		.loc 1 606 0
 314 000e 1868     		ldr	r0, [r3]
 315              	.LVL24:
 607:Generated_Source\PSoC4/CAN.c ****             {
 608:Generated_Source\PSoC4/CAN.c ****                 result = CYRET_SUCCESS;
 316              		.loc 1 608 0
 317 0010 C004     		lsls	r0, r0, #19
 318 0012 C00F     		lsrs	r0, r0, #31
 319 0014 08E0     		b	.L34
 320              	.LVL25:
 321              	.L33:
 322              	.LBE29:
 323              	.LBE28:
 609:Generated_Source\PSoC4/CAN.c ****             }
 610:Generated_Source\PSoC4/CAN.c ****         }
 611:Generated_Source\PSoC4/CAN.c ****         else    /* Fixed priority */
 612:Generated_Source\PSoC4/CAN.c ****         {
 613:Generated_Source\PSoC4/CAN.c ****             CAN_CFG_REG |= CAN_ARBITRATION_MASK;
 324              		.loc 1 613 0
 325 0016 8021     		movs	r1, #128
 326              	.LBB32:
 327              	.LBB30:
 608:Generated_Source\PSoC4/CAN.c ****             }
 328              		.loc 1 608 0
 329 0018 0120     		movs	r0, #1
 330              	.LVL26:
 331              	.LBE30:
ARM GAS  C:\Users\RYANCA~1\AppData\Local\Temp\ccuGCfpb.s 			page 18


 332              	.LBE32:
 333              		.loc 1 613 0
 334 001a 1A68     		ldr	r2, [r3]
 335 001c 4901     		lsls	r1, r1, #5
 336 001e 0A43     		orrs	r2, r1
 337 0020 1A60     		str	r2, [r3]
 614:Generated_Source\PSoC4/CAN.c **** 
 615:Generated_Source\PSoC4/CAN.c ****             /* Verify that bit is set */
 616:Generated_Source\PSoC4/CAN.c ****             if ((CAN_CFG_REG & CAN_ARBITRATION_MASK) != 0u)
 338              		.loc 1 616 0
 339 0022 1B68     		ldr	r3, [r3]
 340              	.LBB33:
 341              	.LBB31:
 608:Generated_Source\PSoC4/CAN.c ****             }
 342              		.loc 1 608 0
 343 0024 1B0B     		lsrs	r3, r3, #12
 344 0026 9843     		bics	r0, r3
 345              	.L34:
 346              	.LVL27:
 347              	.LBE31:
 348              	.LBE33:
 617:Generated_Source\PSoC4/CAN.c ****             {
 618:Generated_Source\PSoC4/CAN.c ****                 result = CYRET_SUCCESS;
 619:Generated_Source\PSoC4/CAN.c ****             }
 620:Generated_Source\PSoC4/CAN.c ****         }
 621:Generated_Source\PSoC4/CAN.c ****     #endif /* CY_PSOC3 || CY_PSOC5 */
 622:Generated_Source\PSoC4/CAN.c **** 
 623:Generated_Source\PSoC4/CAN.c ****     return (result);
 624:Generated_Source\PSoC4/CAN.c **** }
 349              		.loc 1 624 0
 350              		@ sp needed
 351 0028 7047     		bx	lr
 352              	.L36:
 353 002a C046     		.align	2
 354              	.L35:
 355 002c 14002F40 		.word	1076822036
 356 0030 FFEFFFFF 		.word	-4097
 357              		.cfi_endproc
 358              	.LFE9:
 359              		.size	CAN_SetArbiter, .-CAN_SetArbiter
 360              		.section	.text.CAN_SetTsegSample,"ax",%progbits
 361              		.align	1
 362              		.global	CAN_SetTsegSample
 363              		.code	16
 364              		.thumb_func
 365              		.type	CAN_SetTsegSample, %function
 366              	CAN_SetTsegSample:
 367              	.LFB10:
 625:Generated_Source\PSoC4/CAN.c **** 
 626:Generated_Source\PSoC4/CAN.c **** 
 627:Generated_Source\PSoC4/CAN.c **** /*******************************************************************************
 628:Generated_Source\PSoC4/CAN.c **** * FUNCTION NAME: CAN_SetTsegSample
 629:Generated_Source\PSoC4/CAN.c **** ********************************************************************************
 630:Generated_Source\PSoC4/CAN.c **** *
 631:Generated_Source\PSoC4/CAN.c **** * Summary:
 632:Generated_Source\PSoC4/CAN.c **** *  This function configures: Time segment 1, Time segment 2, Sampling Mode
 633:Generated_Source\PSoC4/CAN.c **** *  and Synchronization Jump Width.
ARM GAS  C:\Users\RYANCA~1\AppData\Local\Temp\ccuGCfpb.s 			page 19


 634:Generated_Source\PSoC4/CAN.c **** *
 635:Generated_Source\PSoC4/CAN.c **** * Parameters:
 636:Generated_Source\PSoC4/CAN.c **** *  cfgTseg1: The length of time segment 1, values between 0x2 and 0xF are valid;
 637:Generated_Source\PSoC4/CAN.c **** *  cfgTseg2: The length of time segment 2, values between 0x1 and 0x7 are valid;
 638:Generated_Source\PSoC4/CAN.c **** *  sjw: Synchronization Jump Width, value between 0x0 and 0x3 are valid;
 639:Generated_Source\PSoC4/CAN.c **** *  sm: Sampling Mode.
 640:Generated_Source\PSoC4/CAN.c **** *   Define                               Description
 641:Generated_Source\PSoC4/CAN.c **** *   CAN_ONE_SAMPLE_POINT     One sampling point is used
 642:Generated_Source\PSoC4/CAN.c **** *   CAN_THREE_SAMPLE_POINTS  Three sampling points are used
 643:Generated_Source\PSoC4/CAN.c **** *
 644:Generated_Source\PSoC4/CAN.c **** * Return:
 645:Generated_Source\PSoC4/CAN.c **** *  The indication whether the register is written and verified.
 646:Generated_Source\PSoC4/CAN.c **** *   Define                             Description
 647:Generated_Source\PSoC4/CAN.c **** *    CYRET_SUCCESS                      The function passed successfully
 648:Generated_Source\PSoC4/CAN.c **** *    CAN_FAIL              The function failed
 649:Generated_Source\PSoC4/CAN.c **** *    CAN_OUT_OF_RANGE      The function parameter is out of range
 650:Generated_Source\PSoC4/CAN.c **** *
 651:Generated_Source\PSoC4/CAN.c **** *******************************************************************************/
 652:Generated_Source\PSoC4/CAN.c **** uint8 CAN_SetTsegSample(uint8 cfgTseg1, uint8 cfgTseg2, uint8 sjw, uint8 sm)
 653:Generated_Source\PSoC4/CAN.c ****                                      
 654:Generated_Source\PSoC4/CAN.c **** {
 368              		.loc 1 654 0
 369              		.cfi_startproc
 370              		@ args = 0, pretend = 0, frame = 0
 371              		@ frame_needed = 0, uses_anonymous_args = 0
 372              	.LVL28:
 373 0000 F0B5     		push	{r4, r5, r6, r7, lr}
 374              		.cfi_def_cfa_offset 20
 375              		.cfi_offset 4, -20
 376              		.cfi_offset 5, -16
 377              		.cfi_offset 6, -12
 378              		.cfi_offset 7, -8
 379              		.cfi_offset 14, -4
 380              		.loc 1 654 0
 381 0002 0600     		movs	r6, r0
 655:Generated_Source\PSoC4/CAN.c ****     uint8 result = CAN_OUT_OF_RANGE;
 656:Generated_Source\PSoC4/CAN.c ****     uint8 cfgTemp;
 657:Generated_Source\PSoC4/CAN.c **** 
 658:Generated_Source\PSoC4/CAN.c ****     if ((cfgTseg1 >= CAN_CFG_REG_TSEG1_LOWER_LIMIT) && (cfgTseg1 <=
 382              		.loc 1 658 0
 383 0004 0238     		subs	r0, r0, #2
 384              	.LVL29:
 655:Generated_Source\PSoC4/CAN.c ****     uint8 result = CAN_OUT_OF_RANGE;
 385              		.loc 1 655 0
 386 0006 0224     		movs	r4, #2
 387              		.loc 1 658 0
 388 0008 0D28     		cmp	r0, #13
 389 000a 33D8     		bhi	.L38
 659:Generated_Source\PSoC4/CAN.c ****          CAN_CFG_REG_TSEG1_UPPER_LIMIT))
 660:Generated_Source\PSoC4/CAN.c ****     {
 661:Generated_Source\PSoC4/CAN.c ****         if (((cfgTseg2 >= CAN_CFG_REG_TSEG2_LOWER_LIMIT) &&
 390              		.loc 1 661 0
 391 000c 881E     		subs	r0, r1, #2
 392 000e 0528     		cmp	r0, #5
 393 0010 03D9     		bls	.L39
 662:Generated_Source\PSoC4/CAN.c ****              (cfgTseg2 <= CAN_CFG_REG_TSEG2_UPPER_LIMIT)) || ((sm == CAN_ONE_SAMPLE_POINT) &&
 394              		.loc 1 662 0
ARM GAS  C:\Users\RYANCA~1\AppData\Local\Temp\ccuGCfpb.s 			page 20


 395 0012 002B     		cmp	r3, #0
 396 0014 2ED1     		bne	.L38
 397              		.loc 1 662 0 is_stmt 0 discriminator 1
 398 0016 0129     		cmp	r1, #1
 399 0018 2CD1     		bne	.L38
 400              	.L39:
 655:Generated_Source\PSoC4/CAN.c ****     uint8 result = CAN_OUT_OF_RANGE;
 401              		.loc 1 655 0 is_stmt 1
 402 001a 0224     		movs	r4, #2
 663:Generated_Source\PSoC4/CAN.c ****              (cfgTseg2 == CAN_CFG_REG_TSEG2_EXCEPTION)))
 664:Generated_Source\PSoC4/CAN.c ****         {
 665:Generated_Source\PSoC4/CAN.c ****             if ((sjw <= CAN_CFG_REG_SJW_LOWER_LIMIT) && (sjw <= cfgTseg1) && (sjw <= cfgTseg2))
 403              		.loc 1 665 0
 404 001c 032A     		cmp	r2, #3
 405 001e 29D8     		bhi	.L38
 406              		.loc 1 665 0 is_stmt 0 discriminator 1
 407 0020 9642     		cmp	r6, r2
 408 0022 27D3     		bcc	.L38
 409              		.loc 1 665 0 discriminator 2
 410 0024 9142     		cmp	r1, r2
 411 0026 25D3     		bcc	.L38
 412              	.LVL30:
 666:Generated_Source\PSoC4/CAN.c ****             {
 667:Generated_Source\PSoC4/CAN.c ****                 result = CAN_FAIL;
 668:Generated_Source\PSoC4/CAN.c **** 
 669:Generated_Source\PSoC4/CAN.c ****                 #if (CY_PSOC3 || CY_PSOC5)
 670:Generated_Source\PSoC4/CAN.c ****                     cfgTemp = CAN_CFG_REG.byte[1];
 671:Generated_Source\PSoC4/CAN.c ****                     cfgTemp &= (uint8) (~CAN_CFG_REG_TSEG1_MASK);
 672:Generated_Source\PSoC4/CAN.c ****                     cfgTemp |= cfgTseg1;
 673:Generated_Source\PSoC4/CAN.c **** 
 674:Generated_Source\PSoC4/CAN.c ****                     /* Write register byte 1 */
 675:Generated_Source\PSoC4/CAN.c ****                     CAN_CFG_REG.byte[1u] = cfgTemp;
 676:Generated_Source\PSoC4/CAN.c **** 
 677:Generated_Source\PSoC4/CAN.c ****                     /* Verify 1st byte of CAN_CFG_REG register */
 678:Generated_Source\PSoC4/CAN.c ****                     if (CAN_CFG_REG.byte[1u] == cfgTemp)
 679:Generated_Source\PSoC4/CAN.c ****                     {
 680:Generated_Source\PSoC4/CAN.c ****                         cfgTemp = 0u;
 681:Generated_Source\PSoC4/CAN.c ****                         /* Set appropriate bits */
 682:Generated_Source\PSoC4/CAN.c ****                         if (sm != CAN_ONE_SAMPLE_POINT)
 683:Generated_Source\PSoC4/CAN.c ****                         {
 684:Generated_Source\PSoC4/CAN.c ****                             cfgTemp = CAN_SAMPLE_MODE_MASK;
 685:Generated_Source\PSoC4/CAN.c ****                         }
 686:Generated_Source\PSoC4/CAN.c ****                         cfgTemp |= ((uint8) (cfgTseg2 << CAN_CFG_REG_TSEG2_SHIFT)) |
 687:Generated_Source\PSoC4/CAN.c ****                                    ((uint8) (sjw << CAN_CFG_REG_SJW_SHIFT));
 688:Generated_Source\PSoC4/CAN.c **** 
 689:Generated_Source\PSoC4/CAN.c ****                         /* Write register byte 0 */
 690:Generated_Source\PSoC4/CAN.c ****                         CAN_CFG_REG.byte[0u] = cfgTemp;
 691:Generated_Source\PSoC4/CAN.c **** 
 692:Generated_Source\PSoC4/CAN.c ****                         /* Verify 1st byte of CAN_CFG_REG register */
 693:Generated_Source\PSoC4/CAN.c ****                         if (CAN_CFG_REG.byte[0u] == cfgTemp)
 694:Generated_Source\PSoC4/CAN.c ****                         {
 695:Generated_Source\PSoC4/CAN.c ****                             result = CYRET_SUCCESS;
 696:Generated_Source\PSoC4/CAN.c ****                         }
 697:Generated_Source\PSoC4/CAN.c ****                     }
 698:Generated_Source\PSoC4/CAN.c ****                 #else  /* CY_PSOC4 */
 699:Generated_Source\PSoC4/CAN.c ****                     cfgTemp = (uint8) (CAN_CFG_REG >> CAN_CFG_REG_TSEG1_SHIFT);
 413              		.loc 1 699 0 is_stmt 1
ARM GAS  C:\Users\RYANCA~1\AppData\Local\Temp\ccuGCfpb.s 			page 21


 414 0028 134D     		ldr	r5, .L49
 700:Generated_Source\PSoC4/CAN.c ****                     cfgTemp &= (uint8) (~CAN_CFG_REG_TSEG1_MASK);
 415              		.loc 1 700 0
 416 002a EE34     		adds	r4, r4, #238
 699:Generated_Source\PSoC4/CAN.c ****                     cfgTemp &= (uint8) (~CAN_CFG_REG_TSEG1_MASK);
 417              		.loc 1 699 0
 418 002c 2868     		ldr	r0, [r5]
 701:Generated_Source\PSoC4/CAN.c ****                     cfgTemp |= cfgTseg1;
 702:Generated_Source\PSoC4/CAN.c **** 
 703:Generated_Source\PSoC4/CAN.c ****                     /* Write register byte 1 */
 704:Generated_Source\PSoC4/CAN.c ****                     CAN_CFG_REG =
 705:Generated_Source\PSoC4/CAN.c ****                     (CAN_CFG_REG & (uint32) (~((uint32) ((uint32) CAN_CFG_REG_TSEG1_MASK <<
 419              		.loc 1 705 0
 420 002e 2F68     		ldr	r7, [r5]
 699:Generated_Source\PSoC4/CAN.c ****                     cfgTemp &= (uint8) (~CAN_CFG_REG_TSEG1_MASK);
 421              		.loc 1 699 0
 422 0030 000A     		lsrs	r0, r0, #8
 423              	.LVL31:
 700:Generated_Source\PSoC4/CAN.c ****                     cfgTemp |= cfgTseg1;
 424              		.loc 1 700 0
 425 0032 2040     		ands	r0, r4
 426              	.LVL32:
 706:Generated_Source\PSoC4/CAN.c ****                     CAN_CFG_REG_TSEG1_SHIFT)))) |
 707:Generated_Source\PSoC4/CAN.c ****                     (uint32) ((uint32) cfgTemp << CAN_CFG_REG_TSEG1_SHIFT);
 427              		.loc 1 707 0
 428 0034 3043     		orrs	r0, r6
 429              	.LVL33:
 708:Generated_Source\PSoC4/CAN.c **** 
 709:Generated_Source\PSoC4/CAN.c ****                     /* Verify 1st byte of CAN_CFG_REG register */
 710:Generated_Source\PSoC4/CAN.c ****                     if ((CAN_CFG_REG & (uint32) ((uint32) CAN_CFG_REG_TSEG1_MASK <<
 430              		.loc 1 710 0
 431 0036 F026     		movs	r6, #240
 706:Generated_Source\PSoC4/CAN.c ****                     CAN_CFG_REG_TSEG1_SHIFT)))) |
 432              		.loc 1 706 0
 433 0038 104C     		ldr	r4, .L49+4
 707:Generated_Source\PSoC4/CAN.c **** 
 434              		.loc 1 707 0
 435 003a 0002     		lsls	r0, r0, #8
 706:Generated_Source\PSoC4/CAN.c ****                     CAN_CFG_REG_TSEG1_SHIFT)))) |
 436              		.loc 1 706 0
 437 003c 3C40     		ands	r4, r7
 438 003e 0443     		orrs	r4, r0
 704:Generated_Source\PSoC4/CAN.c ****                     (CAN_CFG_REG & (uint32) (~((uint32) ((uint32) CAN_CFG_REG_TSEG1_MASK <<
 439              		.loc 1 704 0
 440 0040 2C60     		str	r4, [r5]
 441              		.loc 1 710 0
 442 0042 2C68     		ldr	r4, [r5]
 443 0044 3601     		lsls	r6, r6, #4
 444 0046 6040     		eors	r0, r4
 667:Generated_Source\PSoC4/CAN.c **** 
 445              		.loc 1 667 0
 446 0048 0124     		movs	r4, #1
 447              		.loc 1 710 0
 448 004a 3042     		tst	r0, r6
 449 004c 12D1     		bne	.L38
 450              	.LVL34:
 451              	.LBB36:
ARM GAS  C:\Users\RYANCA~1\AppData\Local\Temp\ccuGCfpb.s 			page 22


 452              	.LBB37:
 711:Generated_Source\PSoC4/CAN.c ****                        CAN_CFG_REG_TSEG1_SHIFT)) == (uint32) ((uint32) ((uint32) cfgTemp &
 712:Generated_Source\PSoC4/CAN.c ****                        CAN_CFG_REG_TSEG1_MASK) << CAN_CFG_REG_TSEG1_SHIFT))
 713:Generated_Source\PSoC4/CAN.c ****                     {
 714:Generated_Source\PSoC4/CAN.c ****                         cfgTemp = 0u;
 715:Generated_Source\PSoC4/CAN.c ****                         /* Set appropriate bits */
 716:Generated_Source\PSoC4/CAN.c ****                         if (sm != CAN_ONE_SAMPLE_POINT)
 717:Generated_Source\PSoC4/CAN.c ****                         {
 718:Generated_Source\PSoC4/CAN.c ****                             cfgTemp = CAN_SAMPLE_MODE_MASK;
 453              		.loc 1 718 0
 454 004e 581E     		subs	r0, r3, #1
 455 0050 8341     		sbcs	r3, r3, r0
 456              	.LVL35:
 457 0052 A340     		lsls	r3, r3, r4
 458              	.LVL36:
 719:Generated_Source\PSoC4/CAN.c ****                         }
 720:Generated_Source\PSoC4/CAN.c ****                         cfgTemp |= ((uint8) (cfgTseg2 << CAN_CFG_REG_TSEG2_SHIFT)) |
 721:Generated_Source\PSoC4/CAN.c ****                                    ((uint8) (sjw << CAN_CFG_REG_SJW_SHIFT));
 722:Generated_Source\PSoC4/CAN.c **** 
 723:Generated_Source\PSoC4/CAN.c ****                         /* Write register byte 0 */
 724:Generated_Source\PSoC4/CAN.c ****                         CAN_CFG_REG = (CAN_CFG_REG &
 725:Generated_Source\PSoC4/CAN.c ****                         (uint32) (~((uint32) (CAN_CFG_REG_TSEG2_MASK | CAN_CFG_REG_SJW_MASK |
 726:Generated_Source\PSoC4/CAN.c ****                         CAN_SAMPLE_MODE_MASK)))) | cfgTemp;
 459              		.loc 1 726 0
 460 0054 4901     		lsls	r1, r1, #5
 461              	.LVL37:
 462 0056 9200     		lsls	r2, r2, #2
 463              	.LVL38:
 724:Generated_Source\PSoC4/CAN.c ****                         (uint32) (~((uint32) (CAN_CFG_REG_TSEG2_MASK | CAN_CFG_REG_SJW_MASK |
 464              		.loc 1 724 0
 465 0058 2E68     		ldr	r6, [r5]
 466              		.loc 1 726 0
 467 005a 0A43     		orrs	r2, r1
 468 005c ED34     		adds	r4, r4, #237
 469 005e 1343     		orrs	r3, r2
 470              	.LVL39:
 471 0060 DBB2     		uxtb	r3, r3
 472 0062 A643     		bics	r6, r4
 473 0064 1E43     		orrs	r6, r3
 724:Generated_Source\PSoC4/CAN.c ****                         (uint32) (~((uint32) (CAN_CFG_REG_TSEG2_MASK | CAN_CFG_REG_SJW_MASK |
 474              		.loc 1 724 0
 475 0066 2E60     		str	r6, [r5]
 727:Generated_Source\PSoC4/CAN.c **** 
 728:Generated_Source\PSoC4/CAN.c ****                         /* Verify 1st byte of CAN_CFG_REG register */
 729:Generated_Source\PSoC4/CAN.c ****                         if ((CAN_CFG_REG & (CAN_CFG_REG_TSEG2_MASK |
 476              		.loc 1 729 0
 477 0068 2868     		ldr	r0, [r5]
 478              	.LBE37:
 479              	.LBE36:
 655:Generated_Source\PSoC4/CAN.c ****     uint8 cfgTemp;
 480              		.loc 1 655 0
 481 006a 0440     		ands	r4, r0
 482 006c E31A     		subs	r3, r4, r3
 483 006e 5C1E     		subs	r4, r3, #1
 484 0070 A341     		sbcs	r3, r3, r4
 485 0072 DCB2     		uxtb	r4, r3
 486              	.LVL40:
ARM GAS  C:\Users\RYANCA~1\AppData\Local\Temp\ccuGCfpb.s 			page 23


 487              	.L38:
 730:Generated_Source\PSoC4/CAN.c ****                            CAN_CFG_REG_SJW_MASK | CAN_SAMPLE_MODE_MASK)) == cfgTemp)
 731:Generated_Source\PSoC4/CAN.c ****                         {
 732:Generated_Source\PSoC4/CAN.c ****                             result = CYRET_SUCCESS;
 733:Generated_Source\PSoC4/CAN.c ****                         }
 734:Generated_Source\PSoC4/CAN.c ****                     }
 735:Generated_Source\PSoC4/CAN.c ****                 #endif /* CY_PSOC3 || CY_PSOC5 */
 736:Generated_Source\PSoC4/CAN.c ****             }
 737:Generated_Source\PSoC4/CAN.c ****         }
 738:Generated_Source\PSoC4/CAN.c ****     }
 739:Generated_Source\PSoC4/CAN.c **** 
 740:Generated_Source\PSoC4/CAN.c ****     return (result);
 741:Generated_Source\PSoC4/CAN.c **** }
 488              		.loc 1 741 0
 489 0074 2000     		movs	r0, r4
 490              		@ sp needed
 491              	.LVL41:
 492 0076 F0BD     		pop	{r4, r5, r6, r7, pc}
 493              	.L50:
 494              		.align	2
 495              	.L49:
 496 0078 14002F40 		.word	1076822036
 497 007c FFF0FFFF 		.word	-3841
 498              		.cfi_endproc
 499              	.LFE10:
 500              		.size	CAN_SetTsegSample, .-CAN_SetTsegSample
 501              		.section	.text.CAN_SetRestartType,"ax",%progbits
 502              		.align	1
 503              		.global	CAN_SetRestartType
 504              		.code	16
 505              		.thumb_func
 506              		.type	CAN_SetRestartType, %function
 507              	CAN_SetRestartType:
 508              	.LFB11:
 742:Generated_Source\PSoC4/CAN.c **** 
 743:Generated_Source\PSoC4/CAN.c **** 
 744:Generated_Source\PSoC4/CAN.c **** /*******************************************************************************
 745:Generated_Source\PSoC4/CAN.c **** * FUNCTION NAME:   CAN_SetRestartType
 746:Generated_Source\PSoC4/CAN.c **** ********************************************************************************
 747:Generated_Source\PSoC4/CAN.c **** *
 748:Generated_Source\PSoC4/CAN.c **** * Summary:
 749:Generated_Source\PSoC4/CAN.c **** *  This function sets the Reset type. The types of Reset are Automatic and
 750:Generated_Source\PSoC4/CAN.c **** *  Manual. Manual Reset is the recommended setting.
 751:Generated_Source\PSoC4/CAN.c **** *
 752:Generated_Source\PSoC4/CAN.c **** * Parameters:
 753:Generated_Source\PSoC4/CAN.c **** *  reset: Reset Type.
 754:Generated_Source\PSoC4/CAN.c **** *   Define                             Description
 755:Generated_Source\PSoC4/CAN.c **** *    CAN_MANUAL_RESTART    After Bus-Off, CAN must be restarted
 756:Generated_Source\PSoC4/CAN.c **** *                                       manually. This is the recommended
 757:Generated_Source\PSoC4/CAN.c **** *                                       setting.
 758:Generated_Source\PSoC4/CAN.c **** *    CAN_AUTO_RESTART      After Bus-Off, CAN restarts
 759:Generated_Source\PSoC4/CAN.c **** *                                       automatically after 128 groups of 11
 760:Generated_Source\PSoC4/CAN.c **** *                                       recessive bits.
 761:Generated_Source\PSoC4/CAN.c **** *
 762:Generated_Source\PSoC4/CAN.c **** * Return:
 763:Generated_Source\PSoC4/CAN.c **** *  The indication whether the register is written and verified.
 764:Generated_Source\PSoC4/CAN.c **** *   Define                             Description
ARM GAS  C:\Users\RYANCA~1\AppData\Local\Temp\ccuGCfpb.s 			page 24


 765:Generated_Source\PSoC4/CAN.c **** *    CYRET_SUCCESS                      The function passed successfully
 766:Generated_Source\PSoC4/CAN.c **** *    CAN_FAIL              The function failed
 767:Generated_Source\PSoC4/CAN.c **** *
 768:Generated_Source\PSoC4/CAN.c **** *******************************************************************************/
 769:Generated_Source\PSoC4/CAN.c **** uint8 CAN_SetRestartType(uint8 reset) 
 770:Generated_Source\PSoC4/CAN.c **** {
 509              		.loc 1 770 0
 510              		.cfi_startproc
 511              		@ args = 0, pretend = 0, frame = 0
 512              		@ frame_needed = 0, uses_anonymous_args = 0
 513              		@ link register save eliminated.
 514              	.LVL42:
 515 0000 084B     		ldr	r3, .L54
 516 0002 1021     		movs	r1, #16
 517              	.LBB40:
 518              	.LBB41:
 771:Generated_Source\PSoC4/CAN.c ****     uint8 result = CAN_FAIL;
 772:Generated_Source\PSoC4/CAN.c **** 
 773:Generated_Source\PSoC4/CAN.c ****     #if (CY_PSOC3 || CY_PSOC5)
 774:Generated_Source\PSoC4/CAN.c ****         if (reset == CAN_MANUAL_RESTART)
 775:Generated_Source\PSoC4/CAN.c ****         {
 776:Generated_Source\PSoC4/CAN.c ****             CAN_CFG_REG.byte[0u] &= (uint8) (~CAN_RESET_MASK);
 777:Generated_Source\PSoC4/CAN.c **** 
 778:Generated_Source\PSoC4/CAN.c ****             /* Verify that bit is cleared */
 779:Generated_Source\PSoC4/CAN.c ****             if ((CAN_CFG_REG.byte[0u] & CAN_RESET_MASK) == 0u)
 780:Generated_Source\PSoC4/CAN.c ****             {
 781:Generated_Source\PSoC4/CAN.c ****                 result = CYRET_SUCCESS;
 782:Generated_Source\PSoC4/CAN.c ****             }
 783:Generated_Source\PSoC4/CAN.c ****         }
 784:Generated_Source\PSoC4/CAN.c ****         else    /* Automatic restart */
 785:Generated_Source\PSoC4/CAN.c ****         {
 786:Generated_Source\PSoC4/CAN.c ****             CAN_CFG_REG.byte[0u] |= CAN_RESET_MASK;
 787:Generated_Source\PSoC4/CAN.c **** 
 788:Generated_Source\PSoC4/CAN.c ****             /* Verify that bit is set */
 789:Generated_Source\PSoC4/CAN.c ****             if ((CAN_CFG_REG.byte[0u] & CAN_RESET_MASK) != 0u)
 790:Generated_Source\PSoC4/CAN.c ****             {
 791:Generated_Source\PSoC4/CAN.c ****                 result = CYRET_SUCCESS;
 792:Generated_Source\PSoC4/CAN.c ****             }
 793:Generated_Source\PSoC4/CAN.c ****         }
 794:Generated_Source\PSoC4/CAN.c ****     #else  /* CY_PSOC4 */
 795:Generated_Source\PSoC4/CAN.c ****         if (reset == CAN_MANUAL_RESTART)
 796:Generated_Source\PSoC4/CAN.c ****         {
 797:Generated_Source\PSoC4/CAN.c ****             CAN_CFG_REG &= (uint32) (~((uint32) CAN_RESET_MASK));
 519              		.loc 1 797 0
 520 0004 1A68     		ldr	r2, [r3]
 521              	.LBE41:
 522              	.LBE40:
 795:Generated_Source\PSoC4/CAN.c ****         {
 523              		.loc 1 795 0
 524 0006 0028     		cmp	r0, #0
 525 0008 05D1     		bne	.L52
 526              	.LVL43:
 527              	.LBB44:
 528              	.LBB42:
 529              		.loc 1 797 0
 530 000a 8A43     		bics	r2, r1
 531 000c 1A60     		str	r2, [r3]
ARM GAS  C:\Users\RYANCA~1\AppData\Local\Temp\ccuGCfpb.s 			page 25


 798:Generated_Source\PSoC4/CAN.c **** 
 799:Generated_Source\PSoC4/CAN.c ****             /* Verify that bit is cleared */
 800:Generated_Source\PSoC4/CAN.c ****             if ((CAN_CFG_REG & CAN_RESET_MASK) == 0u)
 532              		.loc 1 800 0
 533 000e 1868     		ldr	r0, [r3]
 534              	.LVL44:
 801:Generated_Source\PSoC4/CAN.c ****             {
 802:Generated_Source\PSoC4/CAN.c ****                 result = CYRET_SUCCESS;
 535              		.loc 1 802 0
 536 0010 C006     		lsls	r0, r0, #27
 537 0012 C00F     		lsrs	r0, r0, #31
 538 0014 05E0     		b	.L53
 539              	.LVL45:
 540              	.L52:
 541 0016 0120     		movs	r0, #1
 542              	.LVL46:
 543              	.LBE42:
 544              	.LBE44:
 803:Generated_Source\PSoC4/CAN.c ****             }
 804:Generated_Source\PSoC4/CAN.c ****         }
 805:Generated_Source\PSoC4/CAN.c ****         else    /* Automatic restart */
 806:Generated_Source\PSoC4/CAN.c ****         {
 807:Generated_Source\PSoC4/CAN.c ****             CAN_CFG_REG |= CAN_RESET_MASK;
 545              		.loc 1 807 0
 546 0018 0A43     		orrs	r2, r1
 547 001a 1A60     		str	r2, [r3]
 808:Generated_Source\PSoC4/CAN.c **** 
 809:Generated_Source\PSoC4/CAN.c ****             /* Verify that bit is set */
 810:Generated_Source\PSoC4/CAN.c ****             if ((CAN_CFG_REG & CAN_RESET_MASK) != 0u)
 548              		.loc 1 810 0
 549 001c 1B68     		ldr	r3, [r3]
 550              	.LBB45:
 551              	.LBB43:
 802:Generated_Source\PSoC4/CAN.c ****             }
 552              		.loc 1 802 0
 553 001e 1B09     		lsrs	r3, r3, #4
 554 0020 9843     		bics	r0, r3
 555              	.L53:
 556              	.LVL47:
 557              	.LBE43:
 558              	.LBE45:
 811:Generated_Source\PSoC4/CAN.c ****             {
 812:Generated_Source\PSoC4/CAN.c ****                 result = CYRET_SUCCESS;
 813:Generated_Source\PSoC4/CAN.c ****             }
 814:Generated_Source\PSoC4/CAN.c ****         }
 815:Generated_Source\PSoC4/CAN.c ****     #endif /* CY_PSOC3 || CY_PSOC5 */
 816:Generated_Source\PSoC4/CAN.c **** 
 817:Generated_Source\PSoC4/CAN.c ****     return (result);
 818:Generated_Source\PSoC4/CAN.c **** }
 559              		.loc 1 818 0
 560              		@ sp needed
 561 0022 7047     		bx	lr
 562              	.L55:
 563              		.align	2
 564              	.L54:
 565 0024 14002F40 		.word	1076822036
 566              		.cfi_endproc
ARM GAS  C:\Users\RYANCA~1\AppData\Local\Temp\ccuGCfpb.s 			page 26


 567              	.LFE11:
 568              		.size	CAN_SetRestartType, .-CAN_SetRestartType
 569              		.section	.text.CAN_SetEdgeMode,"ax",%progbits
 570              		.align	1
 571              		.global	CAN_SetEdgeMode
 572              		.code	16
 573              		.thumb_func
 574              		.type	CAN_SetEdgeMode, %function
 575              	CAN_SetEdgeMode:
 576              	.LFB12:
 819:Generated_Source\PSoC4/CAN.c **** 
 820:Generated_Source\PSoC4/CAN.c **** 
 821:Generated_Source\PSoC4/CAN.c **** /*******************************************************************************
 822:Generated_Source\PSoC4/CAN.c **** * FUNCTION NAME:   CAN_SetEdgeMode
 823:Generated_Source\PSoC4/CAN.c **** ********************************************************************************
 824:Generated_Source\PSoC4/CAN.c **** *
 825:Generated_Source\PSoC4/CAN.c **** * Summary:
 826:Generated_Source\PSoC4/CAN.c **** *  This function sets Edge Mode. The modes are 'R' to 'D'(Recessive to Dominant)
 827:Generated_Source\PSoC4/CAN.c **** *  and Both edges are used.
 828:Generated_Source\PSoC4/CAN.c **** *
 829:Generated_Source\PSoC4/CAN.c **** * Parameters:
 830:Generated_Source\PSoC4/CAN.c **** *  edge: Edge Mode.
 831:Generated_Source\PSoC4/CAN.c **** *   Define                             Description
 832:Generated_Source\PSoC4/CAN.c **** *    CAN_EDGE_R_TO_D       The edge from R to D is used for
 833:Generated_Source\PSoC4/CAN.c **** *                                       synchronization
 834:Generated_Source\PSoC4/CAN.c **** *    CAN_BOTH_EDGES        Both edges are used
 835:Generated_Source\PSoC4/CAN.c **** *
 836:Generated_Source\PSoC4/CAN.c **** * Return:
 837:Generated_Source\PSoC4/CAN.c **** *  The indication whether the register is written and verified.
 838:Generated_Source\PSoC4/CAN.c **** *   Define                             Description
 839:Generated_Source\PSoC4/CAN.c **** *    CYRET_SUCCESS                      The function passed successfully
 840:Generated_Source\PSoC4/CAN.c **** *    CAN_FAIL              The function failed
 841:Generated_Source\PSoC4/CAN.c **** *
 842:Generated_Source\PSoC4/CAN.c **** *******************************************************************************/
 843:Generated_Source\PSoC4/CAN.c **** uint8 CAN_SetEdgeMode(uint8 edge) 
 844:Generated_Source\PSoC4/CAN.c **** {
 577              		.loc 1 844 0
 578              		.cfi_startproc
 579              		@ args = 0, pretend = 0, frame = 0
 580              		@ frame_needed = 0, uses_anonymous_args = 0
 581              		@ link register save eliminated.
 582              	.LVL48:
 583 0000 074A     		ldr	r2, .L59
 584 0002 0123     		movs	r3, #1
 585              	.LBB48:
 586              	.LBB49:
 845:Generated_Source\PSoC4/CAN.c ****     uint8 result = CAN_FAIL;
 846:Generated_Source\PSoC4/CAN.c **** 
 847:Generated_Source\PSoC4/CAN.c ****     #if (CY_PSOC3 || CY_PSOC5)
 848:Generated_Source\PSoC4/CAN.c ****         if (edge == CAN_EDGE_R_TO_D)
 849:Generated_Source\PSoC4/CAN.c ****         {
 850:Generated_Source\PSoC4/CAN.c ****             /* Recessive to Dominant is used for synchronization */
 851:Generated_Source\PSoC4/CAN.c ****             CAN_CFG_REG.byte[0u] &= (uint8) (~CAN_EDGE_MODE_MASK);
 852:Generated_Source\PSoC4/CAN.c **** 
 853:Generated_Source\PSoC4/CAN.c ****             /* Verify that bit is cleared */
 854:Generated_Source\PSoC4/CAN.c ****             if ((CAN_CFG_REG.byte[0u] & CAN_EDGE_MODE_MASK) == 0u)
 855:Generated_Source\PSoC4/CAN.c ****             {
ARM GAS  C:\Users\RYANCA~1\AppData\Local\Temp\ccuGCfpb.s 			page 27


 856:Generated_Source\PSoC4/CAN.c ****                 result = CYRET_SUCCESS;
 857:Generated_Source\PSoC4/CAN.c ****             }
 858:Generated_Source\PSoC4/CAN.c ****         }
 859:Generated_Source\PSoC4/CAN.c ****         else
 860:Generated_Source\PSoC4/CAN.c ****         {
 861:Generated_Source\PSoC4/CAN.c ****             /* Both edges to be used */
 862:Generated_Source\PSoC4/CAN.c ****             CAN_CFG_REG.byte[0u] |= CAN_EDGE_MODE_MASK;
 863:Generated_Source\PSoC4/CAN.c **** 
 864:Generated_Source\PSoC4/CAN.c ****             /* Verify that bit is set */
 865:Generated_Source\PSoC4/CAN.c ****             if ((CAN_CFG_REG.byte[0u] & CAN_EDGE_MODE_MASK) != 0u)
 866:Generated_Source\PSoC4/CAN.c ****             {
 867:Generated_Source\PSoC4/CAN.c ****                 result = CYRET_SUCCESS;
 868:Generated_Source\PSoC4/CAN.c ****             }
 869:Generated_Source\PSoC4/CAN.c ****         }
 870:Generated_Source\PSoC4/CAN.c ****     #else  /* CY_PSOC4 */
 871:Generated_Source\PSoC4/CAN.c ****         if (edge == CAN_EDGE_R_TO_D)
 872:Generated_Source\PSoC4/CAN.c ****         {
 873:Generated_Source\PSoC4/CAN.c ****             /* Recessive to Dominant is used for synchronization */
 874:Generated_Source\PSoC4/CAN.c ****             CAN_CFG_REG &= (uint32) (~((uint32) CAN_EDGE_MODE_MASK));
 587              		.loc 1 874 0
 588 0004 1168     		ldr	r1, [r2]
 589              	.LBE49:
 590              	.LBE48:
 871:Generated_Source\PSoC4/CAN.c ****         {
 591              		.loc 1 871 0
 592 0006 0028     		cmp	r0, #0
 593 0008 04D1     		bne	.L57
 594              	.LVL49:
 595              	.LBB52:
 596              	.LBB50:
 597              		.loc 1 874 0
 598 000a 9943     		bics	r1, r3
 599 000c 1160     		str	r1, [r2]
 875:Generated_Source\PSoC4/CAN.c **** 
 876:Generated_Source\PSoC4/CAN.c ****             /* Verify that bit is cleared */
 877:Generated_Source\PSoC4/CAN.c ****             if ((CAN_CFG_REG & CAN_EDGE_MODE_MASK) == 0u)
 600              		.loc 1 877 0
 601 000e 1068     		ldr	r0, [r2]
 602              	.LVL50:
 878:Generated_Source\PSoC4/CAN.c ****             {
 879:Generated_Source\PSoC4/CAN.c ****                 result = CYRET_SUCCESS;
 603              		.loc 1 879 0
 604 0010 1840     		ands	r0, r3
 605 0012 04E0     		b	.L58
 606              	.LVL51:
 607              	.L57:
 608              	.LBE50:
 609              	.LBE52:
 880:Generated_Source\PSoC4/CAN.c ****             }
 881:Generated_Source\PSoC4/CAN.c ****         }
 882:Generated_Source\PSoC4/CAN.c ****         else
 883:Generated_Source\PSoC4/CAN.c ****         {
 884:Generated_Source\PSoC4/CAN.c ****             /* Both edges to be used */
 885:Generated_Source\PSoC4/CAN.c ****             CAN_CFG_REG |= CAN_EDGE_MODE_MASK;
 610              		.loc 1 885 0
 611 0014 1943     		orrs	r1, r3
 612 0016 1160     		str	r1, [r2]
ARM GAS  C:\Users\RYANCA~1\AppData\Local\Temp\ccuGCfpb.s 			page 28


 886:Generated_Source\PSoC4/CAN.c **** 
 887:Generated_Source\PSoC4/CAN.c ****             /* Verify that bit is set */
 888:Generated_Source\PSoC4/CAN.c ****             if ((CAN_CFG_REG & CAN_EDGE_MODE_MASK) != 0u)
 613              		.loc 1 888 0
 614 0018 1268     		ldr	r2, [r2]
 615              	.LBB53:
 616              	.LBB51:
 879:Generated_Source\PSoC4/CAN.c ****             }
 617              		.loc 1 879 0
 618 001a 9343     		bics	r3, r2
 619 001c 1800     		movs	r0, r3
 620              	.LVL52:
 621              	.L58:
 622              	.LBE51:
 623              	.LBE53:
 889:Generated_Source\PSoC4/CAN.c ****             {
 890:Generated_Source\PSoC4/CAN.c ****                 result = CYRET_SUCCESS;
 891:Generated_Source\PSoC4/CAN.c ****             }
 892:Generated_Source\PSoC4/CAN.c ****         }
 893:Generated_Source\PSoC4/CAN.c ****     #endif /* CY_PSOC3 || CY_PSOC5 */
 894:Generated_Source\PSoC4/CAN.c **** 
 895:Generated_Source\PSoC4/CAN.c ****     return (result);
 896:Generated_Source\PSoC4/CAN.c **** }
 624              		.loc 1 896 0
 625              		@ sp needed
 626 001e 7047     		bx	lr
 627              	.L60:
 628              		.align	2
 629              	.L59:
 630 0020 14002F40 		.word	1076822036
 631              		.cfi_endproc
 632              	.LFE12:
 633              		.size	CAN_SetEdgeMode, .-CAN_SetEdgeMode
 634              		.section	.text.CAN_RXRegisterInit,"ax",%progbits
 635              		.align	1
 636              		.global	CAN_RXRegisterInit
 637              		.code	16
 638              		.thumb_func
 639              		.type	CAN_RXRegisterInit, %function
 640              	CAN_RXRegisterInit:
 641              	.LFB14:
 897:Generated_Source\PSoC4/CAN.c **** 
 898:Generated_Source\PSoC4/CAN.c **** 
 899:Generated_Source\PSoC4/CAN.c **** /*******************************************************************************
 900:Generated_Source\PSoC4/CAN.c **** * FUNCTION NAME:   CAN_SetOpMode
 901:Generated_Source\PSoC4/CAN.c **** ********************************************************************************
 902:Generated_Source\PSoC4/CAN.c **** *
 903:Generated_Source\PSoC4/CAN.c **** * Summary:
 904:Generated_Source\PSoC4/CAN.c **** *  This function sets Operation Mode.
 905:Generated_Source\PSoC4/CAN.c **** *
 906:Generated_Source\PSoC4/CAN.c **** * Parameters:
 907:Generated_Source\PSoC4/CAN.c **** *  opMode: Operation Mode value.
 908:Generated_Source\PSoC4/CAN.c **** *   Define                              Description
 909:Generated_Source\PSoC4/CAN.c **** *    CAN_STOP_MODE          The CAN controller is in the Stop mode
 910:Generated_Source\PSoC4/CAN.c **** *    CAN_ACTIVE_RUN_MODE    The CAN controller is in the Active
 911:Generated_Source\PSoC4/CAN.c **** *                                        mode
 912:Generated_Source\PSoC4/CAN.c **** *    CAN_LISTEN_ONLY_MODE   The CAN controller is in the Listen
ARM GAS  C:\Users\RYANCA~1\AppData\Local\Temp\ccuGCfpb.s 			page 29


 913:Generated_Source\PSoC4/CAN.c **** *                                        Only mode: The output is held at the
 914:Generated_Source\PSoC4/CAN.c **** *                                        'R' level.
 915:Generated_Source\PSoC4/CAN.c **** *    CAN_INTERNAL_LOOP_BACK The CAN controller is in the Internal
 916:Generated_Source\PSoC4/CAN.c **** *                                        Loopback mode. This mode is used for
 917:Generated_Source\PSoC4/CAN.c **** *                                        the testing purpose and the transmitted
 918:Generated_Source\PSoC4/CAN.c **** *                                        transactions are internally routed
 919:Generated_Source\PSoC4/CAN.c **** *                                        back to the receiver logic and
 920:Generated_Source\PSoC4/CAN.c **** *                                        processed by the controller in this
 921:Generated_Source\PSoC4/CAN.c **** *                                        mode. Not available for PSoC3/5.
 922:Generated_Source\PSoC4/CAN.c **** *    CAN_EXTERNAL_LOOP_BACK This mode is used for the testing
 923:Generated_Source\PSoC4/CAN.c **** *                                        purpose by connecting Tx and Rx lines
 924:Generated_Source\PSoC4/CAN.c **** *                                        externally. The transmitted messages
 925:Generated_Source\PSoC4/CAN.c **** *                                        are received back and processed by the
 926:Generated_Source\PSoC4/CAN.c **** *                                        CAN controller in this mode.
 927:Generated_Source\PSoC4/CAN.c **** *                                        Not available for PSoC3/5.
 928:Generated_Source\PSoC4/CAN.c **** * Return:
 929:Generated_Source\PSoC4/CAN.c **** *  The indication whether the register is written and verified.
 930:Generated_Source\PSoC4/CAN.c **** *   Define                             Description
 931:Generated_Source\PSoC4/CAN.c **** *    CYRET_SUCCESS                      The function passed successfully
 932:Generated_Source\PSoC4/CAN.c **** *    CAN_FAIL              The function failed
 933:Generated_Source\PSoC4/CAN.c **** *
 934:Generated_Source\PSoC4/CAN.c **** * Side Effects:
 935:Generated_Source\PSoC4/CAN.c **** *  For PSoC 4 device family the function re-initializes the CAN registers.
 936:Generated_Source\PSoC4/CAN.c **** *
 937:Generated_Source\PSoC4/CAN.c **** *******************************************************************************/
 938:Generated_Source\PSoC4/CAN.c **** uint8 CAN_SetOpMode(uint8 opMode) 
 939:Generated_Source\PSoC4/CAN.c **** {
 940:Generated_Source\PSoC4/CAN.c ****     #if (CY_PSOC3 || CY_PSOC5)
 941:Generated_Source\PSoC4/CAN.c ****         uint32 timeout;
 942:Generated_Source\PSoC4/CAN.c ****     #endif /* CY_PSOC3 || CY_PSOC5 */
 943:Generated_Source\PSoC4/CAN.c ****     uint8 result = CAN_FAIL;
 944:Generated_Source\PSoC4/CAN.c ****     uint8 runState = CAN_STOP_MODE;
 945:Generated_Source\PSoC4/CAN.c **** 
 946:Generated_Source\PSoC4/CAN.c ****     #if (CY_PSOC3 || CY_PSOC5)
 947:Generated_Source\PSoC4/CAN.c ****         if (((CAN_CMD_REG.byte[0u] & CAN_ACTIVE_RUN_MODE) != 0u) ||
 948:Generated_Source\PSoC4/CAN.c ****             (opMode == CAN_ACTIVE_RUN_MODE))
 949:Generated_Source\PSoC4/CAN.c ****         {
 950:Generated_Source\PSoC4/CAN.c ****             runState = CAN_ACTIVE_RUN_MODE;
 951:Generated_Source\PSoC4/CAN.c ****         }
 952:Generated_Source\PSoC4/CAN.c **** 
 953:Generated_Source\PSoC4/CAN.c ****         /* Set CAN to the Stop Mode */
 954:Generated_Source\PSoC4/CAN.c ****         CAN_CMD_REG.byte[0u] = CAN_STOP_MODE;
 955:Generated_Source\PSoC4/CAN.c **** 
 956:Generated_Source\PSoC4/CAN.c ****         /* Timeout for CAN state machine to switch mode to Stop */
 957:Generated_Source\PSoC4/CAN.c ****         for (timeout = CAN_MODE_STATE_STOP_TIMEOUT;
 958:Generated_Source\PSoC4/CAN.c ****             (timeout != 0u) && ((CAN_CMD_REG.byte[0u] & CAN_ACTIVE_RUN_MODE) != 0u);
 959:Generated_Source\PSoC4/CAN.c ****              timeout--)
 960:Generated_Source\PSoC4/CAN.c ****         {
 961:Generated_Source\PSoC4/CAN.c ****         }
 962:Generated_Source\PSoC4/CAN.c **** 
 963:Generated_Source\PSoC4/CAN.c ****         if (timeout != 0u)
 964:Generated_Source\PSoC4/CAN.c ****         {
 965:Generated_Source\PSoC4/CAN.c ****             result = CYRET_SUCCESS;
 966:Generated_Source\PSoC4/CAN.c ****         }
 967:Generated_Source\PSoC4/CAN.c **** 
 968:Generated_Source\PSoC4/CAN.c ****         if ((result == CYRET_SUCCESS) && (opMode != CAN_STOP_MODE))
 969:Generated_Source\PSoC4/CAN.c ****         {
ARM GAS  C:\Users\RYANCA~1\AppData\Local\Temp\ccuGCfpb.s 			page 30


 970:Generated_Source\PSoC4/CAN.c ****             if (opMode == CAN_LISTEN_ONLY_MODE)
 971:Generated_Source\PSoC4/CAN.c ****             {
 972:Generated_Source\PSoC4/CAN.c ****                 CAN_CMD_REG.byte[0u] = CAN_LISTEN_ONLY_MODE;
 973:Generated_Source\PSoC4/CAN.c ****             }
 974:Generated_Source\PSoC4/CAN.c **** 
 975:Generated_Source\PSoC4/CAN.c ****             if (runState == CAN_ACTIVE_RUN_MODE)
 976:Generated_Source\PSoC4/CAN.c ****             {
 977:Generated_Source\PSoC4/CAN.c ****                 CAN_CMD_REG.byte[0u] |= CAN_ACTIVE_RUN_MODE;
 978:Generated_Source\PSoC4/CAN.c **** 
 979:Generated_Source\PSoC4/CAN.c ****                 /* Timeout for CAN state machine to switch mode to Run */
 980:Generated_Source\PSoC4/CAN.c ****                 for (timeout = CAN_MODE_STATE_RUN_TIMEOUT;
 981:Generated_Source\PSoC4/CAN.c ****                     (timeout != 0u) && ((CAN_CMD_REG.byte[0u] & CAN_MODE_MASK) == 0u);
 982:Generated_Source\PSoC4/CAN.c ****                      timeout--)
 983:Generated_Source\PSoC4/CAN.c ****                 {
 984:Generated_Source\PSoC4/CAN.c ****                 }
 985:Generated_Source\PSoC4/CAN.c **** 
 986:Generated_Source\PSoC4/CAN.c ****                 if (timeout == 0u)
 987:Generated_Source\PSoC4/CAN.c ****                 {
 988:Generated_Source\PSoC4/CAN.c ****                     result = CAN_FAIL;
 989:Generated_Source\PSoC4/CAN.c ****                 }
 990:Generated_Source\PSoC4/CAN.c ****             }
 991:Generated_Source\PSoC4/CAN.c ****         }
 992:Generated_Source\PSoC4/CAN.c ****     #else  /* CY_PSOC4 */
 993:Generated_Source\PSoC4/CAN.c ****         if (((CAN_CMD_REG & CAN_MODE_MASK) != 0u) ||
 994:Generated_Source\PSoC4/CAN.c ****             (opMode == CAN_ACTIVE_RUN_MODE))
 995:Generated_Source\PSoC4/CAN.c ****         {
 996:Generated_Source\PSoC4/CAN.c ****             runState = CAN_ACTIVE_RUN_MODE;
 997:Generated_Source\PSoC4/CAN.c ****         }
 998:Generated_Source\PSoC4/CAN.c **** 
 999:Generated_Source\PSoC4/CAN.c ****         /* Sets CAN Component into the Stop mode */
1000:Generated_Source\PSoC4/CAN.c ****         if (CAN_Stop() == CYRET_SUCCESS)
1001:Generated_Source\PSoC4/CAN.c ****         {
1002:Generated_Source\PSoC4/CAN.c ****             /* Disable CAN IP Block to reset configuration before sets Operation Mode */
1003:Generated_Source\PSoC4/CAN.c ****             CAN_CNTL_REG = (uint32) (~CAN_IP_ENABLE);
1004:Generated_Source\PSoC4/CAN.c **** 
1005:Generated_Source\PSoC4/CAN.c ****             /* Enable CAN IP Block */
1006:Generated_Source\PSoC4/CAN.c ****             CAN_CNTL_REG = CAN_IP_ENABLE;
1007:Generated_Source\PSoC4/CAN.c **** 
1008:Generated_Source\PSoC4/CAN.c ****             result = CAN_Init();
1009:Generated_Source\PSoC4/CAN.c **** 
1010:Generated_Source\PSoC4/CAN.c ****             if ((result == CYRET_SUCCESS) && (opMode != CAN_STOP_MODE))
1011:Generated_Source\PSoC4/CAN.c ****             {
1012:Generated_Source\PSoC4/CAN.c ****                 if (opMode != CAN_ACTIVE_RUN_MODE)
1013:Generated_Source\PSoC4/CAN.c ****                 {
1014:Generated_Source\PSoC4/CAN.c ****                     /* Set CAN Operation Mode */
1015:Generated_Source\PSoC4/CAN.c ****                     CAN_CMD_REG |= opMode;
1016:Generated_Source\PSoC4/CAN.c ****                 }
1017:Generated_Source\PSoC4/CAN.c **** 
1018:Generated_Source\PSoC4/CAN.c ****                 if (runState == CAN_ACTIVE_RUN_MODE)
1019:Generated_Source\PSoC4/CAN.c ****                 {
1020:Generated_Source\PSoC4/CAN.c ****                     /* Enable component's operation */
1021:Generated_Source\PSoC4/CAN.c ****                     result = CAN_Enable();
1022:Generated_Source\PSoC4/CAN.c ****                 }
1023:Generated_Source\PSoC4/CAN.c ****             }
1024:Generated_Source\PSoC4/CAN.c ****         }
1025:Generated_Source\PSoC4/CAN.c ****     #endif /* CY_PSOC3 || CY_PSOC5 */
1026:Generated_Source\PSoC4/CAN.c **** 
ARM GAS  C:\Users\RYANCA~1\AppData\Local\Temp\ccuGCfpb.s 			page 31


1027:Generated_Source\PSoC4/CAN.c ****     return (result);
1028:Generated_Source\PSoC4/CAN.c **** }
1029:Generated_Source\PSoC4/CAN.c **** 
1030:Generated_Source\PSoC4/CAN.c **** 
1031:Generated_Source\PSoC4/CAN.c **** /*******************************************************************************
1032:Generated_Source\PSoC4/CAN.c **** * FUNCTION NAME:   CAN_RXRegisterInit
1033:Generated_Source\PSoC4/CAN.c **** ********************************************************************************
1034:Generated_Source\PSoC4/CAN.c **** *
1035:Generated_Source\PSoC4/CAN.c **** * Summary:
1036:Generated_Source\PSoC4/CAN.c **** *  This function writes only receive CAN registers.
1037:Generated_Source\PSoC4/CAN.c **** *
1038:Generated_Source\PSoC4/CAN.c **** * Parameters:
1039:Generated_Source\PSoC4/CAN.c **** *  regAddr: The pointer to a CAN receive register;
1040:Generated_Source\PSoC4/CAN.c **** *  config:  The value that will be written in the register.
1041:Generated_Source\PSoC4/CAN.c **** *
1042:Generated_Source\PSoC4/CAN.c **** * Return:
1043:Generated_Source\PSoC4/CAN.c **** *  The indication whether the register is written and verified.
1044:Generated_Source\PSoC4/CAN.c **** *   Define                             Description
1045:Generated_Source\PSoC4/CAN.c **** *    CYRET_SUCCESS                      The function passed successfully
1046:Generated_Source\PSoC4/CAN.c **** *    CAN_FAIL              The function failed
1047:Generated_Source\PSoC4/CAN.c **** *    CAN_OUT_OF_RANGE      The function parameter is out of range
1048:Generated_Source\PSoC4/CAN.c **** *
1049:Generated_Source\PSoC4/CAN.c **** *******************************************************************************/
1050:Generated_Source\PSoC4/CAN.c **** uint8 CAN_RXRegisterInit(reg32 *regAddr, uint32 config)
1051:Generated_Source\PSoC4/CAN.c ****                                       
1052:Generated_Source\PSoC4/CAN.c **** {
 642              		.loc 1 1052 0
 643              		.cfi_startproc
 644              		@ args = 0, pretend = 0, frame = 0
 645              		@ frame_needed = 0, uses_anonymous_args = 0
 646              	.LVL53:
1053:Generated_Source\PSoC4/CAN.c ****     uint8 result = CAN_OUT_OF_RANGE;
1054:Generated_Source\PSoC4/CAN.c **** 
1055:Generated_Source\PSoC4/CAN.c ****     if ((((uint32) regAddr & CAN_REG_ADDR_MASK) >=
 647              		.loc 1 1055 0
 648 0000 FE22     		movs	r2, #254
 649 0002 83B2     		uxth	r3, r0
 650 0004 A03B     		subs	r3, r3, #160
1052:Generated_Source\PSoC4/CAN.c ****     uint8 result = CAN_OUT_OF_RANGE;
 651              		.loc 1 1052 0
 652 0006 70B5     		push	{r4, r5, r6, lr}
 653              		.cfi_def_cfa_offset 16
 654              		.cfi_offset 4, -16
 655              		.cfi_offset 5, -12
 656              		.cfi_offset 6, -8
 657              		.cfi_offset 14, -4
 658              		.loc 1 1055 0
 659 0008 5200     		lsls	r2, r2, #1
1052:Generated_Source\PSoC4/CAN.c ****     uint8 result = CAN_OUT_OF_RANGE;
 660              		.loc 1 1052 0
 661 000a 0500     		movs	r5, r0
 662 000c 0C00     		movs	r4, r1
1053:Generated_Source\PSoC4/CAN.c ****     uint8 result = CAN_OUT_OF_RANGE;
 663              		.loc 1 1053 0
 664 000e 0220     		movs	r0, #2
 665              	.LVL54:
 666              		.loc 1 1055 0
ARM GAS  C:\Users\RYANCA~1\AppData\Local\Temp\ccuGCfpb.s 			page 32


 667 0010 9342     		cmp	r3, r2
 668 0012 1FD8     		bhi	.L62
 669              	.LVL55:
1056:Generated_Source\PSoC4/CAN.c ****         ((uint32) CAN_RX_FIRST_REGISTER_PTR & CAN_REG_ADDR_MASK)) &&
1057:Generated_Source\PSoC4/CAN.c ****         ((((uint32) regAddr & CAN_REG_ADDR_MASK)) <=
1058:Generated_Source\PSoC4/CAN.c ****         ((uint32) CAN_RX_LAST_REGISTER_PTR & CAN_REG_ADDR_MASK)))
1059:Generated_Source\PSoC4/CAN.c ****     {
1060:Generated_Source\PSoC4/CAN.c ****         result = CAN_FAIL;
1061:Generated_Source\PSoC4/CAN.c **** 
1062:Generated_Source\PSoC4/CAN.c ****         if ((((uint32) regAddr & CAN_REG_ADDR_MASK) % CAN_RX_CMD_REG_WIDTH) == 0u)
 670              		.loc 1 1062 0
 671 0014 EB06     		lsls	r3, r5, #27
 672 0016 10D1     		bne	.L63
1063:Generated_Source\PSoC4/CAN.c ****         {
1064:Generated_Source\PSoC4/CAN.c ****             config |= CAN_RX_WPN_SET;
 673              		.loc 1 1064 0
 674 0018 0F48     		ldr	r0, .L65
 675 001a 0443     		orrs	r4, r0
 676              	.LVL56:
1065:Generated_Source\PSoC4/CAN.c **** 
1066:Generated_Source\PSoC4/CAN.c ****     /* Disable isr */
1067:Generated_Source\PSoC4/CAN.c ****     CyIntDisable(CAN_ISR_NUMBER);
 677              		.loc 1 1067 0
 678 001c 1C20     		movs	r0, #28
 679 001e FFF7FEFF 		bl	CyIntDisable
 680              	.LVL57:
1068:Generated_Source\PSoC4/CAN.c **** 
1069:Generated_Source\PSoC4/CAN.c ****             /* Write defined RX CMD registers */
1070:Generated_Source\PSoC4/CAN.c ****             CY_SET_REG32(regAddr, config);
1071:Generated_Source\PSoC4/CAN.c **** 
1072:Generated_Source\PSoC4/CAN.c ****     /* Enable isr */
1073:Generated_Source\PSoC4/CAN.c ****     CyIntEnable(CAN_ISR_NUMBER);
 681              		.loc 1 1073 0
 682 0022 1C20     		movs	r0, #28
1070:Generated_Source\PSoC4/CAN.c **** 
 683              		.loc 1 1070 0
 684 0024 2C60     		str	r4, [r5]
 685              		.loc 1 1073 0
 686 0026 FFF7FEFF 		bl	CyIntEnable
 687              	.LVL58:
1074:Generated_Source\PSoC4/CAN.c **** 
1075:Generated_Source\PSoC4/CAN.c ****             /* Verify register */
1076:Generated_Source\PSoC4/CAN.c ****             if ((CY_GET_REG32(regAddr) & CAN_RX_READ_BACK_MASK) ==
 688              		.loc 1 1076 0
 689 002a 2868     		ldr	r0, [r5]
1053:Generated_Source\PSoC4/CAN.c **** 
 690              		.loc 1 1053 0
 691 002c 0B4B     		ldr	r3, .L65+4
 692 002e 6040     		eors	r0, r4
 693 0030 1840     		ands	r0, r3
 694 0032 431E     		subs	r3, r0, #1
 695 0034 9841     		sbcs	r0, r0, r3
 696 0036 C0B2     		uxtb	r0, r0
 697 0038 0CE0     		b	.L62
 698              	.LVL59:
 699              	.L63:
1077:Generated_Source\PSoC4/CAN.c ****                 (config & CAN_RX_READ_BACK_MASK))
ARM GAS  C:\Users\RYANCA~1\AppData\Local\Temp\ccuGCfpb.s 			page 33


1078:Generated_Source\PSoC4/CAN.c ****             {
1079:Generated_Source\PSoC4/CAN.c ****                 result = CYRET_SUCCESS;
1080:Generated_Source\PSoC4/CAN.c ****             }
1081:Generated_Source\PSoC4/CAN.c ****         }
1082:Generated_Source\PSoC4/CAN.c ****         /* All registers except RX CMD*/
1083:Generated_Source\PSoC4/CAN.c ****         else
1084:Generated_Source\PSoC4/CAN.c ****         {
1085:Generated_Source\PSoC4/CAN.c ****     /* Disable isr */
1086:Generated_Source\PSoC4/CAN.c ****     CyIntDisable(CAN_ISR_NUMBER);
 700              		.loc 1 1086 0
 701 003a 1C20     		movs	r0, #28
 702 003c FFF7FEFF 		bl	CyIntDisable
 703              	.LVL60:
1087:Generated_Source\PSoC4/CAN.c **** 
1088:Generated_Source\PSoC4/CAN.c ****             /* Write defined CAN receive register */
1089:Generated_Source\PSoC4/CAN.c ****             CY_SET_REG32(regAddr, config);
 704              		.loc 1 1089 0
 705 0040 2C60     		str	r4, [r5]
1090:Generated_Source\PSoC4/CAN.c **** 
1091:Generated_Source\PSoC4/CAN.c ****     /* Enable isr */
1092:Generated_Source\PSoC4/CAN.c ****     CyIntEnable(CAN_ISR_NUMBER);
 706              		.loc 1 1092 0
 707 0042 1C20     		movs	r0, #28
 708 0044 FFF7FEFF 		bl	CyIntEnable
 709              	.LVL61:
1093:Generated_Source\PSoC4/CAN.c **** 
1094:Generated_Source\PSoC4/CAN.c ****             /* Verify register */
1095:Generated_Source\PSoC4/CAN.c ****             if (CY_GET_REG32(regAddr) == config)
 710              		.loc 1 1095 0
 711 0048 2868     		ldr	r0, [r5]
1053:Generated_Source\PSoC4/CAN.c **** 
 712              		.loc 1 1053 0
 713 004a 201A     		subs	r0, r4, r0
 714 004c 0400     		movs	r4, r0
 715              	.LVL62:
 716 004e 601E     		subs	r0, r4, #1
 717 0050 8441     		sbcs	r4, r4, r0
 718 0052 E0B2     		uxtb	r0, r4
 719              	.LVL63:
 720              	.L62:
1096:Generated_Source\PSoC4/CAN.c ****             {
1097:Generated_Source\PSoC4/CAN.c ****                 result = CYRET_SUCCESS;
1098:Generated_Source\PSoC4/CAN.c ****             }
1099:Generated_Source\PSoC4/CAN.c ****         }
1100:Generated_Source\PSoC4/CAN.c ****     }
1101:Generated_Source\PSoC4/CAN.c **** 
1102:Generated_Source\PSoC4/CAN.c ****     return (result);
1103:Generated_Source\PSoC4/CAN.c **** }
 721              		.loc 1 1103 0
 722              		@ sp needed
 723              	.LVL64:
 724 0054 70BD     		pop	{r4, r5, r6, pc}
 725              	.L66:
 726 0056 C046     		.align	2
 727              	.L65:
 728 0058 80008000 		.word	8388736
 729 005c 7F007F00 		.word	8323199
ARM GAS  C:\Users\RYANCA~1\AppData\Local\Temp\ccuGCfpb.s 			page 34


 730              		.cfi_endproc
 731              	.LFE14:
 732              		.size	CAN_RXRegisterInit, .-CAN_RXRegisterInit
 733              		.section	.text.CAN_SetIrqMask,"ax",%progbits
 734              		.align	1
 735              		.global	CAN_SetIrqMask
 736              		.code	16
 737              		.thumb_func
 738              		.type	CAN_SetIrqMask, %function
 739              	CAN_SetIrqMask:
 740              	.LFB15:
1104:Generated_Source\PSoC4/CAN.c **** 
1105:Generated_Source\PSoC4/CAN.c **** 
1106:Generated_Source\PSoC4/CAN.c **** /*******************************************************************************
1107:Generated_Source\PSoC4/CAN.c **** * FUNCTION NAME:   CAN_SetIrqMask
1108:Generated_Source\PSoC4/CAN.c **** ********************************************************************************
1109:Generated_Source\PSoC4/CAN.c **** *
1110:Generated_Source\PSoC4/CAN.c **** * Summary:
1111:Generated_Source\PSoC4/CAN.c **** *  This function sets to enable/disable particular interrupt sources. Interrupt
1112:Generated_Source\PSoC4/CAN.c **** *  Mask directly write to the CAN Interrupt Enable register. A particular
1113:Generated_Source\PSoC4/CAN.c **** *  interrupt source is enabled by setting its respective flag to 1.
1114:Generated_Source\PSoC4/CAN.c **** *
1115:Generated_Source\PSoC4/CAN.c **** * Parameters:
1116:Generated_Source\PSoC4/CAN.c **** *  mask: Interrupt enable/disable request. 1 bit per interrupt source.
1117:Generated_Source\PSoC4/CAN.c **** *   Define                                    Description
1118:Generated_Source\PSoC4/CAN.c **** *    CAN_GLOBAL_INT_ENABLE        Global Interrupt Enable Flag
1119:Generated_Source\PSoC4/CAN.c **** *    CAN_ARBITRATION_LOST_ENABLE  Arbitration Loss Interrupt Enable
1120:Generated_Source\PSoC4/CAN.c **** *    CAN_OVERLOAD_ERROR_ENABLE    Overload Interrupt Enable
1121:Generated_Source\PSoC4/CAN.c **** *    CAN_BIT_ERROR_ENABLE         Bit Error Interrupt Enable
1122:Generated_Source\PSoC4/CAN.c **** *    CAN_STUFF_ERROR_ENABLE       Stuff Error Interrupt Enable
1123:Generated_Source\PSoC4/CAN.c **** *    CAN_ACK_ERROR_ENABLE         Ack Error Interrupt Enable
1124:Generated_Source\PSoC4/CAN.c **** *    CAN_FORM_ERROR_ENABLE        Form Error Interrupt Enable
1125:Generated_Source\PSoC4/CAN.c **** *    CAN_CRC_ERROR_ENABLE         CRC Error Interrupt Enable
1126:Generated_Source\PSoC4/CAN.c **** *    CAN_BUS_OFF_ENABLE           Bus-Off State Interrupt Enable
1127:Generated_Source\PSoC4/CAN.c **** *    CAN_RX_MSG_LOST_ENABLE       Rx Msg Loss Interrupt Enable
1128:Generated_Source\PSoC4/CAN.c **** *    CAN_TX_MESSAGE_ENABLE        Tx Msg Sent Interrupt Enable
1129:Generated_Source\PSoC4/CAN.c **** *    CAN_RX_MESSAGE_ENABLE        Msg Received Interrupt Enable
1130:Generated_Source\PSoC4/CAN.c **** *    CAN_RTR_MESSAGE_ENABLE       RTR Auto-reply Interrupt Enable
1131:Generated_Source\PSoC4/CAN.c **** *    CAN_STUCK_AT_ZERO_ENABLE     Stuck at dominant error Interrupt
1132:Generated_Source\PSoC4/CAN.c **** *                                              Enable
1133:Generated_Source\PSoC4/CAN.c **** *    CAN_SST_FAILURE_ENABLE       SST failure Interrupt Enable
1134:Generated_Source\PSoC4/CAN.c **** *
1135:Generated_Source\PSoC4/CAN.c **** * Return:
1136:Generated_Source\PSoC4/CAN.c **** *  The indication whether the register is written and verified.
1137:Generated_Source\PSoC4/CAN.c **** *   Define                             Description
1138:Generated_Source\PSoC4/CAN.c **** *    CYRET_SUCCESS                      The function passed successfully
1139:Generated_Source\PSoC4/CAN.c **** *    CAN_FAIL              The function failed
1140:Generated_Source\PSoC4/CAN.c **** *
1141:Generated_Source\PSoC4/CAN.c **** *******************************************************************************/
1142:Generated_Source\PSoC4/CAN.c **** uint8 CAN_SetIrqMask(uint16 mask) 
1143:Generated_Source\PSoC4/CAN.c **** {
 741              		.loc 1 1143 0
 742              		.cfi_startproc
 743              		@ args = 0, pretend = 0, frame = 0
 744              		@ frame_needed = 0, uses_anonymous_args = 0
 745              		@ link register save eliminated.
 746              	.LVL65:
ARM GAS  C:\Users\RYANCA~1\AppData\Local\Temp\ccuGCfpb.s 			page 35


1144:Generated_Source\PSoC4/CAN.c ****     uint8 result = CAN_FAIL;
1145:Generated_Source\PSoC4/CAN.c **** 
1146:Generated_Source\PSoC4/CAN.c ****     #if (CY_PSOC3 || CY_PSOC5)
1147:Generated_Source\PSoC4/CAN.c ****         /* Write byte 0 and 1 of CAN_INT_EN_REG register */
1148:Generated_Source\PSoC4/CAN.c ****         CY_SET_REG16((reg16 *) (&CAN_INT_EN_REG), mask);
1149:Generated_Source\PSoC4/CAN.c **** 
1150:Generated_Source\PSoC4/CAN.c ****         /* Verify CAN_INT_EN_REG register */
1151:Generated_Source\PSoC4/CAN.c ****         if (CY_GET_REG16((reg16 *) (&CAN_INT_EN_REG)) == mask)
1152:Generated_Source\PSoC4/CAN.c ****         {
1153:Generated_Source\PSoC4/CAN.c ****             result = CYRET_SUCCESS;
1154:Generated_Source\PSoC4/CAN.c ****         }
1155:Generated_Source\PSoC4/CAN.c ****     #else  /* CY_PSOC4 */
1156:Generated_Source\PSoC4/CAN.c ****         /* Write byte 0 and 1 of CAN_INT_EN_REG register */
1157:Generated_Source\PSoC4/CAN.c ****         CAN_INT_EN_REG = mask;
 747              		.loc 1 1157 0
 748 0000 044B     		ldr	r3, .L68
1158:Generated_Source\PSoC4/CAN.c **** 
1159:Generated_Source\PSoC4/CAN.c ****         /* Verify CAN_INT_EN_REG register */
1160:Generated_Source\PSoC4/CAN.c ****         if ((CAN_INT_EN_REG & CAN_REG_ADDR_MASK) == mask)
1161:Generated_Source\PSoC4/CAN.c ****         {
1162:Generated_Source\PSoC4/CAN.c ****             result = CYRET_SUCCESS;
1163:Generated_Source\PSoC4/CAN.c ****         }
1164:Generated_Source\PSoC4/CAN.c ****     #endif /* CY_PSOC3 || CY_PSOC5 */
1165:Generated_Source\PSoC4/CAN.c **** 
1166:Generated_Source\PSoC4/CAN.c ****     return (result);
1167:Generated_Source\PSoC4/CAN.c **** }
 749              		.loc 1 1167 0
 750              		@ sp needed
1157:Generated_Source\PSoC4/CAN.c **** 
 751              		.loc 1 1157 0
 752 0002 1860     		str	r0, [r3]
1160:Generated_Source\PSoC4/CAN.c ****         {
 753              		.loc 1 1160 0
 754 0004 1B68     		ldr	r3, [r3]
 755              	.LVL66:
1166:Generated_Source\PSoC4/CAN.c **** }
 756              		.loc 1 1166 0
 757 0006 9BB2     		uxth	r3, r3
 758              	.LVL67:
 759 0008 181A     		subs	r0, r3, r0
 760              	.LVL68:
 761 000a 431E     		subs	r3, r0, #1
 762 000c 9841     		sbcs	r0, r0, r3
 763 000e C0B2     		uxtb	r0, r0
 764              		.loc 1 1167 0
 765 0010 7047     		bx	lr
 766              	.L69:
 767 0012 C046     		.align	2
 768              	.L68:
 769 0014 04002F40 		.word	1076822020
 770              		.cfi_endproc
 771              	.LFE15:
 772              		.size	CAN_SetIrqMask, .-CAN_SetIrqMask
 773              		.section	.text.CAN_GetTXErrorFlag,"ax",%progbits
 774              		.align	1
 775              		.global	CAN_GetTXErrorFlag
 776              		.code	16
ARM GAS  C:\Users\RYANCA~1\AppData\Local\Temp\ccuGCfpb.s 			page 36


 777              		.thumb_func
 778              		.type	CAN_GetTXErrorFlag, %function
 779              	CAN_GetTXErrorFlag:
 780              	.LFB16:
1168:Generated_Source\PSoC4/CAN.c **** 
1169:Generated_Source\PSoC4/CAN.c **** 
1170:Generated_Source\PSoC4/CAN.c **** /*******************************************************************************
1171:Generated_Source\PSoC4/CAN.c **** * FUNCTION NAME:   CAN_GetTXErrorFlag
1172:Generated_Source\PSoC4/CAN.c **** ********************************************************************************
1173:Generated_Source\PSoC4/CAN.c **** *
1174:Generated_Source\PSoC4/CAN.c **** * Summary:
1175:Generated_Source\PSoC4/CAN.c **** *  This function returns the bit that indicates if the number of TX errors
1176:Generated_Source\PSoC4/CAN.c **** *  exceeds 0x60.
1177:Generated_Source\PSoC4/CAN.c **** *
1178:Generated_Source\PSoC4/CAN.c **** * Parameters:
1179:Generated_Source\PSoC4/CAN.c **** *  None.
1180:Generated_Source\PSoC4/CAN.c **** *
1181:Generated_Source\PSoC4/CAN.c **** * Return:
1182:Generated_Source\PSoC4/CAN.c **** *  The indication whether the number of TX errors exceeds 0x60.
1183:Generated_Source\PSoC4/CAN.c **** *
1184:Generated_Source\PSoC4/CAN.c **** *******************************************************************************/
1185:Generated_Source\PSoC4/CAN.c **** uint8 CAN_GetTXErrorFlag(void) 
1186:Generated_Source\PSoC4/CAN.c **** {
 781              		.loc 1 1186 0
 782              		.cfi_startproc
 783              		@ args = 0, pretend = 0, frame = 0
 784              		@ frame_needed = 0, uses_anonymous_args = 0
 785              		@ link register save eliminated.
1187:Generated_Source\PSoC4/CAN.c ****     #if (CY_PSOC3 || CY_PSOC5)
1188:Generated_Source\PSoC4/CAN.c ****         /* Get state of transmit error flag */
1189:Generated_Source\PSoC4/CAN.c ****         return (((CAN_ERR_SR_REG.byte[2u] & CAN_TX_ERROR_FLAG_MASK) ==
1190:Generated_Source\PSoC4/CAN.c ****                   CAN_TX_ERROR_FLAG_MASK) ? 1u : 0u);
1191:Generated_Source\PSoC4/CAN.c ****     #else  /* CY_PSOC4 */
1192:Generated_Source\PSoC4/CAN.c ****         /* Get state of transmit error flag */
1193:Generated_Source\PSoC4/CAN.c ****         return (((CAN_ERR_SR_REG & CAN_TX_ERROR_FLAG_MASK) ==
 786              		.loc 1 1193 0
 787 0000 024B     		ldr	r3, .L71
1194:Generated_Source\PSoC4/CAN.c ****                   CAN_TX_ERROR_FLAG_MASK) ? 1u : 0u);
1195:Generated_Source\PSoC4/CAN.c ****     #endif /* CY_PSOC3 || CY_PSOC5 */
1196:Generated_Source\PSoC4/CAN.c **** 
1197:Generated_Source\PSoC4/CAN.c **** }
 788              		.loc 1 1197 0
 789              		@ sp needed
1193:Generated_Source\PSoC4/CAN.c ****                   CAN_TX_ERROR_FLAG_MASK) ? 1u : 0u);
 790              		.loc 1 1193 0
 791 0002 1868     		ldr	r0, [r3]
 792 0004 4003     		lsls	r0, r0, #13
 793 0006 C00F     		lsrs	r0, r0, #31
 794              		.loc 1 1197 0
 795 0008 7047     		bx	lr
 796              	.L72:
 797 000a C046     		.align	2
 798              	.L71:
 799 000c 0C002F40 		.word	1076822028
 800              		.cfi_endproc
 801              	.LFE16:
 802              		.size	CAN_GetTXErrorFlag, .-CAN_GetTXErrorFlag
ARM GAS  C:\Users\RYANCA~1\AppData\Local\Temp\ccuGCfpb.s 			page 37


 803              		.section	.text.CAN_GetRXErrorFlag,"ax",%progbits
 804              		.align	1
 805              		.global	CAN_GetRXErrorFlag
 806              		.code	16
 807              		.thumb_func
 808              		.type	CAN_GetRXErrorFlag, %function
 809              	CAN_GetRXErrorFlag:
 810              	.LFB17:
1198:Generated_Source\PSoC4/CAN.c **** 
1199:Generated_Source\PSoC4/CAN.c **** 
1200:Generated_Source\PSoC4/CAN.c **** /*******************************************************************************
1201:Generated_Source\PSoC4/CAN.c **** * FUNCTION NAME:   CAN_GetRXErrorFlag
1202:Generated_Source\PSoC4/CAN.c **** ********************************************************************************
1203:Generated_Source\PSoC4/CAN.c **** *
1204:Generated_Source\PSoC4/CAN.c **** * Summary:
1205:Generated_Source\PSoC4/CAN.c **** *  This function returns the bit that indicates if the number of RX errors
1206:Generated_Source\PSoC4/CAN.c **** *  exceeds 0x60.
1207:Generated_Source\PSoC4/CAN.c **** *
1208:Generated_Source\PSoC4/CAN.c **** * Parameters:
1209:Generated_Source\PSoC4/CAN.c **** *  None.
1210:Generated_Source\PSoC4/CAN.c **** *
1211:Generated_Source\PSoC4/CAN.c **** * Return:
1212:Generated_Source\PSoC4/CAN.c **** *  The indication whether the number of TX errors exceeds 0x60.
1213:Generated_Source\PSoC4/CAN.c **** *
1214:Generated_Source\PSoC4/CAN.c **** *******************************************************************************/
1215:Generated_Source\PSoC4/CAN.c **** uint8 CAN_GetRXErrorFlag(void) 
1216:Generated_Source\PSoC4/CAN.c **** {
 811              		.loc 1 1216 0
 812              		.cfi_startproc
 813              		@ args = 0, pretend = 0, frame = 0
 814              		@ frame_needed = 0, uses_anonymous_args = 0
 815              		@ link register save eliminated.
1217:Generated_Source\PSoC4/CAN.c ****     #if (CY_PSOC3 || CY_PSOC5)
1218:Generated_Source\PSoC4/CAN.c ****         /* Get state of receive error flag */
1219:Generated_Source\PSoC4/CAN.c ****         return (((CAN_ERR_SR_REG.byte[2u] & CAN_RX_ERROR_FLAG_MASK) ==
1220:Generated_Source\PSoC4/CAN.c ****                   CAN_RX_ERROR_FLAG_MASK) ? 1u : 0u);
1221:Generated_Source\PSoC4/CAN.c ****     #else  /* CY_PSOC4 */
1222:Generated_Source\PSoC4/CAN.c ****         /* Get state of receive error flag */
1223:Generated_Source\PSoC4/CAN.c ****         return (((CAN_ERR_SR_REG & CAN_RX_ERROR_FLAG_MASK) ==
 816              		.loc 1 1223 0
 817 0000 024B     		ldr	r3, .L74
1224:Generated_Source\PSoC4/CAN.c ****                   CAN_RX_ERROR_FLAG_MASK) ? 1u : 0u);
1225:Generated_Source\PSoC4/CAN.c ****     #endif /* CY_PSOC3 || CY_PSOC5 */
1226:Generated_Source\PSoC4/CAN.c **** 
1227:Generated_Source\PSoC4/CAN.c **** }
 818              		.loc 1 1227 0
 819              		@ sp needed
1223:Generated_Source\PSoC4/CAN.c ****                   CAN_RX_ERROR_FLAG_MASK) ? 1u : 0u);
 820              		.loc 1 1223 0
 821 0002 1868     		ldr	r0, [r3]
 822 0004 0003     		lsls	r0, r0, #12
 823 0006 C00F     		lsrs	r0, r0, #31
 824              		.loc 1 1227 0
 825 0008 7047     		bx	lr
 826              	.L75:
 827 000a C046     		.align	2
 828              	.L74:
ARM GAS  C:\Users\RYANCA~1\AppData\Local\Temp\ccuGCfpb.s 			page 38


 829 000c 0C002F40 		.word	1076822028
 830              		.cfi_endproc
 831              	.LFE17:
 832              		.size	CAN_GetRXErrorFlag, .-CAN_GetRXErrorFlag
 833              		.section	.text.CAN_GetTXErrorCount,"ax",%progbits
 834              		.align	1
 835              		.global	CAN_GetTXErrorCount
 836              		.code	16
 837              		.thumb_func
 838              		.type	CAN_GetTXErrorCount, %function
 839              	CAN_GetTXErrorCount:
 840              	.LFB18:
1228:Generated_Source\PSoC4/CAN.c **** 
1229:Generated_Source\PSoC4/CAN.c **** 
1230:Generated_Source\PSoC4/CAN.c **** /*******************************************************************************
1231:Generated_Source\PSoC4/CAN.c **** * FUNCTION NAME:   CAN_GetTXErrorCount
1232:Generated_Source\PSoC4/CAN.c **** ********************************************************************************
1233:Generated_Source\PSoC4/CAN.c **** *
1234:Generated_Source\PSoC4/CAN.c **** * Summary:
1235:Generated_Source\PSoC4/CAN.c **** *  This function returns the number of Transmit Errors.
1236:Generated_Source\PSoC4/CAN.c **** *
1237:Generated_Source\PSoC4/CAN.c **** * Parameters:
1238:Generated_Source\PSoC4/CAN.c **** *  None.
1239:Generated_Source\PSoC4/CAN.c **** *
1240:Generated_Source\PSoC4/CAN.c **** * Return:
1241:Generated_Source\PSoC4/CAN.c **** *  The number of Transmit Errors.
1242:Generated_Source\PSoC4/CAN.c **** *
1243:Generated_Source\PSoC4/CAN.c **** *******************************************************************************/
1244:Generated_Source\PSoC4/CAN.c **** uint8 CAN_GetTXErrorCount(void) 
1245:Generated_Source\PSoC4/CAN.c **** {
 841              		.loc 1 1245 0
 842              		.cfi_startproc
 843              		@ args = 0, pretend = 0, frame = 0
 844              		@ frame_needed = 0, uses_anonymous_args = 0
 845              		@ link register save eliminated.
1246:Generated_Source\PSoC4/CAN.c ****     #if (CY_PSOC3 || CY_PSOC5)
1247:Generated_Source\PSoC4/CAN.c ****         /* Get state of transmit error count */
1248:Generated_Source\PSoC4/CAN.c ****         return (CAN_ERR_SR_REG.byte[0u]);    /* bits 7-0 */
1249:Generated_Source\PSoC4/CAN.c ****     #else  /* CY_PSOC4 */
1250:Generated_Source\PSoC4/CAN.c ****         /* Get state of transmit error count */
1251:Generated_Source\PSoC4/CAN.c ****         return ((uint8) CAN_ERR_SR_REG);    /* bits 7-0 */
 846              		.loc 1 1251 0
 847 0000 014B     		ldr	r3, .L77
1252:Generated_Source\PSoC4/CAN.c ****     #endif /* CY_PSOC3 || CY_PSOC5 */
1253:Generated_Source\PSoC4/CAN.c **** }
 848              		.loc 1 1253 0
 849              		@ sp needed
1251:Generated_Source\PSoC4/CAN.c ****     #endif /* CY_PSOC3 || CY_PSOC5 */
 850              		.loc 1 1251 0
 851 0002 1868     		ldr	r0, [r3]
 852 0004 C0B2     		uxtb	r0, r0
 853              		.loc 1 1253 0
 854 0006 7047     		bx	lr
 855              	.L78:
 856              		.align	2
 857              	.L77:
 858 0008 0C002F40 		.word	1076822028
ARM GAS  C:\Users\RYANCA~1\AppData\Local\Temp\ccuGCfpb.s 			page 39


 859              		.cfi_endproc
 860              	.LFE18:
 861              		.size	CAN_GetTXErrorCount, .-CAN_GetTXErrorCount
 862              		.section	.text.CAN_GetRXErrorCount,"ax",%progbits
 863              		.align	1
 864              		.global	CAN_GetRXErrorCount
 865              		.code	16
 866              		.thumb_func
 867              		.type	CAN_GetRXErrorCount, %function
 868              	CAN_GetRXErrorCount:
 869              	.LFB19:
1254:Generated_Source\PSoC4/CAN.c **** 
1255:Generated_Source\PSoC4/CAN.c **** 
1256:Generated_Source\PSoC4/CAN.c **** /*******************************************************************************
1257:Generated_Source\PSoC4/CAN.c **** * FUNCTION NAME:   CAN_GetRXErrorCount
1258:Generated_Source\PSoC4/CAN.c **** ********************************************************************************
1259:Generated_Source\PSoC4/CAN.c **** *
1260:Generated_Source\PSoC4/CAN.c **** * Summary:
1261:Generated_Source\PSoC4/CAN.c **** *  This function returns the number of Receive Errors.
1262:Generated_Source\PSoC4/CAN.c **** *
1263:Generated_Source\PSoC4/CAN.c **** * Parameters:
1264:Generated_Source\PSoC4/CAN.c **** *  None.
1265:Generated_Source\PSoC4/CAN.c **** *
1266:Generated_Source\PSoC4/CAN.c **** * Return:
1267:Generated_Source\PSoC4/CAN.c **** *  The number of Receive Errors.
1268:Generated_Source\PSoC4/CAN.c **** *
1269:Generated_Source\PSoC4/CAN.c **** *******************************************************************************/
1270:Generated_Source\PSoC4/CAN.c **** uint8 CAN_GetRXErrorCount(void) 
1271:Generated_Source\PSoC4/CAN.c **** {
 870              		.loc 1 1271 0
 871              		.cfi_startproc
 872              		@ args = 0, pretend = 0, frame = 0
 873              		@ frame_needed = 0, uses_anonymous_args = 0
 874              		@ link register save eliminated.
1272:Generated_Source\PSoC4/CAN.c ****     #if (CY_PSOC3 || CY_PSOC5)
1273:Generated_Source\PSoC4/CAN.c ****         /* Get state of receive error count */
1274:Generated_Source\PSoC4/CAN.c ****         return (CAN_ERR_SR_REG.byte[1u]);    /* bits 15-8 */
1275:Generated_Source\PSoC4/CAN.c ****     #else  /* CY_PSOC4 */
1276:Generated_Source\PSoC4/CAN.c ****         /* Get state of receive error count (bits 15-8) */
1277:Generated_Source\PSoC4/CAN.c ****         return ((uint8) (CAN_ERR_SR_REG >> CAN_ONE_BYTE_OFFSET));
 875              		.loc 1 1277 0
 876 0000 024B     		ldr	r3, .L80
1278:Generated_Source\PSoC4/CAN.c ****     #endif /* CY_PSOC3 || CY_PSOC5 */
1279:Generated_Source\PSoC4/CAN.c **** 
1280:Generated_Source\PSoC4/CAN.c **** }
 877              		.loc 1 1280 0
 878              		@ sp needed
1277:Generated_Source\PSoC4/CAN.c ****     #endif /* CY_PSOC3 || CY_PSOC5 */
 879              		.loc 1 1277 0
 880 0002 1868     		ldr	r0, [r3]
 881 0004 000A     		lsrs	r0, r0, #8
 882 0006 C0B2     		uxtb	r0, r0
 883              		.loc 1 1280 0
 884 0008 7047     		bx	lr
 885              	.L81:
 886 000a C046     		.align	2
 887              	.L80:
ARM GAS  C:\Users\RYANCA~1\AppData\Local\Temp\ccuGCfpb.s 			page 40


 888 000c 0C002F40 		.word	1076822028
 889              		.cfi_endproc
 890              	.LFE19:
 891              		.size	CAN_GetRXErrorCount, .-CAN_GetRXErrorCount
 892              		.section	.text.CAN_GetErrorState,"ax",%progbits
 893              		.align	1
 894              		.global	CAN_GetErrorState
 895              		.code	16
 896              		.thumb_func
 897              		.type	CAN_GetErrorState, %function
 898              	CAN_GetErrorState:
 899              	.LFB20:
1281:Generated_Source\PSoC4/CAN.c **** 
1282:Generated_Source\PSoC4/CAN.c **** 
1283:Generated_Source\PSoC4/CAN.c **** /*******************************************************************************
1284:Generated_Source\PSoC4/CAN.c **** * FUNCTION NAME:   CAN_GetErrorState
1285:Generated_Source\PSoC4/CAN.c **** ********************************************************************************
1286:Generated_Source\PSoC4/CAN.c **** *
1287:Generated_Source\PSoC4/CAN.c **** * Summary:
1288:Generated_Source\PSoC4/CAN.c **** *  This function returns the error status of CAN Component.
1289:Generated_Source\PSoC4/CAN.c **** *
1290:Generated_Source\PSoC4/CAN.c **** * Parameters:
1291:Generated_Source\PSoC4/CAN.c **** *  None.
1292:Generated_Source\PSoC4/CAN.c **** *
1293:Generated_Source\PSoC4/CAN.c **** * Return:
1294:Generated_Source\PSoC4/CAN.c **** *  The error status.
1295:Generated_Source\PSoC4/CAN.c **** *
1296:Generated_Source\PSoC4/CAN.c **** *******************************************************************************/
1297:Generated_Source\PSoC4/CAN.c **** uint8 CAN_GetErrorState(void) 
1298:Generated_Source\PSoC4/CAN.c **** {
 900              		.loc 1 1298 0
 901              		.cfi_startproc
 902              		@ args = 0, pretend = 0, frame = 0
 903              		@ frame_needed = 0, uses_anonymous_args = 0
 904              		@ link register save eliminated.
1299:Generated_Source\PSoC4/CAN.c ****     #if (CY_PSOC3 || CY_PSOC5)
1300:Generated_Source\PSoC4/CAN.c ****         /* Get error state of receiver */
1301:Generated_Source\PSoC4/CAN.c ****         return (CAN_ERR_SR_REG.byte[2u] & CAN_ERROR_STATE_MASK);
1302:Generated_Source\PSoC4/CAN.c ****     #else  /* CY_PSOC4 */
1303:Generated_Source\PSoC4/CAN.c ****         /* Get error state of receiver */
1304:Generated_Source\PSoC4/CAN.c ****         return ((uint8) ((CAN_ERR_SR_REG >> CAN_TWO_BYTE_OFFSET) &
 905              		.loc 1 1304 0
 906 0000 024B     		ldr	r3, .L83
1305:Generated_Source\PSoC4/CAN.c ****                 CAN_ERROR_STATE_MASK));
1306:Generated_Source\PSoC4/CAN.c ****     #endif /* CY_PSOC3 || CY_PSOC5 */
1307:Generated_Source\PSoC4/CAN.c **** }
 907              		.loc 1 1307 0
 908              		@ sp needed
1304:Generated_Source\PSoC4/CAN.c ****                 CAN_ERROR_STATE_MASK));
 909              		.loc 1 1304 0
 910 0002 1868     		ldr	r0, [r3]
 911 0004 8003     		lsls	r0, r0, #14
 912 0006 800F     		lsrs	r0, r0, #30
 913              		.loc 1 1307 0
 914 0008 7047     		bx	lr
 915              	.L84:
 916 000a C046     		.align	2
ARM GAS  C:\Users\RYANCA~1\AppData\Local\Temp\ccuGCfpb.s 			page 41


 917              	.L83:
 918 000c 0C002F40 		.word	1076822028
 919              		.cfi_endproc
 920              	.LFE20:
 921              		.size	CAN_GetErrorState, .-CAN_GetErrorState
 922              		.section	.text.CAN_RxBufConfig,"ax",%progbits
 923              		.align	1
 924              		.global	CAN_RxBufConfig
 925              		.code	16
 926              		.thumb_func
 927              		.type	CAN_RxBufConfig, %function
 928              	CAN_RxBufConfig:
 929              	.LFB21:
1308:Generated_Source\PSoC4/CAN.c **** 
1309:Generated_Source\PSoC4/CAN.c **** 
1310:Generated_Source\PSoC4/CAN.c **** /*******************************************************************************
1311:Generated_Source\PSoC4/CAN.c **** * FUNCTION NAME:   CAN_RxBufConfig
1312:Generated_Source\PSoC4/CAN.c **** ********************************************************************************
1313:Generated_Source\PSoC4/CAN.c **** *
1314:Generated_Source\PSoC4/CAN.c **** * Summary:
1315:Generated_Source\PSoC4/CAN.c **** *  This function configures all receive registers for a particular mailbox.
1316:Generated_Source\PSoC4/CAN.c **** *
1317:Generated_Source\PSoC4/CAN.c **** * Parameters:
1318:Generated_Source\PSoC4/CAN.c **** *  rxConfig: The pointer to a structure that contain all required values to
1319:Generated_Source\PSoC4/CAN.c **** *  configure all receive registers for a particular mailbox.
1320:Generated_Source\PSoC4/CAN.c **** *
1321:Generated_Source\PSoC4/CAN.c **** * Return:
1322:Generated_Source\PSoC4/CAN.c **** *  The indication if particular configuration has been accepted or rejected.
1323:Generated_Source\PSoC4/CAN.c **** *   Define                             Description
1324:Generated_Source\PSoC4/CAN.c **** *    CYRET_SUCCESS                      The function passed successfully
1325:Generated_Source\PSoC4/CAN.c **** *    CAN_FAIL              The function failed
1326:Generated_Source\PSoC4/CAN.c **** *
1327:Generated_Source\PSoC4/CAN.c **** *******************************************************************************/
1328:Generated_Source\PSoC4/CAN.c **** uint8 CAN_RxBufConfig(const CAN_RX_CFG *rxConfig)
1329:Generated_Source\PSoC4/CAN.c ****                                    
1330:Generated_Source\PSoC4/CAN.c **** {
 930              		.loc 1 1330 0
 931              		.cfi_startproc
 932              		@ args = 0, pretend = 0, frame = 0
 933              		@ frame_needed = 0, uses_anonymous_args = 0
 934              	.LVL69:
 935 0000 10B5     		push	{r4, lr}
 936              		.cfi_def_cfa_offset 8
 937              		.cfi_offset 4, -8
 938              		.cfi_offset 14, -4
1331:Generated_Source\PSoC4/CAN.c ****     uint8 result = CAN_FAIL;
1332:Generated_Source\PSoC4/CAN.c **** 
1333:Generated_Source\PSoC4/CAN.c ****     /* Write RX CMD Register */
1334:Generated_Source\PSoC4/CAN.c ****     CY_SET_REG32((reg32 *) (&CAN_RX[rxConfig->rxmailbox].rxcmd), (rxConfig->rxcmd |
 939              		.loc 1 1334 0
 940 0002 0378     		ldrb	r3, [r0]
 941 0004 1E4A     		ldr	r2, .L89
 942 0006 5B01     		lsls	r3, r3, #5
 943 0008 9B18     		adds	r3, r3, r2
 944 000a 4168     		ldr	r1, [r0, #4]
 945 000c 1D4A     		ldr	r2, .L89+4
 946 000e 0A43     		orrs	r2, r1
ARM GAS  C:\Users\RYANCA~1\AppData\Local\Temp\ccuGCfpb.s 			page 42


 947 0010 1A60     		str	r2, [r3]
1335:Generated_Source\PSoC4/CAN.c ****                  CAN_RX_WPN_SET));
1336:Generated_Source\PSoC4/CAN.c ****     if ((CY_GET_REG32((reg32 *) (&CAN_RX[rxConfig->rxmailbox].rxcmd)) &
 948              		.loc 1 1336 0
 949 0012 0378     		ldrb	r3, [r0]
 950 0014 1A4A     		ldr	r2, .L89
 951 0016 5B01     		lsls	r3, r3, #5
 952 0018 9B18     		adds	r3, r3, r2
 953 001a 1968     		ldr	r1, [r3]
 954 001c 1A4A     		ldr	r2, .L89+8
 955 001e 4468     		ldr	r4, [r0, #4]
 956 0020 1140     		ands	r1, r2
 957 0022 1A4A     		ldr	r2, .L89+12
 958 0024 2240     		ands	r2, r4
 959 0026 9142     		cmp	r1, r2
 960 0028 01D0     		beq	.L86
 961              	.L88:
1331:Generated_Source\PSoC4/CAN.c ****     uint8 result = CAN_FAIL;
 962              		.loc 1 1331 0
 963 002a 0120     		movs	r0, #1
 964              	.LVL70:
 965 002c 27E0     		b	.L87
 966              	.LVL71:
 967              	.L86:
1337:Generated_Source\PSoC4/CAN.c ****          CAN_RX_READ_BACK_MASK) == (rxConfig->rxcmd & CAN_RX_WPN_CLEAR))
1338:Generated_Source\PSoC4/CAN.c ****     {
1339:Generated_Source\PSoC4/CAN.c ****         /* Write RX AMR Register */
1340:Generated_Source\PSoC4/CAN.c ****         CY_SET_REG32((reg32 *) (&CAN_RX[rxConfig->rxmailbox].rxamr), rxConfig->rxamr);
 968              		.loc 1 1340 0
 969 002e 8268     		ldr	r2, [r0, #8]
 970 0030 1A61     		str	r2, [r3, #16]
1341:Generated_Source\PSoC4/CAN.c ****         if (CY_GET_REG32((reg32 *) (&CAN_RX[rxConfig->rxmailbox].rxamr)) == rxConfig->rxamr)
 971              		.loc 1 1341 0
 972 0032 0378     		ldrb	r3, [r0]
 973 0034 124A     		ldr	r2, .L89
 974 0036 5B01     		lsls	r3, r3, #5
 975 0038 9B18     		adds	r3, r3, r2
 976 003a 1A69     		ldr	r2, [r3, #16]
 977 003c 8168     		ldr	r1, [r0, #8]
 978 003e 8A42     		cmp	r2, r1
 979 0040 F3D1     		bne	.L88
1342:Generated_Source\PSoC4/CAN.c ****         {
1343:Generated_Source\PSoC4/CAN.c ****             /* Write RX ACR Register */
1344:Generated_Source\PSoC4/CAN.c ****             CY_SET_REG32((reg32 *) (&CAN_RX[rxConfig->rxmailbox].rxacr), rxConfig->rxacr);
 980              		.loc 1 1344 0
 981 0042 C268     		ldr	r2, [r0, #12]
 982 0044 5A61     		str	r2, [r3, #20]
1345:Generated_Source\PSoC4/CAN.c ****             if (CY_GET_REG32((reg32 *) (&CAN_RX[rxConfig->rxmailbox].rxacr)) == rxConfig->rxacr)
 983              		.loc 1 1345 0
 984 0046 0378     		ldrb	r3, [r0]
 985 0048 0D4A     		ldr	r2, .L89
 986 004a 5B01     		lsls	r3, r3, #5
 987 004c 9B18     		adds	r3, r3, r2
 988 004e 5A69     		ldr	r2, [r3, #20]
 989 0050 C168     		ldr	r1, [r0, #12]
 990 0052 8A42     		cmp	r2, r1
 991 0054 E9D1     		bne	.L88
ARM GAS  C:\Users\RYANCA~1\AppData\Local\Temp\ccuGCfpb.s 			page 43


1346:Generated_Source\PSoC4/CAN.c ****             {
1347:Generated_Source\PSoC4/CAN.c ****                 /* Write RX AMRD Register */
1348:Generated_Source\PSoC4/CAN.c ****                 CY_SET_REG32((reg32 *) (&CAN_RX[rxConfig->rxmailbox].rxamrd), 0xFFFFFFFFu);
 992              		.loc 1 1348 0
 993 0056 0122     		movs	r2, #1
 994 0058 5242     		rsbs	r2, r2, #0
 995 005a 9A61     		str	r2, [r3, #24]
1349:Generated_Source\PSoC4/CAN.c ****                 if (CY_GET_REG32((reg32 *) (&CAN_RX[rxConfig->rxmailbox].rxamrd)) == 0xFFFFFFFFu)
 996              		.loc 1 1349 0
 997 005c 0378     		ldrb	r3, [r0]
 998 005e 084A     		ldr	r2, .L89
 999 0060 5B01     		lsls	r3, r3, #5
 1000 0062 9B18     		adds	r3, r3, r2
 1001 0064 9A69     		ldr	r2, [r3, #24]
 1002 0066 0132     		adds	r2, r2, #1
 1003 0068 DFD1     		bne	.L88
1350:Generated_Source\PSoC4/CAN.c ****                 {
1351:Generated_Source\PSoC4/CAN.c ****                     /* Write RX ACRD Register */
1352:Generated_Source\PSoC4/CAN.c ****                     CY_SET_REG32((reg32 *) (&CAN_RX[rxConfig->rxmailbox].rxacrd), 0x00000000u);
 1004              		.loc 1 1352 0
 1005 006a 0022     		movs	r2, #0
 1006 006c DA61     		str	r2, [r3, #28]
1353:Generated_Source\PSoC4/CAN.c ****                     if (CY_GET_REG32((reg32 *) (&CAN_RX[rxConfig->rxmailbox].rxacrd)) == 0x00000000
 1007              		.loc 1 1353 0
 1008 006e 0378     		ldrb	r3, [r0]
 1009 0070 034A     		ldr	r2, .L89
 1010 0072 5B01     		lsls	r3, r3, #5
 1011 0074 9B18     		adds	r3, r3, r2
 1012 0076 D869     		ldr	r0, [r3, #28]
 1013              	.LVL72:
1331:Generated_Source\PSoC4/CAN.c **** 
 1014              		.loc 1 1331 0
 1015 0078 431E     		subs	r3, r0, #1
 1016 007a 9841     		sbcs	r0, r0, r3
 1017 007c C0B2     		uxtb	r0, r0
 1018              	.L87:
 1019              	.LVL73:
1354:Generated_Source\PSoC4/CAN.c ****                     {
1355:Generated_Source\PSoC4/CAN.c ****                         result = CYRET_SUCCESS;
1356:Generated_Source\PSoC4/CAN.c ****                     }
1357:Generated_Source\PSoC4/CAN.c ****                 }
1358:Generated_Source\PSoC4/CAN.c ****             }
1359:Generated_Source\PSoC4/CAN.c ****         }
1360:Generated_Source\PSoC4/CAN.c ****     }
1361:Generated_Source\PSoC4/CAN.c **** 
1362:Generated_Source\PSoC4/CAN.c ****     return (result);
1363:Generated_Source\PSoC4/CAN.c **** }
 1020              		.loc 1 1363 0
 1021              		@ sp needed
 1022 007e 10BD     		pop	{r4, pc}
 1023              	.L90:
 1024              		.align	2
 1025              	.L89:
 1026 0080 A0002F40 		.word	1076822176
 1027 0084 80008000 		.word	8388736
 1028 0088 7F007F00 		.word	8323199
 1029 008c 7FFF7FFF 		.word	-8388737
ARM GAS  C:\Users\RYANCA~1\AppData\Local\Temp\ccuGCfpb.s 			page 44


 1030              		.cfi_endproc
 1031              	.LFE21:
 1032              		.size	CAN_RxBufConfig, .-CAN_RxBufConfig
 1033              		.section	.text.CAN_TxBufConfig,"ax",%progbits
 1034              		.align	1
 1035              		.global	CAN_TxBufConfig
 1036              		.code	16
 1037              		.thumb_func
 1038              		.type	CAN_TxBufConfig, %function
 1039              	CAN_TxBufConfig:
 1040              	.LFB22:
1364:Generated_Source\PSoC4/CAN.c **** 
1365:Generated_Source\PSoC4/CAN.c **** 
1366:Generated_Source\PSoC4/CAN.c **** /*******************************************************************************
1367:Generated_Source\PSoC4/CAN.c **** * FUNCTION NAME:   CAN_TxBufConfig
1368:Generated_Source\PSoC4/CAN.c **** ********************************************************************************
1369:Generated_Source\PSoC4/CAN.c **** *
1370:Generated_Source\PSoC4/CAN.c **** * Summary:
1371:Generated_Source\PSoC4/CAN.c **** *  This function configures all transmit registers for a particular mailbox.
1372:Generated_Source\PSoC4/CAN.c **** *  Mailbox number contains CAN_TX_CFG structure.
1373:Generated_Source\PSoC4/CAN.c **** *
1374:Generated_Source\PSoC4/CAN.c **** * Parameters:
1375:Generated_Source\PSoC4/CAN.c **** *  txConfig: The pointer to structure that contain all required values to
1376:Generated_Source\PSoC4/CAN.c **** *  configure all transmit registers for a particular mailbox.
1377:Generated_Source\PSoC4/CAN.c **** *
1378:Generated_Source\PSoC4/CAN.c **** * Return:
1379:Generated_Source\PSoC4/CAN.c **** *  The indication if particular configuration has been accepted or rejected.
1380:Generated_Source\PSoC4/CAN.c **** *   Define                             Description
1381:Generated_Source\PSoC4/CAN.c **** *    CYRET_SUCCESS                      The function passed successfully
1382:Generated_Source\PSoC4/CAN.c **** *    CAN_FAIL              The function failed
1383:Generated_Source\PSoC4/CAN.c **** *
1384:Generated_Source\PSoC4/CAN.c **** *******************************************************************************/
1385:Generated_Source\PSoC4/CAN.c **** uint8 CAN_TxBufConfig(const CAN_TX_CFG *txConfig)
1386:Generated_Source\PSoC4/CAN.c ****                                    
1387:Generated_Source\PSoC4/CAN.c **** {
 1041              		.loc 1 1387 0
 1042              		.cfi_startproc
 1043              		@ args = 0, pretend = 0, frame = 0
 1044              		@ frame_needed = 0, uses_anonymous_args = 0
 1045              	.LVL74:
 1046 0000 0300     		movs	r3, r0
 1047 0002 10B5     		push	{r4, lr}
 1048              		.cfi_def_cfa_offset 8
 1049              		.cfi_offset 4, -8
 1050              		.cfi_offset 14, -4
1388:Generated_Source\PSoC4/CAN.c ****     uint8 result = CAN_FAIL;
1389:Generated_Source\PSoC4/CAN.c **** 
1390:Generated_Source\PSoC4/CAN.c ****     /* Write TX CMD Register */
1391:Generated_Source\PSoC4/CAN.c ****     CY_SET_REG32(CAN_TX_CMD_PTR(txConfig->txmailbox), (txConfig->txcmd | CAN_TX_WPN_SET));
 1051              		.loc 1 1391 0
 1052 0004 0278     		ldrb	r2, [r0]
 1053 0006 1049     		ldr	r1, .L94
 1054 0008 1201     		lsls	r2, r2, #4
 1055 000a 5218     		adds	r2, r2, r1
 1056 000c 4068     		ldr	r0, [r0, #4]
 1057              	.LVL75:
 1058 000e 0F49     		ldr	r1, .L94+4
ARM GAS  C:\Users\RYANCA~1\AppData\Local\Temp\ccuGCfpb.s 			page 45


 1059 0010 0143     		orrs	r1, r0
 1060 0012 1160     		str	r1, [r2]
1392:Generated_Source\PSoC4/CAN.c ****     if ((CY_GET_REG32(CAN_TX_CMD_PTR(txConfig->txmailbox)) &
 1061              		.loc 1 1392 0
 1062 0014 1A78     		ldrb	r2, [r3]
 1063 0016 0C49     		ldr	r1, .L94
 1064 0018 1201     		lsls	r2, r2, #4
 1065 001a 5218     		adds	r2, r2, r1
 1066 001c 1468     		ldr	r4, [r2]
 1067 001e 0C49     		ldr	r1, .L94+8
 1068 0020 5868     		ldr	r0, [r3, #4]
 1069 0022 0C40     		ands	r4, r1
 1070 0024 0B49     		ldr	r1, .L94+12
 1071 0026 0140     		ands	r1, r0
1388:Generated_Source\PSoC4/CAN.c ****     uint8 result = CAN_FAIL;
 1072              		.loc 1 1388 0
 1073 0028 0120     		movs	r0, #1
 1074              		.loc 1 1392 0
 1075 002a 8C42     		cmp	r4, r1
 1076 002c 0BD1     		bne	.L92
1393:Generated_Source\PSoC4/CAN.c ****         CAN_TX_READ_BACK_MASK) == (txConfig->txcmd & CAN_TX_WPN_CLEAR))
1394:Generated_Source\PSoC4/CAN.c ****     {
1395:Generated_Source\PSoC4/CAN.c ****         /* Write TX ID Register */
1396:Generated_Source\PSoC4/CAN.c ****         CY_SET_REG32(CAN_TX_ID_PTR(txConfig->txmailbox), txConfig->txid);
 1077              		.loc 1 1396 0
 1078 002e 9968     		ldr	r1, [r3, #8]
 1079 0030 5160     		str	r1, [r2, #4]
1397:Generated_Source\PSoC4/CAN.c ****         if (CY_GET_REG32(CAN_TX_ID_PTR(txConfig->txmailbox)) == txConfig->txid)
 1080              		.loc 1 1397 0
 1081 0032 1A78     		ldrb	r2, [r3]
 1082 0034 0449     		ldr	r1, .L94
 1083 0036 1201     		lsls	r2, r2, #4
 1084 0038 5218     		adds	r2, r2, r1
1388:Generated_Source\PSoC4/CAN.c **** 
 1085              		.loc 1 1388 0
 1086 003a 9B68     		ldr	r3, [r3, #8]
 1087              	.LVL76:
 1088              		.loc 1 1397 0
 1089 003c 5068     		ldr	r0, [r2, #4]
1388:Generated_Source\PSoC4/CAN.c **** 
 1090              		.loc 1 1388 0
 1091 003e 181A     		subs	r0, r3, r0
 1092 0040 431E     		subs	r3, r0, #1
 1093 0042 9841     		sbcs	r0, r0, r3
 1094 0044 C0B2     		uxtb	r0, r0
 1095              	.L92:
 1096              	.LVL77:
1398:Generated_Source\PSoC4/CAN.c ****         {
1399:Generated_Source\PSoC4/CAN.c ****             result = CYRET_SUCCESS;
1400:Generated_Source\PSoC4/CAN.c ****         }
1401:Generated_Source\PSoC4/CAN.c ****     }
1402:Generated_Source\PSoC4/CAN.c **** 
1403:Generated_Source\PSoC4/CAN.c ****     return (result);
1404:Generated_Source\PSoC4/CAN.c **** }
 1097              		.loc 1 1404 0
 1098              		@ sp needed
 1099 0046 10BD     		pop	{r4, pc}
ARM GAS  C:\Users\RYANCA~1\AppData\Local\Temp\ccuGCfpb.s 			page 46


 1100              	.L95:
 1101              		.align	2
 1102              	.L94:
 1103 0048 20002F40 		.word	1076822048
 1104 004c 08008000 		.word	8388616
 1105 0050 F7007F00 		.word	8323319
 1106 0054 F7FF7FFF 		.word	-8388617
 1107              		.cfi_endproc
 1108              	.LFE22:
 1109              		.size	CAN_TxBufConfig, .-CAN_TxBufConfig
 1110              		.section	.text.CAN_RxTxBuffersConfig,"ax",%progbits
 1111              		.align	1
 1112              		.global	CAN_RxTxBuffersConfig
 1113              		.code	16
 1114              		.thumb_func
 1115              		.type	CAN_RxTxBuffersConfig, %function
 1116              	CAN_RxTxBuffersConfig:
 1117              	.LFB1:
  48:Generated_Source\PSoC4/CAN.c ****     /* Initial values of CAN RX and TX registers */
 1118              		.loc 1 48 0
 1119              		.cfi_startproc
 1120              		@ args = 0, pretend = 0, frame = 0
 1121              		@ frame_needed = 0, uses_anonymous_args = 0
 1122              	.LVL78:
 1123 0000 70B5     		push	{r4, r5, r6, lr}
 1124              		.cfi_def_cfa_offset 16
 1125              		.cfi_offset 4, -16
 1126              		.cfi_offset 5, -12
 1127              		.cfi_offset 6, -8
 1128              		.cfi_offset 14, -4
  48:Generated_Source\PSoC4/CAN.c ****     /* Initial values of CAN RX and TX registers */
 1129              		.loc 1 48 0
 1130 0002 0026     		movs	r6, #0
 1131              	.LVL79:
 1132              	.L99:
  88:Generated_Source\PSoC4/CAN.c ****             (&CAN_TXConfigStruct[i])) != CYRET_SUCCESS)
 1133              		.loc 1 88 0
 1134 0004 0B4D     		ldr	r5, .L104
 1135 0006 A819     		adds	r0, r5, r6
 1136 0008 FFF7FEFF 		bl	CAN_TxBufConfig
 1137              	.LVL80:
 1138 000c 0028     		cmp	r0, #0
 1139 000e 01D0     		beq	.L97
 1140              	.L100:
 1141 0010 0120     		movs	r0, #1
 1142 0012 0EE0     		b	.L98
 1143              	.L97:
 1144 0014 0C36     		adds	r6, r6, #12
  86:Generated_Source\PSoC4/CAN.c ****     {
 1145              		.loc 1 86 0 discriminator 2
 1146 0016 602E     		cmp	r6, #96
 1147 0018 F4D1     		bne	.L99
 1148 001a 0400     		movs	r4, r0
  99:Generated_Source\PSoC4/CAN.c ****         {
 1149              		.loc 1 99 0
 1150 001c A036     		adds	r6, r6, #160
 1151              	.L101:
ARM GAS  C:\Users\RYANCA~1\AppData\Local\Temp\ccuGCfpb.s 			page 47


 101:Generated_Source\PSoC4/CAN.c ****                 (&CAN_RXConfigStruct[i])) != CYRET_SUCCESS)
 1152              		.loc 1 101 0
 1153 001e 2800     		movs	r0, r5
 1154 0020 6030     		adds	r0, r0, #96
 1155 0022 0019     		adds	r0, r0, r4
 1156 0024 FFF7FEFF 		bl	CAN_RxBufConfig
 1157              	.LVL81:
 1158 0028 0028     		cmp	r0, #0
 1159 002a F1D1     		bne	.L100
 1160 002c 1034     		adds	r4, r4, #16
  99:Generated_Source\PSoC4/CAN.c ****         {
 1161              		.loc 1 99 0 discriminator 2
 1162 002e B442     		cmp	r4, r6
 1163 0030 F5D1     		bne	.L101
 1164              	.L98:
 1165              	.LVL82:
 111:Generated_Source\PSoC4/CAN.c **** 
 1166              		.loc 1 111 0
 1167              		@ sp needed
 1168 0032 70BD     		pop	{r4, r5, r6, pc}
 1169              	.L105:
 1170              		.align	2
 1171              	.L104:
 1172 0034 00000000 		.word	.LANCHOR0
 1173              		.cfi_endproc
 1174              	.LFE1:
 1175              		.size	CAN_RxTxBuffersConfig, .-CAN_RxTxBuffersConfig
 1176              		.section	.text.CAN_Init,"ax",%progbits
 1177              		.align	1
 1178              		.global	CAN_Init
 1179              		.code	16
 1180              		.thumb_func
 1181              		.type	CAN_Init, %function
 1182              	CAN_Init:
 1183              	.LFB2:
 138:Generated_Source\PSoC4/CAN.c ****     uint32 timeout = CAN_MODE_STATE_STOP_TIMEOUT;
 1184              		.loc 1 138 0
 1185              		.cfi_startproc
 1186              		@ args = 0, pretend = 0, frame = 0
 1187              		@ frame_needed = 0, uses_anonymous_args = 0
 1188              	.LVL83:
 163:Generated_Source\PSoC4/CAN.c **** 
 1189              		.loc 1 163 0
 1190 0000 8022     		movs	r2, #128
 1191 0002 324B     		ldr	r3, .L122
 1192 0004 1206     		lsls	r2, r2, #24
 138:Generated_Source\PSoC4/CAN.c ****     uint32 timeout = CAN_MODE_STATE_STOP_TIMEOUT;
 1193              		.loc 1 138 0
 1194 0006 70B5     		push	{r4, r5, r6, lr}
 1195              		.cfi_def_cfa_offset 16
 1196              		.cfi_offset 4, -16
 1197              		.cfi_offset 5, -12
 1198              		.cfi_offset 6, -8
 1199              		.cfi_offset 14, -4
 163:Generated_Source\PSoC4/CAN.c **** 
 1200              		.loc 1 163 0
 1201 0008 1A60     		str	r2, [r3]
ARM GAS  C:\Users\RYANCA~1\AppData\Local\Temp\ccuGCfpb.s 			page 48


 166:Generated_Source\PSoC4/CAN.c **** 
 1202              		.loc 1 166 0
 1203 000a 0122     		movs	r2, #1
 1204 000c 304B     		ldr	r3, .L122+4
 1205 000e 1968     		ldr	r1, [r3]
 1206 0010 9143     		bics	r1, r2
 1207 0012 1960     		str	r1, [r3]
 1208 0014 2F49     		ldr	r1, .L122+8
 1209              	.LVL84:
 1210              	.L107:
 169:Generated_Source\PSoC4/CAN.c ****         {
 1211              		.loc 1 169 0 discriminator 1
 1212 0016 1868     		ldr	r0, [r3]
 1213 0018 2D4D     		ldr	r5, .L122+4
 1214 001a 0126     		movs	r6, #1
 1215 001c 1042     		tst	r0, r2
 1216 001e 03D0     		beq	.L121
 1217              	.LVL85:
 1218 0020 0139     		subs	r1, r1, #1
 1219              	.LVL86:
 169:Generated_Source\PSoC4/CAN.c ****         {
 1220              		.loc 1 169 0 is_stmt 0
 1221 0022 0029     		cmp	r1, #0
 1222 0024 F7D1     		bne	.L107
 1223 0026 4EE0     		b	.L108
 1224              	.L121:
 1225              	.LBB76:
 1226              	.LBB77:
 177:Generated_Source\PSoC4/CAN.c **** 
 1227              		.loc 1 177 0 is_stmt 1
 1228 0028 1C20     		movs	r0, #28
 1229 002a FFF7FEFF 		bl	CyIntDisable
 1230              	.LVL87:
 1231              	.LBB78:
 1232              	.LBB79:
 1233              	.LBB80:
 1234              	.LBB81:
 538:Generated_Source\PSoC4/CAN.c ****             (uint32) ((uint32) bitrate << CAN_BITRATE_SHIFT);
 1235              		.loc 1 538 0
 1236 002e 2A4C     		ldr	r4, .L122+12
 1237              	.LBE81:
 1238              	.LBE80:
 1239              	.LBE79:
 1240              	.LBE78:
 180:Generated_Source\PSoC4/CAN.c **** 
 1241              		.loc 1 180 0
 1242 0030 2A49     		ldr	r1, .L122+16
 1243 0032 1C20     		movs	r0, #28
 1244 0034 FFF7FEFF 		bl	CyIntSetVector
 1245              	.LVL88:
 183:Generated_Source\PSoC4/CAN.c **** 
 1246              		.loc 1 183 0
 1247 0038 0321     		movs	r1, #3
 1248 003a 1C20     		movs	r0, #28
 1249 003c FFF7FEFF 		bl	CyIntSetPriority
 1250              	.LVL89:
 1251              	.LBB85:
ARM GAS  C:\Users\RYANCA~1\AppData\Local\Temp\ccuGCfpb.s 			page 49


 1252              	.LBB84:
 1253              	.LBB83:
 1254              	.LBB82:
 538:Generated_Source\PSoC4/CAN.c ****             (uint32) ((uint32) bitrate << CAN_BITRATE_SHIFT);
 1255              		.loc 1 538 0
 1256 0040 2268     		ldr	r2, [r4]
 1257 0042 274B     		ldr	r3, .L122+20
 1258 0044 1340     		ands	r3, r2
 1259 0046 9022     		movs	r2, #144
 1260 0048 5203     		lsls	r2, r2, #13
 1261 004a 1343     		orrs	r3, r2
 1262 004c 2360     		str	r3, [r4]
 542:Generated_Source\PSoC4/CAN.c ****                ((uint32) ((uint32) bitrate << CAN_BITRATE_SHIFT)))
 1263              		.loc 1 542 0
 1264 004e 2168     		ldr	r1, [r4]
 1265 0050 244B     		ldr	r3, .L122+24
 1266 0052 0B40     		ands	r3, r1
 1267 0054 9342     		cmp	r3, r2
 1268 0056 36D1     		bne	.L108
 1269              	.LVL90:
 1270              	.LBE82:
 1271              	.LBE83:
 1272              	.LBE84:
 1273              	.LBE85:
 1274              	.LBB86:
 1275              	.LBB87:
 1276              	.LBB88:
 1277              	.LBB89:
 603:Generated_Source\PSoC4/CAN.c **** 
 1278              		.loc 1 603 0
 1279 0058 2268     		ldr	r2, [r4]
 1280 005a 234B     		ldr	r3, .L122+28
 1281 005c 1340     		ands	r3, r2
 1282 005e 2360     		str	r3, [r4]
 606:Generated_Source\PSoC4/CAN.c ****             {
 1283              		.loc 1 606 0
 1284 0060 2368     		ldr	r3, [r4]
 1285 0062 DB04     		lsls	r3, r3, #19
 1286 0064 2FD4     		bmi	.L108
 1287              	.LVL91:
 1288              	.LBE89:
 1289              	.LBE88:
 1290              	.LBE87:
 1291              	.LBE86:
 1292              	.LBB90:
 1293              	.LBB91:
 1294              	.LBB92:
 1295              	.LBB93:
1405:Generated_Source\PSoC4/CAN.c **** 
1406:Generated_Source\PSoC4/CAN.c **** 
1407:Generated_Source\PSoC4/CAN.c **** #if (!(CY_PSOC3 || CY_PSOC5))
1408:Generated_Source\PSoC4/CAN.c **** 
1409:Generated_Source\PSoC4/CAN.c **** /*******************************************************************************
1410:Generated_Source\PSoC4/CAN.c **** * FUNCTION NAME:   CAN_SetSwapDataEndianness
1411:Generated_Source\PSoC4/CAN.c **** ********************************************************************************
1412:Generated_Source\PSoC4/CAN.c **** *
1413:Generated_Source\PSoC4/CAN.c **** * Summary:
ARM GAS  C:\Users\RYANCA~1\AppData\Local\Temp\ccuGCfpb.s 			page 50


1414:Generated_Source\PSoC4/CAN.c **** *  This function selects whether the data byte endianness of the CAN receive and
1415:Generated_Source\PSoC4/CAN.c **** *  transmit data fields has to be swapped or not swapped. This is useful to
1416:Generated_Source\PSoC4/CAN.c **** *  match the data byte endianness to the endian setting of the processor or the
1417:Generated_Source\PSoC4/CAN.c **** *  used CAN protocol.
1418:Generated_Source\PSoC4/CAN.c **** *
1419:Generated_Source\PSoC4/CAN.c **** * Parameters:
1420:Generated_Source\PSoC4/CAN.c **** *  swap: Swap Enable/Disable setting.
1421:Generated_Source\PSoC4/CAN.c **** *   Define                                   Description
1422:Generated_Source\PSoC4/CAN.c **** *   CAN_SWAP_ENDIANNESS_ENABLE   The endianness of transmitted/
1423:Generated_Source\PSoC4/CAN.c **** *                                             received data byte fields (Big
1424:Generated_Source\PSoC4/CAN.c **** *                                             endian) is not swapped during
1425:Generated_Source\PSoC4/CAN.c **** *                                             multibyte data transmission.
1426:Generated_Source\PSoC4/CAN.c **** *   CAN_SWAP_ENDIANNESS_DISABLE  The endianness of transmitted/
1427:Generated_Source\PSoC4/CAN.c **** *                                             received data byte fields is
1428:Generated_Source\PSoC4/CAN.c **** *                                             swapped (Little endian) during
1429:Generated_Source\PSoC4/CAN.c **** *                                             multi byte data transmission.
1430:Generated_Source\PSoC4/CAN.c **** *
1431:Generated_Source\PSoC4/CAN.c **** * Return:
1432:Generated_Source\PSoC4/CAN.c **** *  The indication whether the register is written and verified.
1433:Generated_Source\PSoC4/CAN.c **** *   Define                             Description
1434:Generated_Source\PSoC4/CAN.c **** *    CYRET_SUCCESS                      The function passed successfully
1435:Generated_Source\PSoC4/CAN.c **** *    CAN_FAIL              The function failed
1436:Generated_Source\PSoC4/CAN.c **** *
1437:Generated_Source\PSoC4/CAN.c **** *******************************************************************************/
1438:Generated_Source\PSoC4/CAN.c **** uint8 CAN_SetSwapDataEndianness(uint8 swap)
1439:Generated_Source\PSoC4/CAN.c **** {
1440:Generated_Source\PSoC4/CAN.c ****     uint8 result = CAN_FAIL;
1441:Generated_Source\PSoC4/CAN.c **** 
1442:Generated_Source\PSoC4/CAN.c ****     if (swap == CAN_SWAP_ENDIANNESS_DISABLE)    /* Big endian */
1443:Generated_Source\PSoC4/CAN.c ****     {
1444:Generated_Source\PSoC4/CAN.c ****         CAN_CFG_REG &= (uint32) (~CAN_ENDIANNESS_MASK);
 1296              		.loc 1 1444 0
 1297 0066 2268     		ldr	r2, [r4]
 1298 0068 204B     		ldr	r3, .L122+32
 1299 006a 1340     		ands	r3, r2
 1300 006c 2360     		str	r3, [r4]
1445:Generated_Source\PSoC4/CAN.c **** 
1446:Generated_Source\PSoC4/CAN.c ****         /* Verify that bit is cleared */
1447:Generated_Source\PSoC4/CAN.c ****         if ((CAN_CFG_REG & CAN_ENDIANNESS_MASK) == 0u)
 1301              		.loc 1 1447 0
 1302 006e 8023     		movs	r3, #128
 1303 0070 2268     		ldr	r2, [r4]
 1304 0072 9B01     		lsls	r3, r3, #6
 1305 0074 1340     		ands	r3, r2
 1306 0076 26D1     		bne	.L108
 1307              	.LVL92:
 1308              	.LBE93:
 1309              	.LBE92:
 1310              	.LBE91:
 1311              	.LBE90:
 193:Generated_Source\PSoC4/CAN.c ****                                 CAN_CFG_REG_TSEG2, CAN_CFG_REG_SJW,
 1312              		.loc 1 193 0
 1313 0078 0322     		movs	r2, #3
 1314 007a 0420     		movs	r0, #4
 1315 007c 1100     		movs	r1, r2
 1316 007e FFF7FEFF 		bl	CAN_SetTsegSample
 1317              	.LVL93:
ARM GAS  C:\Users\RYANCA~1\AppData\Local\Temp\ccuGCfpb.s 			page 51


 1318 0082 0028     		cmp	r0, #0
 1319 0084 1FD1     		bne	.L108
 1320              	.LVL94:
 1321              	.LBB94:
 1322              	.LBB95:
 1323              	.LBB96:
 1324              	.LBB97:
 797:Generated_Source\PSoC4/CAN.c **** 
 1325              		.loc 1 797 0
 1326 0086 1022     		movs	r2, #16
 1327 0088 2368     		ldr	r3, [r4]
 1328 008a 9343     		bics	r3, r2
 1329 008c 2360     		str	r3, [r4]
 800:Generated_Source\PSoC4/CAN.c ****             {
 1330              		.loc 1 800 0
 1331 008e 2368     		ldr	r3, [r4]
 1332 0090 1342     		tst	r3, r2
 1333 0092 18D1     		bne	.L108
 1334              	.LVL95:
 1335              	.LBE97:
 1336              	.LBE96:
 1337              	.LBE95:
 1338              	.LBE94:
 1339              	.LBB98:
 1340              	.LBB99:
 1341              	.LBB100:
 1342              	.LBB101:
 874:Generated_Source\PSoC4/CAN.c **** 
 1343              		.loc 1 874 0
 1344 0094 2368     		ldr	r3, [r4]
 1345 0096 B343     		bics	r3, r6
 1346 0098 2360     		str	r3, [r4]
 877:Generated_Source\PSoC4/CAN.c ****             {
 1347              		.loc 1 877 0
 1348 009a 2368     		ldr	r3, [r4]
 1349              	.LVL96:
 1350              	.LBE101:
 1351              	.LBE100:
 1352              	.LBE99:
 1353              	.LBE98:
 209:Generated_Source\PSoC4/CAN.c ****             {
 1354              		.loc 1 209 0
 1355 009c 3342     		tst	r3, r6
 1356 009e 12D1     		bne	.L108
 1357              	.LVL97:
 211:Generated_Source\PSoC4/CAN.c ****                 {
 1358              		.loc 1 211 0
 1359 00a0 FFF7FEFF 		bl	CAN_RxTxBuffersConfig
 1360              	.LVL98:
 1361 00a4 0028     		cmp	r0, #0
 1362 00a6 0ED1     		bne	.L108
 214:Generated_Source\PSoC4/CAN.c ****                         CYRET_SUCCESS)
 1363              		.loc 1 214 0
 1364 00a8 1148     		ldr	r0, .L122+36
 1365 00aa FFF7FEFF 		bl	CAN_SetIrqMask
 1366              	.LVL99:
 1367 00ae 0028     		cmp	r0, #0
ARM GAS  C:\Users\RYANCA~1\AppData\Local\Temp\ccuGCfpb.s 			page 52


 1368 00b0 09D1     		bne	.L108
 222:Generated_Source\PSoC4/CAN.c ****                             if ((CAN_CMD_REG & CAN_OPMODE_FIELD_MASK) == 0u)
 1369              		.loc 1 222 0
 1370 00b2 2B68     		ldr	r3, [r5]
 1371 00b4 0730     		adds	r0, r0, #7
 1372 00b6 8343     		bics	r3, r0
 1373 00b8 2B60     		str	r3, [r5]
 223:Generated_Source\PSoC4/CAN.c ****                         #endif /* CY_PSOC3 || CY_PSOC5 */
 1374              		.loc 1 223 0
 1375 00ba 2B68     		ldr	r3, [r5]
 140:Generated_Source\PSoC4/CAN.c ****     uint8 localResult = CAN_FAIL;
 1376              		.loc 1 140 0
 1377 00bc 1840     		ands	r0, r3
 1378 00be 431E     		subs	r3, r0, #1
 1379 00c0 9841     		sbcs	r0, r0, r3
 1380 00c2 C0B2     		uxtb	r0, r0
 1381 00c4 00E0     		b	.L120
 1382              	.LVL100:
 1383              	.L108:
 1384 00c6 0120     		movs	r0, #1
 1385              	.LVL101:
 1386              	.L120:
 1387              	.LBE77:
 1388              	.LBE76:
 234:Generated_Source\PSoC4/CAN.c **** 
 1389              		.loc 1 234 0
 1390              		@ sp needed
 1391 00c8 70BD     		pop	{r4, r5, r6, pc}
 1392              	.L123:
 1393 00ca C046     		.align	2
 1394              	.L122:
 1395 00cc 00042F40 		.word	1076823040
 1396 00d0 10002F40 		.word	1076822032
 1397 00d4 C0760000 		.word	30400
 1398 00d8 14002F40 		.word	1076822036
 1399 00dc 00000000 		.word	CAN_ISR
 1400 00e0 FFFF0080 		.word	-2147418113
 1401 00e4 0000FF7F 		.word	2147418112
 1402 00e8 FFEFFFFF 		.word	-4097
 1403 00ec FFDFFFFF 		.word	-8193
 1404 00f0 01100000 		.word	4097
 1405              		.cfi_endproc
 1406              	.LFE2:
 1407              		.size	CAN_Init, .-CAN_Init
 1408              		.section	.text.CAN_Start,"ax",%progbits
 1409              		.align	1
 1410              		.global	CAN_Start
 1411              		.code	16
 1412              		.thumb_func
 1413              		.type	CAN_Start, %function
 1414              	CAN_Start:
 1415              	.LFB4:
 324:Generated_Source\PSoC4/CAN.c ****     uint8 result = CYRET_SUCCESS;
 1416              		.loc 1 324 0
 1417              		.cfi_startproc
 1418              		@ args = 0, pretend = 0, frame = 0
 1419              		@ frame_needed = 0, uses_anonymous_args = 0
ARM GAS  C:\Users\RYANCA~1\AppData\Local\Temp\ccuGCfpb.s 			page 53


 1420              	.LVL102:
 1421 0000 10B5     		push	{r4, lr}
 1422              		.cfi_def_cfa_offset 8
 1423              		.cfi_offset 4, -8
 1424              		.cfi_offset 14, -4
 327:Generated_Source\PSoC4/CAN.c ****     {
 1425              		.loc 1 327 0
 1426 0002 074B     		ldr	r3, .L131
 1427 0004 1A78     		ldrb	r2, [r3]
 1428 0006 1C00     		movs	r4, r3
 1429 0008 002A     		cmp	r2, #0
 1430 000a 04D0     		beq	.L125
 1431              	.LVL103:
 1432              	.L127:
 334:Generated_Source\PSoC4/CAN.c ****         result = CAN_Enable();
 1433              		.loc 1 334 0
 1434 000c 0123     		movs	r3, #1
 1435 000e 2370     		strb	r3, [r4]
 335:Generated_Source\PSoC4/CAN.c ****     }
 1436              		.loc 1 335 0
 1437 0010 FFF7FEFF 		bl	CAN_Enable
 1438              	.LVL104:
 1439 0014 03E0     		b	.L126
 1440              	.LVL105:
 1441              	.L125:
 329:Generated_Source\PSoC4/CAN.c ****     }
 1442              		.loc 1 329 0
 1443 0016 FFF7FEFF 		bl	CAN_Init
 1444              	.LVL106:
 332:Generated_Source\PSoC4/CAN.c ****     {
 1445              		.loc 1 332 0
 1446 001a 0028     		cmp	r0, #0
 1447 001c F6D0     		beq	.L127
 1448              	.LVL107:
 1449              	.L126:
 339:Generated_Source\PSoC4/CAN.c **** 
 1450              		.loc 1 339 0
 1451              		@ sp needed
 1452 001e 10BD     		pop	{r4, pc}
 1453              	.L132:
 1454              		.align	2
 1455              	.L131:
 1456 0020 00000000 		.word	.LANCHOR1
 1457              		.cfi_endproc
 1458              	.LFE4:
 1459              		.size	CAN_Start, .-CAN_Start
 1460              		.section	.text.CAN_SetOpMode,"ax",%progbits
 1461              		.align	1
 1462              		.global	CAN_SetOpMode
 1463              		.code	16
 1464              		.thumb_func
 1465              		.type	CAN_SetOpMode, %function
 1466              	CAN_SetOpMode:
 1467              	.LFB13:
 939:Generated_Source\PSoC4/CAN.c ****     #if (CY_PSOC3 || CY_PSOC5)
 1468              		.loc 1 939 0
 1469              		.cfi_startproc
ARM GAS  C:\Users\RYANCA~1\AppData\Local\Temp\ccuGCfpb.s 			page 54


 1470              		@ args = 0, pretend = 0, frame = 0
 1471              		@ frame_needed = 0, uses_anonymous_args = 0
 1472              	.LVL108:
 1473 0000 70B5     		push	{r4, r5, r6, lr}
 1474              		.cfi_def_cfa_offset 16
 1475              		.cfi_offset 4, -16
 1476              		.cfi_offset 5, -12
 1477              		.cfi_offset 6, -8
 1478              		.cfi_offset 14, -4
 996:Generated_Source\PSoC4/CAN.c ****         }
 1479              		.loc 1 996 0
 1480 0002 0124     		movs	r4, #1
 993:Generated_Source\PSoC4/CAN.c ****             (opMode == CAN_ACTIVE_RUN_MODE))
 1481              		.loc 1 993 0
 1482 0004 114D     		ldr	r5, .L144
 939:Generated_Source\PSoC4/CAN.c ****     #if (CY_PSOC3 || CY_PSOC5)
 1483              		.loc 1 939 0
 1484 0006 0600     		movs	r6, r0
 993:Generated_Source\PSoC4/CAN.c ****             (opMode == CAN_ACTIVE_RUN_MODE))
 1485              		.loc 1 993 0
 1486 0008 2B68     		ldr	r3, [r5]
 1487 000a 2342     		tst	r3, r4
 1488 000c 03D1     		bne	.L134
 944:Generated_Source\PSoC4/CAN.c **** 
 1489              		.loc 1 944 0 discriminator 1
 1490 000e 441E     		subs	r4, r0, #1
 1491 0010 6342     		rsbs	r3, r4, #0
 1492 0012 5C41     		adcs	r4, r4, r3
 1493 0014 E4B2     		uxtb	r4, r4
 1494              	.L134:
 1495              	.LVL109:
1000:Generated_Source\PSoC4/CAN.c ****         {
 1496              		.loc 1 1000 0
 1497 0016 FFF7FEFF 		bl	CAN_Stop
 1498              	.LVL110:
 1499 001a 0300     		movs	r3, r0
 943:Generated_Source\PSoC4/CAN.c ****     uint8 runState = CAN_STOP_MODE;
 1500              		.loc 1 943 0
 1501 001c 0120     		movs	r0, #1
1000:Generated_Source\PSoC4/CAN.c ****         {
 1502              		.loc 1 1000 0
 1503 001e 002B     		cmp	r3, #0
 1504 0020 13D1     		bne	.L135
1003:Generated_Source\PSoC4/CAN.c **** 
 1505              		.loc 1 1003 0
 1506 0022 0B4B     		ldr	r3, .L144+4
 1507 0024 0B4A     		ldr	r2, .L144+8
 1508 0026 1A60     		str	r2, [r3]
1006:Generated_Source\PSoC4/CAN.c **** 
 1509              		.loc 1 1006 0
 1510 0028 1218     		adds	r2, r2, r0
 1511 002a 1A60     		str	r2, [r3]
1008:Generated_Source\PSoC4/CAN.c **** 
 1512              		.loc 1 1008 0
 1513 002c FFF7FEFF 		bl	CAN_Init
 1514              	.LVL111:
1010:Generated_Source\PSoC4/CAN.c ****             {
ARM GAS  C:\Users\RYANCA~1\AppData\Local\Temp\ccuGCfpb.s 			page 55


 1515              		.loc 1 1010 0
 1516 0030 0028     		cmp	r0, #0
 1517 0032 0AD1     		bne	.L135
1010:Generated_Source\PSoC4/CAN.c ****             {
 1518              		.loc 1 1010 0 is_stmt 0 discriminator 1
 1519 0034 002E     		cmp	r6, #0
 1520 0036 08D0     		beq	.L135
1012:Generated_Source\PSoC4/CAN.c ****                 {
 1521              		.loc 1 1012 0 is_stmt 1
 1522 0038 012E     		cmp	r6, #1
 1523 003a 02D0     		beq	.L137
1015:Generated_Source\PSoC4/CAN.c ****                 }
 1524              		.loc 1 1015 0
 1525 003c 2B68     		ldr	r3, [r5]
 1526 003e 1E43     		orrs	r6, r3
 1527 0040 2E60     		str	r6, [r5]
 1528              	.L137:
1018:Generated_Source\PSoC4/CAN.c ****                 {
 1529              		.loc 1 1018 0
 1530 0042 012C     		cmp	r4, #1
 1531 0044 01D1     		bne	.L135
1021:Generated_Source\PSoC4/CAN.c ****                 }
 1532              		.loc 1 1021 0
 1533 0046 FFF7FEFF 		bl	CAN_Enable
 1534              	.LVL112:
 1535              	.L135:
1028:Generated_Source\PSoC4/CAN.c **** 
 1536              		.loc 1 1028 0
 1537              		@ sp needed
 1538              	.LVL113:
 1539 004a 70BD     		pop	{r4, r5, r6, pc}
 1540              	.L145:
 1541              		.align	2
 1542              	.L144:
 1543 004c 10002F40 		.word	1076822032
 1544 0050 00042F40 		.word	1076823040
 1545 0054 FFFFFF7F 		.word	2147483647
 1546              		.cfi_endproc
 1547              	.LFE13:
 1548              		.size	CAN_SetOpMode, .-CAN_SetOpMode
 1549              		.section	.text.CAN_SetSwapDataEndianness,"ax",%progbits
 1550              		.align	1
 1551              		.global	CAN_SetSwapDataEndianness
 1552              		.code	16
 1553              		.thumb_func
 1554              		.type	CAN_SetSwapDataEndianness, %function
 1555              	CAN_SetSwapDataEndianness:
 1556              	.LFB23:
1439:Generated_Source\PSoC4/CAN.c ****     uint8 result = CAN_FAIL;
 1557              		.loc 1 1439 0
 1558              		.cfi_startproc
 1559              		@ args = 0, pretend = 0, frame = 0
 1560              		@ frame_needed = 0, uses_anonymous_args = 0
 1561              		@ link register save eliminated.
 1562              	.LVL114:
 1563 0000 0A4B     		ldr	r3, .L149
1442:Generated_Source\PSoC4/CAN.c ****     {
ARM GAS  C:\Users\RYANCA~1\AppData\Local\Temp\ccuGCfpb.s 			page 56


 1564              		.loc 1 1442 0
 1565 0002 0028     		cmp	r0, #0
 1566 0004 07D1     		bne	.L147
 1567              	.LVL115:
 1568              	.LBB104:
 1569              	.LBB105:
1444:Generated_Source\PSoC4/CAN.c **** 
 1570              		.loc 1 1444 0
 1571 0006 1968     		ldr	r1, [r3]
 1572 0008 094A     		ldr	r2, .L149+4
 1573 000a 0A40     		ands	r2, r1
 1574 000c 1A60     		str	r2, [r3]
 1575              		.loc 1 1447 0
 1576 000e 1868     		ldr	r0, [r3]
 1577              	.LVL116:
1448:Generated_Source\PSoC4/CAN.c ****         {
1449:Generated_Source\PSoC4/CAN.c ****             result = CYRET_SUCCESS;
 1578              		.loc 1 1449 0
 1579 0010 8004     		lsls	r0, r0, #18
 1580 0012 C00F     		lsrs	r0, r0, #31
 1581 0014 08E0     		b	.L148
 1582              	.LVL117:
 1583              	.L147:
 1584              	.LBE105:
 1585              	.LBE104:
1450:Generated_Source\PSoC4/CAN.c ****         }
1451:Generated_Source\PSoC4/CAN.c ****     }
1452:Generated_Source\PSoC4/CAN.c ****     else    /* Little endian */
1453:Generated_Source\PSoC4/CAN.c ****     {
1454:Generated_Source\PSoC4/CAN.c ****         CAN_CFG_REG |= CAN_ENDIANNESS_MASK;
 1586              		.loc 1 1454 0
 1587 0016 8021     		movs	r1, #128
 1588              	.LBB108:
 1589              	.LBB106:
1449:Generated_Source\PSoC4/CAN.c ****         }
 1590              		.loc 1 1449 0
 1591 0018 0120     		movs	r0, #1
 1592              	.LVL118:
 1593              	.LBE106:
 1594              	.LBE108:
 1595              		.loc 1 1454 0
 1596 001a 1A68     		ldr	r2, [r3]
 1597 001c 8901     		lsls	r1, r1, #6
 1598 001e 0A43     		orrs	r2, r1
 1599 0020 1A60     		str	r2, [r3]
1455:Generated_Source\PSoC4/CAN.c **** 
1456:Generated_Source\PSoC4/CAN.c ****         /* Verify that bit is set */
1457:Generated_Source\PSoC4/CAN.c ****         if ((CAN_CFG_REG & CAN_ENDIANNESS_MASK) != 0u)
 1600              		.loc 1 1457 0
 1601 0022 1B68     		ldr	r3, [r3]
 1602              	.LBB109:
 1603              	.LBB107:
1449:Generated_Source\PSoC4/CAN.c ****         }
 1604              		.loc 1 1449 0
 1605 0024 5B0B     		lsrs	r3, r3, #13
 1606 0026 9843     		bics	r0, r3
 1607              	.L148:
ARM GAS  C:\Users\RYANCA~1\AppData\Local\Temp\ccuGCfpb.s 			page 57


 1608              	.LVL119:
 1609              	.LBE107:
 1610              	.LBE109:
1458:Generated_Source\PSoC4/CAN.c ****         {
1459:Generated_Source\PSoC4/CAN.c ****             result = CYRET_SUCCESS;
1460:Generated_Source\PSoC4/CAN.c ****         }
1461:Generated_Source\PSoC4/CAN.c ****     }
1462:Generated_Source\PSoC4/CAN.c **** 
1463:Generated_Source\PSoC4/CAN.c ****     return (result);
1464:Generated_Source\PSoC4/CAN.c **** }
 1611              		.loc 1 1464 0
 1612              		@ sp needed
 1613 0028 7047     		bx	lr
 1614              	.L150:
 1615 002a C046     		.align	2
 1616              	.L149:
 1617 002c 14002F40 		.word	1076822036
 1618 0030 FFDFFFFF 		.word	-8193
 1619              		.cfi_endproc
 1620              	.LFE23:
 1621              		.size	CAN_SetSwapDataEndianness, .-CAN_SetSwapDataEndianness
 1622              		.section	.text.CAN_SetErrorCaptureRegisterMode,"ax",%progbits
 1623              		.align	1
 1624              		.global	CAN_SetErrorCaptureRegisterMode
 1625              		.code	16
 1626              		.thumb_func
 1627              		.type	CAN_SetErrorCaptureRegisterMode, %function
 1628              	CAN_SetErrorCaptureRegisterMode:
 1629              	.LFB24:
1465:Generated_Source\PSoC4/CAN.c **** 
1466:Generated_Source\PSoC4/CAN.c **** 
1467:Generated_Source\PSoC4/CAN.c **** /*******************************************************************************
1468:Generated_Source\PSoC4/CAN.c **** * FUNCTION NAME:   CAN_SetErrorCaptureRegisterMode
1469:Generated_Source\PSoC4/CAN.c **** ********************************************************************************
1470:Generated_Source\PSoC4/CAN.c **** *
1471:Generated_Source\PSoC4/CAN.c **** * Summary:
1472:Generated_Source\PSoC4/CAN.c **** *  This function sets the Error Capture register mode. The two modes are
1473:Generated_Source\PSoC4/CAN.c **** *  possible: Free Running and Error Capture.
1474:Generated_Source\PSoC4/CAN.c **** *
1475:Generated_Source\PSoC4/CAN.c **** * Parameters:
1476:Generated_Source\PSoC4/CAN.c **** *  ecrMode: The Error Capture register mode setting.
1477:Generated_Source\PSoC4/CAN.c **** *   Define                               Description
1478:Generated_Source\PSoC4/CAN.c **** *   CAN_ECR_FREE_RUNNING     The ECR captures the field and bit
1479:Generated_Source\PSoC4/CAN.c **** *                                         position within the current CAN frame.
1480:Generated_Source\PSoC4/CAN.c **** *   CAN_ECR_ERROR_CAPTURE    In this mode the ECR register only
1481:Generated_Source\PSoC4/CAN.c **** *                                         captures an error event. For
1482:Generated_Source\PSoC4/CAN.c **** *                                         successive error captures, the ECR
1483:Generated_Source\PSoC4/CAN.c **** *                                         needs to be armed again by writing
1484:Generated_Source\PSoC4/CAN.c **** *                                         to the ECR register.
1485:Generated_Source\PSoC4/CAN.c **** *
1486:Generated_Source\PSoC4/CAN.c **** * Return:
1487:Generated_Source\PSoC4/CAN.c **** *  The indication whether the register is written and verified.
1488:Generated_Source\PSoC4/CAN.c **** *   Define                             Description
1489:Generated_Source\PSoC4/CAN.c **** *    CYRET_SUCCESS                      The function passed successfully
1490:Generated_Source\PSoC4/CAN.c **** *    CAN_FAIL              The function failed
1491:Generated_Source\PSoC4/CAN.c **** *
1492:Generated_Source\PSoC4/CAN.c **** *******************************************************************************/
ARM GAS  C:\Users\RYANCA~1\AppData\Local\Temp\ccuGCfpb.s 			page 58


1493:Generated_Source\PSoC4/CAN.c **** uint8 CAN_SetErrorCaptureRegisterMode(uint8 ecrMode)
1494:Generated_Source\PSoC4/CAN.c **** {
 1630              		.loc 1 1494 0
 1631              		.cfi_startproc
 1632              		@ args = 0, pretend = 0, frame = 0
 1633              		@ frame_needed = 0, uses_anonymous_args = 0
 1634              		@ link register save eliminated.
 1635              	.LVL120:
 1636 0000 0A4B     		ldr	r3, .L154
1495:Generated_Source\PSoC4/CAN.c ****     uint8 result = CAN_FAIL;
1496:Generated_Source\PSoC4/CAN.c **** 
1497:Generated_Source\PSoC4/CAN.c ****     if (ecrMode == CAN_ECR_FREE_RUNNING)
 1637              		.loc 1 1497 0
 1638 0002 0028     		cmp	r0, #0
 1639 0004 07D1     		bne	.L152
1498:Generated_Source\PSoC4/CAN.c ****     {
1499:Generated_Source\PSoC4/CAN.c ****         CAN_CFG_REG &= (uint32) (~CAN_ECR_MODE_MASK);
 1640              		.loc 1 1499 0
 1641 0006 1968     		ldr	r1, [r3]
 1642 0008 094A     		ldr	r2, .L154+4
 1643 000a 0A40     		ands	r2, r1
 1644 000c 1A60     		str	r2, [r3]
1500:Generated_Source\PSoC4/CAN.c **** 
1501:Generated_Source\PSoC4/CAN.c ****         /* Verify that bit is cleared */
1502:Generated_Source\PSoC4/CAN.c ****         if ((CAN_CFG_REG & CAN_ECR_MODE_MASK) == 0u)
 1645              		.loc 1 1502 0
 1646 000e 1868     		ldr	r0, [r3]
 1647              	.LVL121:
1503:Generated_Source\PSoC4/CAN.c ****         {
1504:Generated_Source\PSoC4/CAN.c ****             result = CYRET_SUCCESS;
 1648              		.loc 1 1504 0
 1649 0010 4004     		lsls	r0, r0, #17
 1650 0012 C00F     		lsrs	r0, r0, #31
 1651 0014 08E0     		b	.L153
 1652              	.LVL122:
 1653              	.L152:
1505:Generated_Source\PSoC4/CAN.c ****         }
1506:Generated_Source\PSoC4/CAN.c ****     }
1507:Generated_Source\PSoC4/CAN.c ****     else    /* Capture mode */
1508:Generated_Source\PSoC4/CAN.c ****     {
1509:Generated_Source\PSoC4/CAN.c ****         CAN_CFG_REG |= CAN_ECR_MODE_MASK;
 1654              		.loc 1 1509 0
 1655 0016 8021     		movs	r1, #128
1504:Generated_Source\PSoC4/CAN.c ****         }
 1656              		.loc 1 1504 0
 1657 0018 0120     		movs	r0, #1
 1658              	.LVL123:
 1659              		.loc 1 1509 0
 1660 001a 1A68     		ldr	r2, [r3]
 1661 001c C901     		lsls	r1, r1, #7
 1662 001e 0A43     		orrs	r2, r1
 1663 0020 1A60     		str	r2, [r3]
1510:Generated_Source\PSoC4/CAN.c **** 
1511:Generated_Source\PSoC4/CAN.c ****         /* Verify that bit is set */
1512:Generated_Source\PSoC4/CAN.c ****         if ((CAN_CFG_REG & CAN_ECR_MODE_MASK) != 0u)
 1664              		.loc 1 1512 0
 1665 0022 1B68     		ldr	r3, [r3]
ARM GAS  C:\Users\RYANCA~1\AppData\Local\Temp\ccuGCfpb.s 			page 59


1504:Generated_Source\PSoC4/CAN.c ****         }
 1666              		.loc 1 1504 0
 1667 0024 9B0B     		lsrs	r3, r3, #14
 1668 0026 9843     		bics	r0, r3
 1669              	.L153:
 1670              	.LVL124:
1513:Generated_Source\PSoC4/CAN.c ****         {
1514:Generated_Source\PSoC4/CAN.c ****             result = CYRET_SUCCESS;
1515:Generated_Source\PSoC4/CAN.c ****         }
1516:Generated_Source\PSoC4/CAN.c ****     }
1517:Generated_Source\PSoC4/CAN.c **** 
1518:Generated_Source\PSoC4/CAN.c ****     return (result);
1519:Generated_Source\PSoC4/CAN.c **** }
 1671              		.loc 1 1519 0
 1672              		@ sp needed
 1673 0028 7047     		bx	lr
 1674              	.L155:
 1675 002a C046     		.align	2
 1676              	.L154:
 1677 002c 14002F40 		.word	1076822036
 1678 0030 FFBFFFFF 		.word	-16385
 1679              		.cfi_endproc
 1680              	.LFE24:
 1681              		.size	CAN_SetErrorCaptureRegisterMode, .-CAN_SetErrorCaptureRegisterMode
 1682              		.section	.text.CAN_ReadErrorCaptureRegister,"ax",%progbits
 1683              		.align	1
 1684              		.global	CAN_ReadErrorCaptureRegister
 1685              		.code	16
 1686              		.thumb_func
 1687              		.type	CAN_ReadErrorCaptureRegister, %function
 1688              	CAN_ReadErrorCaptureRegister:
 1689              	.LFB25:
1520:Generated_Source\PSoC4/CAN.c **** 
1521:Generated_Source\PSoC4/CAN.c **** 
1522:Generated_Source\PSoC4/CAN.c **** /*******************************************************************************
1523:Generated_Source\PSoC4/CAN.c **** * FUNCTION NAME:   CAN_ReadErrorCaptureRegister
1524:Generated_Source\PSoC4/CAN.c **** ********************************************************************************
1525:Generated_Source\PSoC4/CAN.c **** *
1526:Generated_Source\PSoC4/CAN.c **** * Summary:
1527:Generated_Source\PSoC4/CAN.c **** *  This function returns the value of the Error Capture register.
1528:Generated_Source\PSoC4/CAN.c **** *
1529:Generated_Source\PSoC4/CAN.c **** * Parameters:
1530:Generated_Source\PSoC4/CAN.c **** *  None.
1531:Generated_Source\PSoC4/CAN.c **** *
1532:Generated_Source\PSoC4/CAN.c **** * Return:
1533:Generated_Source\PSoC4/CAN.c **** *  The value of the Error Capture register.
1534:Generated_Source\PSoC4/CAN.c **** *   Bit  Name          Values
1535:Generated_Source\PSoC4/CAN.c **** *    0    ECR_STATUS    0: The ECR register captured an error or it is a free
1536:Generated_Source\PSoC4/CAN.c **** *                          running mode
1537:Generated_Source\PSoC4/CAN.c **** *                       1: The ECR register is armed
1538:Generated_Source\PSoC4/CAN.c **** *   3:1   ERROR_TYPE    000 : Arbitration loss
1539:Generated_Source\PSoC4/CAN.c **** *                       001 : Bit Error
1540:Generated_Source\PSoC4/CAN.c **** *                       010 : Bit Stuffing Error
1541:Generated_Source\PSoC4/CAN.c **** *                       011 : Acknowledge Error
1542:Generated_Source\PSoC4/CAN.c **** *                       100 : Form Error
1543:Generated_Source\PSoC4/CAN.c **** *                       101 : CRC Error
1544:Generated_Source\PSoC4/CAN.c **** *                       Others : N/A
ARM GAS  C:\Users\RYANCA~1\AppData\Local\Temp\ccuGCfpb.s 			page 60


1545:Generated_Source\PSoC4/CAN.c **** *    4    TX_MODE       0: No status
1546:Generated_Source\PSoC4/CAN.c **** *                       1: CAN Controller is the transmitter
1547:Generated_Source\PSoC4/CAN.c **** *    5    RX_MODE       0: No status
1548:Generated_Source\PSoC4/CAN.c **** *                       1: CAN Controller is the receiver
1549:Generated_Source\PSoC4/CAN.c **** *  11:6   BIT           Bit number inside of Field
1550:Generated_Source\PSoC4/CAN.c **** *  12:16  Field         0x00 : Stopped
1551:Generated_Source\PSoC4/CAN.c **** *                       0x01 : Synchronize
1552:Generated_Source\PSoC4/CAN.c **** *                       0x05 : Interframe
1553:Generated_Source\PSoC4/CAN.c **** *                       0x06 : Bus Idle
1554:Generated_Source\PSoC4/CAN.c **** *                       0x07 : Start of Frame
1555:Generated_Source\PSoC4/CAN.c **** *                       0x08 : Arbitration
1556:Generated_Source\PSoC4/CAN.c **** *                       0x09 : Control
1557:Generated_Source\PSoC4/CAN.c **** *                       0x0A : Data
1558:Generated_Source\PSoC4/CAN.c **** *                       0x0B : CRC
1559:Generated_Source\PSoC4/CAN.c **** *                       0x0C : ACK
1560:Generated_Source\PSoC4/CAN.c **** *                       0x0D : End of frame
1561:Generated_Source\PSoC4/CAN.c **** *                       0x10 : Error flag
1562:Generated_Source\PSoC4/CAN.c **** *                       0x11 : Error echo
1563:Generated_Source\PSoC4/CAN.c **** *                       0x12 : Error delimiter
1564:Generated_Source\PSoC4/CAN.c **** *                       0x18 : Overload flag
1565:Generated_Source\PSoC4/CAN.c **** *                       0x19 : Overload echo
1566:Generated_Source\PSoC4/CAN.c **** *                       0x1A : Overload delimiter
1567:Generated_Source\PSoC4/CAN.c **** *                       Others : N/A
1568:Generated_Source\PSoC4/CAN.c **** *
1569:Generated_Source\PSoC4/CAN.c **** *******************************************************************************/
1570:Generated_Source\PSoC4/CAN.c **** uint32 CAN_ReadErrorCaptureRegister(void)
1571:Generated_Source\PSoC4/CAN.c **** {
 1690              		.loc 1 1571 0
 1691              		.cfi_startproc
 1692              		@ args = 0, pretend = 0, frame = 0
 1693              		@ frame_needed = 0, uses_anonymous_args = 0
 1694              		@ link register save eliminated.
1572:Generated_Source\PSoC4/CAN.c ****     return (CAN_ECR_REG);
 1695              		.loc 1 1572 0
 1696 0000 014B     		ldr	r3, .L157
1573:Generated_Source\PSoC4/CAN.c **** }
 1697              		.loc 1 1573 0
 1698              		@ sp needed
1572:Generated_Source\PSoC4/CAN.c ****     return (CAN_ECR_REG);
 1699              		.loc 1 1572 0
 1700 0002 1868     		ldr	r0, [r3]
 1701              		.loc 1 1573 0
 1702 0004 7047     		bx	lr
 1703              	.L158:
 1704 0006 C046     		.align	2
 1705              	.L157:
 1706 0008 18002F40 		.word	1076822040
 1707              		.cfi_endproc
 1708              	.LFE25:
 1709              		.size	CAN_ReadErrorCaptureRegister, .-CAN_ReadErrorCaptureRegister
 1710              		.section	.text.CAN_ArmErrorCaptureRegister,"ax",%progbits
 1711              		.align	1
 1712              		.global	CAN_ArmErrorCaptureRegister
 1713              		.code	16
 1714              		.thumb_func
 1715              		.type	CAN_ArmErrorCaptureRegister, %function
 1716              	CAN_ArmErrorCaptureRegister:
ARM GAS  C:\Users\RYANCA~1\AppData\Local\Temp\ccuGCfpb.s 			page 61


 1717              	.LFB26:
1574:Generated_Source\PSoC4/CAN.c **** 
1575:Generated_Source\PSoC4/CAN.c **** 
1576:Generated_Source\PSoC4/CAN.c **** /*******************************************************************************
1577:Generated_Source\PSoC4/CAN.c **** * FUNCTION NAME:   CAN_ArmErrorCaptureRegister
1578:Generated_Source\PSoC4/CAN.c **** ********************************************************************************
1579:Generated_Source\PSoC4/CAN.c **** *
1580:Generated_Source\PSoC4/CAN.c **** * Summary:
1581:Generated_Source\PSoC4/CAN.c **** *  This function arms the Error Capture register when the ECR is in the Error
1582:Generated_Source\PSoC4/CAN.c **** *  Capture mode, by setting the ECR_STATUS bit in the ECR register.
1583:Generated_Source\PSoC4/CAN.c **** *
1584:Generated_Source\PSoC4/CAN.c **** * Parameters:
1585:Generated_Source\PSoC4/CAN.c **** *  None.
1586:Generated_Source\PSoC4/CAN.c **** *
1587:Generated_Source\PSoC4/CAN.c **** * Return:
1588:Generated_Source\PSoC4/CAN.c **** *  The indication whether the register is written and verified.
1589:Generated_Source\PSoC4/CAN.c **** *   Define                             Description
1590:Generated_Source\PSoC4/CAN.c **** *    CYRET_SUCCESS                      The function passed successfully
1591:Generated_Source\PSoC4/CAN.c **** *    CAN_FAIL              The function failed
1592:Generated_Source\PSoC4/CAN.c **** *
1593:Generated_Source\PSoC4/CAN.c **** *******************************************************************************/
1594:Generated_Source\PSoC4/CAN.c **** uint8 CAN_ArmErrorCaptureRegister(void)
1595:Generated_Source\PSoC4/CAN.c **** {
 1718              		.loc 1 1595 0
 1719              		.cfi_startproc
 1720              		@ args = 0, pretend = 0, frame = 0
 1721              		@ frame_needed = 0, uses_anonymous_args = 0
 1722              		@ link register save eliminated.
 1723              	.LVL125:
1596:Generated_Source\PSoC4/CAN.c ****     uint8 result = CAN_FAIL;
1597:Generated_Source\PSoC4/CAN.c **** 
1598:Generated_Source\PSoC4/CAN.c ****     CAN_ECR_REG |= CAN_ECR_STATUS_ARM;
 1724              		.loc 1 1598 0
 1725 0000 0120     		movs	r0, #1
 1726 0002 034B     		ldr	r3, .L160
1599:Generated_Source\PSoC4/CAN.c **** 
1600:Generated_Source\PSoC4/CAN.c ****     /* Verify that bit is set */
1601:Generated_Source\PSoC4/CAN.c ****     if ((CAN_ECR_REG & CAN_ECR_STATUS_ARM) != 0u)
1602:Generated_Source\PSoC4/CAN.c ****     {
1603:Generated_Source\PSoC4/CAN.c ****         result = CYRET_SUCCESS;
1604:Generated_Source\PSoC4/CAN.c ****     }
1605:Generated_Source\PSoC4/CAN.c **** 
1606:Generated_Source\PSoC4/CAN.c ****     return (result);
1607:Generated_Source\PSoC4/CAN.c **** }
 1727              		.loc 1 1607 0
 1728              		@ sp needed
1598:Generated_Source\PSoC4/CAN.c **** 
 1729              		.loc 1 1598 0
 1730 0004 1A68     		ldr	r2, [r3]
 1731 0006 0243     		orrs	r2, r0
 1732 0008 1A60     		str	r2, [r3]
1601:Generated_Source\PSoC4/CAN.c ****     {
 1733              		.loc 1 1601 0
 1734 000a 1B68     		ldr	r3, [r3]
 1735              	.LVL126:
1606:Generated_Source\PSoC4/CAN.c **** }
 1736              		.loc 1 1606 0
ARM GAS  C:\Users\RYANCA~1\AppData\Local\Temp\ccuGCfpb.s 			page 62


 1737 000c 9843     		bics	r0, r3
 1738              		.loc 1 1607 0
 1739 000e 7047     		bx	lr
 1740              	.L161:
 1741              		.align	2
 1742              	.L160:
 1743 0010 18002F40 		.word	1076822040
 1744              		.cfi_endproc
 1745              	.LFE26:
 1746              		.size	CAN_ArmErrorCaptureRegister, .-CAN_ArmErrorCaptureRegister
 1747              		.global	CAN_initVar
 1748              		.section	.rodata
 1749              		.align	2
 1750              		.set	.LANCHOR0,. + 0
 1751              		.type	CAN_TXConfigStruct.4984, %object
 1752              		.size	CAN_TXConfigStruct.4984, 96
 1753              	CAN_TXConfigStruct.4984:
 1754 0000 00       		.byte	0
 1755 0001 000000   		.space	3
 1756 0004 00000100 		.word	65536
 1757 0008 0000001A 		.word	436207616
 1758 000c 01       		.byte	1
 1759 000d 000000   		.space	3
 1760 0010 00000000 		.word	0
 1761 0014 00000000 		.word	0
 1762 0018 02       		.byte	2
 1763 0019 000000   		.space	3
 1764 001c 00000000 		.word	0
 1765 0020 00000000 		.word	0
 1766 0024 03       		.byte	3
 1767 0025 000000   		.space	3
 1768 0028 00000000 		.word	0
 1769 002c 00000000 		.word	0
 1770 0030 04       		.byte	4
 1771 0031 000000   		.space	3
 1772 0034 00000000 		.word	0
 1773 0038 00000000 		.word	0
 1774 003c 05       		.byte	5
 1775 003d 000000   		.space	3
 1776 0040 00000000 		.word	0
 1777 0044 00000000 		.word	0
 1778 0048 06       		.byte	6
 1779 0049 000000   		.space	3
 1780 004c 00000000 		.word	0
 1781 0050 00000000 		.word	0
 1782 0054 07       		.byte	7
 1783 0055 000000   		.space	3
 1784 0058 00000000 		.word	0
 1785 005c 00000000 		.word	0
 1786              		.type	CAN_RXConfigStruct.4983, %object
 1787              		.size	CAN_RXConfigStruct.4983, 256
 1788              	CAN_RXConfigStruct.4983:
 1789 0060 00       		.byte	0
 1790 0061 000000   		.space	3
 1791 0064 28000000 		.word	40
 1792 0068 F9FF1F00 		.word	2097145
 1793 006c 0000C0EC 		.word	-322961408
ARM GAS  C:\Users\RYANCA~1\AppData\Local\Temp\ccuGCfpb.s 			page 63


 1794 0070 01       		.byte	1
 1795 0071 000000   		.space	3
 1796 0074 28000000 		.word	40
 1797 0078 F9FF1F00 		.word	2097145
 1798 007c 00000070 		.word	1879048192
 1799 0080 02       		.byte	2
 1800 0081 000000   		.space	3
 1801 0084 28000000 		.word	40
 1802 0088 F9FF1F00 		.word	2097145
 1803 008c 00002071 		.word	1897922560
 1804 0090 03       		.byte	3
 1805 0091 000000   		.space	3
 1806 0094 28000000 		.word	40
 1807 0098 F9FF1F00 		.word	2097145
 1808 009c 0000C0AC 		.word	-1396703232
 1809 00a0 04       		.byte	4
 1810 00a1 000000   		.space	3
 1811 00a4 28000000 		.word	40
 1812 00a8 F9FF1F00 		.word	2097145
 1813 00ac 0000C0CC 		.word	-859832320
 1814 00b0 05       		.byte	5
 1815 00b1 000000   		.space	3
 1816 00b4 28000000 		.word	40
 1817 00b8 F9FF1F00 		.word	2097145
 1818 00bc 0000E070 		.word	1893728256
 1819 00c0 06       		.byte	6
 1820 00c1 000000   		.space	3
 1821 00c4 A8008000 		.word	8388776
 1822 00c8 FFFFFFFF 		.word	-1
 1823 00cc 00000000 		.word	0
 1824 00d0 07       		.byte	7
 1825 00d1 000000   		.space	3
 1826 00d4 A8008000 		.word	8388776
 1827 00d8 FFFFFFFF 		.word	-1
 1828 00dc 00000000 		.word	0
 1829 00e0 08       		.byte	8
 1830 00e1 000000   		.space	3
 1831 00e4 A8008000 		.word	8388776
 1832 00e8 FFFFFFFF 		.word	-1
 1833 00ec 00000000 		.word	0
 1834 00f0 09       		.byte	9
 1835 00f1 000000   		.space	3
 1836 00f4 A8008000 		.word	8388776
 1837 00f8 FFFFFFFF 		.word	-1
 1838 00fc 00000000 		.word	0
 1839 0100 0A       		.byte	10
 1840 0101 000000   		.space	3
 1841 0104 A8008000 		.word	8388776
 1842 0108 FFFFFFFF 		.word	-1
 1843 010c 00000000 		.word	0
 1844 0110 0B       		.byte	11
 1845 0111 000000   		.space	3
 1846 0114 A8008000 		.word	8388776
 1847 0118 FFFFFFFF 		.word	-1
 1848 011c 00000000 		.word	0
 1849 0120 0C       		.byte	12
 1850 0121 000000   		.space	3
ARM GAS  C:\Users\RYANCA~1\AppData\Local\Temp\ccuGCfpb.s 			page 64


 1851 0124 A8008000 		.word	8388776
 1852 0128 FFFFFFFF 		.word	-1
 1853 012c 00000000 		.word	0
 1854 0130 0D       		.byte	13
 1855 0131 000000   		.space	3
 1856 0134 A8008000 		.word	8388776
 1857 0138 FFFFFFFF 		.word	-1
 1858 013c 00000000 		.word	0
 1859 0140 0E       		.byte	14
 1860 0141 000000   		.space	3
 1861 0144 A8008000 		.word	8388776
 1862 0148 FFFFFFFF 		.word	-1
 1863 014c 00000000 		.word	0
 1864 0150 0F       		.byte	15
 1865 0151 000000   		.space	3
 1866 0154 A8008000 		.word	8388776
 1867 0158 FFFFFFFF 		.word	-1
 1868 015c 00000000 		.word	0
 1869              		.bss
 1870              		.set	.LANCHOR1,. + 0
 1871              		.type	CAN_initVar, %object
 1872              		.size	CAN_initVar, 1
 1873              	CAN_initVar:
 1874 0000 00       		.space	1
 1875              		.text
 1876              	.Letext0:
 1877              		.file 2 "Generated_Source\\PSoC4\\cytypes.h"
 1878              		.file 3 "Generated_Source\\PSoC4\\CAN.h"
 1879              		.file 4 "Generated_Source\\PSoC4\\CyLib.h"