ARM GAS  C:\Users\RYANCA~1\AppData\Local\Temp\ccuGCfpb.s 			page 1


   1              		.syntax unified
   2              		.cpu cortex-m0
   3              		.fpu softvfp
   4              		.eabi_attribute 20, 1
   5              		.eabi_attribute 21, 1
   6              		.eabi_attribute 23, 3
   7              		.eabi_attribute 24, 1
   8              		.eabi_attribute 25, 1
   9              		.eabi_attribute 26, 1
  10              		.eabi_attribute 30, 4
  11              		.eabi_attribute 34, 0
  12              		.eabi_attribute 18, 4
  13              		.thumb
  14              		.syntax unified
  15              		.file	"CAN.c"
  16              		.text
  17              	.Ltext0:
  18              		.cfi_sections	.debug_frame
  19              		.section	.text.CAN_Stop,"ax",%progbits
  20              		.align	1
  21              		.global	CAN_Stop
  22              		.code	16
  23              		.thumb_func
  24              		.type	CAN_Stop, %function
  25              	CAN_Stop:
  26              	.LFB5:
  27              		.file 1 "Generated_Source\\PSoC4\\CAN.c"
   1:Generated_Source\PSoC4/CAN.c **** /*******************************************************************************
   2:Generated_Source\PSoC4/CAN.c **** * File Name: CAN.c
   3:Generated_Source\PSoC4/CAN.c **** * Version 3.0
   4:Generated_Source\PSoC4/CAN.c **** *
   5:Generated_Source\PSoC4/CAN.c **** * Description:
   6:Generated_Source\PSoC4/CAN.c **** *  The CAN Component provides functionality of Control Area Network.
   7:Generated_Source\PSoC4/CAN.c **** *  The two types of mailbox configuration available are "Full" and "Basic".
   8:Generated_Source\PSoC4/CAN.c **** *
   9:Generated_Source\PSoC4/CAN.c **** * Note:
  10:Generated_Source\PSoC4/CAN.c **** *  The CAN configuration is put as constant to ROM and can be changed
  11:Generated_Source\PSoC4/CAN.c **** *  only directly by the registers written by the user.
  12:Generated_Source\PSoC4/CAN.c **** *
  13:Generated_Source\PSoC4/CAN.c **** ********************************************************************************
  14:Generated_Source\PSoC4/CAN.c **** * Copyright 2008-2015, Cypress Semiconductor Corporation.  All rights reserved.
  15:Generated_Source\PSoC4/CAN.c **** * You may use this file only in accordance with the license, terms, conditions,
  16:Generated_Source\PSoC4/CAN.c **** * disclaimers, and limitations in the end user license agreement accompanying
  17:Generated_Source\PSoC4/CAN.c **** * the software package with which this file was provided.
  18:Generated_Source\PSoC4/CAN.c **** *******************************************************************************/
  19:Generated_Source\PSoC4/CAN.c **** 
  20:Generated_Source\PSoC4/CAN.c **** #include "CAN.h"
  21:Generated_Source\PSoC4/CAN.c **** 
  22:Generated_Source\PSoC4/CAN.c **** uint8 CAN_initVar = 0u;
  23:Generated_Source\PSoC4/CAN.c **** 
  24:Generated_Source\PSoC4/CAN.c **** 
  25:Generated_Source\PSoC4/CAN.c **** /*******************************************************************************
  26:Generated_Source\PSoC4/CAN.c **** * FUNCTION NAME:   CAN_RxTxBuffersConfig
  27:Generated_Source\PSoC4/CAN.c **** ********************************************************************************
  28:Generated_Source\PSoC4/CAN.c **** *
  29:Generated_Source\PSoC4/CAN.c **** * Summary:
  30:Generated_Source\PSoC4/CAN.c **** *  Inits/Restores default CAN Rx and Tx Buffers control registers configuration
ARM GAS  C:\Users\RYANCA~1\AppData\Local\Temp\ccuGCfpb.s 			page 2


  31:Generated_Source\PSoC4/CAN.c **** *  provided by the customizer.
  32:Generated_Source\PSoC4/CAN.c **** *
  33:Generated_Source\PSoC4/CAN.c **** * Parameters:
  34:Generated_Source\PSoC4/CAN.c **** *  None.
  35:Generated_Source\PSoC4/CAN.c **** *
  36:Generated_Source\PSoC4/CAN.c **** * Return:
  37:Generated_Source\PSoC4/CAN.c **** *  The indication whether the configuration has been accepted or rejected.
  38:Generated_Source\PSoC4/CAN.c **** *   Define                             Description
  39:Generated_Source\PSoC4/CAN.c **** *    CYRET_SUCCESS                      The function passed successfully
  40:Generated_Source\PSoC4/CAN.c **** *    CAN_FAIL              The function failed
  41:Generated_Source\PSoC4/CAN.c **** *
  42:Generated_Source\PSoC4/CAN.c **** * Side Effects:
  43:Generated_Source\PSoC4/CAN.c **** *  All the Rx and Tx Buffers control registers will be reset to their initial
  44:Generated_Source\PSoC4/CAN.c **** *  values.
  45:Generated_Source\PSoC4/CAN.c **** *
  46:Generated_Source\PSoC4/CAN.c **** *******************************************************************************/
  47:Generated_Source\PSoC4/CAN.c **** uint8 CAN_RxTxBuffersConfig(void) 
  48:Generated_Source\PSoC4/CAN.c **** {
  49:Generated_Source\PSoC4/CAN.c ****     /* Initial values of CAN RX and TX registers */
  50:Generated_Source\PSoC4/CAN.c ****     static const CAN_RX_CFG CYCODE CAN_RXConfigStruct[] =
  51:Generated_Source\PSoC4/CAN.c ****     {
  52:Generated_Source\PSoC4/CAN.c ****         { 0u, 0x28u, 0x1FFFF9u, 0xECC00000u },
  53:Generated_Source\PSoC4/CAN.c ****         { 1u, 0x28u, 0x1FFFF9u, 0x70000000u },
  54:Generated_Source\PSoC4/CAN.c ****         { 2u, 0x28u, 0x1FFFF9u, 0x71200000u },
  55:Generated_Source\PSoC4/CAN.c ****         { 3u, 0x28u, 0x1FFFF9u, 0xACC00000u },
  56:Generated_Source\PSoC4/CAN.c ****         { 4u, 0x28u, 0x1FFFF9u, 0xCCC00000u },
  57:Generated_Source\PSoC4/CAN.c ****         { 5u, 0x28u, 0x1FFFF9u, 0x70E00000u },
  58:Generated_Source\PSoC4/CAN.c ****         { 6u, 0x8000A8u, 0xFFFFFFFFu, 0x0u },
  59:Generated_Source\PSoC4/CAN.c ****         { 7u, 0x8000A8u, 0xFFFFFFFFu, 0x0u },
  60:Generated_Source\PSoC4/CAN.c ****         { 8u, 0x8000A8u, 0xFFFFFFFFu, 0x0u },
  61:Generated_Source\PSoC4/CAN.c ****         { 9u, 0x8000A8u, 0xFFFFFFFFu, 0x0u },
  62:Generated_Source\PSoC4/CAN.c ****         { 10u, 0x8000A8u, 0xFFFFFFFFu, 0x0u },
  63:Generated_Source\PSoC4/CAN.c ****         { 11u, 0x8000A8u, 0xFFFFFFFFu, 0x0u },
  64:Generated_Source\PSoC4/CAN.c ****         { 12u, 0x8000A8u, 0xFFFFFFFFu, 0x0u },
  65:Generated_Source\PSoC4/CAN.c ****         { 13u, 0x8000A8u, 0xFFFFFFFFu, 0x0u },
  66:Generated_Source\PSoC4/CAN.c ****         { 14u, 0x8000A8u, 0xFFFFFFFFu, 0x0u },
  67:Generated_Source\PSoC4/CAN.c ****         { 15u, 0x8000A8u, 0xFFFFFFFFu, 0x0u }
  68:Generated_Source\PSoC4/CAN.c ****     };
  69:Generated_Source\PSoC4/CAN.c **** 
  70:Generated_Source\PSoC4/CAN.c ****     static const CAN_TX_CFG CYCODE CAN_TXConfigStruct[] =
  71:Generated_Source\PSoC4/CAN.c ****     {
  72:Generated_Source\PSoC4/CAN.c ****         { 0u, 0x10000u, 0x1A000000u },
  73:Generated_Source\PSoC4/CAN.c ****         { 1u, 0x0u, 0x0u },
  74:Generated_Source\PSoC4/CAN.c ****         { 2u, 0x0u, 0x0u },
  75:Generated_Source\PSoC4/CAN.c ****         { 3u, 0x0u, 0x0u },
  76:Generated_Source\PSoC4/CAN.c ****         { 4u, 0x0u, 0x0u },
  77:Generated_Source\PSoC4/CAN.c ****         { 5u, 0x0u, 0x0u },
  78:Generated_Source\PSoC4/CAN.c ****         { 6u, 0x0u, 0x0u },
  79:Generated_Source\PSoC4/CAN.c ****         { 7u, 0x0u, 0x0u }
  80:Generated_Source\PSoC4/CAN.c ****     };
  81:Generated_Source\PSoC4/CAN.c **** 
  82:Generated_Source\PSoC4/CAN.c ****     uint8 result = CYRET_SUCCESS;
  83:Generated_Source\PSoC4/CAN.c ****     uint8 i;
  84:Generated_Source\PSoC4/CAN.c **** 
  85:Generated_Source\PSoC4/CAN.c ****     /* Initialize TX mailboxes */
  86:Generated_Source\PSoC4/CAN.c ****     for (i = 0u; i < CAN_NUMBER_OF_TX_MAILBOXES; i++)
  87:Generated_Source\PSoC4/CAN.c ****     {
ARM GAS  C:\Users\RYANCA~1\AppData\Local\Temp\ccuGCfpb.s 			page 3


  88:Generated_Source\PSoC4/CAN.c ****         if (CAN_TxBufConfig((const CAN_TX_CFG *)
  89:Generated_Source\PSoC4/CAN.c ****             (&CAN_TXConfigStruct[i])) != CYRET_SUCCESS)
  90:Generated_Source\PSoC4/CAN.c ****         {
  91:Generated_Source\PSoC4/CAN.c ****             result = CAN_FAIL;
  92:Generated_Source\PSoC4/CAN.c ****             break;
  93:Generated_Source\PSoC4/CAN.c ****         }
  94:Generated_Source\PSoC4/CAN.c ****     }
  95:Generated_Source\PSoC4/CAN.c **** 
  96:Generated_Source\PSoC4/CAN.c ****     if (result == CYRET_SUCCESS)
  97:Generated_Source\PSoC4/CAN.c ****     {
  98:Generated_Source\PSoC4/CAN.c ****         /* Initialize RX mailboxes */
  99:Generated_Source\PSoC4/CAN.c ****         for (i = 0u; i < CAN_NUMBER_OF_RX_MAILBOXES; i++)
 100:Generated_Source\PSoC4/CAN.c ****         {
 101:Generated_Source\PSoC4/CAN.c ****             if (CAN_RxBufConfig((const CAN_RX_CFG *)
 102:Generated_Source\PSoC4/CAN.c ****                 (&CAN_RXConfigStruct[i])) != CYRET_SUCCESS)
 103:Generated_Source\PSoC4/CAN.c ****             {
 104:Generated_Source\PSoC4/CAN.c ****                 result = CAN_FAIL;
 105:Generated_Source\PSoC4/CAN.c ****                 break;
 106:Generated_Source\PSoC4/CAN.c ****             }
 107:Generated_Source\PSoC4/CAN.c ****         }
 108:Generated_Source\PSoC4/CAN.c ****     }
 109:Generated_Source\PSoC4/CAN.c **** 
 110:Generated_Source\PSoC4/CAN.c ****     return (result);
 111:Generated_Source\PSoC4/CAN.c **** }
 112:Generated_Source\PSoC4/CAN.c **** 
 113:Generated_Source\PSoC4/CAN.c **** 
 114:Generated_Source\PSoC4/CAN.c **** /*******************************************************************************
 115:Generated_Source\PSoC4/CAN.c **** * FUNCTION NAME:   CAN_Init
 116:Generated_Source\PSoC4/CAN.c **** ********************************************************************************
 117:Generated_Source\PSoC4/CAN.c **** *
 118:Generated_Source\PSoC4/CAN.c **** * Summary:
 119:Generated_Source\PSoC4/CAN.c **** *  Inits/Restores default CAN configuration provided by the customizer.
 120:Generated_Source\PSoC4/CAN.c **** *
 121:Generated_Source\PSoC4/CAN.c **** * Parameters:
 122:Generated_Source\PSoC4/CAN.c **** *  None.
 123:Generated_Source\PSoC4/CAN.c **** *
 124:Generated_Source\PSoC4/CAN.c **** * Return:
 125:Generated_Source\PSoC4/CAN.c **** *  The indication whether the configuration has been accepted or rejected.
 126:Generated_Source\PSoC4/CAN.c **** *   Define                             Description
 127:Generated_Source\PSoC4/CAN.c **** *    CYRET_SUCCESS                      The function passed successfully
 128:Generated_Source\PSoC4/CAN.c **** *    CAN_FAIL              The function failed
 129:Generated_Source\PSoC4/CAN.c **** *
 130:Generated_Source\PSoC4/CAN.c **** * Side Effects:
 131:Generated_Source\PSoC4/CAN.c **** *  All the registers will be reset to their initial values. This will
 132:Generated_Source\PSoC4/CAN.c **** *  re-initialize the component with the following exceptions - it will not clear
 133:Generated_Source\PSoC4/CAN.c **** *  data from the mailboxes.
 134:Generated_Source\PSoC4/CAN.c **** *  Enable power to the CAN Core.
 135:Generated_Source\PSoC4/CAN.c **** *
 136:Generated_Source\PSoC4/CAN.c **** *******************************************************************************/
 137:Generated_Source\PSoC4/CAN.c **** uint8 CAN_Init(void) 
 138:Generated_Source\PSoC4/CAN.c **** {
 139:Generated_Source\PSoC4/CAN.c ****     uint32 timeout = CAN_MODE_STATE_STOP_TIMEOUT;
 140:Generated_Source\PSoC4/CAN.c ****     uint8 result = CAN_FAIL;
 141:Generated_Source\PSoC4/CAN.c ****     uint8 localResult = CAN_FAIL;
 142:Generated_Source\PSoC4/CAN.c **** 
 143:Generated_Source\PSoC4/CAN.c ****     #if (CY_PSOC3 || CY_PSOC5)
 144:Generated_Source\PSoC4/CAN.c ****         uint8 enableInterrupts;
ARM GAS  C:\Users\RYANCA~1\AppData\Local\Temp\ccuGCfpb.s 			page 4


 145:Generated_Source\PSoC4/CAN.c **** 
 146:Generated_Source\PSoC4/CAN.c ****         enableInterrupts = CyEnterCriticalSection();
 147:Generated_Source\PSoC4/CAN.c ****         /* Enable CAN block in Active mode */
 148:Generated_Source\PSoC4/CAN.c ****         CAN_PM_ACT_CFG_REG |= CAN_ACT_PWR_EN;
 149:Generated_Source\PSoC4/CAN.c ****         /* Enable CAN block in Alternate Active (Standby) mode */
 150:Generated_Source\PSoC4/CAN.c ****         CAN_PM_STBY_CFG_REG |= CAN_STBY_PWR_EN;
 151:Generated_Source\PSoC4/CAN.c ****         CyExitCriticalSection(enableInterrupts);
 152:Generated_Source\PSoC4/CAN.c **** 
 153:Generated_Source\PSoC4/CAN.c ****         /* Sets CAN controller to stop mode */
 154:Generated_Source\PSoC4/CAN.c ****         CAN_CMD_REG.byte[0u] &= (uint8) (~CAN_MODE_MASK);
 155:Generated_Source\PSoC4/CAN.c **** 
 156:Generated_Source\PSoC4/CAN.c ****         /* Timeout for CAN state machine to switch mode to Stop */
 157:Generated_Source\PSoC4/CAN.c ****         while ((timeout != 0u) && ((CAN_CMD_REG.byte[0u] & CAN_MODE_MASK) != 0u))
 158:Generated_Source\PSoC4/CAN.c ****         {
 159:Generated_Source\PSoC4/CAN.c ****             timeout--;
 160:Generated_Source\PSoC4/CAN.c ****         }
 161:Generated_Source\PSoC4/CAN.c ****     #else  /* CY_PSOC4 */
 162:Generated_Source\PSoC4/CAN.c ****         /* Enable CAN IP Block */
 163:Generated_Source\PSoC4/CAN.c ****         CAN_CNTL_REG = CAN_IP_ENABLE;
 164:Generated_Source\PSoC4/CAN.c **** 
 165:Generated_Source\PSoC4/CAN.c ****         /* Sets CAN controller to stop mode */
 166:Generated_Source\PSoC4/CAN.c ****         CAN_CMD_REG &= (uint32) (~((uint32) CAN_MODE_MASK));
 167:Generated_Source\PSoC4/CAN.c **** 
 168:Generated_Source\PSoC4/CAN.c ****         /* Timeout for CAN state machine to switch mode to Stop */
 169:Generated_Source\PSoC4/CAN.c ****         while ((timeout != 0u) && ((CAN_CMD_REG & CAN_MODE_MASK) != 0u))
 170:Generated_Source\PSoC4/CAN.c ****         {
 171:Generated_Source\PSoC4/CAN.c ****             timeout--;
 172:Generated_Source\PSoC4/CAN.c ****         }
 173:Generated_Source\PSoC4/CAN.c ****     #endif /* CY_PSOC3 || CY_PSOC5 */
 174:Generated_Source\PSoC4/CAN.c ****         if (timeout != 0u)
 175:Generated_Source\PSoC4/CAN.c ****         {
 176:Generated_Source\PSoC4/CAN.c ****             /* Disable Interrupt. */
 177:Generated_Source\PSoC4/CAN.c ****         CyIntDisable(CAN_ISR_NUMBER);
 178:Generated_Source\PSoC4/CAN.c **** 
 179:Generated_Source\PSoC4/CAN.c ****         /* Set the ISR to point to the CAN_ISR Interrupt. */
 180:Generated_Source\PSoC4/CAN.c ****         (void) CyIntSetVector(CAN_ISR_NUMBER, & CAN_ISR);
 181:Generated_Source\PSoC4/CAN.c **** 
 182:Generated_Source\PSoC4/CAN.c ****         /* Set the priority. */
 183:Generated_Source\PSoC4/CAN.c ****         CyIntSetPriority(CAN_ISR_NUMBER, CAN_ISR_PRIORITY);
 184:Generated_Source\PSoC4/CAN.c **** 
 185:Generated_Source\PSoC4/CAN.c ****             if (CAN_SetPreScaler(CAN_BITRATE) == CYRET_SUCCESS)
 186:Generated_Source\PSoC4/CAN.c ****             {
 187:Generated_Source\PSoC4/CAN.c ****                 if (CAN_SetArbiter(CAN_ARBITER) == CYRET_SUCCESS)
 188:Generated_Source\PSoC4/CAN.c ****                 {
 189:Generated_Source\PSoC4/CAN.c ****                     #if (!(CY_PSOC3 || CY_PSOC5))
 190:Generated_Source\PSoC4/CAN.c ****                         if (CAN_SetSwapDataEndianness(CAN_SWAP_DATA_END) == CYRET_SUCCESS)
 191:Generated_Source\PSoC4/CAN.c ****                     #endif /* (!(CY_PSOC3 || CY_PSOC5)) */
 192:Generated_Source\PSoC4/CAN.c ****                         {
 193:Generated_Source\PSoC4/CAN.c ****                             if (CAN_SetTsegSample(CAN_CFG_REG_TSEG1,
 194:Generated_Source\PSoC4/CAN.c ****                                 CAN_CFG_REG_TSEG2, CAN_CFG_REG_SJW,
 195:Generated_Source\PSoC4/CAN.c ****                                 CAN_SAMPLING_MODE) == CYRET_SUCCESS)
 196:Generated_Source\PSoC4/CAN.c ****                             {
 197:Generated_Source\PSoC4/CAN.c ****                                 if (CAN_SetRestartType(CAN_RESET_TYPE) == CYRET_SUCCESS)
 198:Generated_Source\PSoC4/CAN.c ****                                 {
 199:Generated_Source\PSoC4/CAN.c ****                                     if (CAN_SetEdgeMode(CAN_SYNC_EDGE) == CYRET_SUCCESS)
 200:Generated_Source\PSoC4/CAN.c ****                                     {
 201:Generated_Source\PSoC4/CAN.c ****                                         localResult = CYRET_SUCCESS;
ARM GAS  C:\Users\RYANCA~1\AppData\Local\Temp\ccuGCfpb.s 			page 5


 202:Generated_Source\PSoC4/CAN.c ****                                     }
 203:Generated_Source\PSoC4/CAN.c ****                                 }
 204:Generated_Source\PSoC4/CAN.c ****                             }
 205:Generated_Source\PSoC4/CAN.c ****                         }
 206:Generated_Source\PSoC4/CAN.c ****                 }
 207:Generated_Source\PSoC4/CAN.c ****             }
 208:Generated_Source\PSoC4/CAN.c **** 
 209:Generated_Source\PSoC4/CAN.c ****             if (localResult == CYRET_SUCCESS)
 210:Generated_Source\PSoC4/CAN.c ****             {
 211:Generated_Source\PSoC4/CAN.c ****                 if (CAN_RxTxBuffersConfig() == CYRET_SUCCESS)
 212:Generated_Source\PSoC4/CAN.c ****                 {
 213:Generated_Source\PSoC4/CAN.c ****                     /* Write IRQ Mask */
 214:Generated_Source\PSoC4/CAN.c ****                     if (CAN_SetIrqMask(CAN_INIT_INTERRUPT_MASK) ==
 215:Generated_Source\PSoC4/CAN.c ****                         CYRET_SUCCESS)
 216:Generated_Source\PSoC4/CAN.c ****                     {
 217:Generated_Source\PSoC4/CAN.c ****                         /* Set CAN Operation Mode to Active mode always */
 218:Generated_Source\PSoC4/CAN.c ****                         #if (CY_PSOC3 || CY_PSOC5)
 219:Generated_Source\PSoC4/CAN.c ****                             CAN_CMD_REG.byte[0u] = CAN_INITIAL_MODE;
 220:Generated_Source\PSoC4/CAN.c ****                             if ((CAN_CMD_REG.byte[0u] & CAN_MODE_MASK) == 0u)
 221:Generated_Source\PSoC4/CAN.c ****                         #else  /* CY_PSOC4 */
 222:Generated_Source\PSoC4/CAN.c ****                             CAN_CMD_REG &= (uint32) (~((uint32) CAN_OPMODE_FIELD_MASK));
 223:Generated_Source\PSoC4/CAN.c ****                             if ((CAN_CMD_REG & CAN_OPMODE_FIELD_MASK) == 0u)
 224:Generated_Source\PSoC4/CAN.c ****                         #endif /* CY_PSOC3 || CY_PSOC5 */
 225:Generated_Source\PSoC4/CAN.c ****                             {
 226:Generated_Source\PSoC4/CAN.c ****                                 result = CYRET_SUCCESS;
 227:Generated_Source\PSoC4/CAN.c ****                             }
 228:Generated_Source\PSoC4/CAN.c ****                     }
 229:Generated_Source\PSoC4/CAN.c ****                 }
 230:Generated_Source\PSoC4/CAN.c ****             }
 231:Generated_Source\PSoC4/CAN.c ****         }
 232:Generated_Source\PSoC4/CAN.c **** 
 233:Generated_Source\PSoC4/CAN.c ****     return (result);
 234:Generated_Source\PSoC4/CAN.c **** }
 235:Generated_Source\PSoC4/CAN.c **** 
 236:Generated_Source\PSoC4/CAN.c **** 
 237:Generated_Source\PSoC4/CAN.c **** /*******************************************************************************
 238:Generated_Source\PSoC4/CAN.c **** * Function Name: CAN_Enable
 239:Generated_Source\PSoC4/CAN.c **** ********************************************************************************
 240:Generated_Source\PSoC4/CAN.c **** *
 241:Generated_Source\PSoC4/CAN.c **** * Summary:
 242:Generated_Source\PSoC4/CAN.c **** *  This function enables the CAN Component and ISR of CAN Component.
 243:Generated_Source\PSoC4/CAN.c **** *
 244:Generated_Source\PSoC4/CAN.c **** * Parameters:
 245:Generated_Source\PSoC4/CAN.c **** *  None.
 246:Generated_Source\PSoC4/CAN.c **** *
 247:Generated_Source\PSoC4/CAN.c **** * Return:
 248:Generated_Source\PSoC4/CAN.c **** *  The indication whether the register is written and verified.
 249:Generated_Source\PSoC4/CAN.c **** *   Define                             Description
 250:Generated_Source\PSoC4/CAN.c **** *    CYRET_SUCCESS                      The function passed successfully
 251:Generated_Source\PSoC4/CAN.c **** *    CAN_FAIL              The function failed
 252:Generated_Source\PSoC4/CAN.c **** *
 253:Generated_Source\PSoC4/CAN.c **** *******************************************************************************/
 254:Generated_Source\PSoC4/CAN.c **** uint8 CAN_Enable(void) 
 255:Generated_Source\PSoC4/CAN.c **** {
 256:Generated_Source\PSoC4/CAN.c ****     uint32 timeout = CAN_MODE_STATE_RUN_TIMEOUT;
 257:Generated_Source\PSoC4/CAN.c ****     uint8 result = CAN_FAIL;
 258:Generated_Source\PSoC4/CAN.c **** 
ARM GAS  C:\Users\RYANCA~1\AppData\Local\Temp\ccuGCfpb.s 			page 6


 259:Generated_Source\PSoC4/CAN.c ****     #if (CY_PSOC3 || CY_PSOC5)
 260:Generated_Source\PSoC4/CAN.c ****         uint8 enableInterrupts;
 261:Generated_Source\PSoC4/CAN.c **** 
 262:Generated_Source\PSoC4/CAN.c ****         enableInterrupts = CyEnterCriticalSection();
 263:Generated_Source\PSoC4/CAN.c **** 
 264:Generated_Source\PSoC4/CAN.c ****         /* Enable CAN block in Active mode */
 265:Generated_Source\PSoC4/CAN.c ****         CAN_PM_ACT_CFG_REG |= CAN_ACT_PWR_EN;
 266:Generated_Source\PSoC4/CAN.c **** 
 267:Generated_Source\PSoC4/CAN.c ****         /* Enable CAN block in Alternate Active (Standby) mode */
 268:Generated_Source\PSoC4/CAN.c ****         CAN_PM_STBY_CFG_REG |= CAN_STBY_PWR_EN;
 269:Generated_Source\PSoC4/CAN.c **** 
 270:Generated_Source\PSoC4/CAN.c ****         CyExitCriticalSection(enableInterrupts);
 271:Generated_Source\PSoC4/CAN.c ****     #endif /* CY_PSOC3 || CY_PSOC5 */
 272:Generated_Source\PSoC4/CAN.c **** 
 273:Generated_Source\PSoC4/CAN.c ****     /* Clear interrupts status */
 274:Generated_Source\PSoC4/CAN.c ****     CY_SET_REG32(CAN_INT_SR_PTR, CAN_INIT_INTERRUPT_MASK);
 275:Generated_Source\PSoC4/CAN.c ****     (void) CAN_GlobalIntEnable();
 276:Generated_Source\PSoC4/CAN.c **** 
 277:Generated_Source\PSoC4/CAN.c ****     /* Enable isr */
 278:Generated_Source\PSoC4/CAN.c ****     CyIntEnable(CAN_ISR_NUMBER);
 279:Generated_Source\PSoC4/CAN.c **** 
 280:Generated_Source\PSoC4/CAN.c ****     /* Sets CAN controller to run mode */
 281:Generated_Source\PSoC4/CAN.c ****     CY_SET_REG32(CAN_CMD_PTR, CY_GET_REG32(CAN_CMD_PTR) | CAN_MODE_MASK);
 282:Generated_Source\PSoC4/CAN.c **** 
 283:Generated_Source\PSoC4/CAN.c ****     /* Timeout for CAN state machine to switch mode to Run */
 284:Generated_Source\PSoC4/CAN.c ****     while ((timeout != 0u) && ((CY_GET_REG32(CAN_CMD_PTR) & CAN_MODE_MASK) == 0u))
 285:Generated_Source\PSoC4/CAN.c ****     {
 286:Generated_Source\PSoC4/CAN.c ****         timeout--;
 287:Generated_Source\PSoC4/CAN.c ****     }
 288:Generated_Source\PSoC4/CAN.c **** 
 289:Generated_Source\PSoC4/CAN.c ****     if (timeout != 0u)
 290:Generated_Source\PSoC4/CAN.c ****     {
 291:Generated_Source\PSoC4/CAN.c ****         result = CYRET_SUCCESS;
 292:Generated_Source\PSoC4/CAN.c ****     }
 293:Generated_Source\PSoC4/CAN.c **** 
 294:Generated_Source\PSoC4/CAN.c ****     return (result);
 295:Generated_Source\PSoC4/CAN.c **** }
 296:Generated_Source\PSoC4/CAN.c **** 
 297:Generated_Source\PSoC4/CAN.c **** 
 298:Generated_Source\PSoC4/CAN.c **** /*******************************************************************************
 299:Generated_Source\PSoC4/CAN.c **** * FUNCTION NAME:   CAN_Start
 300:Generated_Source\PSoC4/CAN.c **** ********************************************************************************
 301:Generated_Source\PSoC4/CAN.c **** *
 302:Generated_Source\PSoC4/CAN.c **** * Summary:
 303:Generated_Source\PSoC4/CAN.c **** *  This function sets CAN Component into the Run mode. Starts Rate Counter if
 304:Generated_Source\PSoC4/CAN.c **** *  polling mailboxes are available.
 305:Generated_Source\PSoC4/CAN.c **** *
 306:Generated_Source\PSoC4/CAN.c **** * Parameters:
 307:Generated_Source\PSoC4/CAN.c **** *  None.
 308:Generated_Source\PSoC4/CAN.c **** *
 309:Generated_Source\PSoC4/CAN.c **** * Return:
 310:Generated_Source\PSoC4/CAN.c **** *  The indication whether the register is written and verified.
 311:Generated_Source\PSoC4/CAN.c **** *   Define                             Description
 312:Generated_Source\PSoC4/CAN.c **** *    CYRET_SUCCESS                      The function passed successfully
 313:Generated_Source\PSoC4/CAN.c **** *    CAN_FAIL              The function failed
 314:Generated_Source\PSoC4/CAN.c **** *
 315:Generated_Source\PSoC4/CAN.c **** * Global variables:
ARM GAS  C:\Users\RYANCA~1\AppData\Local\Temp\ccuGCfpb.s 			page 7


 316:Generated_Source\PSoC4/CAN.c **** *  CAN_initVar - used to check the initial configuration, modified
 317:Generated_Source\PSoC4/CAN.c **** *  on the first function call.
 318:Generated_Source\PSoC4/CAN.c **** *
 319:Generated_Source\PSoC4/CAN.c **** * Reentrant:
 320:Generated_Source\PSoC4/CAN.c **** *  No.
 321:Generated_Source\PSoC4/CAN.c **** *
 322:Generated_Source\PSoC4/CAN.c **** *******************************************************************************/
 323:Generated_Source\PSoC4/CAN.c **** uint8 CAN_Start(void) 
 324:Generated_Source\PSoC4/CAN.c **** {
 325:Generated_Source\PSoC4/CAN.c ****     uint8 result = CYRET_SUCCESS;
 326:Generated_Source\PSoC4/CAN.c **** 
 327:Generated_Source\PSoC4/CAN.c ****     if (CAN_initVar == 0u)
 328:Generated_Source\PSoC4/CAN.c ****     {
 329:Generated_Source\PSoC4/CAN.c ****         result = CAN_Init();
 330:Generated_Source\PSoC4/CAN.c ****     }
 331:Generated_Source\PSoC4/CAN.c **** 
 332:Generated_Source\PSoC4/CAN.c ****     if (result == CYRET_SUCCESS)
 333:Generated_Source\PSoC4/CAN.c ****     {
 334:Generated_Source\PSoC4/CAN.c ****         CAN_initVar = 1u;
 335:Generated_Source\PSoC4/CAN.c ****         result = CAN_Enable();
 336:Generated_Source\PSoC4/CAN.c ****     }
 337:Generated_Source\PSoC4/CAN.c **** 
 338:Generated_Source\PSoC4/CAN.c ****     return (result);
 339:Generated_Source\PSoC4/CAN.c **** }
 340:Generated_Source\PSoC4/CAN.c **** 
 341:Generated_Source\PSoC4/CAN.c **** 
 342:Generated_Source\PSoC4/CAN.c **** /*******************************************************************************
 343:Generated_Source\PSoC4/CAN.c **** * FUNCTION NAME:   CAN_Stop
 344:Generated_Source\PSoC4/CAN.c **** ********************************************************************************
 345:Generated_Source\PSoC4/CAN.c **** *
 346:Generated_Source\PSoC4/CAN.c **** * Summary:
 347:Generated_Source\PSoC4/CAN.c **** *  This function sets CAN Component into the Stop mode.
 348:Generated_Source\PSoC4/CAN.c **** *
 349:Generated_Source\PSoC4/CAN.c **** * Parameters:
 350:Generated_Source\PSoC4/CAN.c **** *  None.
 351:Generated_Source\PSoC4/CAN.c **** *
 352:Generated_Source\PSoC4/CAN.c **** * Return:
 353:Generated_Source\PSoC4/CAN.c **** *  The indication whether the register is written and verified.
 354:Generated_Source\PSoC4/CAN.c **** *   Define                             Description
 355:Generated_Source\PSoC4/CAN.c **** *    CYRET_SUCCESS                      The function passed successfully
 356:Generated_Source\PSoC4/CAN.c **** *    CAN_FAIL              The function failed
 357:Generated_Source\PSoC4/CAN.c **** *
 358:Generated_Source\PSoC4/CAN.c **** * Side Effects:
 359:Generated_Source\PSoC4/CAN.c **** *  Disable power to CAN Core in case of PSoC 3/5.
 360:Generated_Source\PSoC4/CAN.c **** *  Pending message in the Tx buffer of PSoC 3/5 will not be aborted on calling
 361:Generated_Source\PSoC4/CAN.c **** *  the CAN_Stop() API. User has to abort all pending messages
 362:Generated_Source\PSoC4/CAN.c **** *  before calling the CAN_Stop() function to make sure that the
 363:Generated_Source\PSoC4/CAN.c **** *  block stops all the message transmission immediately.
 364:Generated_Source\PSoC4/CAN.c **** *
 365:Generated_Source\PSoC4/CAN.c **** *******************************************************************************/
 366:Generated_Source\PSoC4/CAN.c **** uint8 CAN_Stop(void) 
 367:Generated_Source\PSoC4/CAN.c **** {
  28              		.loc 1 367 0
  29              		.cfi_startproc
  30              		@ args = 0, pretend = 0, frame = 0
  31              		@ frame_needed = 0, uses_anonymous_args = 0
  32              	.LVL0:
ARM GAS  C:\Users\RYANCA~1\AppData\Local\Temp\ccuGCfpb.s 			page 8


 368:Generated_Source\PSoC4/CAN.c ****     uint32 timeout = CAN_MODE_STATE_STOP_TIMEOUT;
 369:Generated_Source\PSoC4/CAN.c ****     uint8 result = CAN_FAIL;
 370:Generated_Source\PSoC4/CAN.c **** 
 371:Generated_Source\PSoC4/CAN.c ****     #if (CY_PSOC3 || CY_PSOC5)
 372:Generated_Source\PSoC4/CAN.c ****         uint8 enableInterrupts;
 373:Generated_Source\PSoC4/CAN.c ****     #endif /* CY_PSOC3 || CY_PSOC5 */
 374:Generated_Source\PSoC4/CAN.c **** 
 375:Generated_Source\PSoC4/CAN.c ****     /* Set CAN controller to stop mode */
 376:Generated_Source\PSoC4/CAN.c ****     CY_SET_REG32(CAN_CMD_PTR, (CY_GET_REG32(CAN_CMD_PTR) &
  33              		.loc 1 376 0
  34 0000 0122     		movs	r2, #1
  35 0002 094B     		ldr	r3, .L11
 367:Generated_Source\PSoC4/CAN.c ****     uint32 timeout = CAN_MODE_STATE_STOP_TIMEOUT;
  36              		.loc 1 367 0
  37 0004 10B5     		push	{r4, lr}
  38              		.cfi_def_cfa_offset 8
  39              		.cfi_offset 4, -8
  40              		.cfi_offset 14, -4
  41              		.loc 1 376 0
  42 0006 1968     		ldr	r1, [r3]
  43 0008 9143     		bics	r1, r2
  44 000a 1960     		str	r1, [r3]
  45 000c 0749     		ldr	r1, .L11+4
  46              	.LVL1:
  47              	.L2:
 377:Generated_Source\PSoC4/CAN.c ****                                             ((uint32) (~((uint32)CAN_MODE_MASK)))));
 378:Generated_Source\PSoC4/CAN.c **** 
 379:Generated_Source\PSoC4/CAN.c ****     /* Timeout for CAN state machine to switch mode to Stop */
 380:Generated_Source\PSoC4/CAN.c ****     while ((timeout != 0u) && ((CY_GET_REG32(CAN_CMD_PTR) & CAN_MODE_MASK) != 0u))
  48              		.loc 1 380 0 discriminator 1
  49 000e 1C68     		ldr	r4, [r3]
  50 0010 1440     		ands	r4, r2
  51 0012 04D0     		beq	.L10
  52              	.LVL2:
  53 0014 0139     		subs	r1, r1, #1
  54              	.LVL3:
  55              		.loc 1 380 0 is_stmt 0
  56 0016 0029     		cmp	r1, #0
  57 0018 F9D1     		bne	.L2
 369:Generated_Source\PSoC4/CAN.c **** 
  58              		.loc 1 369 0 is_stmt 1
  59 001a 0120     		movs	r0, #1
  60 001c 03E0     		b	.L8
  61              	.L10:
  62              	.LVL4:
 381:Generated_Source\PSoC4/CAN.c ****     {
 382:Generated_Source\PSoC4/CAN.c ****         timeout--;
 383:Generated_Source\PSoC4/CAN.c ****     }
 384:Generated_Source\PSoC4/CAN.c **** 
 385:Generated_Source\PSoC4/CAN.c ****     /* Verify that bit is cleared */
 386:Generated_Source\PSoC4/CAN.c ****     if (timeout != 0u)
 387:Generated_Source\PSoC4/CAN.c ****     {
 388:Generated_Source\PSoC4/CAN.c ****         result = CYRET_SUCCESS;
 389:Generated_Source\PSoC4/CAN.c **** 
 390:Generated_Source\PSoC4/CAN.c ****         /* Disable isr */
 391:Generated_Source\PSoC4/CAN.c ****     CyIntDisable(CAN_ISR_NUMBER);
  63              		.loc 1 391 0
ARM GAS  C:\Users\RYANCA~1\AppData\Local\Temp\ccuGCfpb.s 			page 9


  64 001e 1C20     		movs	r0, #28
  65 0020 FFF7FEFF 		bl	CyIntDisable
  66              	.LVL5:
 388:Generated_Source\PSoC4/CAN.c **** 
  67              		.loc 1 388 0
  68 0024 2000     		movs	r0, r4
  69              	.LVL6:
  70              	.L8:
 392:Generated_Source\PSoC4/CAN.c **** 
 393:Generated_Source\PSoC4/CAN.c ****         #if (CY_PSOC3 || CY_PSOC5)
 394:Generated_Source\PSoC4/CAN.c ****             enableInterrupts = CyEnterCriticalSection();
 395:Generated_Source\PSoC4/CAN.c **** 
 396:Generated_Source\PSoC4/CAN.c ****             /* Disable CAN block in Active mode */
 397:Generated_Source\PSoC4/CAN.c ****             CAN_PM_ACT_CFG_REG &= (uint8) (~CAN_ACT_PWR_EN);
 398:Generated_Source\PSoC4/CAN.c **** 
 399:Generated_Source\PSoC4/CAN.c ****             /* Disable CAN block in Alternate Active (Standby) mode template */
 400:Generated_Source\PSoC4/CAN.c ****             CAN_PM_STBY_CFG_REG &= (uint8) (~CAN_STBY_PWR_EN);
 401:Generated_Source\PSoC4/CAN.c **** 
 402:Generated_Source\PSoC4/CAN.c ****             CyExitCriticalSection(enableInterrupts);
 403:Generated_Source\PSoC4/CAN.c ****         #endif /* CY_PSOC3 || CY_PSOC5 */
 404:Generated_Source\PSoC4/CAN.c ****     }
 405:Generated_Source\PSoC4/CAN.c **** 
 406:Generated_Source\PSoC4/CAN.c ****     return (result);
 407:Generated_Source\PSoC4/CAN.c **** }
  71              		.loc 1 407 0
  72              		@ sp needed
  73 0026 10BD     		pop	{r4, pc}
  74              	.L12:
  75              		.align	2
  76              	.L11:
  77 0028 10002F40 		.word	1076822032
  78 002c C0760000 		.word	30400
  79              		.cfi_endproc
  80              	.LFE5:
  81              		.size	CAN_Stop, .-CAN_Stop
  82              		.section	.text.CAN_GlobalIntEnable,"ax",%progbits
  83              		.align	1
  84              		.global	CAN_GlobalIntEnable
  85              		.code	16
  86              		.thumb_func
  87              		.type	CAN_GlobalIntEnable, %function
  88              	CAN_GlobalIntEnable:
  89              	.LFB6:
 408:Generated_Source\PSoC4/CAN.c **** 
 409:Generated_Source\PSoC4/CAN.c **** 
 410:Generated_Source\PSoC4/CAN.c **** /*******************************************************************************
 411:Generated_Source\PSoC4/CAN.c **** * FUNCTION NAME:   CAN_GlobalIntEnable
 412:Generated_Source\PSoC4/CAN.c **** ********************************************************************************
 413:Generated_Source\PSoC4/CAN.c **** *
 414:Generated_Source\PSoC4/CAN.c **** * Summary:
 415:Generated_Source\PSoC4/CAN.c **** *  This function enables Global Interrupts from CAN Core.
 416:Generated_Source\PSoC4/CAN.c **** *
 417:Generated_Source\PSoC4/CAN.c **** * Parameters:
 418:Generated_Source\PSoC4/CAN.c **** *  None.
 419:Generated_Source\PSoC4/CAN.c **** *
 420:Generated_Source\PSoC4/CAN.c **** * Return:
 421:Generated_Source\PSoC4/CAN.c **** *  The indication whether the register is written and verified.
ARM GAS  C:\Users\RYANCA~1\AppData\Local\Temp\ccuGCfpb.s 			page 10


 422:Generated_Source\PSoC4/CAN.c **** *   Define                             Description
 423:Generated_Source\PSoC4/CAN.c **** *    CYRET_SUCCESS                      The function passed successfully
 424:Generated_Source\PSoC4/CAN.c **** *    CAN_FAIL              The function failed
 425:Generated_Source\PSoC4/CAN.c **** *
 426:Generated_Source\PSoC4/CAN.c **** *******************************************************************************/
 427:Generated_Source\PSoC4/CAN.c **** uint8 CAN_GlobalIntEnable(void) 
 428:Generated_Source\PSoC4/CAN.c **** {
  90              		.loc 1 428 0
  91              		.cfi_startproc
  92              		@ args = 0, pretend = 0, frame = 0
  93              		@ frame_needed = 0, uses_anonymous_args = 0
  94              		@ link register save eliminated.
  95              	.LVL7:
 429:Generated_Source\PSoC4/CAN.c ****     uint8 result = CAN_FAIL;
 430:Generated_Source\PSoC4/CAN.c **** 
 431:Generated_Source\PSoC4/CAN.c ****     #if (CY_PSOC3 || CY_PSOC5)
 432:Generated_Source\PSoC4/CAN.c ****         CAN_INT_EN_REG.byte[0u] |= CAN_GLOBAL_INT_MASK;
 433:Generated_Source\PSoC4/CAN.c **** 
 434:Generated_Source\PSoC4/CAN.c ****         /* Verify that bit is set */
 435:Generated_Source\PSoC4/CAN.c ****         if ((CAN_INT_EN_REG.byte[0u] & CAN_GLOBAL_INT_MASK) != 0u)
 436:Generated_Source\PSoC4/CAN.c ****         {
 437:Generated_Source\PSoC4/CAN.c ****             result = CYRET_SUCCESS;
 438:Generated_Source\PSoC4/CAN.c ****         }
 439:Generated_Source\PSoC4/CAN.c ****     #else  /* CY_PSOC4 */
 440:Generated_Source\PSoC4/CAN.c ****         CAN_INT_EN_REG |= CAN_GLOBAL_INT_MASK;
  96              		.loc 1 440 0
  97 0000 0120     		movs	r0, #1
  98 0002 034B     		ldr	r3, .L14
 441:Generated_Source\PSoC4/CAN.c ****         /* Verify that bit is set */
 442:Generated_Source\PSoC4/CAN.c ****         if ((CAN_INT_EN_REG & CAN_GLOBAL_INT_MASK) != 0u)
 443:Generated_Source\PSoC4/CAN.c ****         {
 444:Generated_Source\PSoC4/CAN.c ****             result = CYRET_SUCCESS;
 445:Generated_Source\PSoC4/CAN.c ****         }
 446:Generated_Source\PSoC4/CAN.c ****     #endif /* CY_PSOC3 || CY_PSOC5 */
 447:Generated_Source\PSoC4/CAN.c **** 
 448:Generated_Source\PSoC4/CAN.c ****     return (result);
 449:Generated_Source\PSoC4/CAN.c **** }
  99              		.loc 1 449 0
 100              		@ sp needed
 440:Generated_Source\PSoC4/CAN.c ****         /* Verify that bit is set */
 101              		.loc 1 440 0
 102 0004 1A68     		ldr	r2, [r3]
 103 0006 0243     		orrs	r2, r0
 104 0008 1A60     		str	r2, [r3]
 442:Generated_Source\PSoC4/CAN.c ****         {
 105              		.loc 1 442 0
 106 000a 1B68     		ldr	r3, [r3]
 107              	.LVL8:
 448:Generated_Source\PSoC4/CAN.c **** }
 108              		.loc 1 448 0
 109 000c 9843     		bics	r0, r3
 110              		.loc 1 449 0
 111 000e 7047     		bx	lr
 112              	.L15:
 113              		.align	2
 114              	.L14:
 115 0010 04002F40 		.word	1076822020
ARM GAS  C:\Users\RYANCA~1\AppData\Local\Temp\ccuGCfpb.s 			page 11


 116              		.cfi_endproc
 117              	.LFE6:
 118              		.size	CAN_GlobalIntEnable, .-CAN_GlobalIntEnable
 119              		.section	.text.CAN_Enable,"ax",%progbits
 120              		.align	1
 121              		.global	CAN_Enable
 122              		.code	16
 123              		.thumb_func
 124              		.type	CAN_Enable, %function
 125              	CAN_Enable:
 126              	.LFB3:
 255:Generated_Source\PSoC4/CAN.c ****     uint32 timeout = CAN_MODE_STATE_RUN_TIMEOUT;
 127              		.loc 1 255 0
 128              		.cfi_startproc
 129              		@ args = 0, pretend = 0, frame = 0
 130              		@ frame_needed = 0, uses_anonymous_args = 0
 131              	.LVL9:
 274:Generated_Source\PSoC4/CAN.c ****     (void) CAN_GlobalIntEnable();
 132              		.loc 1 274 0
 133 0000 0C4A     		ldr	r2, .L22
 134 0002 0D4B     		ldr	r3, .L22+4
 255:Generated_Source\PSoC4/CAN.c ****     uint32 timeout = CAN_MODE_STATE_RUN_TIMEOUT;
 135              		.loc 1 255 0
 136 0004 10B5     		push	{r4, lr}
 137              		.cfi_def_cfa_offset 8
 138              		.cfi_offset 4, -8
 139              		.cfi_offset 14, -4
 274:Generated_Source\PSoC4/CAN.c ****     (void) CAN_GlobalIntEnable();
 140              		.loc 1 274 0
 141 0006 1A60     		str	r2, [r3]
 275:Generated_Source\PSoC4/CAN.c **** 
 142              		.loc 1 275 0
 143 0008 FFF7FEFF 		bl	CAN_GlobalIntEnable
 144              	.LVL10:
 278:Generated_Source\PSoC4/CAN.c **** 
 145              		.loc 1 278 0
 146 000c 1C20     		movs	r0, #28
 147 000e FFF7FEFF 		bl	CyIntEnable
 148              	.LVL11:
 281:Generated_Source\PSoC4/CAN.c **** 
 149              		.loc 1 281 0
 150 0012 0122     		movs	r2, #1
 151 0014 094B     		ldr	r3, .L22+8
 152 0016 1968     		ldr	r1, [r3]
 153 0018 1143     		orrs	r1, r2
 154 001a 1960     		str	r1, [r3]
 155 001c 0849     		ldr	r1, .L22+12
 156              	.LVL12:
 157              	.L17:
 284:Generated_Source\PSoC4/CAN.c ****     {
 158              		.loc 1 284 0 discriminator 1
 159 001e 1868     		ldr	r0, [r3]
 160 0020 1042     		tst	r0, r2
 161 0022 04D1     		bne	.L21
 162              	.LVL13:
 163 0024 0139     		subs	r1, r1, #1
 164              	.LVL14:
ARM GAS  C:\Users\RYANCA~1\AppData\Local\Temp\ccuGCfpb.s 			page 12


 284:Generated_Source\PSoC4/CAN.c ****     {
 165              		.loc 1 284 0 is_stmt 0
 166 0026 0029     		cmp	r1, #0
 167 0028 F9D1     		bne	.L17
 257:Generated_Source\PSoC4/CAN.c **** 
 168              		.loc 1 257 0 is_stmt 1
 169 002a 0120     		movs	r0, #1
 170 002c 00E0     		b	.L18
 171              	.L21:
 291:Generated_Source\PSoC4/CAN.c ****     }
 172              		.loc 1 291 0
 173 002e 0020     		movs	r0, #0
 174              	.LVL15:
 175              	.L18:
 295:Generated_Source\PSoC4/CAN.c **** 
 176              		.loc 1 295 0
 177              		@ sp needed
 178 0030 10BD     		pop	{r4, pc}
 179              	.L23:
 180 0032 C046     		.align	2
 181              	.L22:
 182 0034 01100000 		.word	4097
 183 0038 00002F40 		.word	1076822016
 184 003c 10002F40 		.word	1076822032
 185 0040 E8080000 		.word	2280
 186              		.cfi_endproc
 187              	.LFE3:
 188              		.size	CAN_Enable, .-CAN_Enable
 189              		.section	.text.CAN_GlobalIntDisable,"ax",%progbits
 190              		.align	1
 191              		.global	CAN_GlobalIntDisable
 192              		.code	16
 193              		.thumb_func
 194              		.type	CAN_GlobalIntDisable, %function
 195              	CAN_GlobalIntDisable:
 196              	.LFB7:
 450:Generated_Source\PSoC4/CAN.c **** 
 451:Generated_Source\PSoC4/CAN.c **** 
 452:Generated_Source\PSoC4/CAN.c **** /*******************************************************************************
 453:Generated_Source\PSoC4/CAN.c **** * FUNCTION NAME:   CAN_GlobalIntDisable
 454:Generated_Source\PSoC4/CAN.c **** ********************************************************************************
 455:Generated_Source\PSoC4/CAN.c **** *
 456:Generated_Source\PSoC4/CAN.c **** * Summary:
 457:Generated_Source\PSoC4/CAN.c **** *  This function disables Global Interrupts from CAN Core.
 458:Generated_Source\PSoC4/CAN.c **** *
 459:Generated_Source\PSoC4/CAN.c **** * Parameters:
 460:Generated_Source\PSoC4/CAN.c **** *  None.
 461:Generated_Source\PSoC4/CAN.c **** *
 462:Generated_Source\PSoC4/CAN.c **** * Return:
 463:Generated_Source\PSoC4/CAN.c **** *  The indication whether the register is written and verified.
 464:Generated_Source\PSoC4/CAN.c **** *   Define                             Description
 465:Generated_Source\PSoC4/CAN.c **** *    CYRET_SUCCESS                      The function passed successfully
 466:Generated_Source\PSoC4/CAN.c **** *    CAN_FAIL              The function failed
 467:Generated_Source\PSoC4/CAN.c **** *
 468:Generated_Source\PSoC4/CAN.c **** *******************************************************************************/
 469:Generated_Source\PSoC4/CAN.c **** uint8 CAN_GlobalIntDisable(void) 
 470:Generated_Source\PSoC4/CAN.c **** {
ARM GAS  C:\Users\RYANCA~1\AppData\Local\Temp\ccuGCfpb.s 			page 13


 197              		.loc 1 470 0
 198              		.cfi_startproc
 199              		@ args = 0, pretend = 0, frame = 0
 200              		@ frame_needed = 0, uses_anonymous_args = 0
 201              		@ link register save eliminated.
 202              	.LVL16:
 471:Generated_Source\PSoC4/CAN.c ****     uint8 result = CAN_FAIL;
 472:Generated_Source\PSoC4/CAN.c **** 
 473:Generated_Source\PSoC4/CAN.c ****     #if (CY_PSOC3 || CY_PSOC5)
 474:Generated_Source\PSoC4/CAN.c ****         CAN_INT_EN_REG.byte[0u] &= (uint8) (~CAN_GLOBAL_INT_MASK);
 475:Generated_Source\PSoC4/CAN.c **** 
 476:Generated_Source\PSoC4/CAN.c ****         /* Verify that bit is cleared */
 477:Generated_Source\PSoC4/CAN.c ****         if ((CAN_INT_EN_REG.byte[0u] & CAN_GLOBAL_INT_MASK) == 0u)
 478:Generated_Source\PSoC4/CAN.c ****         {
 479:Generated_Source\PSoC4/CAN.c ****             result = CYRET_SUCCESS;
 480:Generated_Source\PSoC4/CAN.c ****         }
 481:Generated_Source\PSoC4/CAN.c ****     #else  /* CY_PSOC4 */
 482:Generated_Source\PSoC4/CAN.c ****         CAN_INT_EN_REG &= (uint32) (~((uint32) CAN_GLOBAL_INT_MASK));
 203              		.loc 1 482 0
 204 0000 0120     		movs	r0, #1
 205 0002 034B     		ldr	r3, .L25
 483:Generated_Source\PSoC4/CAN.c **** 
 484:Generated_Source\PSoC4/CAN.c ****         /* Verify that bit is cleared */
 485:Generated_Source\PSoC4/CAN.c ****         if ((CAN_INT_EN_REG & CAN_GLOBAL_INT_MASK) == 0u)
 486:Generated_Source\PSoC4/CAN.c ****         {
 487:Generated_Source\PSoC4/CAN.c ****             result = CYRET_SUCCESS;
 488:Generated_Source\PSoC4/CAN.c ****         }
 489:Generated_Source\PSoC4/CAN.c ****     #endif /* CY_PSOC3 || CY_PSOC5 */
 490:Generated_Source\PSoC4/CAN.c **** 
 491:Generated_Source\PSoC4/CAN.c ****     return (result);
 492:Generated_Source\PSoC4/CAN.c **** }
 206              		.loc 1 492 0
 207              		@ sp needed
 482:Generated_Source\PSoC4/CAN.c **** 
 208              		.loc 1 482 0
 209 0004 1A68     		ldr	r2, [r3]
 210 0006 8243     		bics	r2, r0
 211 0008 1A60     		str	r2, [r3]
 485:Generated_Source\PSoC4/CAN.c ****         {
 212              		.loc 1 485 0
 213 000a 1B68     		ldr	r3, [r3]
 214              	.LVL17:
 491:Generated_Source\PSoC4/CAN.c **** }
 215              		.loc 1 491 0
 216 000c 1840     		ands	r0, r3
 217              		.loc 1 492 0
 218 000e 7047     		bx	lr
 219              	.L26:
 220              		.align	2
 221              	.L25:
 222 0010 04002F40 		.word	1076822020
 223              		.cfi_endproc
 224              	.LFE7:
 225              		.size	CAN_GlobalIntDisable, .-CAN_GlobalIntDisable
 226              		.section	.text.CAN_SetPreScaler,"ax",%progbits
 227              		.align	1
 228              		.global	CAN_SetPreScaler
ARM GAS  C:\Users\RYANCA~1\AppData\Local\Temp\ccuGCfpb.s 			page 14


 229              		.code	16
 230              		.thumb_func
 231              		.type	CAN_SetPreScaler, %function
 232              	CAN_SetPreScaler:
 233              	.LFB8:
 493:Generated_Source\PSoC4/CAN.c **** 
 494:Generated_Source\PSoC4/CAN.c **** 
 495:Generated_Source\PSoC4/CAN.c **** /*******************************************************************************
 496:Generated_Source\PSoC4/CAN.c **** * FUNCTION NAME:   CAN_SetPreScaler
 497:Generated_Source\PSoC4/CAN.c **** ********************************************************************************
 498:Generated_Source\PSoC4/CAN.c **** *
 499:Generated_Source\PSoC4/CAN.c **** * Summary:
 500:Generated_Source\PSoC4/CAN.c **** *  This function sets PreScaler for generating the time quantum which defines
 501:Generated_Source\PSoC4/CAN.c **** *  the time quanta. The values between 0x0 and 0x7FFF are valid.
 502:Generated_Source\PSoC4/CAN.c **** *
 503:Generated_Source\PSoC4/CAN.c **** * Parameters:
 504:Generated_Source\PSoC4/CAN.c **** *  bitrate: PreScaler value.
 505:Generated_Source\PSoC4/CAN.c **** *   Value           Description
 506:Generated_Source\PSoC4/CAN.c **** *    0               One time quantum equals 1 clock cycle
 507:Generated_Source\PSoC4/CAN.c **** *    1               One time quantum equals 2 clock cycles
 508:Generated_Source\PSoC4/CAN.c **** *    ...             ...
 509:Generated_Source\PSoC4/CAN.c **** *    32767           One time quantum equals 32768 clock cycles
 510:Generated_Source\PSoC4/CAN.c **** *
 511:Generated_Source\PSoC4/CAN.c **** * Return:
 512:Generated_Source\PSoC4/CAN.c **** *  The indication whether the register is written and verified.
 513:Generated_Source\PSoC4/CAN.c **** *   Define                             Description
 514:Generated_Source\PSoC4/CAN.c **** *    CYRET_SUCCESS                      The function passed successfully
 515:Generated_Source\PSoC4/CAN.c **** *    CAN_FAIL              The function failed
 516:Generated_Source\PSoC4/CAN.c **** *    CAN_OUT_OF_RANGE      The function parameter is out of range
 517:Generated_Source\PSoC4/CAN.c **** *
 518:Generated_Source\PSoC4/CAN.c **** *******************************************************************************/
 519:Generated_Source\PSoC4/CAN.c **** uint8 CAN_SetPreScaler(uint16 bitrate) 
 520:Generated_Source\PSoC4/CAN.c **** {
 234              		.loc 1 520 0
 235              		.cfi_startproc
 236              		@ args = 0, pretend = 0, frame = 0
 237              		@ frame_needed = 0, uses_anonymous_args = 0
 238              		@ link register save eliminated.
 239              	.LVL18:
 521:Generated_Source\PSoC4/CAN.c ****     uint8 result = CAN_OUT_OF_RANGE;
 522:Generated_Source\PSoC4/CAN.c **** 
 523:Generated_Source\PSoC4/CAN.c ****     if (bitrate <= CAN_BITRATE_MASK)
 240              		.loc 1 523 0
 241 0000 02B2     		sxth	r2, r0
 521:Generated_Source\PSoC4/CAN.c ****     uint8 result = CAN_OUT_OF_RANGE;
 242              		.loc 1 521 0
 243 0002 0223     		movs	r3, #2
 244              		.loc 1 523 0
 245 0004 002A     		cmp	r2, #0
 246 0006 0DDB     		blt	.L28
 247              	.LVL19:
 248              	.LBB24:
 249              	.LBB25:
 524:Generated_Source\PSoC4/CAN.c ****     {
 525:Generated_Source\PSoC4/CAN.c ****         result = CAN_FAIL;
 526:Generated_Source\PSoC4/CAN.c **** 
 527:Generated_Source\PSoC4/CAN.c ****         #if (CY_PSOC3 || CY_PSOC5)
ARM GAS  C:\Users\RYANCA~1\AppData\Local\Temp\ccuGCfpb.s 			page 15


 528:Generated_Source\PSoC4/CAN.c ****             /* Set prescaler */
 529:Generated_Source\PSoC4/CAN.c ****             CY_SET_REG16((reg16 *) (&CAN_CFG_REG.byte[2u]), bitrate);
 530:Generated_Source\PSoC4/CAN.c **** 
 531:Generated_Source\PSoC4/CAN.c ****             /* Verify that prescaler is set */
 532:Generated_Source\PSoC4/CAN.c ****             if (CY_GET_REG16((reg16 *) (&CAN_CFG_REG.byte[2u])) == bitrate)
 533:Generated_Source\PSoC4/CAN.c ****             {
 534:Generated_Source\PSoC4/CAN.c ****                 result = CYRET_SUCCESS;
 535:Generated_Source\PSoC4/CAN.c ****             }
 536:Generated_Source\PSoC4/CAN.c ****         #else  /* CY_PSOC4 */
 537:Generated_Source\PSoC4/CAN.c ****             /* Set prescaler */
 538:Generated_Source\PSoC4/CAN.c ****             CAN_CFG_REG = (CAN_CFG_REG & (uint32) (~CAN_BITRATE_MASK_SHIFTED)) |
 250              		.loc 1 538 0
 251 0008 074A     		ldr	r2, .L30
 252 000a 084B     		ldr	r3, .L30+4
 253 000c 1168     		ldr	r1, [r2]
 539:Generated_Source\PSoC4/CAN.c ****             (uint32) ((uint32) bitrate << CAN_BITRATE_SHIFT);
 254              		.loc 1 539 0
 255 000e 0004     		lsls	r0, r0, #16
 256              	.LVL20:
 538:Generated_Source\PSoC4/CAN.c ****             (uint32) ((uint32) bitrate << CAN_BITRATE_SHIFT);
 257              		.loc 1 538 0
 258 0010 0B40     		ands	r3, r1
 259 0012 0343     		orrs	r3, r0
 260 0014 1360     		str	r3, [r2]
 540:Generated_Source\PSoC4/CAN.c **** 
 541:Generated_Source\PSoC4/CAN.c ****             /* Verify that prescaler is set */
 542:Generated_Source\PSoC4/CAN.c ****             if ((CAN_CFG_REG & CAN_BITRATE_MASK_SHIFTED) ==
 261              		.loc 1 542 0
 262 0016 1368     		ldr	r3, [r2]
 263              	.LBE25:
 264              	.LBE24:
 521:Generated_Source\PSoC4/CAN.c **** 
 265              		.loc 1 521 0
 266 0018 054A     		ldr	r2, .L30+8
 267 001a 1340     		ands	r3, r2
 268 001c 1B1A     		subs	r3, r3, r0
 269 001e 581E     		subs	r0, r3, #1
 270 0020 8341     		sbcs	r3, r3, r0
 271 0022 DBB2     		uxtb	r3, r3
 272              	.LVL21:
 273              	.L28:
 543:Generated_Source\PSoC4/CAN.c ****                ((uint32) ((uint32) bitrate << CAN_BITRATE_SHIFT)))
 544:Generated_Source\PSoC4/CAN.c ****             {
 545:Generated_Source\PSoC4/CAN.c ****                 result = CYRET_SUCCESS;
 546:Generated_Source\PSoC4/CAN.c ****             }
 547:Generated_Source\PSoC4/CAN.c ****         #endif /* CY_PSOC3 || CY_PSOC5 */
 548:Generated_Source\PSoC4/CAN.c ****     }
 549:Generated_Source\PSoC4/CAN.c **** 
 550:Generated_Source\PSoC4/CAN.c ****     return (result);
 551:Generated_Source\PSoC4/CAN.c **** }
 274              		.loc 1 551 0
 275 0024 1800     		movs	r0, r3
 276              		@ sp needed
 277 0026 7047     		bx	lr
 278              	.L31:
 279              		.align	2
 280              	.L30:
ARM GAS  C:\Users\RYANCA~1\AppData\Local\Temp\ccuGCfpb.s 			page 16


 281 0028 14002F40 		.word	1076822036
 282 002c FFFF0080 		.word	-2147418113
 283 0030 0000FF7F 		.word	2147418112
 284              		.cfi_endproc
 285              	.LFE8:
 286              		.size	CAN_SetPreScaler, .-CAN_SetPreScaler
 287              		.section	.text.CAN_SetArbiter,"ax",%progbits
 288              		.align	1
 289              		.global	CAN_SetArbiter
 290              		.code	16
 291              		.thumb_func
 292              		.type	CAN_SetArbiter, %function
 293              	CAN_SetArbiter:
 294              	.LFB9:
 552:Generated_Source\PSoC4/CAN.c **** 
 553:Generated_Source\PSoC4/CAN.c **** 
 554:Generated_Source\PSoC4/CAN.c **** /*******************************************************************************
 555:Generated_Source\PSoC4/CAN.c **** * FUNCTION NAME:   CAN_SetArbiter
 556:Generated_Source\PSoC4/CAN.c **** ********************************************************************************
 557:Generated_Source\PSoC4/CAN.c **** *
 558:Generated_Source\PSoC4/CAN.c **** * Summary:
 559:Generated_Source\PSoC4/CAN.c **** *  This function sets the arbitration type for transmit mailboxes. The types of
 560:Generated_Source\PSoC4/CAN.c **** *  the arbiters are Round Robin and Fixed Priority. Values 0 and 1 are valid.
 561:Generated_Source\PSoC4/CAN.c **** *
 562:Generated_Source\PSoC4/CAN.c **** * Parameters:
 563:Generated_Source\PSoC4/CAN.c **** *  arbiter: The arbitration type for transmit mailboxes.
 564:Generated_Source\PSoC4/CAN.c **** *   Value                              Description
 565:Generated_Source\PSoC4/CAN.c **** *    CAN_ROUND_ROBIN       The Round Robin arbitration
 566:Generated_Source\PSoC4/CAN.c **** *    CAN_FIXED_PRIORITY    The Fixed Priority arbitration.
 567:Generated_Source\PSoC4/CAN.c **** *
 568:Generated_Source\PSoC4/CAN.c **** * Return:
 569:Generated_Source\PSoC4/CAN.c **** *  The indication whether the register is written and verified.
 570:Generated_Source\PSoC4/CAN.c **** *   Define                             Description
 571:Generated_Source\PSoC4/CAN.c **** *    CYRET_SUCCESS                      The function passed successfully
 572:Generated_Source\PSoC4/CAN.c **** *    CAN_FAIL              The function failed
 573:Generated_Source\PSoC4/CAN.c **** *
 574:Generated_Source\PSoC4/CAN.c **** *******************************************************************************/
 575:Generated_Source\PSoC4/CAN.c **** uint8 CAN_SetArbiter(uint8 arbiter) 
 576:Generated_Source\PSoC4/CAN.c **** {
 295              		.loc 1 576 0
 296              		.cfi_startproc
 297              		@ args = 0, pretend = 0, frame = 0
 298              		@ frame_needed = 0, uses_anonymous_args = 0
 299              		@ link register save eliminated.
 300              	.LVL22:
 301 0000 0A4B     		ldr	r3, .L35
 577:Generated_Source\PSoC4/CAN.c ****     uint8 result = CAN_FAIL;
 578:Generated_Source\PSoC4/CAN.c **** 
 579:Generated_Source\PSoC4/CAN.c ****     #if (CY_PSOC3 || CY_PSOC5)
 580:Generated_Source\PSoC4/CAN.c ****         if (arbiter == CAN_ROUND_ROBIN)
 581:Generated_Source\PSoC4/CAN.c ****         {
 582:Generated_Source\PSoC4/CAN.c ****             CAN_CFG_REG.byte[1u] &= (uint8) (~CAN_ARBITRATION_MASK);
 583:Generated_Source\PSoC4/CAN.c **** 
 584:Generated_Source\PSoC4/CAN.c ****             /* Verify that bit is cleared */
 585:Generated_Source\PSoC4/CAN.c ****             if ((CAN_CFG_REG.byte[1u] & CAN_ARBITRATION_MASK) == 0u)
 586:Generated_Source\PSoC4/CAN.c ****             {
 587:Generated_Source\PSoC4/CAN.c ****                 result = CYRET_SUCCESS;
ARM GAS  C:\Users\RYANCA~1\AppData\Local\Temp\ccuGCfpb.s 			page 17


 588:Generated_Source\PSoC4/CAN.c ****             }
 589:Generated_Source\PSoC4/CAN.c ****         }
 590:Generated_Source\PSoC4/CAN.c ****         else    /* Fixed Priority */
 591:Generated_Source\PSoC4/CAN.c ****         {
 592:Generated_Source\PSoC4/CAN.c ****             CAN_CFG_REG.byte[1u] |= CAN_ARBITRATION_MASK;
 593:Generated_Source\PSoC4/CAN.c **** 
 594:Generated_Source\PSoC4/CAN.c ****             /* Verify that bit is set */
 595:Generated_Source\PSoC4/CAN.c ****             if ((CAN_CFG_REG.byte[1u] & CAN_ARBITRATION_MASK) != 0u)
 596:Generated_Source\PSoC4/CAN.c ****             {
 597:Generated_Source\PSoC4/CAN.c ****                 result = CYRET_SUCCESS;
 598:Generated_Source\PSoC4/CAN.c ****             }
 599:Generated_Source\PSoC4/CAN.c ****         }
 600:Generated_Source\PSoC4/CAN.c ****     #else  /* CY_PSOC4 */
 601:Generated_Source\PSoC4/CAN.c ****         if (arbiter == CAN_ROUND_ROBIN)
 302              		.loc 1 601 0
 303 0002 0028     		cmp	r0, #0
 304 0004 07D1     		bne	.L33
 305              	.LVL23:
 306              	.LBB28:
 307              	.LBB29:
 602:Generated_Source\PSoC4/CAN.c ****         {
 603:Generated_Source\PSoC4/CAN.c ****             CAN_CFG_REG &= (uint32) (~CAN_ARBITRATION_MASK);
 308              		.loc 1 603 0
 309 0006 1968     		ldr	r1, [r3]
 310 0008 094A     		ldr	r2, .L35+4
 311 000a 0A40     		ands	r2, r1
 312 000c 1A60     		str	r2, [r3]
 604:Generated_Source\PSoC4/CAN.c **** 
 605:Generated_Source\PSoC4/CAN.c ****             /* Verify that bit is cleared */
 606:Generated_Source\PSoC4/CAN.c ****             if ((CAN_CFG_REG & CAN_ARBITRATION_MASK) == 0u)
 313              		.loc 1 606 0
 314 000e 1868     		ldr	r0, [r3]
 315              	.LVL24:
 607:Generated_Source\PSoC4/CAN.c ****             {
 608:Generated_Source\PSoC4/CAN.c ****                 result = CYRET_SUCCESS;
 316              		.loc 1 608 0
 317 0010 C004     		lsls	r0, r0, #19
 318 0012 C00F     		lsrs	r0, r0, #31
 319 0014 08E0     		b	.L34
 320              	.LVL25:
 321              	.L33:
 322              	.LBE29:
 323              	.LBE28:
 609:Generated_Source\PSoC4/CAN.c ****             }
 610:Generated_Source\PSoC4/CAN.c ****         }
 611:Generated_Source\PSoC4/CAN.c ****         else    /* Fixed priority */
 612:Generated_Source\PSoC4/CAN.c ****         {
 613:Generated_Source\PSoC4/CAN.c ****             CAN_CFG_REG |= CAN_ARBITRATION_MASK;
 324              		.loc 1 613 0
 325 0016 8021     		movs	r1, #128
 326              	.LBB32:
 327              	.LBB30:
 608:Generated_Source\PSoC4/CAN.c ****             }
 328              		.loc 1 608 0
 329 0018 0120     		movs	r0, #1
 330              	.LVL26:
 331              	.LBE30:
ARM GAS  C:\Users\RYANCA~1\AppData\Local\Temp\ccuGCfpb.s 			page 18


 332              	.LBE32:
 333              		.loc 1 613 0
 334 001a 1A68     		ldr	r2, [r3]
 335 001c 4901     		lsls	r1, r1, #5
 336 001e 0A43     		orrs	r2, r1
 337 0020 1A60     		str	r2, [r3]
 614:Generated_Source\PSoC4/CAN.c **** 
 615:Generated_Source\PSoC4/CAN.c ****             /* Verify that bit is set */
 616:Generated_Source\PSoC4/CAN.c ****             if ((CAN_CFG_REG & CAN_ARBITRATION_MASK) != 0u)
 338              		.loc 1 616 0
 339 0022 1B68     		ldr	r3, [r3]
 340              	.LBB33:
 341              	.LBB31:
 608:Generated_Source\PSoC4/CAN.c ****             }
 342              		.loc 1 608 0
 343 0024 1B0B     		lsrs	r3, r3, #12
 344 0026 9843     		bics	r0, r3
 345              	.L34:
 346              	.LVL27:
 347              	.LBE31:
 348              	.LBE33:
 617:Generated_Source\PSoC4/CAN.c ****             {
 618:Generated_Source\PSoC4/CAN.c ****                 result = CYRET_SUCCESS;
 619:Generated_Source\PSoC4/CAN.c ****             }
 620:Generated_Source\PSoC4/CAN.c ****         }
 621:Generated_Source\PSoC4/CAN.c ****     #endif /* CY_PSOC3 || CY_PSOC5 */
 622:Generated_Source\PSoC4/CAN.c **** 
 623:Generated_Source\PSoC4/CAN.c ****     return (result);
 624:Generated_Source\PSoC4/CAN.c **** }
 349              		.loc 1 624 0
 350              		@ sp needed
 351 0028 7047     		bx	lr
 352              	.L36:
 353 002a C046     		.align	2
 354              	.L35:
 355 002c 14002F40 		.word	1076822036
 356 0030 FFEFFFFF 		.word	-4097
 357              		.cfi_endproc
 358              	.LFE9:
 359              		.size	CAN_SetArbiter, .-CAN_SetArbiter
 360              		.section	.text.CAN_SetTsegSample,"ax",%progbits
 361              		.align	1
 362              		.global	CAN_SetTsegSample
 363              		.code	16
 364              		.thumb_func
 365              		.type	CAN_SetTsegSample, %function
 366              	CAN_SetTsegSample:
 367              	.LFB10:
 625:Generated_Source\PSoC4/CAN.c **** 
 626:Generated_Source\PSoC4/CAN.c **** 
 627:Generated_Source\PSoC4/CAN.c **** /*******************************************************************************
 628:Generated_Source\PSoC4/CAN.c **** * FUNCTION NAME: CAN_SetTsegSample
 629:Generated_Source\PSoC4/CAN.c **** ********************************************************************************
 630:Generated_Source\PSoC4/CAN.c **** *
 631:Generated_Source\PSoC4/CAN.c **** * Summary:
 632:Generated_Source\PSoC4/CAN.c **** *  This function configures: Time segment 1, Time segment 2, Sampling Mode
 633:Generated_Source\PSoC4/CAN.c **** *  and Synchronization Jump Width.
ARM GAS  C:\Users\RYANCA~1\AppData\Local\Temp\ccuGCfpb.s 			page 19


 634:Generated_Source\PSoC4/CAN.c **** *
 635:Generated_Source\PSoC4/CAN.c **** * Parameters:
 636:Generated_Source\PSoC4/CAN.c **** *  cfgTseg1: The length of time segment 1, values between 0x2 and 0xF are valid;
 637:Generated_Source\PSoC4/CAN.c **** *  cfgTseg2: The length of time segment 2, values between 0x1 and 0x7 are valid;
 638:Generated_Source\PSoC4/CAN.c **** *  sjw: Synchronization Jump Width, value between 0x0 and 0x3 are valid;
 639:Generated_Source\PSoC4/CAN.c **** *  sm: Sampling Mode.
 640:Generated_Source\PSoC4/CAN.c **** *   Define                               Description
 641:Generated_Source\PSoC4/CAN.c **** *   CAN_ONE_SAMPLE_POINT     One sampling point is used
 642:Generated_Source\PSoC4/CAN.c **** *   CAN_THREE_SAMPLE_POINTS  Three sampling points are used
 643:Generated_Source\PSoC4/CAN.c **** *
 644:Generated_Source\PSoC4/CAN.c **** * Return:
 645:Generated_Source\PSoC4/CAN.c **** *  The indication whether the register is written and verified.
 646:Generated_Source\PSoC4/CAN.c **** *   Define                             Description
 647:Generated_Source\PSoC4/CAN.c **** *    CYRET_SUCCESS                      The function passed successfully
 648:Generated_Source\PSoC4/CAN.c **** *    CAN_FAIL              The function failed
 649:Generated_Source\PSoC4/CAN.c **** *    CAN_OUT_OF_RANGE      The function parameter is out of range
 650:Generated_Source\PSoC4/CAN.c **** *
 651:Generated_Source\PSoC4/CAN.c **** *******************************************************************************/
 652:Generated_Source\PSoC4/CAN.c **** uint8 CAN_SetTsegSample(uint8 cfgTseg1, uint8 cfgTseg2, uint8 sjw, uint8 sm)
 653:Generated_Source\PSoC4/CAN.c ****                                      
 654:Generated_Source\PSoC4/CAN.c **** {
 368              		.loc 1 654 0
 369              		.cfi_startproc
 370              		@ args = 0, pretend = 0, frame = 0
 371              		@ frame_needed = 0, uses_anonymous_args = 0
 372              	.LVL28:
 373 0000 F0B5     		push	{r4, r5, r6, r7, lr}
 374              		.cfi_def_cfa_offset 20
 375              		.cfi_offset 4, -20
 376              		.cfi_offset 5, -16
 377              		.cfi_offset 6, -12
 378              		.cfi_offset 7, -8
 379              		.cfi_offset 14, -4
 380              		.loc 1 654 0
 381 0002 0600     		movs	r6, r0
 655:Generated_Source\PSoC4/CAN.c ****     uint8 result = CAN_OUT_OF_RANGE;
 656:Generated_Source\PSoC4/CAN.c ****     uint8 cfgTemp;
 657:Generated_Source\PSoC4/CAN.c **** 
 658:Generated_Source\PSoC4/CAN.c ****     if ((cfgTseg1 >= CAN_CFG_REG_TSEG1_LOWER_LIMIT) && (cfgTseg1 <=
 382              		.loc 1 658 0
 383 0004 0238     		subs	r0, r0, #2
 384              	.LVL29:
 655:Generated_Source\PSoC4/CAN.c ****     uint8 result = CAN_OUT_OF_RANGE;
 385              		.loc 1 655 0
 386 0006 0224     		movs	r4, #2
 387              		.loc 1 658 0
 388 0008 0D28     		cmp	r0, #13
 389 000a 33D8     		bhi	.L38
 659:Generated_Source\PSoC4/CAN.c ****          CAN_CFG_REG_TSEG1_UPPER_LIMIT))
 660:Generated_Source\PSoC4/CAN.c ****     {
 661:Generated_Source\PSoC4/CAN.c ****         if (((cfgTseg2 >= CAN_CFG_REG_TSEG2_LOWER_LIMIT) &&
 390              		.loc 1 661 0
 391 000c 881E     		subs	r0, r1, #2
 392 000e 0528     		cmp	r0, #5
 393 0010 03D9     		bls	.L39
 662:Generated_Source\PSoC4/CAN.c ****              (cfgTseg2 <= CAN_CFG_REG_TSEG2_UPPER_LIMIT)) || ((sm == CAN_ONE_SAMPLE_POINT) &&
 394              		.loc 1 662 0
ARM GAS  C:\Users\RYANCA~1\AppData\Local\Temp\ccuGCfpb.s 			page 20


 395 0012 002B     		cmp	r3, #0
 396 0014 2ED1     		bne	.L38
 397              		.loc 1 662 0 is_stmt 0 discriminator 1
 398 0016 0129     		cmp	r1, #1
 399 0018 2CD1     		bne	.L38
 400              	.L39:
 655:Generated_Source\PSoC4/CAN.c ****     uint8 result = CAN_OUT_OF_RANGE;
 401              		.loc 1 655 0 is_stmt 1
 402 001a 0224     		movs	r4, #2
 663:Generated_Source\PSoC4/CAN.c ****              (cfgTseg2 == CAN_CFG_REG_TSEG2_EXCEPTION)))
 664:Generated_Source\PSoC4/CAN.c ****         {
 665:Generated_Source\PSoC4/CAN.c ****             if ((sjw <= CAN_CFG_REG_SJW_LOWER_LIMIT) && (sjw <= cfgTseg1) && (sjw <= cfgTseg2))
 403              		.loc 1 665 0
 404 001c 032A     		cmp	r2, #3
 405 001e 29D8     		bhi	.L38
 406              		.loc 1 665 0 is_stmt 0 discriminator 1
 407 0020 9642     		cmp	r6, r2
 408 0022 27D3     		bcc	.L38
 409              		.loc 1 665 0 discriminator 2
 410 0024 9142     		cmp	r1, r2
 411 0026 25D3     		bcc	.L38
 412              	.LVL30:
 666:Generated_Source\PSoC4/CAN.c ****             {
 667:Generated_Source\PSoC4/CAN.c ****                 result = CAN_FAIL;
 668:Generated_Source\PSoC4/CAN.c **** 
 669:Generated_Source\PSoC4/CAN.c ****                 #if (CY_PSOC3 || CY_PSOC5)
 670:Generated_Source\PSoC4/CAN.c ****                     cfgTemp = CAN_CFG_REG.byte[1];
 671:Generated_Source\PSoC4/CAN.c ****                     cfgTemp &= (uint8) (~CAN_CFG_REG_TSEG1_MASK);
 672:Generated_Source\PSoC4/CAN.c ****                     cfgTemp |= cfgTseg1;
 673:Generated_Source\PSoC4/CAN.c **** 
 674:Generated_Source\PSoC4/CAN.c ****                     /* Write register byte 1 */
 675:Generated_Source\PSoC4/CAN.c ****                     CAN_CFG_REG.byte[1u] = cfgTemp;
 676:Generated_Source\PSoC4/CAN.c **** 
 677:Generated_Source\PSoC4/CAN.c ****                     /* Verify 1st byte of CAN_CFG_REG register */
 678:Generated_Source\PSoC4/CAN.c ****                     if (CAN_CFG_REG.byte[1u] == cfgTemp)
 679:Generated_Source\PSoC4/CAN.c ****                     {
 680:Generated_Source\PSoC4/CAN.c ****                         cfgTemp = 0u;
 681:Generated_Source\PSoC4/CAN.c ****                         /* Set appropriate bits */
 682:Generated_Source\PSoC4/CAN.c ****                         if (sm != CAN_ONE_SAMPLE_POINT)
 683:Generated_Source\PSoC4/CAN.c ****                         {
 684:Generated_Source\PSoC4/CAN.c ****                             cfgTemp = CAN_SAMPLE_MODE_MASK;
 685:Generated_Source\PSoC4/CAN.c ****                         }
 686:Generated_Source\PSoC4/CAN.c ****                         cfgTemp |= ((uint8) (cfgTseg2 << CAN_CFG_REG_TSEG2_SHIFT)) |
 687:Generated_Source\PSoC4/CAN.c ****                                    ((uint8) (sjw << CAN_CFG_REG_SJW_SHIFT));
 688:Generated_Source\PSoC4/CAN.c **** 
 689:Generated_Source\PSoC4/CAN.c ****                         /* Write register byte 0 */
 690:Generated_Source\PSoC4/CAN.c ****                         CAN_CFG_REG.byte[0u] = cfgTemp;
 691:Generated_Source\PSoC4/CAN.c **** 
 692:Generated_Source\PSoC4/CAN.c ****                         /* Verify 1st byte of CAN_CFG_REG register */
 693:Generated_Source\PSoC4/CAN.c ****                         if (CAN_CFG_REG.byte[0u] == cfgTemp)
 694:Generated_Source\PSoC4/CAN.c ****                         {
 695:Generated_Source\PSoC4/CAN.c ****                             result = CYRET_SUCCESS;
 696:Generated_Source\PSoC4/CAN.c ****                         }
 697:Generated_Source\PSoC4/CAN.c ****                     }
 698:Generated_Source\PSoC4/CAN.c ****                 #else  /* CY_PSOC4 */
 699:Generated_Source\PSoC4/CAN.c ****                     cfgTemp = (uint8) (CAN_CFG_REG >> CAN_CFG_REG_TSEG1_SHIFT);
 413              		.loc 1 699 0 is_stmt 1
ARM GAS  C:\Users\RYANCA~1\AppData\Local\Temp\ccuGCfpb.s 			page 21


 414 0028 134D     		ldr	r5, .L49
 700:Generated_Source\PSoC4/CAN.c ****                     cfgTemp &= (uint8) (~CAN_CFG_REG_TSEG1_MASK);
 415              		.loc 1 700 0
 416 002a EE34     		adds	r4, r4, #238
 699:Generated_Source\PSoC4/CAN.c ****                     cfgTemp &= (uint8) (~CAN_CFG_REG_TSEG1_MASK);
 417              		.loc 1 699 0
 418 002c 2868     		ldr	r0, [r5]
 701:Generated_Source\PSoC4/CAN.c ****                     cfgTemp |= cfgTseg1;
 702:Generated_Source\PSoC4/CAN.c **** 
 703:Generated_Source\PSoC4/CAN.c ****                     /* Write register byte 1 */
 704:Generated_Source\PSoC4/CAN.c ****                     CAN_CFG_REG =
 705:Generated_Source\PSoC4/CAN.c ****                     (CAN_CFG_REG & (uint32) (~((uint32) ((uint32) CAN_CFG_REG_TSEG1_MASK <<
 419              		.loc 1 705 0
 420 002e 2F68     		ldr	r7, [r5]
 699:Generated_Source\PSoC4/CAN.c ****                     cfgTemp &= (uint8) (~CAN_CFG_REG_TSEG1_MASK);
 421              		.loc 1 699 0
 422 0030 000A     		lsrs	r0, r0, #8
 423              	.LVL31:
 700:Generated_Source\PSoC4/CAN.c ****                     cfgTemp |= cfgTseg1;
 424              		.loc 1 700 0
 425 0032 2040     		ands	r0, r4
 426              	.LVL32:
 706:Generated_Source\PSoC4/CAN.c ****                     CAN_CFG_REG_TSEG1_SHIFT)))) |
 707:Generated_Source\PSoC4/CAN.c ****                     (uint32) ((uint32) cfgTemp << CAN_CFG_REG_TSEG1_SHIFT);
 427              		.loc 1 707 0
 428 0034 3043     		orrs	r0, r6
 429              	.LVL33:
 708:Generated_Source\PSoC4/CAN.c **** 
 709:Generated_Source\PSoC4/CAN.c ****                     /* Verify 1st byte of CAN_CFG_REG register */
 710:Generated_Source\PSoC4/CAN.c ****                     if ((CAN_CFG_REG & (uint32) ((uint32) CAN_CFG_REG_TSEG1_MASK <<
 430              		.loc 1 710 0
 431 0036 F026     		movs	r6, #240
 706:Generated_Source\PSoC4/CAN.c ****                     CAN_CFG_REG_TSEG1_SHIFT)))) |
 432              		.loc 1 706 0
 433 0038 104C     		ldr	r4, .L49+4
 707:Generated_Source\PSoC4/CAN.c **** 
 434              		.loc 1 707 0
 435 003a 0002     		lsls	r0, r0, #8
 706:Generated_Source\PSoC4/CAN.c ****                     CAN_CFG_REG_TSEG1_SHIFT)))) |
 436              		.loc 1 706 0
 437 003c 3C40     		ands	r4, r7
 438 003e 0443     		orrs	r4, r0
 704:Generated_Source\PSoC4/CAN.c ****                     (CAN_CFG_REG & (uint32) (~((uint32) ((uint32) CAN_CFG_REG_TSEG1_MASK <<
 439              		.loc 1 704 0
 440 0040 2C60     		str	r4, [r5]
 441              		.loc 1 710 0
 442 0042 2C68     		ldr	r4, [r5]
 443 0044 3601     		lsls	r6, r6, #4
 444 0046 6040     		eors	r0, r4
 667:Generated_Source\PSoC4/CAN.c **** 
 445              		.loc 1 667 0
 446 0048 0124     		movs	r4, #1
 447              		.loc 1 710 0
 448 004a 3042     		tst	r0, r6
 449 004c 12D1     		bne	.L38
 450              	.LVL34:
 451              	.LBB36:
ARM GAS  C:\Users\RYANCA~1\AppData\Local\Temp\ccuGCfpb.s 			page 22


 452              	.LBB37:
 711:Generated_Source\PSoC4/CAN.c ****                        CAN_CFG_REG_TSEG1_SHIFT)) == (uint32) ((uint32) ((uint32) cfgTemp &
 712:Generated_Source\PSoC4/CAN.c ****                        CAN_CFG_REG_TSEG1_MASK) << CAN_CFG_REG_TSEG1_SHIFT))
 713:Generated_Source\PSoC4/CAN.c ****                     {
 714:Generated_Source\PSoC4/CAN.c ****                         cfgTemp = 0u;
 715:Generated_Source\PSoC4/CAN.c ****                         /* Set appropriate bits */
 716:Generated_Source\PSoC4/CAN.c ****                         if (sm != CAN_ONE_SAMPLE_POINT)
 717:Generated_Source\PSoC4/CAN.c ****                         {
 718:Generated_Source\PSoC4/CAN.c ****                             cfgTemp = CAN_SAMPLE_MODE_MASK;
 453              		.loc 1 718 0
 454 004e 581E     		subs	r0, r3, #1
 455 0050 8341     		sbcs	r3, r3, r0
 456              	.LVL35:
 457 0052 A340     		lsls	r3, r3, r4
 458              	.LVL36:
 719:Generated_Source\PSoC4/CAN.c ****                         }
 720:Generated_Source\PSoC4/CAN.c ****                         cfgTemp |= ((uint8) (cfgTseg2 << CAN_CFG_REG_TSEG2_SHIFT)) |
 721:Generated_Source\PSoC4/CAN.c ****                                    ((uint8) (sjw << CAN_CFG_REG_SJW_SHIFT));
 722:Generated_Source\PSoC4/CAN.c **** 
 723:Generated_Source\PSoC4/CAN.c ****                         /* Write register byte 0 */
 724:Generated_Source\PSoC4/CAN.c ****                         CAN_CFG_REG = (CAN_CFG_REG &
 725:Generated_Source\PSoC4/CAN.c ****                         (uint32) (~((uint32) (CAN_CFG_REG_TSEG2_MASK | CAN_CFG_REG_SJW_MASK |
 726:Generated_Source\PSoC4/CAN.c ****                         CAN_SAMPLE_MODE_MASK)))) | cfgTemp;
 459              		.loc 1 726 0
 460 0054 4901     		lsls	r1, r1, #5
 461              	.LVL37:
 462 0056 9200     		lsls	r2, r2, #2
 463              	.LVL38:
 724:Generated_Source\PSoC4/CAN.c ****                         (uint32) (~((uint32) (CAN_CFG_REG_TSEG2_MASK | CAN_CFG_REG_SJW_MASK |
 464              		.loc 1 724 0
 465 0058 2E68     		ldr	r6, [r5]
 466              		.loc 1 726 0
 467 005a 0A43     		orrs	r2, r1
 468 005c ED34     		adds	r4, r4, #237
 469 005e 1343     		orrs	r3, r2
 470              	.LVL39:
 471 0060 DBB2     		uxtb	r3, r3
 472 0062 A643     		bics	r6, r4
 473 0064 1E43     		orrs	r6, r3
 724:Generated_Source\PSoC4/CAN.c ****                         (uint32) (~((uint32) (CAN_CFG_REG_TSEG2_MASK | CAN_CFG_REG_SJW_MASK |
 474              		.loc 1 724 0
 475 0066 2E60     		str	r6, [r5]
 727:Generated_Source\PSoC4/CAN.c **** 
 728:Generated_Source\PSoC4/CAN.c ****                         /* Verify 1st byte of CAN_CFG_REG register */
 729:Generated_Source\PSoC4/CAN.c ****                         if ((CAN_CFG_REG & (CAN_CFG_REG_TSEG2_MASK |
 476              		.loc 1 729 0
 477 0068 2868     		ldr	r0, [r5]
 478              	.LBE37:
 479              	.LBE36:
 655:Generated_Source\PSoC4/CAN.c ****     uint8 cfgTemp;
 480              		.loc 1 655 0
 481 006a 0440     		ands	r4, r0
 482 006c E31A     		subs	r3, r4, r3
 483 006e 5C1E     		subs	r4, r3, #1
 484 0070 A341     		sbcs	r3, r3, r4
 485 0072 DCB2     		uxtb	r4, r3
 486              	.LVL40:
ARM GAS  C:\Users\RYANCA~1\AppData\Local\Temp\ccuGCfpb.s 			page 23


 487              	.L38:
 730:Generated_Source\PSoC4/CAN.c ****                            CAN_CFG_REG_SJW_MASK | CAN_SAMPLE_MODE_MASK)) == cfgTemp)
 731:Generated_Source\PSoC4/CAN.c ****                         {
 732:Generated_Source\PSoC4/CAN.c ****                             result = CYRET_SUCCESS;
 733:Generated_Source\PSoC4/CAN.c ****                         }
 734:Generated_Source\PSoC4/CAN.c ****                     }
 735:Generated_Source\PSoC4/CAN.c ****                 #endif /* CY_PSOC3 || CY_PSOC5 */
 736:Generated_Source\PSoC4/CAN.c ****             }
 737:Generated_Source\PSoC4/CAN.c ****         }
 738:Generated_Source\PSoC4/CAN.c ****     }
 739:Generated_Source\PSoC4/CAN.c **** 
 740:Generated_Source\PSoC4/CAN.c ****     return (result);
 741:Generated_Source\PSoC4/CAN.c **** }
 488              		.loc 1 741 0
 489 0074 2000     		movs	r0, r4
 490              		@ sp needed
 491              	.LVL41:
 492 0076 F0BD     		pop	{r4, r5, r6, r7, pc}
 493              	.L50:
 494              		.align	2
 495              	.L49:
 496 0078 14002F40 		.word	1076822036
 497 007c FFF0FFFF 		.word	-3841
 498              		.cfi_endproc
 499              	.LFE10:
 500              		.size	CAN_SetTsegSample, .-CAN_SetTsegSample
 501              		.section	.text.CAN_SetRestartType,"ax",%progbits
 502              		.align	1
 503              		.global	CAN_SetRestartType
 504              		.code	16
 505              		.thumb_func
 506              		.type	CAN_SetRestartType, %function
 507              	CAN_SetRestartType:
 508              	.LFB11:
 742:Generated_Source\PSoC4/CAN.c **** 
 743:Generated_Source\PSoC4/CAN.c **** 
 744:Generated_Source\PSoC4/CAN.c **** /*******************************************************************************
 745:Generated_Source\PSoC4/CAN.c **** * FUNCTION NAME:   CAN_SetRestartType
 746:Generated_Source\PSoC4/CAN.c **** ********************************************************************************
 747:Generated_Source\PSoC4/CAN.c **** *
 748:Generated_Source\PSoC4/CAN.c **** * Summary:
 749:Generated_Source\PSoC4/CAN.c **** *  This function sets the Reset type. The types of Reset are Automatic and
 750:Generated_Source\PSoC4/CAN.c **** *  Manual. Manual Reset is the recommended setting.
 751:Generated_Source\PSoC4/CAN.c **** *
 752:Generated_Source\PSoC4/CAN.c **** * Parameters:
 753:Generated_Source\PSoC4/CAN.c **** *  reset: Reset Type.
 754:Generated_Source\PSoC4/CAN.c **** *   Define                             Description
 755:Generated_Source\PSoC4/CAN.c **** *    CAN_MANUAL_RESTART    After Bus-Off, CAN must be restarted
 756:Generated_Source\PSoC4/CAN.c **** *                                       manually. This is the recommended
 757:Generated_Source\PSoC4/CAN.c **** *                                       setting.
 758:Generated_Source\PSoC4/CAN.c **** *    CAN_AUTO_RESTART      After Bus-Off, CAN restarts
 759:Generated_Source\PSoC4/CAN.c **** *                                       automatically after 128 groups of 11
 760:Generated_Source\PSoC4/CAN.c **** *                                       recessive bits.
 761:Generated_Source\PSoC4/CAN.c **** *
 762:Generated_Source\PSoC4/CAN.c **** * Return:
 763:Generated_Source\PSoC4/CAN.c **** *  The indication whether the register is written and verified.
 764:Generated_Source\PSoC4/CAN.c **** *   Define                             Description
ARM GAS  C:\Users\RYANCA~1\AppData\Local\Temp\ccuGCfpb.s 			page 24


 765:Generated_Source\PSoC4/CAN.c **** *    CYRET_SUCCESS                      The function passed successfully
 766:Generated_Source\PSoC4/CAN.c **** *    CAN_FAIL              The function failed
 767:Generated_Source\PSoC4/CAN.c **** *
 768:Generated_Source\PSoC4/CAN.c **** *******************************************************************************/
 769:Generated_Source\PSoC4/CAN.c **** uint8 CAN_SetRestartType(uint8 reset) 
 770:Generated_Source\PSoC4/CAN.c **** {
 509              		.loc 1 770 0
 510              		.cfi_startproc
 511              		@ args = 0, pretend = 0, frame = 0
 512              		@ frame_needed = 0, uses_anonymous_args = 0
 513              		@ link register save eliminated.
 514              	.LVL42:
 515 0000 084B     		ldr	r3, .L54
 516 0002 1021     		movs	r1, #16
 517              	.LBB40:
 518              	.LBB41:
 771:Generated_Source\PSoC4/CAN.c ****     uint8 result = CAN_FAIL;
 772:Generated_Source\PSoC4/CAN.c **** 
 773:Generated_Source\PSoC4/CAN.c ****     #if (CY_PSOC3 || CY_PSOC5)
 774:Generated_Source\PSoC4/CAN.c ****         if (reset == CAN_MANUAL_RESTART)
 775:Generated_Source\PSoC4/CAN.c ****         {
 776:Generated_Source\PSoC4/CAN.c ****             CAN_CFG_REG.byte[0u] &= (uint8) (~CAN_RESET_MASK);
 777:Generated_Source\PSoC4/CAN.c **** 
 778:Generated_Source\PSoC4/CAN.c ****             /* Verify that bit is cleared */
 779:Generated_Source\PSoC4/CAN.c ****             if ((CAN_CFG_REG.byte[0u] & CAN_RESET_MASK) == 0u)
 780:Generated_Source\PSoC4/CAN.c ****             {
 781:Generated_Source\PSoC4/CAN.c ****                 result = CYRET_SUCCESS;
 782:Generated_Source\PSoC4/CAN.c ****             }
 783:Generated_Source\PSoC4/CAN.c ****         }
 784:Generated_Source\PSoC4/CAN.c ****         else    /* Automatic restart */
 785:Generated_Source\PSoC4/CAN.c ****         {
 786:Generated_Source\PSoC4/CAN.c ****             CAN_CFG_REG.byte[0u] |= CAN_RESET_MASK;
 787:Generated_Source\PSoC4/CAN.c **** 
 788:Generated_Source\PSoC4/CAN.c ****             /* Verify that bit is set */
 789:Generated_Source\PSoC4/CAN.c ****             if ((CAN_CFG_REG.byte[0u] & CAN_RESET_MASK) != 0u)
 790:Generated_Source\PSoC4/CAN.c ****             {
 791:Generated_Source\PSoC4/CAN.c ****                 result = CYRET_SUCCESS;
 792:Generated_Source\PSoC4/CAN.c ****             }
 793:Generated_Source\PSoC4/CAN.c ****         }
 794:Generated_Source\PSoC4/CAN.c ****     #else  /* CY_PSOC4 */
 795:Generated_Source\PSoC4/CAN.c ****         if (reset == CAN_MANUAL_RESTART)
 796:Generated_Source\PSoC4/CAN.c ****         {
 797:Generated_Source\PSoC4/CAN.c ****             CAN_CFG_REG &= (uint32) (~((uint32) CAN_RESET_MASK));
 519              		.loc 1 797 0
 520 0004 1A68     		ldr	r2, [r3]
 521              	.LBE41:
 522              	.LBE40:
 795:Generated_Source\PSoC4/CAN.c ****         {
 523              		.loc 1 795 0
 524 0006 0028     		cmp	r0, #0
 525 0008 05D1     		bne	.L52
 526              	.LVL43:
 527              	.LBB44:
 528              	.LBB42:
 529              		.loc 1 797 0
 530 000a 8A43     		bics	r2, r1
 531 000c 1A60     		str	r2, [r3]
ARM GAS  C:\Users\RYANCA~1\AppData\Local\Temp\ccuGCfpb.s 			page 25


 798:Generated_Source\PSoC4/CAN.c **** 
 799:Generated_Source\PSoC4/CAN.c ****             /* Verify that bit is cleared */
 800:Generated_Source\PSoC4/CAN.c ****             if ((CAN_CFG_REG & CAN_RESET_MASK) == 0u)
 532              		.loc 1 800 0
 533 000e 1868     		ldr	r0, [r3]
 534              	.LVL44:
 801:Generated_Source\PSoC4/CAN.c ****             {
 802:Generated_Source\PSoC4/CAN.c ****                 result = CYRET_SUCCESS;
 535              		.loc 1 802 0
 536 0010 C006     		lsls	r0, r0, #27
 537 0012 C00F     		lsrs	r0, r0, #31
 538 0014 05E0     		b	.L53
 539              	.LVL45:
 540              	.L52:
 541 0016 0120     		movs	r0, #1
 542              	.LVL46:
 543              	.LBE42:
 544              	.LBE44:
 803:Generated_Source\PSoC4/CAN.c ****             }
 804:Generated_Source\PSoC4/CAN.c ****         }
 805:Generated_Source\PSoC4/CAN.c ****         else    /* Automatic restart */
 806:Generated_Source\PSoC4/CAN.c ****         {
 807:Generated_Source\PSoC4/CAN.c ****             CAN_CFG_REG |= CAN_RESET_MASK;
 545              		.loc 1 807 0
 546 0018 0A43     		orrs	r2, r1
 547 001a 1A60     		str	r2, [r3]
 808:Generated_Source\PSoC4/CAN.c **** 
 809:Generated_Source\PSoC4/CAN.c ****             /* Verify that bit is set */
 810:Generated_Source\PSoC4/CAN.c ****             if ((CAN_CFG_REG & CAN_RESET_MASK) != 0u)
 548              		.loc 1 810 0
 549 001c 1B68     		ldr	r3, [r3]
 550              	.LBB45:
 551              	.LBB43:
 802:Generated_Source\PSoC4/CAN.c ****             }
 552              		.loc 1 802 0
 553 001e 1B09     		lsrs	r3, r3, #4
 554 0020 9843     		bics	r0, r3
 555              	.L53:
 556              	.LVL47:
 557              	.LBE43:
 558              	.LBE45:
 811:Generated_Source\PSoC4/CAN.c ****             {
 812:Generated_Source\PSoC4/CAN.c ****                 result = CYRET_SUCCESS;
 813:Generated_Source\PSoC4/CAN.c ****             }
 814:Generated_Source\PSoC4/CAN.c ****         }
 815:Generated_Source\PSoC4/CAN.c ****     #endif /* CY_PSOC3 || CY_PSOC5 */
 816:Generated_Source\PSoC4/CAN.c **** 
 817:Generated_Source\PSoC4/CAN.c ****     return (result);
 818:Generated_Source\PSoC4/CAN.c **** }
 559              		.loc 1 818 0
 560              		@ sp needed
 561 0022 7047     		bx	lr
 562              	.L55:
 563              		.align	2
 564              	.L54:
 565 0024 14002F40 		.word	1076822036
 566              		.cfi_endproc
ARM GAS  C:\Users\RYANCA~1\AppData\Local\Temp\ccuGCfpb.s 			page 26


 567              	.LFE11:
 568              		.size	CAN_SetRestartType, .-CAN_SetRestartType
 569              		.section	.text.CAN_SetEdgeMode,"ax",%progbits
 570              		.align	1
 571              		.global	CAN_SetEdgeMode
 572              		.code	16
 573              		.thumb_func
 574              		.type	CAN_SetEdgeMode, %function
 575              	CAN_SetEdgeMode:
 576              	.LFB12:
 819:Generated_Source\PSoC4/CAN.c **** 
 820:Generated_Source\PSoC4/CAN.c **** 
 821:Generated_Source\PSoC4/CAN.c **** /*******************************************************************************
 822:Generated_Source\PSoC4/CAN.c **** * FUNCTION NAME:   CAN_SetEdgeMode
 823:Generated_Source\PSoC4/CAN.c **** ********************************************************************************
 824:Generated_Source\PSoC4/CAN.c **** *
 825:Generated_Source\PSoC4/CAN.c **** * Summary:
 826:Generated_Source\PSoC4/CAN.c **** *  This function sets Edge Mode. The modes are 'R' to 'D'(Recessive to Dominant)
 827:Generated_Source\PSoC4/CAN.c **** *  and Both edges are used.
 828:Generated_Source\PSoC4/CAN.c **** *
 829:Generated_Source\PSoC4/CAN.c **** * Parameters:
 830:Generated_Source\PSoC4/CAN.c **** *  edge: Edge Mode.
 831:Generated_Source\PSoC4/CAN.c **** *   Define                             Description
 832:Generated_Source\PSoC4/CAN.c **** *    CAN_EDGE_R_TO_D       The edge from R to D is used for
 833:Generated_Source\PSoC4/CAN.c **** *                                       synchronization
 834:Generated_Source\PSoC4/CAN.c **** *    CAN_BOTH_EDGES        Both edges are used
 835:Generated_Source\PSoC4/CAN.c **** *
 836:Generated_Source\PSoC4/CAN.c **** * Return:
 837:Generated_Source\PSoC4/CAN.c **** *  The indication whether the register is written and verified.
 838:Generated_Source\PSoC4/CAN.c **** *   Define                             Description
 839:Generated_Source\PSoC4/CAN.c **** *    CYRET_SUCCESS                      The function passed successfully
 840:Generated_Source\PSoC4/CAN.c **** *    CAN_FAIL              The function failed
 841:Generated_Source\PSoC4/CAN.c **** *
 842:Generated_Source\PSoC4/CAN.c **** *******************************************************************************/
 843:Generated_Source\PSoC4/CAN.c **** uint8 CAN_SetEdgeMode(uint8 edge) 
 844:Generated_Source\PSoC4/CAN.c **** {
 577              		.loc 1 844 0
 578              		.cfi_startproc
 579              		@ args = 0, pretend = 0, frame = 0
 580              		@ frame_needed = 0, uses_anonymous_args = 0
 581              		@ link register save eliminated.
 582              	.LVL48:
 583 0000 074A     		ldr	r2, .L59
 584 0002 0123     		movs	r3, #1
 585              	.LBB48:
 586              	.LBB49:
 845:Generated_Source\PSoC4/CAN.c ****     uint8 result = CAN_FAIL;
 846:Generated_Source\PSoC4/CAN.c **** 
 847:Generated_Source\PSoC4/CAN.c ****     #if (CY_PSOC3 || CY_PSOC5)
 848:Generated_Source\PSoC4/CAN.c ****         if (edge == CAN_EDGE_R_TO_D)
 849:Generated_Source\PSoC4/CAN.c ****         {
 850:Generated_Source\PSoC4/CAN.c ****             /* Recessive to Dominant is used for synchronization */
 851:Generated_Source\PSoC4/CAN.c ****             CAN_CFG_REG.byte[0u] &= (uint8) (~CAN_EDGE_MODE_MASK);
 852:Generated_Source\PSoC4/CAN.c **** 
 853:Generated_Source\PSoC4/CAN.c ****             /* Verify that bit is cleared */
 854:Generated_Source\PSoC4/CAN.c ****             if ((CAN_CFG_REG.byte[0u] & CAN_EDGE_MODE_MASK) == 0u)
 855:Generated_Source\PSoC4/CAN.c ****             {
ARM GAS  C:\Users\RYANCA~1\AppData\Local\Temp\ccuGCfpb.s 			page 27


 856:Generated_Source\PSoC4/CAN.c ****                 result = CYRET_SUCCESS;
 857:Generated_Source\PSoC4/CAN.c ****             }
 858:Generated_Source\PSoC4/CAN.c ****         }
 859:Generated_Source\PSoC4/CAN.c ****         else
 860:Generated_Source\PSoC4/CAN.c ****         {
 861:Generated_Source\PSoC4/CAN.c ****             /* Both edges to be used */
 862:Generated_Source\PSoC4/CAN.c ****             CAN_CFG_REG.byte[0u] |= CAN_EDGE_MODE_MASK;
 863:Generated_Source\PSoC4/CAN.c **** 
 864:Generated_Source\PSoC4/CAN.c ****             /* Verify that bit is set */
 865:Generated_Source\PSoC4/CAN.c ****             if ((CAN_CFG_REG.byte[0u] & CAN_EDGE_MODE_MASK) != 0u)
 866:Generated_Source\PSoC4/CAN.c ****             {
 867:Generated_Source\PSoC4/CAN.c ****                 result = CYRET_SUCCESS;
 868:Generated_Source\PSoC4/CAN.c ****             }
 869:Generated_Source\PSoC4/CAN.c ****         }
 870:Generated_Source\PSoC4/CAN.c ****     #else  /* CY_PSOC4 */
 871:Generated_Source\PSoC4/CAN.c ****         if (edge == CAN_EDGE_R_TO_D)
 872:Generated_Source\PSoC4/CAN.c ****         {
 873:Generated_Source\PSoC4/CAN.c ****             /* Recessive to Dominant is used for synchronization */
 874:Generated_Source\PSoC4/CAN.c ****             CAN_CFG_REG &= (uint32) (~((uint32) CAN_EDGE_MODE_MASK));
 587              		.loc 1 874 0
 588 0004 1168     		ldr	r1, [r2]
 589              	.LBE49:
 590              	.LBE48:
 871:Generated_Source\PSoC4/CAN.c ****         {
 591              		.loc 1 871 0
 592 0006 0028     		cmp	r0, #0
 593 0008 04D1     		bne	.L57
 594              	.LVL49:
 595              	.LBB52:
 596              	.LBB50:
 597              		.loc 1 874 0
 598 000a 9943     		bics	r1, r3
 599 000c 1160     		str	r1, [r2]
 875:Generated_Source\PSoC4/CAN.c **** 
 876:Generated_Source\PSoC4/CAN.c ****             /* Verify that bit is cleared */
 877:Generated_Source\PSoC4/CAN.c ****             if ((CAN_CFG_REG & CAN_EDGE_MODE_MASK) == 0u)
 600              		.loc 1 877 0
 601 000e 1068     		ldr	r0, [r2]
 602              	.LVL50:
 878:Generated_Source\PSoC4/CAN.c ****             {
 879:Generated_Source\PSoC4/CAN.c ****                 result = CYRET_SUCCESS;
 603              		.loc 1 879 0
 604 0010 1840     		ands	r0, r3
 605 0012 04E0     		b	.L58
 606              	.LVL51:
 607              	.L57:
 608              	.LBE50:
 609              	.LBE52:
 880:Generated_Source\PSoC4/CAN.c ****             }
 881:Generated_Source\PSoC4/CAN.c ****         }
 882:Generated_Source\PSoC4/CAN.c ****         else
 883:Generated_Source\PSoC4/CAN.c ****         {
 884:Generated_Source\PSoC4/CAN.c ****             /* Both edges to be used */
 885:Generated_Source\PSoC4/CAN.c ****             CAN_CFG_REG |= CAN_EDGE_MODE_MASK;
 610              		.loc 1 885 0
 611 0014 1943     		orrs	r1, r3
 612 0016 1160     		str	r1, [r2]
ARM GAS  C:\Users\RYANCA~1\AppData\Local\Temp\ccuGCfpb.s 			page 28


 886:Generated_Source\PSoC4/CAN.c **** 
 887:Generated_Source\PSoC4/CAN.c ****             /* Verify that bit is set */
 888:Generated_Source\PSoC4/CAN.c ****             if ((CAN_CFG_REG & CAN_EDGE_MODE_MASK) != 0u)
 613              		.loc 1 888 0
 614 0018 1268     		ldr	r2, [r2]
 615              	.LBB53:
 616              	.LBB51:
 879:Generated_Source\PSoC4/CAN.c ****             }
 617              		.loc 1 879 0
 618 001a 9343     		bics	r3, r2
 619 001c 1800     		movs	r0, r3
 620              	.LVL52:
 621              	.L58:
 622              	.LBE51:
 623              	.LBE53:
 889:Generated_Source\PSoC4/CAN.c ****             {
 890:Generated_Source\PSoC4/CAN.c ****                 result = CYRET_SUCCESS;
 891:Generated_Source\PSoC4/CAN.c ****             }
 892:Generated_Source\PSoC4/CAN.c ****         }
 893:Generated_Source\PSoC4/CAN.c ****     #endif /* CY_PSOC3 || CY_PSOC5 */
 894:Generated_Source\PSoC4/CAN.c **** 
 895:Generated_Source\PSoC4/CAN.c ****     return (result);
 896:Generated_Source\PSoC4/CAN.c **** }
 624              		.loc 1 896 0
 625              		@ sp needed
 626 001e 7047     		bx	lr
 627              	.L60:
 628              		.align	2
 629              	.L59:
 630 0020 14002F40 		.word	1076822036
 631              		.cfi_endproc
 632              	.LFE12:
 633              		.size	CAN_SetEdgeMode, .-CAN_SetEdgeMode
 634              		.section	.text.CAN_RXRegisterInit,"ax",%progbits
 635              		.align	1
 636              		.global	CAN_RXRegisterInit
 637              		.code	16
 638              		.thumb_func
 639              		.type	CAN_RXRegisterInit, %function
 640              	CAN_RXRegisterInit:
 641              	.LFB14:
 897:Generated_Source\PSoC4/CAN.c **** 
 898:Generated_Source\PSoC4/CAN.c **** 
 899:Generated_Source\PSoC4/CAN.c **** /*******************************************************************************
 900:Generated_Source\PSoC4/CAN.c **** * FUNCTION NAME:   CAN_SetOpMode
 901:Generated_Source\PSoC4/CAN.c **** ********************************************************************************
 902:Generated_Source\PSoC4/CAN.c **** *
 903:Generated_Source\PSoC4/CAN.c **** * Summary:
 904:Generated_Source\PSoC4/CAN.c **** *  This function sets Operation Mode.
 905:Generated_Source\PSoC4/CAN.c **** *
 906:Generated_Source\PSoC4/CAN.c **** * Parameters:
 907:Generated_Source\PSoC4/CAN.c **** *  opMode: Operation Mode value.
 908:Generated_Source\PSoC4/CAN.c **** *   Define                              Description
 909:Generated_Source\PSoC4/CAN.c **** *    CAN_STOP_MODE          The CAN controller is in the Stop mode
 910:Generated_Source\PSoC4/CAN.c **** *    CAN_ACTIVE_RUN_MODE    The CAN controller is in the Active
 911:Generated_Source\PSoC4/CAN.c **** *                                        mode
 912:Generated_Source\PSoC4/CAN.c **** *    CAN_LISTEN_ONLY_MODE   The CAN controller is in the Listen
ARM GAS  C:\Users\RYANCA~1\AppData\Local\Temp\ccuGCfpb.s 			page 29


 913:Generated_Source\PSoC4/CAN.c **** *                                        Only mode: The output is held at the
 914:Generated_Source\PSoC4/CAN.c **** *                                        'R' level.
 915:Generated_Source\PSoC4/CAN.c **** *    CAN_INTERNAL_LOOP_BACK The CAN controller is in the Internal
 916:Generated_Source\PSoC4/CAN.c **** *                                        Loopback mode. This mode is used for
 917:Generated_Source\PSoC4/CAN.c **** *                                        the testing purpose and the transmitted
 918:Generated_Source\PSoC4/CAN.c **** *                                        transactions are internally routed
 919:Generated_Source\PSoC4/CAN.c **** *                                        back to the receiver logic and
 920:Generated_Source\PSoC4/CAN.c **** *                                        processed by the controller in this
 921:Generated_Source\PSoC4/CAN.c **** *                                        mode. Not available for PSoC3/5.
 922:Generated_Source\PSoC4/CAN.c **** *    CAN_EXTERNAL_LOOP_BACK This mode is used for the testing
 923:Generated_Source\PSoC4/CAN.c **** *                                        purpose by connecting Tx and Rx lines
 924:Generated_Source\PSoC4/CAN.c **** *                                        externally. The transmitted messages
 925:Generated_Source\PSoC4/CAN.c **** *                                        are received back and processed by the
 926:Generated_Source\PSoC4/CAN.c **** *                                        CAN controller in this mode.
 927:Generated_Source\PSoC4/CAN.c **** *                                        Not available for PSoC3/5.
 928:Generated_Source\PSoC4/CAN.c **** * Return:
 929:Generated_Source\PSoC4/CAN.c **** *  The indication whether the register is written and verified.
 930:Generated_Source\PSoC4/CAN.c **** *   Define                             Description
 931:Generated_Source\PSoC4/CAN.c **** *    CYRET_SUCCESS                      The function passed successfully
 932:Generated_Source\PSoC4/CAN.c **** *    CAN_FAIL              The function failed
 933:Generated_Source\PSoC4/CAN.c **** *
 934:Generated_Source\PSoC4/CAN.c **** * Side Effects:
 935:Generated_Source\PSoC4/CAN.c **** *  For PSoC 4 device family the function re-initializes the CAN registers.
 936:Generated_Source\PSoC4/CAN.c **** *
 937:Generated_Source\PSoC4/CAN.c **** *******************************************************************************/
 938:Generated_Source\PSoC4/CAN.c **** uint8 CAN_SetOpMode(uint8 opMode) 
 939:Generated_Source\PSoC4/CAN.c **** {
 940:Generated_Source\PSoC4/CAN.c ****     #if (CY_PSOC3 || CY_PSOC5)
 941:Generated_Source\PSoC4/CAN.c ****         uint32 timeout;
 942:Generated_Source\PSoC4/CAN.c ****     #endif /* CY_PSOC3 || CY_PSOC5 */
 943:Generated_Source\PSoC4/CAN.c ****     uint8 result = CAN_FAIL;
 944:Generated_Source\PSoC4/CAN.c ****     uint8 runState = CAN_STOP_MODE;
 945:Generated_Source\PSoC4/CAN.c **** 
 946:Generated_Source\PSoC4/CAN.c ****     #if (CY_PSOC3 || CY_PSOC5)
 947:Generated_Source\PSoC4/CAN.c ****         if (((CAN_CMD_REG.byte[0u] & CAN_ACTIVE_RUN_MODE) != 0u) ||
 948:Generated_Source\PSoC4/CAN.c ****             (opMode == CAN_ACTIVE_RUN_MODE))
 949:Generated_Source\PSoC4/CAN.c ****         {
 950:Generated_Source\PSoC4/CAN.c ****             runState = CAN_ACTIVE_RUN_MODE;
 951:Generated_Source\PSoC4/CAN.c ****         }
 952:Generated_Source\PSoC4/CAN.c **** 
 953:Generated_Source\PSoC4/CAN.c ****         /* Set CAN to the Stop Mode */
 954:Generated_Source\PSoC4/CAN.c ****         CAN_CMD_REG.byte[0u] = CAN_STOP_MODE;
 955:Generated_Source\PSoC4/CAN.c **** 
 956:Generated_Source\PSoC4/CAN.c ****         /* Timeout for CAN state machine to switch mode to Stop */
 957:Generated_Source\PSoC4/CAN.c ****         for (timeout = CAN_MODE_STATE_STOP_TIMEOUT;
 958:Generated_Source\PSoC4/CAN.c ****             (timeout != 0u) && ((CAN_CMD_REG.byte[0u] & CAN_ACTIVE_RUN_MODE) != 0u);
 959:Generated_Source\PSoC4/CAN.c ****              timeout--)
 960:Generated_Source\PSoC4/CAN.c ****         {
 961:Generated_Source\PSoC4/CAN.c ****         }
 962:Generated_Source\PSoC4/CAN.c **** 
 963:Generated_Source\PSoC4/CAN.c ****         if (timeout != 0u)
 964:Generated_Source\PSoC4/CAN.c ****         {
 965:Generated_Source\PSoC4/CAN.c ****             result = CYRET_SUCCESS;
 966:Generated_Source\PSoC4/CAN.c ****         }
 967:Generated_Source\PSoC4/CAN.c **** 
 968:Generated_Source\PSoC4/CAN.c ****         if ((result == CYRET_SUCCESS) && (opMode != CAN_STOP_MODE))
 969:Generated_Source\PSoC4/CAN.c ****         {
ARM GAS  C:\Users\RYANCA~1\AppData\Local\Temp\ccuGCfpb.s 			page 30


 970:Generated_Source\PSoC4/CAN.c ****             if (opMode == CAN_LISTEN_ONLY_MODE)
 971:Generated_Source\PSoC4/CAN.c ****             {
 972:Generated_Source\PSoC4/CAN.c ****                 CAN_CMD_REG.byte[0u] = CAN_LISTEN_ONLY_MODE;
 973:Generated_Source\PSoC4/CAN.c ****             }
 974:Generated_Source\PSoC4/CAN.c **** 
 975:Generated_Source\PSoC4/CAN.c ****             if (runState == CAN_ACTIVE_RUN_MODE)
 976:Generated_Source\PSoC4/CAN.c ****             {
 977:Generated_Source\PSoC4/CAN.c ****                 CAN_CMD_REG.byte[0u] |= CAN_ACTIVE_RUN_MODE;
 978:Generated_Source\PSoC4/CAN.c **** 
 979:Generated_Source\PSoC4/CAN.c ****                 /* Timeout for CAN state machine to switch mode to Run */
 980:Generated_Source\PSoC4/CAN.c ****                 for (timeout = CAN_MODE_STATE_RUN_TIMEOUT;
 981:Generated_Source\PSoC4/CAN.c ****                     (timeout != 0u) && ((CAN_CMD_REG.byte[0u] & CAN_MODE_MASK) == 0u);
 982:Generated_Source\PSoC4/CAN.c ****                      timeout--)
 983:Generated_Source\PSoC4/CAN.c ****                 {
 984:Generated_Source\PSoC4/CAN.c ****                 }
 985:Generated_Source\PSoC4/CAN.c **** 
 986:Generated_Source\PSoC4/CAN.c ****                 if (timeout == 0u)
 987:Generated_Source\PSoC4/CAN.c ****                 {
 988:Generated_Source\PSoC4/CAN.c ****                     result = CAN_FAIL;
 989:Generated_Source\PSoC4/CAN.c ****                 }
 990:Generated_Source\PSoC4/CAN.c ****             }
 991:Generated_Source\PSoC4/CAN.c ****         }
 992:Generated_Source\PSoC4/CAN.c ****     #else  /* CY_PSOC4 */
 993:Generated_Source\PSoC4/CAN.c ****         if (((CAN_CMD_REG & CAN_MODE_MASK) != 0u) ||
 994:Generated_Source\PSoC4/CAN.c ****             (opMode == CAN_ACTIVE_RUN_MODE))
 995:Generated_Source\PSoC4/CAN.c ****         {
 996:Generated_Source\PSoC4/CAN.c ****             runState = CAN_ACTIVE_RUN_MODE;
 997:Generated_Source\PSoC4/CAN.c ****         }
 998:Generated_Source\PSoC4/CAN.c **** 
 999:Generated_Source\PSoC4/CAN.c ****         /* Sets CAN Component into the Stop mode */
1000:Generated_Source\PSoC4/CAN.c ****         if (CAN_Stop() == CYRET_SUCCESS)
1001:Generated_Source\PSoC4/CAN.c ****         {
1002:Generated_Source\PSoC4/CAN.c ****             /* Disable CAN IP Block to reset configuration before sets Operation Mode */
1003:Generated_Source\PSoC4/CAN.c ****             CAN_CNTL_REG = (uint32) (~CAN_IP_ENABLE);
1004:Generated_Source\PSoC4/CAN.c **** 
1005:Generated_Source\PSoC4/CAN.c ****             /* Enable CAN IP Block */
1006:Generated_Source\PSoC4/CAN.c ****             CAN_CNTL_REG = CAN_IP_ENABLE;
1007:Generated_Source\PSoC4/CAN.c **** 
1008:Generated_Source\PSoC4/CAN.c ****             result = CAN_Init();
1009:Generated_Source\PSoC4/CAN.c **** 
1010:Generated_Source\PSoC4/CAN.c ****             if ((result == CYRET_SUCCESS) && (opMode != CAN_STOP_MODE))
1011:Generated_Source\PSoC4/CAN.c ****             {
1012:Generated_Source\PSoC4/CAN.c ****                 if (opMode != CAN_ACTIVE_RUN_MODE)
1013:Generated_Source\PSoC4/CAN.c ****                 {
1014:Generated_Source\PSoC4/CAN.c ****                     /* Set CAN Operation Mode */
1015:Generated_Source\PSoC4/CAN.c ****                     CAN_CMD_REG |= opMode;
1016:Generated_Source\PSoC4/CAN.c ****                 }
1017:Generated_Source\PSoC4/CAN.c **** 
1018:Generated_Source\PSoC4/CAN.c ****                 if (runState == CAN_ACTIVE_RUN_MODE)
1019:Generated_Source\PSoC4/CAN.c ****                 {
1020:Generated_Source\PSoC4/CAN.c ****                     /* Enable component's operation */
1021:Generated_Source\PSoC4/CAN.c ****                     result = CAN_Enable();
1022:Generated_Source\PSoC4/CAN.c ****                 }
1023:Generated_Source\PSoC4/CAN.c ****             }
1024:Generated_Source\PSoC4/CAN.c ****         }
1025:Generated_Source\PSoC4/CAN.c ****     #endif /* CY_PSOC3 || CY_PSOC5 */
1026:Generated_Source\PSoC4/CAN.c **** 
ARM GAS  C:\Users\RYANCA~1\AppData\Local\Temp\ccuGCfpb.s 			page 31


1027:Generated_Source\PSoC4/CAN.c ****     return (result);
1028:Generated_Source\PSoC4/CAN.c **** }
1029:Generated_Source\PSoC4/CAN.c **** 
1030:Generated_Source\PSoC4/CAN.c **** 
1031:Generated_Source\PSoC4/CAN.c **** /*******************************************************************************
1032:Generated_Source\PSoC4/CAN.c **** * FUNCTION NAME:   CAN_RXRegisterInit
1033:Generated_Source\PSoC4/CAN.c **** ********************************************************************************
1034:Generated_Source\PSoC4/CAN.c **** *
1035:Generated_Source\PSoC4/CAN.c **** * Summary:
1036:Generated_Source\PSoC4/CAN.c **** *  This function writes only receive CAN registers.
1037:Generated_Source\PSoC4/CAN.c **** *
1038:Generated_Source\PSoC4/CAN.c **** * Parameters:
1039:Generated_Source\PSoC4/CAN.c **** *  regAddr: The pointer to a CAN receive register;
1040:Generated_Source\PSoC4/CAN.c **** *  config:  The value that will be written in the register.
1041:Generated_Source\PSoC4/CAN.c **** *
1042:Generated_Source\PSoC4/CAN.c **** * Return:
1043:Generated_Source\PSoC4/CAN.c **** *  The indication whether the register is written and verified.
1044:Generated_Source\PSoC4/CAN.c **** *   Define                             Description
1045:Generated_Source\PSoC4/CAN.c **** *    CYRET_SUCCESS                      The function passed successfully
1046:Generated_Source\PSoC4/CAN.c **** *    CAN_FAIL              The function failed
1047:Generated_Source\PSoC4/CAN.c **** *    CAN_OUT_OF_RANGE      The function parameter is out of range
1048:Generated_Source\PSoC4/CAN.c **** *
1049:Generated_Source\PSoC4/CAN.c **** *******************************************************************************/
1050:Generated_Source\PSoC4/CAN.c **** uint8 CAN_RXRegisterInit(reg32 *regAddr, uint32 config)
1051:Generated_Source\PSoC4/CAN.c ****                                       
1052:Generated_Source\PSoC4/CAN.c **** {
 642              		.loc 1 1052 0
 643              		.cfi_startproc
 644              		@ args = 0, pretend = 0, frame = 0
 645              		@ frame_needed = 0, uses_anonymous_args = 0
 646              	.LVL53:
1053:Generated_Source\PSoC4/CAN.c ****     uint8 result = CAN_OUT_OF_RANGE;
1054:Generated_Source\PSoC4/CAN.c **** 
1055:Generated_Source\PSoC4/CAN.c ****     if ((((uint32) regAddr & CAN_REG_ADDR_MASK) >=
 647              		.loc 1 1055 0
 648 0000 FE22     		movs	r2, #254
 649 0002 83B2     		uxth	r3, r0
 650 0004 A03B     		subs	r3, r3, #160
1052:Generated_Source\PSoC4/CAN.c ****     uint8 result = CAN_OUT_OF_RANGE;
 651              		.loc 1 1052 0
 652 0006 70B5     		push	{r4, r5, r6, lr}
 653              		.cfi_def_cfa_offset 16
 654              		.cfi_offset 4, -16
 655              		.cfi_offset 5, -12
 656              		.cfi_offset 6, -8
 657              		.cfi_offset 14, -4
 658              		.loc 1 1055 0
 659 0008 5200     		lsls	r2, r2, #1
1052:Generated_Source\PSoC4/CAN.c ****     uint8 result = CAN_OUT_OF_RANGE;
 660              		.loc 1 1052 0
 661 000a 0500     		movs	r5, r0
 662 000c 0C00     		movs	r4, r1
1053:Generated_Source\PSoC4/CAN.c ****     uint8 result = CAN_OUT_OF_RANGE;
 663              		.loc 1 1053 0
 664 000e 0220     		movs	r0, #2
 665              	.LVL54:
 666              		.loc 1 1055 0
ARM GAS  C:\Users\RYANCA~1\AppData\Local\Temp\ccuGCfpb.s 			page 32


 667 0010 9342     		cmp	r3, r2
 668 0012 1FD8     		bhi	.L62
 669              	.LVL55:
1056:Generated_Source\PSoC4/CAN.c ****         ((uint32) CAN_RX_FIRST_REGISTER_PTR & CAN_REG_ADDR_MASK)) &&
1057:Generated_Source\PSoC4/CAN.c ****         ((((uint32) regAddr & CAN_REG_ADDR_MASK)) <=
1058:Generated_Source\PSoC4/CAN.c ****         ((uint32) CAN_RX_LAST_REGISTER_PTR & CAN_REG_ADDR_MASK)))
1059:Generated_Source\PSoC4/CAN.c ****     {
1060:Generated_Source\PSoC4/CAN.c ****         result = CAN_FAIL;
1061:Generated_Source\PSoC4/CAN.c **** 
1062:Generated_Source\PSoC4/CAN.c ****         if ((((uint32) regAddr & CAN_REG_ADDR_MASK) % CAN_RX_CMD_REG_WIDTH) == 0u)
 670              		.loc 1 1062 0
 671 0014 EB06     		lsls	r3, r5, #27
 672 0016 10D1     		bne	.L63
1063:Generated_Source\PSoC4/CAN.c ****         {
1064:Generated_Source\PSoC4/CAN.c ****             config |= CAN_RX_WPN_SET;
 673              		.loc 1 1064 0
 674 0018 0F48     		ldr	r0, .L65
 675 001a 0443     		orrs	r4, r0
 676              	.LVL56:
1065:Generated_Source\PSoC4/CAN.c **** 
1066:Generated_Source\PSoC4/CAN.c ****     /* Disable isr */
1067:Generated_Source\PSoC4/CAN.c ****     CyIntDisable(CAN_ISR_NUMBER);
 677              		.loc 1 1067 0
 678 001c 1C20     		movs	r0, #28
 679 001e FFF7FEFF 		bl	CyIntDisable
 680              	.LVL57:
1068:Generated_Source\PSoC4/CAN.c **** 
1069:Generated_Source\PSoC4/CAN.c ****             /* Write defined RX CMD registers */
1070:Generated_Source\PSoC4/CAN.c ****             CY_SET_REG32(regAddr, config);
1071:Generated_Source\PSoC4/CAN.c **** 
1072:Generated_Source\PSoC4/CAN.c ****     /* Enable isr */
1073:Generated_Source\PSoC4/CAN.c ****     CyIntEnable(CAN_ISR_NUMBER);
 681              		.loc 1 1073 0
 682 0022 1C20     		movs	r0, #28
1070:Generated_Source\PSoC4/CAN.c **** 
 683              		.loc 1 1070 0
 684 0024 2C60     		str	r4, [r5]
 685              		.loc 1 1073 0
 686 0026 FFF7FEFF 		bl	CyIntEnable
 687              	.LVL58:
1074:Generated_Source\PSoC4/CAN.c **** 
1075:Generated_Source\PSoC4/CAN.c ****             /* Verify register */
1076:Generated_Source\PSoC4/CAN.c ****             if ((CY_GET_REG32(regAddr) & CAN_RX_READ_BACK_MASK) ==
 688              		.loc 1 1076 0
 689 002a 2868     		ldr	r0, [r5]
1053:Generated_Source\PSoC4/CAN.c **** 
 690              		.loc 1 1053 0
 691 002c 0B4B     		ldr	r3, .L65+4
 692 002e 6040     		eors	r0, r4
 693 0030 1840     		ands	r0, r3
 694 0032 431E     		subs	r3, r0, #1
 695 0034 9841     		sbcs	r0, r0, r3
 696 0036 C0B2     		uxtb	r0, r0
 697 0038 0CE0     		b	.L62
 698              	.LVL59:
 699              	.L63:
1077:Generated_Source\PSoC4/CAN.c ****                 (config & CAN_RX_READ_BACK_MASK))
ARM GAS  C:\Users\RYANCA~1\AppData\Local\Temp\ccuGCfpb.s 			page 33


1078:Generated_Source\PSoC4/CAN.c ****             {
1079:Generated_Source\PSoC4/CAN.c ****                 result = CYRET_SUCCESS;
1080:Generated_Source\PSoC4/CAN.c ****             }
1081:Generated_Source\PSoC4/CAN.c ****         }
1082:Generated_Source\PSoC4/CAN.c ****         /* All registers except RX CMD*/
1083:Generated_Source\PSoC4/CAN.c ****         else
1084:Generated_Source\PSoC4/CAN.c ****         {
1085:Generated_Source\PSoC4/CAN.c ****     /* Disable isr */
1086:Generated_Source\PSoC4/CAN.c ****     CyIntDisable(CAN_ISR_NUMBER);
 700              		.loc 1 1086 0
 701 003a 1C20     		movs	r0, #28
 702 003c FFF7FEFF 		bl	CyIntDisable
 703              	.LVL60:
1087:Generated_Source\PSoC4/CAN.c **** 
1088:Generated_Source\PSoC4/CAN.c ****             /* Write defined CAN receive register */
1089:Generated_Source\PSoC4/CAN.c ****             CY_SET_REG32(regAddr, config);
 704              		.loc 1 1089 0
 705 0040 2C60     		str	r4, [r5]
1090:Generated_Source\PSoC4/CAN.c **** 
1091:Generated_Source\PSoC4/CAN.c ****     /* Enable isr */
1092:Generated_Source\PSoC4/CAN.c ****     CyIntEnable(CAN_ISR_NUMBER);
 706              		.loc 1 1092 0
 707 0042 1C20     		movs	r0, #28
 708 0044 FFF7FEFF 		bl	CyIntEnable
 709              	.LVL61:
1093:Generated_Source\PSoC4/CAN.c **** 
1094:Generated_Source\PSoC4/CAN.c ****             /* Verify register */
1095:Generated_Source\PSoC4/CAN.c ****             if (CY_GET_REG32(regAddr) == config)
 710              		.loc 1 1095 0
 711 0048 2868     		ldr	r0, [r5]
1053:Generated_Source\PSoC4/CAN.c **** 
 712              		.loc 1 1053 0
 713 004a 201A     		subs	r0, r4, r0
 714 004c 0400     		movs	r4, r0
 715              	.LVL62:
 716 004e 601E     		subs	r0, r4, #1
 717 0050 8441     		sbcs	r4, r4, r0
 718 0052 E0B2     		uxtb	r0, r4
 719              	.LVL63:
 720              	.L62:
1096:Generated_Source\PSoC4/CAN.c ****             {
1097:Generated_Source\PSoC4/CAN.c ****                 result = CYRET_SUCCESS;
1098:Generated_Source\PSoC4/CAN.c ****             }
1099:Generated_Source\PSoC4/CAN.c ****         }
1100:Generated_Source\PSoC4/CAN.c ****     }
1101:Generated_Source\PSoC4/CAN.c **** 
1102:Generated_Source\PSoC4/CAN.c ****     return (result);
1103:Generated_Source\PSoC4/CAN.c **** }
 721              		.loc 1 1103 0
 722              		@ sp needed
 723              	.LVL64:
 724 0054 70BD     		pop	{r4, r5, r6, pc}
 725              	.L66:
 726 0056 C046     		.align	2
 727              	.L65:
 728 0058 80008000 		.word	8388736
 729 005c 7F007F00 		.word	8323199
ARM GAS  C:\Users\RYANCA~1\AppData\Local\Temp\ccuGCfpb.s 			page 34


 730              		.cfi_endproc
 731              	.LFE14:
 732              		.size	CAN_RXRegisterInit, .-CAN_RXRegisterInit
 733              		.section	.text.CAN_SetIrqMask,"ax",%progbits
 734              		.align	1
 735              		.global	CAN_SetIrqMask
 736              		.code	16
 737              		.thumb_func
 738              		.type	CAN_SetIrqMask, %function
 739              	CAN_SetIrqMask:
 740              	.LFB15:
1104:Generated_Source\PSoC4/CAN.c **** 
1105:Generated_Source\PSoC4/CAN.c **** 
1106:Generated_Source\PSoC4/CAN.c **** /*******************************************************************************
1107:Generated_Source\PSoC4/CAN.c **** * FUNCTION NAME:   CAN_SetIrqMask
1108:Generated_Source\PSoC4/CAN.c **** ********************************************************************************
1109:Generated_Source\PSoC4/CAN.c **** *
1110:Generated_Source\PSoC4/CAN.c **** * Summary:
1111:Generated_Source\PSoC4/CAN.c **** *  This function sets to enable/disable particular interrupt sources. Interrupt
1112:Generated_Source\PSoC4/CAN.c **** *  Mask directly write to the CAN Interrupt Enable register. A particular
1113:Generated_Source\PSoC4/CAN.c **** *  interrupt source is enabled by setting its respective flag to 1.
1114:Generated_Source\PSoC4/CAN.c **** *
1115:Generated_Source\PSoC4/CAN.c **** * Parameters:
1116:Generated_Source\PSoC4/CAN.c **** *  mask: Interrupt enable/disable request. 1 bit per interrupt source.
1117:Generated_Source\PSoC4/CAN.c **** *   Define                                    Description
1118:Generated_Source\PSoC4/CAN.c **** *    CAN_GLOBAL_INT_ENABLE        Global Interrupt Enable Flag
1119:Generated_Source\PSoC4/CAN.c **** *    CAN_ARBITRATION_LOST_ENABLE  Arbitration Loss Interrupt Enable
1120:Generated_Source\PSoC4/CAN.c **** *    CAN_OVERLOAD_ERROR_ENABLE    Overload Interrupt Enable
1121:Generated_Source\PSoC4/CAN.c **** *    CAN_BIT_ERROR_ENABLE         Bit Error Interrupt Enable
1122:Generated_Source\PSoC4/CAN.c **** *    CAN_STUFF_ERROR_ENABLE       Stuff Error Interrupt Enable
1123:Generated_Source\PSoC4/CAN.c **** *    CAN_ACK_ERROR_ENABLE         Ack Error Interrupt Enable
1124:Generated_Source\PSoC4/CAN.c **** *    CAN_FORM_ERROR_ENABLE        Form Error Interrupt Enable
1125:Generated_Source\PSoC4/CAN.c **** *    CAN_CRC_ERROR_ENABLE         CRC Error Interrupt Enable
1126:Generated_Source\PSoC4/CAN.c **** *    CAN_BUS_OFF_ENABLE           Bus-Off State Interrupt Enable
1127:Generated_Source\PSoC4/CAN.c **** *    CAN_RX_MSG_LOST_ENABLE       Rx Msg Loss Interrupt Enable
1128:Generated_Source\PSoC4/CAN.c **** *    CAN_TX_MESSAGE_ENABLE        Tx Msg Sent Interrupt Enable
1129:Generated_Source\PSoC4/CAN.c **** *    CAN_RX_MESSAGE_ENABLE        Msg Received Interrupt Enable
1130:Generated_Source\PSoC4/CAN.c **** *    CAN_RTR_MESSAGE_ENABLE       RTR Auto-reply Interrupt Enable
1131:Generated_Source\PSoC4/CAN.c **** *    CAN_STUCK_AT_ZERO_ENABLE     Stuck at dominant error Interrupt
1132:Generated_Source\PSoC4/CAN.c **** *                                              Enable
1133:Generated_Source\PSoC4/CAN.c **** *    CAN_SST_FAILURE_ENABLE       SST failure Interrupt Enable
1134:Generated_Source\PSoC4/CAN.c **** *
1135:Generated_Source\PSoC4/CAN.c **** * Return:
1136:Generated_Source\PSoC4/CAN.c **** *  The indication whether the register is written and verified.
1137:Generated_Source\PSoC4/CAN.c **** *   Define                             Description
1138:Generated_Source\PSoC4/CAN.c **** *    CYRET_SUCCESS                      The function passed successfully
1139:Generated_Source\PSoC4/CAN.c **** *    CAN_FAIL              The function failed
1140:Generated_Source\PSoC4/CAN.c **** *
1141:Generated_Source\PSoC4/CAN.c **** *******************************************************************************/
1142:Generated_Source\PSoC4/CAN.c **** uint8 CAN_SetIrqMask(uint16 mask) 
1143:Generated_Source\PSoC4/CAN.c **** {
 741              		.loc 1 1143 0
 742              		.cfi_startproc
 743              		@ args = 0, pretend = 0, frame = 0
 744              		@ frame_needed = 0, uses_anonymous_args = 0
 745              		@ link register save eliminated.
 746              	.LVL65:
ARM GAS  C:\Users\RYANCA~1\AppData\Local\Temp\ccuGCfpb.s 			page 35


1144:Generated_Source\PSoC4/CAN.c ****     uint8 result = CAN_FAIL;
1145:Generated_Source\PSoC4/CAN.c **** 
1146:Generated_Source\PSoC4/CAN.c ****     #if (CY_PSOC3 || CY_PSOC5)
1147:Generated_Source\PSoC4/CAN.c ****         /* Write byte 0 and 1 of CAN_INT_EN_REG register */
1148:Generated_Source\PSoC4/CAN.c ****         CY_SET_REG16((reg16 *) (&CAN_INT_EN_REG), mask);
1149:Generated_Source\PSoC4/CAN.c **** 
1150:Generated_Source\PSoC4/CAN.c ****         /* Verify CAN_INT_EN_REG register */
1151:Generated_Source\PSoC4/CAN.c ****         if (CY_GET_REG16((reg16 *) (&CAN_INT_EN_REG)) == mask)
1152:Generated_Source\PSoC4/CAN.c ****         {
1153:Generated_Source\PSoC4/CAN.c ****             result = CYRET_SUCCESS;
1154:Generated_Source\PSoC4/CAN.c ****         }
1155:Generated_Source\PSoC4/CAN.c ****     #else  /* CY_PSOC4 */
1156:Generated_Source\PSoC4/CAN.c ****         /* Write byte 0 and 1 of CAN_INT_EN_REG register */
1157:Generated_Source\PSoC4/CAN.c ****         CAN_INT_EN_REG = mask;
 747              		.loc 1 1157 0
 748 0000 044B     		ldr	r3, .L68
1158:Generated_Source\PSoC4/CAN.c **** 
1159:Generated_Source\PSoC4/CAN.c ****         /* Verify CAN_INT_EN_REG register */
1160:Generated_Source\PSoC4/CAN.c ****         if ((CAN_INT_EN_REG & CAN_REG_ADDR_MASK) == mask)
1161:Generated_Source\PSoC4/CAN.c ****         {
1162:Generated_Source\PSoC4/CAN.c ****             result = CYRET_SUCCESS;
1163:Generated_Source\PSoC4/CAN.c ****         }
1164:Generated_Source\PSoC4/CAN.c ****     #endif /* CY_PSOC3 || CY_PSOC5 */
1165:Generated_Source\PSoC4/CAN.c **** 
1166:Generated_Source\PSoC4/CAN.c ****     return (result);
1167:Generated_Source\PSoC4/CAN.c **** }
 749              		.loc 1 1167 0
 750              		@ sp needed
1157:Generated_Source\PSoC4/CAN.c **** 
 751              		.loc 1 1157 0
 752 0002 1860     		str	r0, [r3]
1160:Generated_Source\PSoC4/CAN.c ****         {
 753              		.loc 1 1160 0
 754 0004 1B68     		ldr	r3, [r3]
 755              	.LVL66:
1166:Generated_Source\PSoC4/CAN.c **** }
 756              		.loc 1 1166 0
 757 0006 9BB2     		uxth	r3, r3
 758              	.LVL67:
 759 0008 181A     		subs	r0, r3, r0
 760              	.LVL68:
 761 000a 431E     		subs	r3, r0, #1
 762 000c 9841     		sbcs	r0, r0, r3
 763 000e C0B2     		uxtb	r0, r0
 764              		.loc 1 1167 0
 765 0010 7047     		bx	lr
 766              	.L69:
 767 0012 C046     		.align	2
 768              	.L68:
 769 0014 04002F40 		.word	1076822020
 770              		.cfi_endproc
 771              	.LFE15:
 772              		.size	CAN_SetIrqMask, .-CAN_SetIrqMask
 773              		.section	.text.CAN_GetTXErrorFlag,"ax",%progbits
 774              		.align	1
 775              		.global	CAN_GetTXErrorFlag
 776              		.code	16
ARM GAS  C:\Users\RYANCA~1\AppData\Local\Temp\ccuGCfpb.s 			page 36


 777              		.thumb_func
 778              		.type	CAN_GetTXErrorFlag, %function
 779              	CAN_GetTXErrorFlag:
 780              	.LFB16:
1168:Generated_Source\PSoC4/CAN.c **** 
1169:Generated_Source\PSoC4/CAN.c **** 
1170:Generated_Source\PSoC4/CAN.c **** /*******************************************************************************
1171:Generated_Source\PSoC4/CAN.c **** * FUNCTION NAME:   CAN_GetTXErrorFlag
1172:Generated_Source\PSoC4/CAN.c **** ********************************************************************************
1173:Generated_Source\PSoC4/CAN.c **** *
1174:Generated_Source\PSoC4/CAN.c **** * Summary:
1175:Generated_Source\PSoC4/CAN.c **** *  This function returns the bit that indicates if the number of TX errors
1176:Generated_Source\PSoC4/CAN.c **** *  exceeds 0x60.
1177:Generated_Source\PSoC4/CAN.c **** *
1178:Generated_Source\PSoC4/CAN.c **** * Parameters:
1179:Generated_Source\PSoC4/CAN.c **** *  None.
1180:Generated_Source\PSoC4/CAN.c **** *
1181:Generated_Source\PSoC4/CAN.c **** * Return:
1182:Generated_Source\PSoC4/CAN.c **** *  The indication whether the number of TX errors exceeds 0x60.
1183:Generated_Source\PSoC4/CAN.c **** *
1184:Generated_Source\PSoC4/CAN.c **** *******************************************************************************/
1185:Generated_Source\PSoC4/CAN.c **** uint8 CAN_GetTXErrorFlag(void) 
1186:Generated_Source\PSoC4/CAN.c **** {
 781              		.loc 1 1186 0
 782              		.cfi_startproc
 783              		@ args = 0, pretend = 0, frame = 0
 784              		@ frame_needed = 0, uses_anonymous_args = 0
 785              		@ link register save eliminated.
1187:Generated_Source\PSoC4/CAN.c ****     #if (CY_PSOC3 || CY_PSOC5)
1188:Generated_Source\PSoC4/CAN.c ****         /* Get state of transmit error flag */
1189:Generated_Source\PSoC4/CAN.c ****         return (((CAN_ERR_SR_REG.byte[2u] & CAN_TX_ERROR_FLAG_MASK) ==
1190:Generated_Source\PSoC4/CAN.c ****                   CAN_TX_ERROR_FLAG_MASK) ? 1u : 0u);
1191:Generated_Source\PSoC4/CAN.c ****     #else  /* CY_PSOC4 */
1192:Generated_Source\PSoC4/CAN.c ****         /* Get state of transmit error flag */
1193:Generated_Source\PSoC4/CAN.c ****         return (((CAN_ERR_SR_REG & CAN_TX_ERROR_FLAG_MASK) ==
 786              		.loc 1 1193 0
 787 0000 024B     		ldr	r3, .L71
1194:Generated_Source\PSoC4/CAN.c ****                   CAN_TX_ERROR_FLAG_MASK) ? 1u : 0u);
1195:Generated_Source\PSoC4/CAN.c ****     #endif /* CY_PSOC3 || CY_PSOC5 */
1196:Generated_Source\PSoC4/CAN.c **** 
1197:Generated_Source\PSoC4/CAN.c **** }
 788              		.loc 1 1197 0
 789              		@ sp needed
1193:Generated_Source\PSoC4/CAN.c ****                   CAN_TX_ERROR_FLAG_MASK) ? 1u : 0u);
 790              		.loc 1 1193 0
 791 0002 1868     		ldr	r0, [r3]
 792 0004 4003     		lsls	r0, r0, #13
 793 0006 C00F     		lsrs	r0, r0, #31
 794              		.loc 1 1197 0
 795 0008 7047     		bx	lr
 796              	.L72:
 797 000a C046     		.align	2
 798              	.L71:
 799 000c 0C002F40 		.word	1076822028
 800              		.cfi_endproc
 801              	.LFE16:
 802              		.size	CAN_GetTXErrorFlag, .-CAN_GetTXErrorFlag
ARM GAS  C:\Users\RYANCA~1\AppData\Local\Temp\ccuGCfpb.s 			page 37


 803              		.section	.text.CAN_GetRXErrorFlag,"ax",%progbits
 804              		.align	1
 805              		.global	CAN_GetRXErrorFlag
 806              		.code	16
 807              		.thumb_func
 808              		.type	CAN_GetRXErrorFlag, %function
 809              	CAN_GetRXErrorFlag:
 810              	.LFB17:
1198:Generated_Source\PSoC4/CAN.c **** 
1199:Generated_Source\PSoC4/CAN.c **** 
1200:Generated_Source\PSoC4/CAN.c **** /*******************************************************************************
1201:Generated_Source\PSoC4/CAN.c **** * FUNCTION NAME:   CAN_GetRXErrorFlag
1202:Generated_Source\PSoC4/CAN.c **** ********************************************************************************
1203:Generated_Source\PSoC4/CAN.c **** *
1204:Generated_Source\PSoC4/CAN.c **** * Summary:
1205:Generated_Source\PSoC4/CAN.c **** *  This function returns the bit that indicates if the number of RX errors
1206:Generated_Source\PSoC4/CAN.c **** *  exceeds 0x60.
1207:Generated_Source\PSoC4/CAN.c **** *
1208:Generated_Source\PSoC4/CAN.c **** * Parameters:
1209:Generated_Source\PSoC4/CAN.c **** *  None.
1210:Generated_Source\PSoC4/CAN.c **** *
1211:Generated_Source\PSoC4/CAN.c **** * Return:
1212:Generated_Source\PSoC4/CAN.c **** *  The indication whether the number of TX errors exceeds 0x60.
1213:Generated_Source\PSoC4/CAN.c **** *
1214:Generated_Source\PSoC4/CAN.c **** *******************************************************************************/
1215:Generated_Source\PSoC4/CAN.c **** uint8 CAN_GetRXErrorFlag(void) 
1216:Generated_Source\PSoC4/CAN.c **** {
 811              		.loc 1 1216 0
 812              		.cfi_startproc
 813              		@ args = 0, pretend = 0, frame = 0
 814              		@ frame_needed = 0, uses_anonymous_args = 0
 815              		@ link register save eliminated.
1217:Generated_Source\PSoC4/CAN.c ****     #if (CY_PSOC3 || CY_PSOC5)
1218:Generated_Source\PSoC4/CAN.c ****         /* Get state of receive error flag */
1219:Generated_Source\PSoC4/CAN.c ****         return (((CAN_ERR_SR_REG.byte[2u] & CAN_RX_ERROR_FLAG_MASK) ==
1220:Generated_Source\PSoC4/CAN.c ****                   CAN_RX_ERROR_FLAG_MASK) ? 1u : 0u);
1221:Generated_Source\PSoC4/CAN.c ****     #else  /* CY_PSOC4 */
1222:Generated_Source\PSoC4/CAN.c ****         /* Get state of receive error flag */
1223:Generated_Source\PSoC4/CAN.c ****         return (((CAN_ERR_SR_REG & CAN_RX_ERROR_FLAG_MASK) ==
 816              		.loc 1 1223 0
 817 0000 024B     		ldr	r3, .L74
1224:Generated_Source\PSoC4/CAN.c ****                   CAN_RX_ERROR_FLAG_MASK) ? 1u : 0u);
1225:Generated_Source\PSoC4/CAN.c ****     #endif /* CY_PSOC3 || CY_PSOC5 */
1226:Generated_Source\PSoC4/CAN.c **** 
1227:Generated_Source\PSoC4/CAN.c **** }
 818              		.loc 1 1227 0
 819              		@ sp needed
1223:Generated_Source\PSoC4/CAN.c ****                   CAN_RX_ERROR_FLAG_MASK) ? 1u : 0u);
 820              		.loc 1 1223 0
 821 0002 1868     		ldr	r0, [r3]
 822 0004 0003     		lsls	r0, r0, #12
 823 0006 C00F     		lsrs	r0, r0, #31
 824              		.loc 1 1227 0
 825 0008 7047     		bx	lr
 826              	.L75:
 827 000a C046     		.align	2
 828              	.L74:
ARM GAS  C:\Users\RYANCA~1\AppData\Local\Temp\ccuGCfpb.s 			page 38


 829 000c 0C002F40 		.word	1076822028
 830              		.cfi_endproc
 831              	.LFE17:
 832              		.size	CAN_GetRXErrorFlag, .-CAN_GetRXErrorFlag
 833              		.section	.text.CAN_GetTXErrorCount,"ax",%progbits
 834              		.align	1
 835              		.global	CAN_GetTXErrorCount
 836              		.code	16
 837              		.thumb_func
 838              		.type	CAN_GetTXErrorCount, %function
 839              	CAN_GetTXErrorCount:
 840              	.LFB18:
1228:Generated_Source\PSoC4/CAN.c **** 
1229:Generated_Source\PSoC4/CAN.c **** 
1230:Generated_Source\PSoC4/CAN.c **** /*******************************************************************************
1231:Generated_Source\PSoC4/CAN.c **** * FUNCTION NAME:   CAN_GetTXErrorCount
1232:Generated_Source\PSoC4/CAN.c **** ********************************************************************************
1233:Generated_Source\PSoC4/CAN.c **** *
1234:Generated_Source\PSoC4/CAN.c **** * Summary:
1235:Generated_Source\PSoC4/CAN.c **** *  This function returns the number of Transmit Errors.
1236:Generated_Source\PSoC4/CAN.c **** *
1237:Generated_Source\PSoC4/CAN.c **** * Parameters:
1238:Generated_Source\PSoC4/CAN.c **** *  None.
1239:Generated_Source\PSoC4/CAN.c **** *
1240:Generated_Source\PSoC4/CAN.c **** * Return:
1241:Generated_Source\PSoC4/CAN.c **** *  The number of Transmit Errors.
1242:Generated_Source\PSoC4/CAN.c **** *
1243:Generated_Source\PSoC4/CAN.c **** *******************************************************************************/
1244:Generated_Source\PSoC4/CAN.c **** uint8 CAN_GetTXErrorCount(void) 
1245:Generated_Source\PSoC4/CAN.c **** {
 841              		.loc 1 1245 0
 842              		.cfi_startproc
 843              		@ args = 0, pretend = 0, frame = 0
 844              		@ frame_needed = 0, uses_anonymous_args = 0
 845              		@ link register save eliminated.
1246:Generated_Source\PSoC4/CAN.c ****     #if (CY_PSOC3 || CY_PSOC5)
1247:Generated_Source\PSoC4/CAN.c ****         /* Get state of transmit error count */
1248:Generated_Source\PSoC4/CAN.c ****         return (CAN_ERR_SR_REG.byte[0u]);    /* bits 7-0 */
1249:Generated_Source\PSoC4/CAN.c ****     #else  /* CY_PSOC4 */
1250:Generated_Source\PSoC4/CAN.c ****         /* Get state of transmit error count */
1251:Generated_Source\PSoC4/CAN.c ****         return ((uint8) CAN_ERR_SR_REG);    /* bits 7-0 */
 846              		.loc 1 1251 0
 847 0000 014B     		ldr	r3, .L77
1252:Generated_Source\PSoC4/CAN.c ****     #endif /* CY_PSOC3 || CY_PSOC5 */
1253:Generated_Source\PSoC4/CAN.c **** }
 848              		.loc 1 1253 0
 849              		@ sp needed
1251:Generated_Source\PSoC4/CAN.c ****     #endif /* CY_PSOC3 || CY_PSOC5 */
 850              		.loc 1 1251 0
 851 0002 1868     		ldr	r0, [r3]
 852 0004 C0B2     		uxtb	r0, r0
 853              		.loc 1 1253 0
 854 0006 7047     		bx	lr
 855              	.L78:
 856              		.align	2
 857              	.L77:
 858 0008 0C002F40 		.word	1076822028
ARM GAS  C:\Users\RYANCA~1\AppData\Local\Temp\ccuGCfpb.s 			page 39


 859              		.cfi_endproc
 860              	.LFE18:
 861              		.size	CAN_GetTXErrorCount, .-CAN_GetTXErrorCount
 862              		.section	.text.CAN_GetRXErrorCount,"ax",%progbits
 863              		.align	1
 864              		.global	CAN_GetRXErrorCount
 865              		.code	16
 866              		.thumb_func
 867              		.type	CAN_GetRXErrorCount, %function
 868              	CAN_GetRXErrorCount:
 869              	.LFB19:
1254:Generated_Source\PSoC4/CAN.c **** 
1255:Generated_Source\PSoC4/CAN.c **** 
1256:Generated_Source\PSoC4/CAN.c **** /*******************************************************************************
1257:Generated_Source\PSoC4/CAN.c **** * FUNCTION NAME:   CAN_GetRXErrorCount
1258:Generated_Source\PSoC4/CAN.c **** ********************************************************************************
1259:Generated_Source\PSoC4/CAN.c **** *
1260:Generated_Source\PSoC4/CAN.c **** * Summary:
1261:Generated_Source\PSoC4/CAN.c **** *  This function returns the number of Receive Errors.
1262:Generated_Source\PSoC4/CAN.c **** *
1263:Generated_Source\PSoC4/CAN.c **** * Parameters:
1264:Generated_Source\PSoC4/CAN.c **** *  None.
1265:Generated_Source\PSoC4/CAN.c **** *
1266:Generated_Source\PSoC4/CAN.c **** * Return:
1267:Generated_Source\PSoC4/CAN.c **** *  The number of Receive Errors.
1268:Generated_Source\PSoC4/CAN.c **** *
1269:Generated_Source\PSoC4/CAN.c **** *******************************************************************************/
1270:Generated_Source\PSoC4/CAN.c **** uint8 CAN_GetRXErrorCount(void) 
1271:Generated_Source\PSoC4/CAN.c **** {
 870              		.loc 1 1271 0
 871              		.cfi_startproc
 872              		@ args = 0, pretend = 0, frame = 0
 873              		@ frame_needed = 0, uses_anonymous_args = 0
 874              		@ link register save eliminated.
1272:Generated_Source\PSoC4/CAN.c ****     #if (CY_PSOC3 || CY_PSOC5)
1273:Generated_Source\PSoC4/CAN.c ****         /* Get state of receive error count */
1274:Generated_Source\PSoC4/CAN.c ****         return (CAN_ERR_SR_REG.byte[1u]);    /* bits 15-8 */
1275:Generated_Source\PSoC4/CAN.c ****     #else  /* CY_PSOC4 */
1276:Generated_Source\PSoC4/CAN.c ****         /* Get state of receive error count (bits 15-8) */
1277:Generated_Source\PSoC4/CAN.c ****         return ((uint8) (CAN_ERR_SR_REG >> CAN_ONE_BYTE_OFFSET));
 875              		.loc 1 1277 0
 876 0000 024B     		ldr	r3, .L80
1278:Generated_Source\PSoC4/CAN.c ****     #endif /* CY_PSOC3 || CY_PSOC5 */
1279:Generated_Source\PSoC4/CAN.c **** 
1280:Generated_Source\PSoC4/CAN.c **** }
 877              		.loc 1 1280 0
 878              		@ sp needed
1277:Generated_Source\PSoC4/CAN.c ****     #endif /* CY_PSOC3 || CY_PSOC5 */
 879              		.loc 1 1277 0
 880 0002 1868     		ldr	r0, [r3]
 881 0004 000A     		lsrs	r0, r0, #8
 882 0006 C0B2     		uxtb	r0, r0
 883              		.loc 1 1280 0
 884 0008 7047     		bx	lr
 885              	.L81:
 886 000a C046     		.align	2
 887              	.L80:
ARM GAS  C:\Users\RYANCA~1\AppData\Local\Temp\ccuGCfpb.s 			page 40


 888 000c 0C002F40 		.word	1076822028
 889              		.cfi_endproc
 890              	.LFE19:
 891              		.size	CAN_GetRXErrorCount, .-CAN_GetRXErrorCount
 892              		.section	.text.CAN_GetErrorState,"ax",%progbits
 893              		.align	1
 894              		.global	CAN_GetErrorState
 895              		.code	16
 896              		.thumb_func
 897              		.type	CAN_GetErrorState, %function
 898              	CAN_GetErrorState:
 899              	.LFB20:
1281:Generated_Source\PSoC4/CAN.c **** 
1282:Generated_Source\PSoC4/CAN.c **** 
1283:Generated_Source\PSoC4/CAN.c **** /*******************************************************************************
1284:Generated_Source\PSoC4/CAN.c **** * FUNCTION NAME:   CAN_GetErrorState
1285:Generated_Source\PSoC4/CAN.c **** ********************************************************************************
1286:Generated_Source\PSoC4/CAN.c **** *
1287:Generated_Source\PSoC4/CAN.c **** * Summary:
1288:Generated_Source\PSoC4/CAN.c **** *  This function returns the error status of CAN Component.
1289:Generated_Source\PSoC4/CAN.c **** *
1290:Generated_Source\PSoC4/CAN.c **** * Parameters:
1291:Generated_Source\PSoC4/CAN.c **** *  None.
1292:Generated_Source\PSoC4/CAN.c **** *
1293:Generated_Source\PSoC4/CAN.c **** * Return:
1294:Generated_Source\PSoC4/CAN.c **** *  The error status.
1295:Generated_Source\PSoC4/CAN.c **** *
1296:Generated_Source\PSoC4/CAN.c **** *******************************************************************************/
1297:Generated_Source\PSoC4/CAN.c **** uint8 CAN_GetErrorState(void) 
1298:Generated_Source\PSoC4/CAN.c **** {
 900              		.loc 1 1298 0
 901              		.cfi_startproc
 902              		@ args = 0, pretend = 0, frame = 0
 903              		@ frame_needed = 0, uses_anonymous_args = 0
 904              		@ link register save eliminated.
1299:Generated_Source\PSoC4/CAN.c ****     #if (CY_PSOC3 || CY_PSOC5)
1300:Generated_Source\PSoC4/CAN.c ****         /* Get error state of receiver */
1301:Generated_Source\PSoC4/CAN.c ****         return (CAN_ERR_SR_REG.byte[2u] & CAN_ERROR_STATE_MASK);
1302:Generated_Source\PSoC4/CAN.c ****     #else  /* CY_PSOC4 */
1303:Generated_Source\PSoC4/CAN.c ****         /* Get error state of receiver */
1304:Generated_Source\PSoC4/CAN.c ****         return ((uint8) ((CAN_ERR_SR_REG >> CAN_TWO_BYTE_OFFSET) &
 905              		.loc 1 1304 0
 906 0000 024B     		ldr	r3, .L83
1305:Generated_Source\PSoC4/CAN.c ****                 CAN_ERROR_STATE_MASK));
1306:Generated_Source\PSoC4/CAN.c ****     #endif /* CY_PSOC3 || CY_PSOC5 */
1307:Generated_Source\PSoC4/CAN.c **** }
 907              		.loc 1 1307 0
 908              		@ sp needed
1304:Generated_Source\PSoC4/CAN.c ****                 CAN_ERROR_STATE_MASK));
 909              		.loc 1 1304 0
 910 0002 1868     		ldr	r0, [r3]
 911 0004 8003     		lsls	r0, r0, #14
 912 0006 800F     		lsrs	r0, r0, #30
 913              		.loc 1 1307 0
 914 0008 7047     		bx	lr
 915              	.L84:
 916 000a C046     		.align	2
ARM GAS  C:\Users\RYANCA~1\AppData\Local\Temp\ccuGCfpb.s 			page 41


 917              	.L83:
 918 000c 0C002F40 		.word	1076822028
 919              		.cfi_endproc
 920              	.LFE20:
 921              		.size	CAN_GetErrorState, .-CAN_GetErrorState
 922              		.section	.text.CAN_RxBufConfig,"ax",%progbits
 923              		.align	1
 924              		.global	CAN_RxBufConfig
 925              		.code	16
 926              		.thumb_func
 927              		.type	CAN_RxBufConfig, %function
 928              	CAN_RxBufConfig:
 929              	.LFB21:
1308:Generated_Source\PSoC4/CAN.c **** 
1309:Generated_Source\PSoC4/CAN.c **** 
1310:Generated_Source\PSoC4/CAN.c **** /*******************************************************************************
1311:Generated_Source\PSoC4/CAN.c **** * FUNCTION NAME:   CAN_RxBufConfig
1312:Generated_Source\PSoC4/CAN.c **** ********************************************************************************
1313:Generated_Source\PSoC4/CAN.c **** *
1314:Generated_Source\PSoC4/CAN.c **** * Summary:
1315:Generated_Source\PSoC4/CAN.c **** *  This function configures all receive registers for a particular mailbox.
1316:Generated_Source\PSoC4/CAN.c **** *
1317:Generated_Source\PSoC4/CAN.c **** * Parameters:
1318:Generated_Source\PSoC4/CAN.c **** *  rxConfig: The pointer to a structure that contain all required values to
1319:Generated_Source\PSoC4/CAN.c **** *  configure all receive registers for a particular mailbox.
1320:Generated_Source\PSoC4/CAN.c **** *
1321:Generated_Source\PSoC4/CAN.c **** * Return:
1322:Generated_Source\PSoC4/CAN.c **** *  The indication if particular configuration has been accepted or rejected.
1323:Generated_Source\PSoC4/CAN.c **** *   Define                             Description
1324:Generated_Source\PSoC4/CAN.c **** *    CYRET_SUCCESS                      The function passed successfully
1325:Generated_Source\PSoC4/CAN.c **** *    CAN_FAIL              The function failed
1326:Generated_Source\PSoC4/CAN.c **** *
1327:Generated_Source\PSoC4/CAN.c **** *******************************************************************************/
1328:Generated_Source\PSoC4/CAN.c **** uint8 CAN_RxBufConfig(const CAN_RX_CFG *rxConfig)
1329:Generated_Source\PSoC4/CAN.c ****                                    
1330:Generated_Source\PSoC4/CAN.c **** {
 930              		.loc 1 1330 0
 931              		.cfi_startproc
 932              		@ args = 0, pretend = 0, frame = 0
 933              		@ frame_needed = 0, uses_anonymous_args = 0
 934              	.LVL69:
 935 0000 10B5     		push	{r4, lr}
 936              		.cfi_def_cfa_offset 8
 937              		.cfi_offset 4, -8
 938              		.cfi_offset 14, -4
1331:Generated_Source\PSoC4/CAN.c ****     uint8 result = CAN_FAIL;
1332:Generated_Source\PSoC4/CAN.c **** 
1333:Generated_Source\PSoC4/CAN.c ****     /* Write RX CMD Register */
1334:Generated_Source\PSoC4/CAN.c ****     CY_SET_REG32((reg32 *) (&CAN_RX[rxConfig->rxmailbox].rxcmd), (rxConfig->rxcmd |
 939              		.loc 1 1334 0
 940 0002 0378     		ldrb	r3, [r0]
 941 0004 1E4A     		ldr	r2, .L89
 942 0006 5B01     		lsls	r3, r3, #5
 943 0008 9B18     		adds	r3, r3, r2
 944 000a 4168     		ldr	r1, [r0, #4]
 945 000c 1D4A     		ldr	r2, .L89+4
 946 000e 0A43     		orrs	r2, r1
ARM GAS  C:\Users\RYANCA~1\AppData\Local\Temp\ccuGCfpb.s 			page 42


 947 0010 1A60     		str	r2, [r3]
1335:Generated_Source\PSoC4/CAN.c ****                  CAN_RX_WPN_SET));
1336:Generated_Source\PSoC4/CAN.c ****     if ((CY_GET_REG32((reg32 *) (&CAN_RX[rxConfig->rxmailbox].rxcmd)) &
 948              		.loc 1 1336 0
 949 0012 0378     		ldrb	r3, [r0]
 950 0014 1A4A     		ldr	r2, .L89
 951 0016 5B01     		lsls	r3, r3, #5
 952 0018 9B18     		adds	r3, r3, r2
 953 001a 1968     		ldr	r1, [r3]
 954 001c 1A4A     		ldr	r2, .L89+8
 955 001e 4468     		ldr	r4, [r0, #4]
 956 0020 1140     		ands	r1, r2
 957 0022 1A4A     		ldr	r2, .L89+12
 958 0024 2240     		ands	r2, r4
 959 0026 9142     		cmp	r1, r2
 960 0028 01D0     		beq	.L86
 961              	.L88:
1331:Generated_Source\PSoC4/CAN.c ****     uint8 result = CAN_FAIL;
 962              		.loc 1 1331 0
 963 002a 0120     		movs	r0, #1
 964              	.LVL70:
 965 002c 27E0     		b	.L87
 966              	.LVL71:
 967              	.L86:
1337:Generated_Source\PSoC4/CAN.c ****          CAN_RX_READ_BACK_MASK) == (rxConfig->rxcmd & CAN_RX_WPN_CLEAR))
1338:Generated_Source\PSoC4/CAN.c ****     {
1339:Generated_Source\PSoC4/CAN.c ****         /* Write RX AMR Register */
1340:Generated_Source\PSoC4/CAN.c ****         CY_SET_REG32((reg32 *) (&CAN_RX[rxConfig->rxmailbox].rxamr), rxConfig->rxamr);
 968              		.loc 1 1340 0
 969 002e 8268     		ldr	r2, [r0, #8]
 970 0030 1A61     		str	r2, [r3, #16]
1341:Generated_Source\PSoC4/CAN.c ****         if (CY_GET_REG32((reg32 *) (&CAN_RX[rxConfig->rxmailbox].rxamr)) == rxConfig->rxamr)
 971              		.loc 1 1341 0
 972 0032 0378     		ldrb	r3, [r0]
 973 0034 124A     		ldr	r2, .L89
 974 0036 5B01     		lsls	r3, r3, #5
 975 0038 9B18     		adds	r3, r3, r2
 976 003a 1A69     		ldr	r2, [r3, #16]
 977 003c 8168     		ldr	r1, [r0, #8]
 978 003e 8A42     		cmp	r2, r1
 979 0040 F3D1     		bne	.L88
1342:Generated_Source\PSoC4/CAN.c ****         {
1343:Generated_Source\PSoC4/CAN.c ****             /* Write RX ACR Register */
1344:Generated_Source\PSoC4/CAN.c ****             CY_SET_REG32((reg32 *) (&CAN_RX[rxConfig->rxmailbox].rxacr), rxConfig->rxacr);
 980              		.loc 1 1344 0
 981 0042 C268     		ldr	r2, [r0, #12]
 982 0044 5A61     		str	r2, [r3, #20]
1345:Generated_Source\PSoC4/CAN.c ****             if (CY_GET_REG32((reg32 *) (&CAN_RX[rxConfig->rxmailbox].rxacr)) == rxConfig->rxacr)
 983              		.loc 1 1345 0
 984 0046 0378     		ldrb	r3, [r0]
 985 0048 0D4A     		ldr	r2, .L89
 986 004a 5B01     		lsls	r3, r3, #5
 987 004c 9B18     		adds	r3, r3, r2
 988 004e 5A69     		ldr	r2, [r3, #20]
 989 0050 C168     		ldr	r1, [r0, #12]
 990 0052 8A42     		cmp	r2, r1
 991 0054 E9D1     		bne	.L88
ARM GAS  C:\Users\RYANCA~1\AppData\Local\Temp\ccuGCfpb.s 			page 43


1346:Generated_Source\PSoC4/CAN.c ****             {
1347:Generated_Source\PSoC4/CAN.c ****                 /* Write RX AMRD Register */
1348:Generated_Source\PSoC4/CAN.c ****                 CY_SET_REG32((reg32 *) (&CAN_RX[rxConfig->rxmailbox].rxamrd), 0xFFFFFFFFu);
 992              		.loc 1 1348 0
 993 0056 0122     		movs	r2, #1
 994 0058 5242     		rsbs	r2, r2, #0
 995 005a 9A61     		str	r2, [r3, #24]
1349:Generated_Source\PSoC4/CAN.c ****                 if (CY_GET_REG32((reg32 *) (&CAN_RX[rxConfig->rxmailbox].rxamrd)) == 0xFFFFFFFFu)
 996              		.loc 1 1349 0
 997 005c 0378     		ldrb	r3, [r0]
 998 005e 084A     		ldr	r2, .L89
 999 0060 5B01     		lsls	r3, r3, #5
 1000 0062 9B18     		adds	r3, r3, r2
 1001 0064 9A69     		ldr	r2, [r3, #24]
 1002 0066 0132     		adds	r2, r2, #1
 1003 0068 DFD1     		bne	.L88
1350:Generated_Source\PSoC4/CAN.c ****                 {
1351:Generated_Source\PSoC4/CAN.c ****                     /* Write RX ACRD Register */
1352:Generated_Source\PSoC4/CAN.c ****                     CY_SET_REG32((reg32 *) (&CAN_RX[rxConfig->rxmailbox].rxacrd), 0x00000000u);
 1004              		.loc 1 1352 0
 1005 006a 0022     		movs	r2, #0
 1006 006c DA61     		str	r2, [r3, #28]
1353:Generated_Source\PSoC4/CAN.c ****                     if (CY_GET_REG32((reg32 *) (&CAN_RX[rxConfig->rxmailbox].rxacrd)) == 0x00000000
 1007              		.loc 1 1353 0
 1008 006e 0378     		ldrb	r3, [r0]
 1009 0070 034A     		ldr	r2, .L89
 1010 0072 5B01     		lsls	r3, r3, #5
 1011 0074 9B18     		adds	r3, r3, r2
 1012 0076 D869     		ldr	r0, [r3, #28]
 1013              	.LVL72:
1331:Generated_Source\PSoC4/CAN.c **** 
 1014              		.loc 1 1331 0
 1015 0078 431E     		subs	r3, r0, #1
 1016 007a 9841     		sbcs	r0, r0, r3
 1017 007c C0B2     		uxtb	r0, r0
 1018              	.L87:
 1019              	.LVL73:
1354:Generated_Source\PSoC4/CAN.c ****                     {
1355:Generated_Source\PSoC4/CAN.c ****                         result = CYRET_SUCCESS;
1356:Generated_Source\PSoC4/CAN.c ****                     }
1357:Generated_Source\PSoC4/CAN.c ****                 }
1358:Generated_Source\PSoC4/CAN.c ****             }
1359:Generated_Source\PSoC4/CAN.c ****         }
1360:Generated_Source\PSoC4/CAN.c ****     }
1361:Generated_Source\PSoC4/CAN.c **** 
1362:Generated_Source\PSoC4/CAN.c ****     return (result);
1363:Generated_Source\PSoC4/CAN.c **** }
 1020              		.loc 1 1363 0
 1021              		@ sp needed
 1022 007e 10BD     		pop	{r4, pc}
 1023              	.L90:
 1024              		.align	2
 1025              	.L89:
 1026 0080 A0002F40 		.word	1076822176
 1027 0084 80008000 		.word	8388736
 1028 0088 7F007F00 		.word	8323199
 1029 008c 7FFF7FFF 		.word	-8388737
ARM GAS  C:\Users\RYANCA~1\AppData\Local\Temp\ccuGCfpb.s 			page 44


 1030              		.cfi_endproc
 1031              	.LFE21:
 1032              		.size	CAN_RxBufConfig, .-CAN_RxBufConfig
 1033              		.section	.text.CAN_TxBufConfig,"ax",%progbits
 1034              		.align	1
 1035              		.global	CAN_TxBufConfig
 1036              		.code	16
 1037              		.thumb_func
 1038              		.type	CAN_TxBufConfig, %function
 1039              	CAN_TxBufConfig:
 1040              	.LFB22:
1364:Generated_Source\PSoC4/CAN.c **** 
1365:Generated_Source\PSoC4/CAN.c **** 
1366:Generated_Source\PSoC4/CAN.c **** /*******************************************************************************
1367:Generated_Source\PSoC4/CAN.c **** * FUNCTION NAME:   CAN_TxBufConfig
1368:Generated_Source\PSoC4/CAN.c **** ********************************************************************************
1369:Generated_Source\PSoC4/CAN.c **** *
1370:Generated_Source\PSoC4/CAN.c **** * Summary:
1371:Generated_Source\PSoC4/CAN.c **** *  This function configures all transmit registers for a particular mailbox.
1372:Generated_Source\PSoC4/CAN.c **** *  Mailbox number contains CAN_TX_CFG structure.
1373:Generated_Source\PSoC4/CAN.c **** *
1374:Generated_Source\PSoC4/CAN.c **** * Parameters:
1375:Generated_Source\PSoC4/CAN.c **** *  txConfig: The pointer to structure that contain all required values to
1376:Generated_Source\PSoC4/CAN.c **** *  configure all transmit registers for a particular mailbox.
1377:Generated_Source\PSoC4/CAN.c **** *
1378:Generated_Source\PSoC4/CAN.c **** * Return:
1379:Generated_Source\PSoC4/CAN.c **** *  The indication if particular configuration has been accepted or rejected.
1380:Generated_Source\PSoC4/CAN.c **** *   Define                             Description
1381:Generated_Source\PSoC4/CAN.c **** *    CYRET_SUCCESS                      The function passed successfully
1382:Generated_Source\PSoC4/CAN.c **** *    CAN_FAIL              The function failed
1383:Generated_Source\PSoC4/CAN.c **** *
1384:Generated_Source\PSoC4/CAN.c **** *******************************************************************************/
1385:Generated_Source\PSoC4/CAN.c **** uint8 CAN_TxBufConfig(const CAN_TX_CFG *txConfig)
1386:Generated_Source\PSoC4/CAN.c ****                                    
1387:Generated_Source\PSoC4/CAN.c **** {
 1041              		.loc 1 1387 0
 1042              		.cfi_startproc
 1043              		@ args = 0, pretend = 0, frame = 0
 1044              		@ frame_needed = 0, uses_anonymous_args = 0
 1045              	.LVL74:
 1046 0000 0300     		movs	r3, r0
 1047 0002 10B5     		push	{r4, lr}
 1048              		.cfi_def_cfa_offset 8
 1049              		.cfi_offset 4, -8
 1050              		.cfi_offset 14, -4
1388:Generated_Source\PSoC4/CAN.c ****     uint8 result = CAN_FAIL;
1389:Generated_Source\PSoC4/CAN.c **** 
1390:Generated_Source\PSoC4/CAN.c ****     /* Write TX CMD Register */
1391:Generated_Source\PSoC4/CAN.c ****     CY_SET_REG32(CAN_TX_CMD_PTR(txConfig->txmailbox), (txConfig->txcmd | CAN_TX_WPN_SET));
 1051              		.loc 1 1391 0
 1052 0004 0278     		ldrb	r2, [r0]
 1053 0006 1049     		ldr	r1, .L94
 1054 0008 1201     		lsls	r2, r2, #4
 1055 000a 5218     		adds	r2, r2, r1
 1056 000c 4068     		ldr	r0, [r0, #4]
 1057              	.LVL75:
 1058 000e 0F49     		ldr	r1, .L94+4
ARM GAS  C:\Users\RYANCA~1\AppData\Local\Temp\ccuGCfpb.s 			page 45


 1059 0010 0143     		orrs	r1, r0
 1060 0012 1160     		str	r1, [r2]
1392:Generated_Source\PSoC4/CAN.c ****     if ((CY_GET_REG32(CAN_TX_CMD_PTR(txConfig->txmailbox)) &
 1061              		.loc 1 1392 0
 1062 0014 1A78     		ldrb	r2, [r3]
 1063 0016 0C49     		ldr	r1, .L94
 1064 0018 1201     		lsls	r2, r2, #4
 1065 001a 5218     		adds	r2, r2, r1
 1066 001c 1468     		ldr	r4, [r2]
 1067 001e 0C49     		ldr	r1, .L94+8
 1068 0020 5868     		ldr	r0, [r3, #4]
 1069 0022 0C40     		ands	r4, r1
 1070 0024 0B49     		ldr	r1, .L94+12
 1071 0026 0140     		ands	r1, r0
1388:Generated_Source\PSoC4/CAN.c ****     uint8 result = CAN_FAIL;
 1072              		.loc 1 1388 0
 1073 0028 0120     		movs	r0, #1
 1074              		.loc 1 1392 0
 1075 002a 8C42     		cmp	r4, r1
 1076 002c 0BD1     		bne	.L92
1393:Generated_Source\PSoC4/CAN.c ****         CAN_TX_READ_BACK_MASK) == (txConfig->txcmd & CAN_TX_WPN_CLEAR))
1394:Generated_Source\PSoC4/CAN.c ****     {
1395:Generated_Source\PSoC4/CAN.c ****         /* Write TX ID Register */
1396:Generated_Source\PSoC4/CAN.c ****         CY_SET_REG32(CAN_TX_ID_PTR(txConfig->txmailbox), txConfig->txid);
 1077              		.loc 1 1396 0
 1078 002e 9968     		ldr	r1, [r3, #8]
 1079 0030 5160     		str	r1, [r2, #4]
1397:Generated_Source\PSoC4/CAN.c ****         if (CY_GET_REG32(CAN_TX_ID_PTR(txConfig->txmailbox)) == txConfig->txid)
 1080              		.loc 1 1397 0
 1081 0032 1A78     		ldrb	r2, [r3]
 1082 0034 0449     		ldr	r1, .L94
 1083 0036 1201     		lsls	r2, r2, #4
 1084 0038 5218     		adds	r2, r2, r1
1388:Generated_Source\PSoC4/CAN.c **** 
 1085              		.loc 1 1388 0
 1086 003a 9B68     		ldr	r3, [r3, #8]
 1087              	.LVL76:
 1088              		.loc 1 1397 0
 1089 003c 5068     		ldr	r0, [r2, #4]
1388:Generated_Source\PSoC4/CAN.c **** 
 1090              		.loc 1 1388 0
 1091 003e 181A     		subs	r0, r3, r0
 1092 0040 431E     		subs	r3, r0, #1
 1093 0042 9841     		sbcs	r0, r0, r3
 1094 0044 C0B2     		uxtb	r0, r0
 1095              	.L92:
 1096              	.LVL77:
1398:Generated_Source\PSoC4/CAN.c ****         {
1399:Generated_Source\PSoC4/CAN.c ****             result = CYRET_SUCCESS;
1400:Generated_Source\PSoC4/CAN.c ****         }
1401:Generated_Source\PSoC4/CAN.c ****     }
1402:Generated_Source\PSoC4/CAN.c **** 
1403:Generated_Source\PSoC4/CAN.c ****     return (result);
1404:Generated_Source\PSoC4/CAN.c **** }
 1097              		.loc 1 1404 0
 1098              		@ sp needed
 1099 0046 10BD     		pop	{r4, pc}
ARM GAS  C:\Users\RYANCA~1\AppData\Local\Temp\ccuGCfpb.s 			page 46


 1100              	.L95:
 1101              		.align	2
 1102              	.L94:
 1103 0048 20002F40 		.word	1076822048
 1104 004c 08008000 		.word	8388616
 1105 0050 F7007F00 		.word	8323319
 1106 0054 F7FF7FFF 		.word	-8388617
 1107              		.cfi_endproc
 1108              	.LFE22:
 1109              		.size	CAN_TxBufConfig, .-CAN_TxBufConfig
 1110              		.section	.text.CAN_RxTxBuffersConfig,"ax",%progbits
 1111              		.align	1
 1112              		.global	CAN_RxTxBuffersConfig
 1113              		.code	16
 1114              		.thumb_func
 1115              		.type	CAN_RxTxBuffersConfig, %function
 1116              	CAN_RxTxBuffersConfig:
 1117              	.LFB1:
  48:Generated_Source\PSoC4/CAN.c ****     /* Initial values of CAN RX and TX registers */
 1118              		.loc 1 48 0
 1119              		.cfi_startproc
 1120              		@ args = 0, pretend = 0, frame = 0
 1121              		@ frame_needed = 0, uses_anonymous_args = 0
 1122              	.LVL78:
 1123 0000 70B5     		push	{r4, r5, r6, lr}
 1124              		.cfi_def_cfa_offset 16
 1125              		.cfi_offset 4, -16
 1126              		.cfi_offset 5, -12
 1127              		.cfi_offset 6, -8
 1128              		.cfi_offset 14, -4
  48:Generated_Source\PSoC4/CAN.c ****     /* Initial values of CAN RX and TX registers */
 1129              		.loc 1 48 0
 1130 0002 0026     		movs	r6, #0
 1131              	.LVL79:
 1132              	.L99:
  88:Generated_Source\PSoC4/CAN.c ****             (&CAN_TXConfigStruct[i])) != CYRET_SUCCESS)
 1133              		.loc 1 88 0
 1134 0004 0B4D     		ldr	r5, .L104
 1135 0006 A819     		adds	r0, r5, r6
 1136 0008 FFF7FEFF 		bl	CAN_TxBufConfig
 1137              	.LVL80:
 1138 000c 0028     		cmp	r0, #0
 1139 000e 01D0     		beq	.L97
 1140              	.L100:
 1141 0010 0120     		movs	r0, #1
 1142 0012 0EE0     		b	.L98
 1143              	.L97:
 1144 0014 0C36     		adds	r6, r6, #12
  86:Generated_Source\PSoC4/CAN.c ****     {
 1145              		.loc 1 86 0 discriminator 2
 1146 0016 602E     		cmp	r6, #96
 1147 0018 F4D1     		bne	.L99
 1148 001a 0400     		movs	r4, r0
  99:Generated_Source\PSoC4/CAN.c ****         {
 1149              		.loc 1 99 0
 1150 001c A036     		adds	r6, r6, #160
 1151              	.L101:
ARM GAS  C:\Users\RYANCA~1\AppData\Local\Temp\ccuGCfpb.s 			page 47


 101:Generated_Source\PSoC4/CAN.c ****                 (&CAN_RXConfigStruct[i])) != CYRET_SUCCESS)
 1152              		.loc 1 101 0
 1153 001e 2800     		movs	r0, r5
 1154 0020 6030     		adds	r0, r0, #96
 1155 0022 0019     		adds	r0, r0, r4
 1156 0024 FFF7FEFF 		bl	CAN_RxBufConfig
 1157              	.LVL81:
 1158 0028 0028     		cmp	r0, #0
 1159 002a F1D1     		bne	.L100
 1160 002c 1034     		adds	r4, r4, #16
  99:Generated_Source\PSoC4/CAN.c ****         {
 1161              		.loc 1 99 0 discriminator 2
 1162 002e B442     		cmp	r4, r6
 1163 0030 F5D1     		bne	.L101
 1164              	.L98:
 1165              	.LVL82:
 111:Generated_Source\PSoC4/CAN.c **** 
 1166              		.loc 1 111 0
 1167              		@ sp needed
 1168 0032 70BD     		pop	{r4, r5, r6, pc}
 1169              	.L105:
 1170              		.align	2
 1171              	.L104:
 1172 0034 00000000 		.word	.LANCHOR0
 1173              		.cfi_endproc
 1174              	.LFE1:
 1175              		.size	CAN_RxTxBuffersConfig, .-CAN_RxTxBuffersConfig
 1176              		.section	.text.CAN_Init,"ax",%progbits
 1177              		.align	1
 1178              		.global	CAN_Init
 1179              		.code	16
 1180              		.thumb_func
 1181              		.type	CAN_Init, %function
 1182              	CAN_Init:
 1183              	.LFB2:
 138:Generated_Source\PSoC4/CAN.c ****     uint32 timeout = CAN_MODE_STATE_STOP_TIMEOUT;
 1184              		.loc 1 138 0
 1185              		.cfi_startproc
 1186              		@ args = 0, pretend = 0, frame = 0
 1187              		@ frame_needed = 0, uses_anonymous_args = 0
 1188              	.LVL83:
 163:Generated_Source\PSoC4/CAN.c **** 
 1189              		.loc 1 163 0
 1190 0000 8022     		movs	r2, #128
 1191 0002 324B     		ldr	r3, .L122
 1192 0004 1206     		lsls	r2, r2, #24
 138:Generated_Source\PSoC4/CAN.c ****     uint32 timeout = CAN_MODE_STATE_STOP_TIMEOUT;
 1193              		.loc 1 138 0
 1194 0006 70B5     		push	{r4, r5, r6, lr}
 1195              		.cfi_def_cfa_offset 16
 1196              		.cfi_offset 4, -16
 1197              		.cfi_offset 5, -12
 1198              		.cfi_offset 6, -8
 1199              		.cfi_offset 14, -4
 163:Generated_Source\PSoC4/CAN.c **** 
 1200              		.loc 1 163 0
 1201 0008 1A60     		str	r2, [r3]
ARM GAS  C:\Users\RYANCA~1\AppData\Local\Temp\ccuGCfpb.s 			page 48


 166:Generated_Source\PSoC4/CAN.c **** 
 1202              		.loc 1 166 0
 1203 000a 0122     		movs	r2, #1
 1204 000c 304B     		ldr	r3, .L122+4
 1205 000e 1968     		ldr	r1, [r3]
 1206 0010 9143     		bics	r1, r2
 1207 0012 1960     		str	r1, [r3]
 1208 0014 2F49     		ldr	r1, .L122+8
 1209              	.LVL84:
 1210              	.L107:
 169:Generated_Source\PSoC4/CAN.c ****         {
 1211              		.loc 1 169 0 discriminator 1
 1212 0016 1868     		ldr	r0, [r3]
 1213 0018 2D4D     		ldr	r5, .L122+4
 1214 001a 0126     		movs	r6, #1
 1215 001c 1042     		tst	r0, r2
 1216 001e 03D0     		beq	.L121
 1217              	.LVL85:
 1218 0020 0139     		subs	r1, r1, #1
 1219              	.LVL86:
 169:Generated_Source\PSoC4/CAN.c ****         {
 1220              		.loc 1 169 0 is_stmt 0
 1221 0022 0029     		cmp	r1, #0
 1222 0024 F7D1     		bne	.L107
 1223 0026 4EE0     		b	.L108
 1224              	.L121:
 1225              	.LBB76:
 1226              	.LBB77:
 177:Generated_Source\PSoC4/CAN.c **** 
 1227              		.loc 1 177 0 is_stmt 1
 1228 0028 1C20     		movs	r0, #28
 1229 002a FFF7FEFF 		bl	CyIntDisable
 1230              	.LVL87:
 1231              	.LBB78:
 1232              	.LBB79:
 1233              	.LBB80:
 1234              	.LBB81:
 538:Generated_Source\PSoC4/CAN.c ****             (uint32) ((uint32) bitrate << CAN_BITRATE_SHIFT);
 1235              		.loc 1 538 0
 1236 002e 2A4C     		ldr	r4, .L122+12
 1237              	.LBE81:
 1238              	.LBE80:
 1239              	.LBE79:
 1240              	.LBE78:
 180:Generated_Source\PSoC4/CAN.c **** 
 1241              		.loc 1 180 0
 1242 0030 2A49     		ldr	r1, .L122+16
 1243 0032 1C20     		movs	r0, #28
 1244 0034 FFF7FEFF 		bl	CyIntSetVector
 1245              	.LVL88:
 183:Generated_Source\PSoC4/CAN.c **** 
 1246              		.loc 1 183 0
 1247 0038 0321     		movs	r1, #3
 1248 003a 1C20     		movs	r0, #28
 1249 003c FFF7FEFF 		bl	CyIntSetPriority
 1250              	.LVL89:
 1251              	.LBB85:
ARM GAS  C:\Users\RYANCA~1\AppData\Local\Temp\ccuGCfpb.s 			page 49


 1252              	.LBB84:
 1253              	.LBB83:
 1254              	.LBB82:
 538:Generated_Source\PSoC4/CAN.c ****             (uint32) ((uint32) bitrate << CAN_BITRATE_SHIFT);
 1255              		.loc 1 538 0
 1256 0040 2268     		ldr	r2, [r4]
 1257 0042 274B     		ldr	r3, .L122+20
 1258 0044 1340     		ands	r3, r2
 1259 0046 9022     		movs	r2, #144
 1260 0048 5203     		lsls	r2, r2, #13
 1261 004a 1343     		orrs	r3, r2
 1262 004c 2360     		str	r3, [r4]
 542:Generated_Source\PSoC4/CAN.c ****                ((uint32) ((uint32) bitrate << CAN_BITRATE_SHIFT)))
 1263              		.loc 1 542 0
 1264 004e 2168     		ldr	r1, [r4]
 1265 0050 244B     		ldr	r3, .L122+24
 1266 0052 0B40     		ands	r3, r1
 1267 0054 9342     		cmp	r3, r2
 1268 0056 36D1     		bne	.L108
 1269              	.LVL90:
 1270              	.LBE82:
 1271              	.LBE83:
 1272              	.LBE84:
 1273              	.LBE85:
 1274              	.LBB86:
 1275              	.LBB87:
 1276              	.LBB88:
 1277              	.LBB89:
 603:Generated_Source\PSoC4/CAN.c **** 
 1278              		.loc 1 603 0
 1279 0058 2268     		ldr	r2, [r4]
 1280 005a 234B     		ldr	r3, .L122+28
 1281 005c 1340     		ands	r3, r2
 1282 005e 2360     		str	r3, [r4]
 606:Generated_Source\PSoC4/CAN.c ****             {
 1283              		.loc 1 606 0
 1284 0060 2368     		ldr	r3, [r4]
 1285 0062 DB04     		lsls	r3, r3, #19
 1286 0064 2FD4     		bmi	.L108
 1287              	.LVL91:
 1288              	.LBE89:
 1289              	.LBE88:
 1290              	.LBE87:
 1291              	.LBE86:
 1292              	.LBB90:
 1293              	.LBB91:
 1294              	.LBB92:
 1295              	.LBB93:
1405:Generated_Source\PSoC4/CAN.c **** 
1406:Generated_Source\PSoC4/CAN.c **** 
1407:Generated_Source\PSoC4/CAN.c **** #if (!(CY_PSOC3 || CY_PSOC5))
1408:Generated_Source\PSoC4/CAN.c **** 
1409:Generated_Source\PSoC4/CAN.c **** /*******************************************************************************
1410:Generated_Source\PSoC4/CAN.c **** * FUNCTION NAME:   CAN_SetSwapDataEndianness
1411:Generated_Source\PSoC4/CAN.c **** ********************************************************************************
1412:Generated_Source\PSoC4/CAN.c **** *
1413:Generated_Source\PSoC4/CAN.c **** * Summary:
ARM GAS  C:\Users\RYANCA~1\AppData\Local\Temp\ccuGCfpb.s 			page 50


1414:Generated_Source\PSoC4/CAN.c **** *  This function selects whether the data byte endianness of the CAN receive and
1415:Generated_Source\PSoC4/CAN.c **** *  transmit data fields has to be swapped or not swapped. This is useful to
1416:Generated_Source\PSoC4/CAN.c **** *  match the data byte endianness to the endian setting of the processor or the
1417:Generated_Source\PSoC4/CAN.c **** *  used CAN protocol.
1418:Generated_Source\PSoC4/CAN.c **** *
1419:Generated_Source\PSoC4/CAN.c **** * Parameters:
1420:Generated_Source\PSoC4/CAN.c **** *  swap: Swap Enable/Disable setting.
1421:Generated_Source\PSoC4/CAN.c **** *   Define                                   Description
1422:Generated_Source\PSoC4/CAN.c **** *   CAN_SWAP_ENDIANNESS_ENABLE   The endianness of transmitted/
1423:Generated_Source\PSoC4/CAN.c **** *                                             received data byte fields (Big
1424:Generated_Source\PSoC4/CAN.c **** *                                             endian) is not swapped during
1425:Generated_Source\PSoC4/CAN.c **** *                                             multibyte data transmission.
1426:Generated_Source\PSoC4/CAN.c **** *   CAN_SWAP_ENDIANNESS_DISABLE  The endianness of transmitted/
1427:Generated_Source\PSoC4/CAN.c **** *                                             received data byte fields is
1428:Generated_Source\PSoC4/CAN.c **** *                                             swapped (Little endian) during
1429:Generated_Source\PSoC4/CAN.c **** *                                             multi byte data transmission.
1430:Generated_Source\PSoC4/CAN.c **** *
1431:Generated_Source\PSoC4/CAN.c **** * Return:
1432:Generated_Source\PSoC4/CAN.c **** *  The indication whether the register is written and verified.
1433:Generated_Source\PSoC4/CAN.c **** *   Define                             Description
1434:Generated_Source\PSoC4/CAN.c **** *    CYRET_SUCCESS                      The function passed successfully
1435:Generated_Source\PSoC4/CAN.c **** *    CAN_FAIL              The function failed
1436:Generated_Source\PSoC4/CAN.c **** *
1437:Generated_Source\PSoC4/CAN.c **** *******************************************************************************/
1438:Generated_Source\PSoC4/CAN.c **** uint8 CAN_SetSwapDataEndianness(uint8 swap)
1439:Generated_Source\PSoC4/CAN.c **** {
1440:Generated_Source\PSoC4/CAN.c ****     uint8 result = CAN_FAIL;
1441:Generated_Source\PSoC4/CAN.c **** 
1442:Generated_Source\PSoC4/CAN.c ****     if (swap == CAN_SWAP_ENDIANNESS_DISABLE)    /* Big endian */
1443:Generated_Source\PSoC4/CAN.c ****     {
1444:Generated_Source\PSoC4/CAN.c ****         CAN_CFG_REG &= (uint32) (~CAN_ENDIANNESS_MASK);
 1296              		.loc 1 1444 0
 1297 0066 2268     		ldr	r2, [r4]
 1298 0068 204B     		ldr	r3, .L122+32
 1299 006a 1340     		ands	r3, r2
 1300 006c 2360     		str	r3, [r4]
1445:Generated_Source\PSoC4/CAN.c **** 
1446:Generated_Source\PSoC4/CAN.c ****         /* Verify that bit is cleared */
1447:Generated_Source\PSoC4/CAN.c ****         if ((CAN_CFG_REG & CAN_ENDIANNESS_MASK) == 0u)
 1301              		.loc 1 1447 0
 1302 006e 8023     		movs	r3, #128
 1303 0070 2268     		ldr	r2, [r4]
 1304 0072 9B01     		lsls	r3, r3, #6
 1305 0074 1340     		ands	r3, r2
 1306 0076 26D1     		bne	.L108
 1307              	.LVL92:
 1308              	.LBE93:
 1309              	.LBE92:
 1310              	.LBE91:
 1311              	.LBE90:
 193:Generated_Source\PSoC4/CAN.c ****                                 CAN_CFG_REG_TSEG2, CAN_CFG_REG_SJW,
 1312              		.loc 1 193 0
 1313 0078 0322     		movs	r2, #3
 1314 007a 0420     		movs	r0, #4
 1315 007c 1100     		movs	r1, r2
 1316 007e FFF7FEFF 		bl	CAN_SetTsegSample
 1317              	.LVL93:
ARM GAS  C:\Users\RYANCA~1\AppData\Local\Temp\ccuGCfpb.s 			page 51


 1318 0082 0028     		cmp	r0, #0
 1319 0084 1FD1     		bne	.L108
 1320              	.LVL94:
 1321              	.LBB94:
 1322              	.LBB95:
 1323              	.LBB96:
 1324              	.LBB97:
 797:Generated_Source\PSoC4/CAN.c **** 
 1325              		.loc 1 797 0
 1326 0086 1022     		movs	r2, #16
 1327 0088 2368     		ldr	r3, [r4]
 1328 008a 9343     		bics	r3, r2
 1329 008c 2360     		str	r3, [r4]
 800:Generated_Source\PSoC4/CAN.c ****             {
 1330              		.loc 1 800 0
 1331 008e 2368     		ldr	r3, [r4]
 1332 0090 1342     		tst	r3, r2
 1333 0092 18D1     		bne	.L108
 1334              	.LVL95:
 1335              	.LBE97:
 1336              	.LBE96:
 1337              	.LBE95:
 1338              	.LBE94:
 1339              	.LBB98:
 1340              	.LBB99:
 1341              	.LBB100:
 1342              	.LBB101:
 874:Generated_Source\PSoC4/CAN.c **** 
 1343              		.loc 1 874 0
 1344 0094 2368     		ldr	r3, [r4]
 1345 0096 B343     		bics	r3, r6
 1346 0098 2360     		str	r3, [r4]
 877:Generated_Source\PSoC4/CAN.c ****             {
 1347              		.loc 1 877 0
 1348 009a 2368     		ldr	r3, [r4]
 1349              	.LVL96:
 1350              	.LBE101:
 1351              	.LBE100:
 1352              	.LBE99:
 1353              	.LBE98:
 209:Generated_Source\PSoC4/CAN.c ****             {
 1354              		.loc 1 209 0
 1355 009c 3342     		tst	r3, r6
 1356 009e 12D1     		bne	.L108
 1357              	.LVL97:
 211:Generated_Source\PSoC4/CAN.c ****                 {
 1358              		.loc 1 211 0
 1359 00a0 FFF7FEFF 		bl	CAN_RxTxBuffersConfig
 1360              	.LVL98:
 1361 00a4 0028     		cmp	r0, #0
 1362 00a6 0ED1     		bne	.L108
 214:Generated_Source\PSoC4/CAN.c ****                         CYRET_SUCCESS)
 1363              		.loc 1 214 0
 1364 00a8 1148     		ldr	r0, .L122+36
 1365 00aa FFF7FEFF 		bl	CAN_SetIrqMask
 1366              	.LVL99:
 1367 00ae 0028     		cmp	r0, #0
ARM GAS  C:\Users\RYANCA~1\AppData\Local\Temp\ccuGCfpb.s 			page 52


 1368 00b0 09D1     		bne	.L108
 222:Generated_Source\PSoC4/CAN.c ****                             if ((CAN_CMD_REG & CAN_OPMODE_FIELD_MASK) == 0u)
 1369              		.loc 1 222 0
 1370 00b2 2B68     		ldr	r3, [r5]
 1371 00b4 0730     		adds	r0, r0, #7
 1372 00b6 8343     		bics	r3, r0
 1373 00b8 2B60     		str	r3, [r5]
 223:Generated_Source\PSoC4/CAN.c ****                         #endif /* CY_PSOC3 || CY_PSOC5 */
 1374              		.loc 1 223 0
 1375 00ba 2B68     		ldr	r3, [r5]
 140:Generated_Source\PSoC4/CAN.c ****     uint8 localResult = CAN_FAIL;
 1376              		.loc 1 140 0
 1377 00bc 1840     		ands	r0, r3
 1378 00be 431E     		subs	r3, r0, #1
 1379 00c0 9841     		sbcs	r0, r0, r3
 1380 00c2 C0B2     		uxtb	r0, r0
 1381 00c4 00E0     		b	.L120
 1382              	.LVL100:
 1383              	.L108:
 1384 00c6 0120     		movs	r0, #1
 1385              	.LVL101:
 1386              	.L120:
 1387              	.LBE77:
 1388              	.LBE76:
 234:Generated_Source\PSoC4/CAN.c **** 
 1389              		.loc 1 234 0
 1390              		@ sp needed
 1391 00c8 70BD     		pop	{r4, r5, r6, pc}
 1392              	.L123:
 1393 00ca C046     		.align	2
 1394              	.L122:
 1395 00cc 00042F40 		.word	1076823040
 1396 00d0 10002F40 		.word	1076822032
 1397 00d4 C0760000 		.word	30400
 1398 00d8 14002F40 		.word	1076822036
 1399 00dc 00000000 		.word	CAN_ISR
 1400 00e0 FFFF0080 		.word	-2147418113
 1401 00e4 0000FF7F 		.word	2147418112
 1402 00e8 FFEFFFFF 		.word	-4097
 1403 00ec FFDFFFFF 		.word	-8193
 1404 00f0 01100000 		.word	4097
 1405              		.cfi_endproc
 1406              	.LFE2:
 1407              		.size	CAN_Init, .-CAN_Init
 1408              		.section	.text.CAN_Start,"ax",%progbits
 1409              		.align	1
 1410              		.global	CAN_Start
 1411              		.code	16
 1412              		.thumb_func
 1413              		.type	CAN_Start, %function
 1414              	CAN_Start:
 1415              	.LFB4:
 324:Generated_Source\PSoC4/CAN.c ****     uint8 result = CYRET_SUCCESS;
 1416              		.loc 1 324 0
 1417              		.cfi_startproc
 1418              		@ args = 0, pretend = 0, frame = 0
 1419              		@ frame_needed = 0, uses_anonymous_args = 0
ARM GAS  C:\Users\RYANCA~1\AppData\Local\Temp\ccuGCfpb.s 			page 53


 1420              	.LVL102:
 1421 0000 10B5     		push	{r4, lr}
 1422              		.cfi_def_cfa_offset 8
 1423              		.cfi_offset 4, -8
 1424              		.cfi_offset 14, -4
 327:Generated_Source\PSoC4/CAN.c ****     {
 1425              		.loc 1 327 0
 1426 0002 074B     		ldr	r3, .L131
 1427 0004 1A78     		ldrb	r2, [r3]
 1428 0006 1C00     		movs	r4, r3
 1429 0008 002A     		cmp	r2, #0
 1430 000a 04D0     		beq	.L125
 1431              	.LVL103:
 1432              	.L127:
 334:Generated_Source\PSoC4/CAN.c ****         result = CAN_Enable();
 1433              		.loc 1 334 0
 1434 000c 0123     		movs	r3, #1
 1435 000e 2370     		strb	r3, [r4]
 335:Generated_Source\PSoC4/CAN.c ****     }
 1436              		.loc 1 335 0
 1437 0010 FFF7FEFF 		bl	CAN_Enable
 1438              	.LVL104:
 1439 0014 03E0     		b	.L126
 1440              	.LVL105:
 1441              	.L125:
 329:Generated_Source\PSoC4/CAN.c ****     }
 1442              		.loc 1 329 0
 1443 0016 FFF7FEFF 		bl	CAN_Init
 1444              	.LVL106:
 332:Generated_Source\PSoC4/CAN.c ****     {
 1445              		.loc 1 332 0
 1446 001a 0028     		cmp	r0, #0
 1447 001c F6D0     		beq	.L127
 1448              	.LVL107:
 1449              	.L126:
 339:Generated_Source\PSoC4/CAN.c **** 
 1450              		.loc 1 339 0
 1451              		@ sp needed
 1452 001e 10BD     		pop	{r4, pc}
 1453              	.L132:
 1454              		.align	2
 1455              	.L131:
 1456 0020 00000000 		.word	.LANCHOR1
 1457              		.cfi_endproc
 1458              	.LFE4:
 1459              		.size	CAN_Start, .-CAN_Start
 1460              		.section	.text.CAN_SetOpMode,"ax",%progbits
 1461              		.align	1
 1462              		.global	CAN_SetOpMode
 1463              		.code	16
 1464              		.thumb_func
 1465              		.type	CAN_SetOpMode, %function
 1466              	CAN_SetOpMode:
 1467              	.LFB13:
 939:Generated_Source\PSoC4/CAN.c ****     #if (CY_PSOC3 || CY_PSOC5)
 1468              		.loc 1 939 0
 1469              		.cfi_startproc
ARM GAS  C:\Users\RYANCA~1\AppData\Local\Temp\ccuGCfpb.s 			page 54


 1470              		@ args = 0, pretend = 0, frame = 0
 1471              		@ frame_needed = 0, uses_anonymous_args = 0
 1472              	.LVL108:
 1473 0000 70B5     		push	{r4, r5, r6, lr}
 1474              		.cfi_def_cfa_offset 16
 1475              		.cfi_offset 4, -16
 1476              		.cfi_offset 5, -12
 1477              		.cfi_offset 6, -8
 1478              		.cfi_offset 14, -4
 996:Generated_Source\PSoC4/CAN.c ****         }
 1479              		.loc 1 996 0
 1480 0002 0124     		movs	r4, #1
 993:Generated_Source\PSoC4/CAN.c ****             (opMode == CAN_ACTIVE_RUN_MODE))
 1481              		.loc 1 993 0
 1482 0004 114D     		ldr	r5, .L144
 939:Generated_Source\PSoC4/CAN.c ****     #if (CY_PSOC3 || CY_PSOC5)
 1483              		.loc 1 939 0
 1484 0006 0600     		movs	r6, r0
 993:Generated_Source\PSoC4/CAN.c ****             (opMode == CAN_ACTIVE_RUN_MODE))
 1485              		.loc 1 993 0
 1486 0008 2B68     		ldr	r3, [r5]
 1487 000a 2342     		tst	r3, r4
 1488 000c 03D1     		bne	.L134
 944:Generated_Source\PSoC4/CAN.c **** 
 1489              		.loc 1 944 0 discriminator 1
 1490 000e 441E     		subs	r4, r0, #1
 1491 0010 6342     		rsbs	r3, r4, #0
 1492 0012 5C41     		adcs	r4, r4, r3
 1493 0014 E4B2     		uxtb	r4, r4
 1494              	.L134:
 1495              	.LVL109:
1000:Generated_Source\PSoC4/CAN.c ****         {
 1496              		.loc 1 1000 0
 1497 0016 FFF7FEFF 		bl	CAN_Stop
 1498              	.LVL110:
 1499 001a 0300     		movs	r3, r0
 943:Generated_Source\PSoC4/CAN.c ****     uint8 runState = CAN_STOP_MODE;
 1500              		.loc 1 943 0
 1501 001c 0120     		movs	r0, #1
1000:Generated_Source\PSoC4/CAN.c ****         {
 1502              		.loc 1 1000 0
 1503 001e 002B     		cmp	r3, #0
 1504 0020 13D1     		bne	.L135
1003:Generated_Source\PSoC4/CAN.c **** 
 1505              		.loc 1 1003 0
 1506 0022 0B4B     		ldr	r3, .L144+4
 1507 0024 0B4A     		ldr	r2, .L144+8
 1508 0026 1A60     		str	r2, [r3]
1006:Generated_Source\PSoC4/CAN.c **** 
 1509              		.loc 1 1006 0
 1510 0028 1218     		adds	r2, r2, r0
 1511 002a 1A60     		str	r2, [r3]
1008:Generated_Source\PSoC4/CAN.c **** 
 1512              		.loc 1 1008 0
 1513 002c FFF7FEFF 		bl	CAN_Init
 1514              	.LVL111:
1010:Generated_Source\PSoC4/CAN.c ****             {
ARM GAS  C:\Users\RYANCA~1\AppData\Local\Temp\ccuGCfpb.s 			page 55


 1515              		.loc 1 1010 0
 1516 0030 0028     		cmp	r0, #0
 1517 0032 0AD1     		bne	.L135
1010:Generated_Source\PSoC4/CAN.c ****             {
 1518              		.loc 1 1010 0 is_stmt 0 discriminator 1
 1519 0034 002E     		cmp	r6, #0
 1520 0036 08D0     		beq	.L135
1012:Generated_Source\PSoC4/CAN.c ****                 {
 1521              		.loc 1 1012 0 is_stmt 1
 1522 0038 012E     		cmp	r6, #1
 1523 003a 02D0     		beq	.L137
1015:Generated_Source\PSoC4/CAN.c ****                 }
 1524              		.loc 1 1015 0
 1525 003c 2B68     		ldr	r3, [r5]
 1526 003e 1E43     		orrs	r6, r3
 1527 0040 2E60     		str	r6, [r5]
 1528              	.L137:
1018:Generated_Source\PSoC4/CAN.c ****                 {
 1529              		.loc 1 1018 0
 1530 0042 012C     		cmp	r4, #1
 1531 0044 01D1     		bne	.L135
1021:Generated_Source\PSoC4/CAN.c ****                 }
 1532              		.loc 1 1021 0
 1533 0046 FFF7FEFF 		bl	CAN_Enable
 1534              	.LVL112:
 1535              	.L135:
1028:Generated_Source\PSoC4/CAN.c **** 
 1536              		.loc 1 1028 0
 1537              		@ sp needed
 1538              	.LVL113:
 1539 004a 70BD     		pop	{r4, r5, r6, pc}
 1540              	.L145:
 1541              		.align	2
 1542              	.L144:
 1543 004c 10002F40 		.word	1076822032
 1544 0050 00042F40 		.word	1076823040
 1545 0054 FFFFFF7F 		.word	2147483647
 1546              		.cfi_endproc
 1547              	.LFE13:
 1548              		.size	CAN_SetOpMode, .-CAN_SetOpMode
 1549              		.section	.text.CAN_SetSwapDataEndianness,"ax",%progbits
 1550              		.align	1
 1551              		.global	CAN_SetSwapDataEndianness
 1552              		.code	16
 1553              		.thumb_func
 1554              		.type	CAN_SetSwapDataEndianness, %function
 1555              	CAN_SetSwapDataEndianness:
 1556              	.LFB23:
1439:Generated_Source\PSoC4/CAN.c ****     uint8 result = CAN_FAIL;
 1557              		.loc 1 1439 0
 1558              		.cfi_startproc
 1559              		@ args = 0, pretend = 0, frame = 0
 1560              		@ frame_needed = 0, uses_anonymous_args = 0
 1561              		@ link register save eliminated.
 1562              	.LVL114:
 1563 0000 0A4B     		ldr	r3, .L149
1442:Generated_Source\PSoC4/CAN.c ****     {
ARM GAS  C:\Users\RYANCA~1\AppData\Local\Temp\ccuGCfpb.s 			page 56


 1564              		.loc 1 1442 0
 1565 0002 0028     		cmp	r0, #0
 1566 0004 07D1     		bne	.L147
 1567              	.LVL115:
 1568              	.LBB104:
 1569              	.LBB105:
1444:Generated_Source\PSoC4/CAN.c **** 
 1570              		.loc 1 1444 0
 1571 0006 1968     		ldr	r1, [r3]
 1572 0008 094A     		ldr	r2, .L149+4
 1573 000a 0A40     		ands	r2, r1
 1574 000c 1A60     		str	r2, [r3]
 1575              		.loc 1 1447 0
 1576 000e 1868     		ldr	r0, [r3]
 1577              	.LVL116:
1448:Generated_Source\PSoC4/CAN.c ****         {
1449:Generated_Source\PSoC4/CAN.c ****             result = CYRET_SUCCESS;
 1578              		.loc 1 1449 0
 1579 0010 8004     		lsls	r0, r0, #18
 1580 0012 C00F     		lsrs	r0, r0, #31
 1581 0014 08E0     		b	.L148
 1582              	.LVL117:
 1583              	.L147:
 1584              	.LBE105:
 1585              	.LBE104:
1450:Generated_Source\PSoC4/CAN.c ****         }
1451:Generated_Source\PSoC4/CAN.c ****     }
1452:Generated_Source\PSoC4/CAN.c ****     else    /* Little endian */
1453:Generated_Source\PSoC4/CAN.c ****     {
1454:Generated_Source\PSoC4/CAN.c ****         CAN_CFG_REG |= CAN_ENDIANNESS_MASK;
 1586              		.loc 1 1454 0
 1587 0016 8021     		movs	r1, #128
 1588              	.LBB108:
 1589              	.LBB106:
1449:Generated_Source\PSoC4/CAN.c ****         }
 1590              		.loc 1 1449 0
 1591 0018 0120     		movs	r0, #1
 1592              	.LVL118:
 1593              	.LBE106:
 1594              	.LBE108:
 1595              		.loc 1 1454 0
 1596 001a 1A68     		ldr	r2, [r3]
 1597 001c 8901     		lsls	r1, r1, #6
 1598 001e 0A43     		orrs	r2, r1
 1599 0020 1A60     		str	r2, [r3]
1455:Generated_Source\PSoC4/CAN.c **** 
1456:Generated_Source\PSoC4/CAN.c ****         /* Verify that bit is set */
1457:Generated_Source\PSoC4/CAN.c ****         if ((CAN_CFG_REG & CAN_ENDIANNESS_MASK) != 0u)
 1600              		.loc 1 1457 0
 1601 0022 1B68     		ldr	r3, [r3]
 1602              	.LBB109:
 1603              	.LBB107:
1449:Generated_Source\PSoC4/CAN.c ****         }
 1604              		.loc 1 1449 0
 1605 0024 5B0B     		lsrs	r3, r3, #13
 1606 0026 9843     		bics	r0, r3
 1607              	.L148:
ARM GAS  C:\Users\RYANCA~1\AppData\Local\Temp\ccuGCfpb.s 			page 57


 1608              	.LVL119:
 1609              	.LBE107:
 1610              	.LBE109:
1458:Generated_Source\PSoC4/CAN.c ****         {
1459:Generated_Source\PSoC4/CAN.c ****             result = CYRET_SUCCESS;
1460:Generated_Source\PSoC4/CAN.c ****         }
1461:Generated_Source\PSoC4/CAN.c ****     }
1462:Generated_Source\PSoC4/CAN.c **** 
1463:Generated_Source\PSoC4/CAN.c ****     return (result);
1464:Generated_Source\PSoC4/CAN.c **** }
 1611              		.loc 1 1464 0
 1612              		@ sp needed
 1613 0028 7047     		bx	lr
 1614              	.L150:
 1615 002a C046     		.align	2
 1616              	.L149:
 1617 002c 14002F40 		.word	1076822036
 1618 0030 FFDFFFFF 		.word	-8193
 1619              		.cfi_endproc
 1620              	.LFE23:
 1621              		.size	CAN_SetSwapDataEndianness, .-CAN_SetSwapDataEndianness
 1622              		.section	.text.CAN_SetErrorCaptureRegisterMode,"ax",%progbits
 1623              		.align	1
 1624              		.global	CAN_SetErrorCaptureRegisterMode
 1625              		.code	16
 1626              		.thumb_func
 1627              		.type	CAN_SetErrorCaptureRegisterMode, %function
 1628              	CAN_SetErrorCaptureRegisterMode:
 1629              	.LFB24:
1465:Generated_Source\PSoC4/CAN.c **** 
1466:Generated_Source\PSoC4/CAN.c **** 
1467:Generated_Source\PSoC4/CAN.c **** /*******************************************************************************
1468:Generated_Source\PSoC4/CAN.c **** * FUNCTION NAME:   CAN_SetErrorCaptureRegisterMode
1469:Generated_Source\PSoC4/CAN.c **** ********************************************************************************
1470:Generated_Source\PSoC4/CAN.c **** *
1471:Generated_Source\PSoC4/CAN.c **** * Summary:
1472:Generated_Source\PSoC4/CAN.c **** *  This function sets the Error Capture register mode. The two modes are
1473:Generated_Source\PSoC4/CAN.c **** *  possible: Free Running and Error Capture.
1474:Generated_Source\PSoC4/CAN.c **** *
1475:Generated_Source\PSoC4/CAN.c **** * Parameters:
1476:Generated_Source\PSoC4/CAN.c **** *  ecrMode: The Error Capture register mode setting.
1477:Generated_Source\PSoC4/CAN.c **** *   Define                               Description
1478:Generated_Source\PSoC4/CAN.c **** *   CAN_ECR_FREE_RUNNING     The ECR captures the field and bit
1479:Generated_Source\PSoC4/CAN.c **** *                                         position within the current CAN frame.
1480:Generated_Source\PSoC4/CAN.c **** *   CAN_ECR_ERROR_CAPTURE    In this mode the ECR register only
1481:Generated_Source\PSoC4/CAN.c **** *                                         captures an error event. For
1482:Generated_Source\PSoC4/CAN.c **** *                                         successive error captures, the ECR
1483:Generated_Source\PSoC4/CAN.c **** *                                         needs to be armed again by writing
1484:Generated_Source\PSoC4/CAN.c **** *                                         to the ECR register.
1485:Generated_Source\PSoC4/CAN.c **** *
1486:Generated_Source\PSoC4/CAN.c **** * Return:
1487:Generated_Source\PSoC4/CAN.c **** *  The indication whether the register is written and verified.
1488:Generated_Source\PSoC4/CAN.c **** *   Define                             Description
1489:Generated_Source\PSoC4/CAN.c **** *    CYRET_SUCCESS                      The function passed successfully
1490:Generated_Source\PSoC4/CAN.c **** *    CAN_FAIL              The function failed
1491:Generated_Source\PSoC4/CAN.c **** *
1492:Generated_Source\PSoC4/CAN.c **** *******************************************************************************/
ARM GAS  C:\Users\RYANCA~1\AppData\Local\Temp\ccuGCfpb.s 			page 58


1493:Generated_Source\PSoC4/CAN.c **** uint8 CAN_SetErrorCaptureRegisterMode(uint8 ecrMode)
1494:Generated_Source\PSoC4/CAN.c **** {
 1630              		.loc 1 1494 0
 1631              		.cfi_startproc
 1632              		@ args = 0, pretend = 0, frame = 0
 1633              		@ frame_needed = 0, uses_anonymous_args = 0
 1634              		@ link register save eliminated.
 1635              	.LVL120:
 1636 0000 0A4B     		ldr	r3, .L154
1495:Generated_Source\PSoC4/CAN.c ****     uint8 result = CAN_FAIL;
1496:Generated_Source\PSoC4/CAN.c **** 
1497:Generated_Source\PSoC4/CAN.c ****     if (ecrMode == CAN_ECR_FREE_RUNNING)
 1637              		.loc 1 1497 0
 1638 0002 0028     		cmp	r0, #0
 1639 0004 07D1     		bne	.L152
1498:Generated_Source\PSoC4/CAN.c ****     {
1499:Generated_Source\PSoC4/CAN.c ****         CAN_CFG_REG &= (uint32) (~CAN_ECR_MODE_MASK);
 1640              		.loc 1 1499 0
 1641 0006 1968     		ldr	r1, [r3]
 1642 0008 094A     		ldr	r2, .L154+4
 1643 000a 0A40     		ands	r2, r1
 1644 000c 1A60     		str	r2, [r3]
1500:Generated_Source\PSoC4/CAN.c **** 
1501:Generated_Source\PSoC4/CAN.c ****         /* Verify that bit is cleared */
1502:Generated_Source\PSoC4/CAN.c ****         if ((CAN_CFG_REG & CAN_ECR_MODE_MASK) == 0u)
 1645              		.loc 1 1502 0
 1646 000e 1868     		ldr	r0, [r3]
 1647              	.LVL121:
1503:Generated_Source\PSoC4/CAN.c ****         {
1504:Generated_Source\PSoC4/CAN.c ****             result = CYRET_SUCCESS;
 1648              		.loc 1 1504 0
 1649 0010 4004     		lsls	r0, r0, #17
 1650 0012 C00F     		lsrs	r0, r0, #31
 1651 0014 08E0     		b	.L153
 1652              	.LVL122:
 1653              	.L152:
1505:Generated_Source\PSoC4/CAN.c ****         }
1506:Generated_Source\PSoC4/CAN.c ****     }
1507:Generated_Source\PSoC4/CAN.c ****     else    /* Capture mode */
1508:Generated_Source\PSoC4/CAN.c ****     {
1509:Generated_Source\PSoC4/CAN.c ****         CAN_CFG_REG |= CAN_ECR_MODE_MASK;
 1654              		.loc 1 1509 0
 1655 0016 8021     		movs	r1, #128
1504:Generated_Source\PSoC4/CAN.c ****         }
 1656              		.loc 1 1504 0
 1657 0018 0120     		movs	r0, #1
 1658              	.LVL123:
 1659              		.loc 1 1509 0
 1660 001a 1A68     		ldr	r2, [r3]
 1661 001c C901     		lsls	r1, r1, #7
 1662 001e 0A43     		orrs	r2, r1
 1663 0020 1A60     		str	r2, [r3]
1510:Generated_Source\PSoC4/CAN.c **** 
1511:Generated_Source\PSoC4/CAN.c ****         /* Verify that bit is set */
1512:Generated_Source\PSoC4/CAN.c ****         if ((CAN_CFG_REG & CAN_ECR_MODE_MASK) != 0u)
 1664              		.loc 1 1512 0
 1665 0022 1B68     		ldr	r3, [r3]
ARM GAS  C:\Users\RYANCA~1\AppData\Local\Temp\ccuGCfpb.s 			page 59


1504:Generated_Source\PSoC4/CAN.c ****         }
 1666              		.loc 1 1504 0
 1667 0024 9B0B     		lsrs	r3, r3, #14
 1668 0026 9843     		bics	r0, r3
 1669              	.L153:
 1670              	.LVL124:
1513:Generated_Source\PSoC4/CAN.c ****         {
1514:Generated_Source\PSoC4/CAN.c ****             result = CYRET_SUCCESS;
1515:Generated_Source\PSoC4/CAN.c ****         }
1516:Generated_Source\PSoC4/CAN.c ****     }
1517:Generated_Source\PSoC4/CAN.c **** 
1518:Generated_Source\PSoC4/CAN.c ****     return (result);
1519:Generated_Source\PSoC4/CAN.c **** }
 1671              		.loc 1 1519 0
 1672              		@ sp needed
 1673 0028 7047     		bx	lr
 1674              	.L155:
 1675 002a C046     		.align	2
 1676              	.L154:
 1677 002c 14002F40 		.word	1076822036
 1678 0030 FFBFFFFF 		.word	-16385
 1679              		.cfi_endproc
 1680              	.LFE24:
 1681              		.size	CAN_SetErrorCaptureRegisterMode, .-CAN_SetErrorCaptureRegisterMode
 1682              		.section	.text.CAN_ReadErrorCaptureRegister,"ax",%progbits
 1683              		.align	1
 1684              		.global	CAN_ReadErrorCaptureRegister
 1685              		.code	16
 1686              		.thumb_func
 1687              		.type	CAN_ReadErrorCaptureRegister, %function
 1688              	CAN_ReadErrorCaptureRegister:
 1689              	.LFB25:
1520:Generated_Source\PSoC4/CAN.c **** 
1521:Generated_Source\PSoC4/CAN.c **** 
1522:Generated_Source\PSoC4/CAN.c **** /*******************************************************************************
1523:Generated_Source\PSoC4/CAN.c **** * FUNCTION NAME:   CAN_ReadErrorCaptureRegister
1524:Generated_Source\PSoC4/CAN.c **** ********************************************************************************
1525:Generated_Source\PSoC4/CAN.c **** *
1526:Generated_Source\PSoC4/CAN.c **** * Summary:
1527:Generated_Source\PSoC4/CAN.c **** *  This function returns the value of the Error Capture register.
1528:Generated_Source\PSoC4/CAN.c **** *
1529:Generated_Source\PSoC4/CAN.c **** * Parameters:
1530:Generated_Source\PSoC4/CAN.c **** *  None.
1531:Generated_Source\PSoC4/CAN.c **** *
1532:Generated_Source\PSoC4/CAN.c **** * Return:
1533:Generated_Source\PSoC4/CAN.c **** *  The value of the Error Capture register.
1534:Generated_Source\PSoC4/CAN.c **** *   Bit  Name          Values
1535:Generated_Source\PSoC4/CAN.c **** *    0    ECR_STATUS    0: The ECR register captured an error or it is a free
1536:Generated_Source\PSoC4/CAN.c **** *                          running mode
1537:Generated_Source\PSoC4/CAN.c **** *                       1: The ECR register is armed
1538:Generated_Source\PSoC4/CAN.c **** *   3:1   ERROR_TYPE    000 : Arbitration loss
1539:Generated_Source\PSoC4/CAN.c **** *                       001 : Bit Error
1540:Generated_Source\PSoC4/CAN.c **** *                       010 : Bit Stuffing Error
1541:Generated_Source\PSoC4/CAN.c **** *                       011 : Acknowledge Error
1542:Generated_Source\PSoC4/CAN.c **** *                       100 : Form Error
1543:Generated_Source\PSoC4/CAN.c **** *                       101 : CRC Error
1544:Generated_Source\PSoC4/CAN.c **** *                       Others : N/A
ARM GAS  C:\Users\RYANCA~1\AppData\Local\Temp\ccuGCfpb.s 			page 60


1545:Generated_Source\PSoC4/CAN.c **** *    4    TX_MODE       0: No status
1546:Generated_Source\PSoC4/CAN.c **** *                       1: CAN Controller is the transmitter
1547:Generated_Source\PSoC4/CAN.c **** *    5    RX_MODE       0: No status
1548:Generated_Source\PSoC4/CAN.c **** *                       1: CAN Controller is the receiver
1549:Generated_Source\PSoC4/CAN.c **** *  11:6   BIT           Bit number inside of Field
1550:Generated_Source\PSoC4/CAN.c **** *  12:16  Field         0x00 : Stopped
1551:Generated_Source\PSoC4/CAN.c **** *                       0x01 : Synchronize
1552:Generated_Source\PSoC4/CAN.c **** *                       0x05 : Interframe
1553:Generated_Source\PSoC4/CAN.c **** *                       0x06 : Bus Idle
1554:Generated_Source\PSoC4/CAN.c **** *                       0x07 : Start of Frame
1555:Generated_Source\PSoC4/CAN.c **** *                       0x08 : Arbitration
1556:Generated_Source\PSoC4/CAN.c **** *                       0x09 : Control
1557:Generated_Source\PSoC4/CAN.c **** *                       0x0A : Data
1558:Generated_Source\PSoC4/CAN.c **** *                       0x0B : CRC
1559:Generated_Source\PSoC4/CAN.c **** *                       0x0C : ACK
1560:Generated_Source\PSoC4/CAN.c **** *                       0x0D : End of frame
1561:Generated_Source\PSoC4/CAN.c **** *                       0x10 : Error flag
1562:Generated_Source\PSoC4/CAN.c **** *                       0x11 : Error echo
1563:Generated_Source\PSoC4/CAN.c **** *                       0x12 : Error delimiter
1564:Generated_Source\PSoC4/CAN.c **** *                       0x18 : Overload flag
1565:Generated_Source\PSoC4/CAN.c **** *                       0x19 : Overload echo
1566:Generated_Source\PSoC4/CAN.c **** *                       0x1A : Overload delimiter
1567:Generated_Source\PSoC4/CAN.c **** *                       Others : N/A
1568:Generated_Source\PSoC4/CAN.c **** *
1569:Generated_Source\PSoC4/CAN.c **** *******************************************************************************/
1570:Generated_Source\PSoC4/CAN.c **** uint32 CAN_ReadErrorCaptureRegister(void)
1571:Generated_Source\PSoC4/CAN.c **** {
 1690              		.loc 1 1571 0
 1691              		.cfi_startproc
 1692              		@ args = 0, pretend = 0, frame = 0
 1693              		@ frame_needed = 0, uses_anonymous_args = 0
 1694              		@ link register save eliminated.
1572:Generated_Source\PSoC4/CAN.c ****     return (CAN_ECR_REG);
 1695              		.loc 1 1572 0
 1696 0000 014B     		ldr	r3, .L157
1573:Generated_Source\PSoC4/CAN.c **** }
 1697              		.loc 1 1573 0
 1698              		@ sp needed
1572:Generated_Source\PSoC4/CAN.c ****     return (CAN_ECR_REG);
 1699              		.loc 1 1572 0
 1700 0002 1868     		ldr	r0, [r3]
 1701              		.loc 1 1573 0
 1702 0004 7047     		bx	lr
 1703              	.L158:
 1704 0006 C046     		.align	2
 1705              	.L157:
 1706 0008 18002F40 		.word	1076822040
 1707              		.cfi_endproc
 1708              	.LFE25:
 1709              		.size	CAN_ReadErrorCaptureRegister, .-CAN_ReadErrorCaptureRegister
 1710              		.section	.text.CAN_ArmErrorCaptureRegister,"ax",%progbits
 1711              		.align	1
 1712              		.global	CAN_ArmErrorCaptureRegister
 1713              		.code	16
 1714              		.thumb_func
 1715              		.type	CAN_ArmErrorCaptureRegister, %function
 1716              	CAN_ArmErrorCaptureRegister:
ARM GAS  C:\Users\RYANCA~1\AppData\Local\Temp\ccuGCfpb.s 			page 61


 1717              	.LFB26:
1574:Generated_Source\PSoC4/CAN.c **** 
1575:Generated_Source\PSoC4/CAN.c **** 
1576:Generated_Source\PSoC4/CAN.c **** /*******************************************************************************
1577:Generated_Source\PSoC4/CAN.c **** * FUNCTION NAME:   CAN_ArmErrorCaptureRegister
1578:Generated_Source\PSoC4/CAN.c **** ********************************************************************************
1579:Generated_Source\PSoC4/CAN.c **** *
1580:Generated_Source\PSoC4/CAN.c **** * Summary:
1581:Generated_Source\PSoC4/CAN.c **** *  This function arms the Error Capture register when the ECR is in the Error
1582:Generated_Source\PSoC4/CAN.c **** *  Capture mode, by setting the ECR_STATUS bit in the ECR register.
1583:Generated_Source\PSoC4/CAN.c **** *
1584:Generated_Source\PSoC4/CAN.c **** * Parameters:
1585:Generated_Source\PSoC4/CAN.c **** *  None.
1586:Generated_Source\PSoC4/CAN.c **** *
1587:Generated_Source\PSoC4/CAN.c **** * Return:
1588:Generated_Source\PSoC4/CAN.c **** *  The indication whether the register is written and verified.
1589:Generated_Source\PSoC4/CAN.c **** *   Define                             Description
1590:Generated_Source\PSoC4/CAN.c **** *    CYRET_SUCCESS                      The function passed successfully
1591:Generated_Source\PSoC4/CAN.c **** *    CAN_FAIL              The function failed
1592:Generated_Source\PSoC4/CAN.c **** *
1593:Generated_Source\PSoC4/CAN.c **** *******************************************************************************/
1594:Generated_Source\PSoC4/CAN.c **** uint8 CAN_ArmErrorCaptureRegister(void)
1595:Generated_Source\PSoC4/CAN.c **** {
 1718              		.loc 1 1595 0
 1719              		.cfi_startproc
 1720              		@ args = 0, pretend = 0, frame = 0
 1721              		@ frame_needed = 0, uses_anonymous_args = 0
 1722              		@ link register save eliminated.
 1723              	.LVL125:
1596:Generated_Source\PSoC4/CAN.c ****     uint8 result = CAN_FAIL;
1597:Generated_Source\PSoC4/CAN.c **** 
1598:Generated_Source\PSoC4/CAN.c ****     CAN_ECR_REG |= CAN_ECR_STATUS_ARM;
 1724              		.loc 1 1598 0
 1725 0000 0120     		movs	r0, #1
 1726 0002 034B     		ldr	r3, .L160
1599:Generated_Source\PSoC4/CAN.c **** 
1600:Generated_Source\PSoC4/CAN.c ****     /* Verify that bit is set */
1601:Generated_Source\PSoC4/CAN.c ****     if ((CAN_ECR_REG & CAN_ECR_STATUS_ARM) != 0u)
1602:Generated_Source\PSoC4/CAN.c ****     {
1603:Generated_Source\PSoC4/CAN.c ****         result = CYRET_SUCCESS;
1604:Generated_Source\PSoC4/CAN.c ****     }
1605:Generated_Source\PSoC4/CAN.c **** 
1606:Generated_Source\PSoC4/CAN.c ****     return (result);
1607:Generated_Source\PSoC4/CAN.c **** }
 1727              		.loc 1 1607 0
 1728              		@ sp needed
1598:Generated_Source\PSoC4/CAN.c **** 
 1729              		.loc 1 1598 0
 1730 0004 1A68     		ldr	r2, [r3]
 1731 0006 0243     		orrs	r2, r0
 1732 0008 1A60     		str	r2, [r3]
1601:Generated_Source\PSoC4/CAN.c ****     {
 1733              		.loc 1 1601 0
 1734 000a 1B68     		ldr	r3, [r3]
 1735              	.LVL126:
1606:Generated_Source\PSoC4/CAN.c **** }
 1736              		.loc 1 1606 0
ARM GAS  C:\Users\RYANCA~1\AppData\Local\Temp\ccuGCfpb.s 			page 62


 1737 000c 9843     		bics	r0, r3
 1738              		.loc 1 1607 0
 1739 000e 7047     		bx	lr
 1740              	.L161:
 1741              		.align	2
 1742              	.L160:
 1743 0010 18002F40 		.word	1076822040
 1744              		.cfi_endproc
 1745              	.LFE26:
 1746              		.size	CAN_ArmErrorCaptureRegister, .-CAN_ArmErrorCaptureRegister
 1747              		.global	CAN_initVar
 1748              		.section	.rodata
 1749              		.align	2
 1750              		.set	.LANCHOR0,. + 0
 1751              		.type	CAN_TXConfigStruct.4984, %object
 1752              		.size	CAN_TXConfigStruct.4984, 96
 1753              	CAN_TXConfigStruct.4984:
 1754 0000 00       		.byte	0
 1755 0001 000000   		.space	3
 1756 0004 00000100 		.word	65536
 1757 0008 0000001A 		.word	436207616
 1758 000c 01       		.byte	1
 1759 000d 000000   		.space	3
 1760 0010 00000000 		.word	0
 1761 0014 00000000 		.word	0
 1762 0018 02       		.byte	2
 1763 0019 000000   		.space	3
 1764 001c 00000000 		.word	0
 1765 0020 00000000 		.word	0
 1766 0024 03       		.byte	3
 1767 0025 000000   		.space	3
 1768 0028 00000000 		.word	0
 1769 002c 00000000 		.word	0
 1770 0030 04       		.byte	4
 1771 0031 000000   		.space	3
 1772 0034 00000000 		.word	0
 1773 0038 00000000 		.word	0
 1774 003c 05       		.byte	5
 1775 003d 000000   		.space	3
 1776 0040 00000000 		.word	0
 1777 0044 00000000 		.word	0
 1778 0048 06       		.byte	6
 1779 0049 000000   		.space	3
 1780 004c 00000000 		.word	0
 1781 0050 00000000 		.word	0
 1782 0054 07       		.byte	7
 1783 0055 000000   		.space	3
 1784 0058 00000000 		.word	0
 1785 005c 00000000 		.word	0
 1786              		.type	CAN_RXConfigStruct.4983, %object
 1787              		.size	CAN_RXConfigStruct.4983, 256
 1788              	CAN_RXConfigStruct.4983:
 1789 0060 00       		.byte	0
 1790 0061 000000   		.space	3
 1791 0064 28000000 		.word	40
 1792 0068 F9FF1F00 		.word	2097145
 1793 006c 0000C0EC 		.word	-322961408
ARM GAS  C:\Users\RYANCA~1\AppData\Local\Temp\ccuGCfpb.s 			page 63


 1794 0070 01       		.byte	1
 1795 0071 000000   		.space	3
 1796 0074 28000000 		.word	40
 1797 0078 F9FF1F00 		.word	2097145
 1798 007c 00000070 		.word	1879048192
 1799 0080 02       		.byte	2
 1800 0081 000000   		.space	3
 1801 0084 28000000 		.word	40
 1802 0088 F9FF1F00 		.word	2097145
 1803 008c 00002071 		.word	1897922560
 1804 0090 03       		.byte	3
 1805 0091 000000   		.space	3
 1806 0094 28000000 		.word	40
 1807 0098 F9FF1F00 		.word	2097145
 1808 009c 0000C0AC 		.word	-1396703232
 1809 00a0 04       		.byte	4
 1810 00a1 000000   		.space	3
 1811 00a4 28000000 		.word	40
 1812 00a8 F9FF1F00 		.word	2097145
 1813 00ac 0000C0CC 		.word	-859832320
 1814 00b0 05       		.byte	5
 1815 00b1 000000   		.space	3
 1816 00b4 28000000 		.word	40
 1817 00b8 F9FF1F00 		.word	2097145
 1818 00bc 0000E070 		.word	1893728256
 1819 00c0 06       		.byte	6
 1820 00c1 000000   		.space	3
 1821 00c4 A8008000 		.word	8388776
 1822 00c8 FFFFFFFF 		.word	-1
 1823 00cc 00000000 		.word	0
 1824 00d0 07       		.byte	7
 1825 00d1 000000   		.space	3
 1826 00d4 A8008000 		.word	8388776
 1827 00d8 FFFFFFFF 		.word	-1
 1828 00dc 00000000 		.word	0
 1829 00e0 08       		.byte	8
 1830 00e1 000000   		.space	3
 1831 00e4 A8008000 		.word	8388776
 1832 00e8 FFFFFFFF 		.word	-1
 1833 00ec 00000000 		.word	0
 1834 00f0 09       		.byte	9
 1835 00f1 000000   		.space	3
 1836 00f4 A8008000 		.word	8388776
 1837 00f8 FFFFFFFF 		.word	-1
 1838 00fc 00000000 		.word	0
 1839 0100 0A       		.byte	10
 1840 0101 000000   		.space	3
 1841 0104 A8008000 		.word	8388776
 1842 0108 FFFFFFFF 		.word	-1
 1843 010c 00000000 		.word	0
 1844 0110 0B       		.byte	11
 1845 0111 000000   		.space	3
 1846 0114 A8008000 		.word	8388776
 1847 0118 FFFFFFFF 		.word	-1
 1848 011c 00000000 		.word	0
 1849 0120 0C       		.byte	12
 1850 0121 000000   		.space	3
ARM GAS  C:\Users\RYANCA~1\AppData\Local\Temp\ccuGCfpb.s 			page 64


 1851 0124 A8008000 		.word	8388776
 1852 0128 FFFFFFFF 		.word	-1
 1853 012c 00000000 		.word	0
 1854 0130 0D       		.byte	13
 1855 0131 000000   		.space	3
 1856 0134 A8008000 		.word	8388776
 1857 0138 FFFFFFFF 		.word	-1
 1858 013c 00000000 		.word	0
 1859 0140 0E       		.byte	14
 1860 0141 000000   		.space	3
 1861 0144 A8008000 		.word	8388776
 1862 0148 FFFFFFFF 		.word	-1
 1863 014c 00000000 		.word	0
 1864 0150 0F       		.byte	15
 1865 0151 000000   		.space	3
 1866 0154 A8008000 		.word	8388776
 1867 0158 FFFFFFFF 		.word	-1
 1868 015c 00000000 		.word	0
 1869              		.bss
 1870              		.set	.LANCHOR1,. + 0
 1871              		.type	CAN_initVar, %object
 1872              		.size	CAN_initVar, 1
 1873              	CAN_initVar:
 1874 0000 00       		.space	1
 1875              		.text
 1876              	.Letext0:
 1877              		.file 2 "Generated_Source\\PSoC4\\cytypes.h"
 1878              		.file 3 "Generated_Source\\PSoC4\\CAN.h"
 1879              		.file 4 "Generated_Source\\PSoC4\\CyLib.h"
 1880              		.section	.debug_info,"",%progbits
 1881              	.Ldebug_info0:
 1882 0000 A60C0000 		.4byte	0xca6
 1883 0004 0400     		.2byte	0x4
 1884 0006 00000000 		.4byte	.Ldebug_abbrev0
 1885 000a 04       		.byte	0x4
 1886 000b 01       		.uleb128 0x1
 1887 000c B6020000 		.4byte	.LASF89
 1888 0010 0C       		.byte	0xc
 1889 0011 FA000000 		.4byte	.LASF90
 1890 0015 30000000 		.4byte	.LASF91
 1891 0019 98000000 		.4byte	.Ldebug_ranges0+0x98
 1892 001d 00000000 		.4byte	0
 1893 0021 00000000 		.4byte	.Ldebug_line0
 1894 0025 02       		.uleb128 0x2
 1895 0026 01       		.byte	0x1
 1896 0027 06       		.byte	0x6
 1897 0028 D0000000 		.4byte	.LASF0
 1898 002c 02       		.uleb128 0x2
 1899 002d 01       		.byte	0x1
 1900 002e 08       		.byte	0x8
 1901 002f C8030000 		.4byte	.LASF1
 1902 0033 02       		.uleb128 0x2
 1903 0034 02       		.byte	0x2
 1904 0035 05       		.byte	0x5
 1905 0036 D6030000 		.4byte	.LASF2
 1906 003a 02       		.uleb128 0x2
 1907 003b 02       		.byte	0x2
ARM GAS  C:\Users\RYANCA~1\AppData\Local\Temp\ccuGCfpb.s 			page 65


 1908 003c 07       		.byte	0x7
 1909 003d C9010000 		.4byte	.LASF3
 1910 0041 02       		.uleb128 0x2
 1911 0042 04       		.byte	0x4
 1912 0043 05       		.byte	0x5
 1913 0044 17010000 		.4byte	.LASF4
 1914 0048 02       		.uleb128 0x2
 1915 0049 04       		.byte	0x4
 1916 004a 07       		.byte	0x7
 1917 004b A1010000 		.4byte	.LASF5
 1918 004f 02       		.uleb128 0x2
 1919 0050 08       		.byte	0x8
 1920 0051 05       		.byte	0x5
 1921 0052 C2000000 		.4byte	.LASF6
 1922 0056 02       		.uleb128 0x2
 1923 0057 08       		.byte	0x8
 1924 0058 07       		.byte	0x7
 1925 0059 8A000000 		.4byte	.LASF7
 1926 005d 03       		.uleb128 0x3
 1927 005e 04       		.byte	0x4
 1928 005f 05       		.byte	0x5
 1929 0060 696E7400 		.ascii	"int\000"
 1930 0064 02       		.uleb128 0x2
 1931 0065 04       		.byte	0x4
 1932 0066 07       		.byte	0x7
 1933 0067 94010000 		.4byte	.LASF8
 1934 006b 04       		.uleb128 0x4
 1935 006c 34010000 		.4byte	.LASF9
 1936 0070 02       		.byte	0x2
 1937 0071 FC01     		.2byte	0x1fc
 1938 0073 2C000000 		.4byte	0x2c
 1939 0077 04       		.uleb128 0x4
 1940 0078 14000000 		.4byte	.LASF10
 1941 007c 02       		.byte	0x2
 1942 007d FD01     		.2byte	0x1fd
 1943 007f 3A000000 		.4byte	0x3a
 1944 0083 04       		.uleb128 0x4
 1945 0084 47010000 		.4byte	.LASF11
 1946 0088 02       		.byte	0x2
 1947 0089 FE01     		.2byte	0x1fe
 1948 008b 48000000 		.4byte	0x48
 1949 008f 02       		.uleb128 0x2
 1950 0090 04       		.byte	0x4
 1951 0091 04       		.byte	0x4
 1952 0092 A0030000 		.4byte	.LASF12
 1953 0096 02       		.uleb128 0x2
 1954 0097 08       		.byte	0x8
 1955 0098 04       		.byte	0x4
 1956 0099 40010000 		.4byte	.LASF13
 1957 009d 02       		.uleb128 0x2
 1958 009e 01       		.byte	0x1
 1959 009f 08       		.byte	0x8
 1960 00a0 49040000 		.4byte	.LASF14
 1961 00a4 04       		.uleb128 0x4
 1962 00a5 C3030000 		.4byte	.LASF15
 1963 00a9 02       		.byte	0x2
 1964 00aa A602     		.2byte	0x2a6
ARM GAS  C:\Users\RYANCA~1\AppData\Local\Temp\ccuGCfpb.s 			page 66


 1965 00ac B0000000 		.4byte	0xb0
 1966 00b0 05       		.uleb128 0x5
 1967 00b1 6B000000 		.4byte	0x6b
 1968 00b5 04       		.uleb128 0x4
 1969 00b6 65020000 		.4byte	.LASF16
 1970 00ba 02       		.byte	0x2
 1971 00bb A802     		.2byte	0x2a8
 1972 00bd C1000000 		.4byte	0xc1
 1973 00c1 05       		.uleb128 0x5
 1974 00c2 83000000 		.4byte	0x83
 1975 00c6 02       		.uleb128 0x2
 1976 00c7 08       		.byte	0x8
 1977 00c8 04       		.byte	0x4
 1978 00c9 A2020000 		.4byte	.LASF17
 1979 00cd 02       		.uleb128 0x2
 1980 00ce 04       		.byte	0x4
 1981 00cf 07       		.byte	0x7
 1982 00d0 99020000 		.4byte	.LASF18
 1983 00d4 06       		.uleb128 0x6
 1984 00d5 08       		.byte	0x8
 1985 00d6 03       		.byte	0x3
 1986 00d7 75       		.byte	0x75
 1987 00d8 E9000000 		.4byte	0xe9
 1988 00dc 07       		.uleb128 0x7
 1989 00dd 4E010000 		.4byte	.LASF20
 1990 00e1 03       		.byte	0x3
 1991 00e2 77       		.byte	0x77
 1992 00e3 F9000000 		.4byte	0xf9
 1993 00e7 00       		.byte	0
 1994 00e8 00       		.byte	0
 1995 00e9 08       		.uleb128 0x8
 1996 00ea A4000000 		.4byte	0xa4
 1997 00ee F9000000 		.4byte	0xf9
 1998 00f2 09       		.uleb128 0x9
 1999 00f3 CD000000 		.4byte	0xcd
 2000 00f7 07       		.byte	0x7
 2001 00f8 00       		.byte	0
 2002 00f9 05       		.uleb128 0x5
 2003 00fa E9000000 		.4byte	0xe9
 2004 00fe 0A       		.uleb128 0xa
 2005 00ff 94040000 		.4byte	.LASF19
 2006 0103 03       		.byte	0x3
 2007 0104 78       		.byte	0x78
 2008 0105 D4000000 		.4byte	0xd4
 2009 0109 06       		.uleb128 0x6
 2010 010a 04       		.byte	0x4
 2011 010b 03       		.byte	0x3
 2012 010c 7B       		.byte	0x7b
 2013 010d 1E010000 		.4byte	0x11e
 2014 0111 07       		.uleb128 0x7
 2015 0112 4E010000 		.4byte	.LASF20
 2016 0116 03       		.byte	0x3
 2017 0117 7D       		.byte	0x7d
 2018 0118 2E010000 		.4byte	0x12e
 2019 011c 00       		.byte	0
 2020 011d 00       		.byte	0
 2021 011e 08       		.uleb128 0x8
ARM GAS  C:\Users\RYANCA~1\AppData\Local\Temp\ccuGCfpb.s 			page 67


 2022 011f A4000000 		.4byte	0xa4
 2023 0123 2E010000 		.4byte	0x12e
 2024 0127 09       		.uleb128 0x9
 2025 0128 CD000000 		.4byte	0xcd
 2026 012c 03       		.byte	0x3
 2027 012d 00       		.byte	0
 2028 012e 05       		.uleb128 0x5
 2029 012f 1E010000 		.4byte	0x11e
 2030 0133 0A       		.uleb128 0xa
 2031 0134 8E020000 		.4byte	.LASF21
 2032 0138 03       		.byte	0x3
 2033 0139 7E       		.byte	0x7e
 2034 013a 09010000 		.4byte	0x109
 2035 013e 06       		.uleb128 0x6
 2036 013f 10       		.byte	0x10
 2037 0140 03       		.byte	0x3
 2038 0141 8F       		.byte	0x8f
 2039 0142 77010000 		.4byte	0x177
 2040 0146 07       		.uleb128 0x7
 2041 0147 84020000 		.4byte	.LASF22
 2042 014b 03       		.byte	0x3
 2043 014c 91       		.byte	0x91
 2044 014d 6B000000 		.4byte	0x6b
 2045 0151 00       		.byte	0
 2046 0152 07       		.uleb128 0x7
 2047 0153 D1040000 		.4byte	.LASF23
 2048 0157 03       		.byte	0x3
 2049 0158 92       		.byte	0x92
 2050 0159 83000000 		.4byte	0x83
 2051 015d 04       		.byte	0x4
 2052 015e 07       		.uleb128 0x7
 2053 015f 3A010000 		.4byte	.LASF24
 2054 0163 03       		.byte	0x3
 2055 0164 93       		.byte	0x93
 2056 0165 83000000 		.4byte	0x83
 2057 0169 08       		.byte	0x8
 2058 016a 07       		.uleb128 0x7
 2059 016b F5040000 		.4byte	.LASF25
 2060 016f 03       		.byte	0x3
 2061 0170 94       		.byte	0x94
 2062 0171 83000000 		.4byte	0x83
 2063 0175 0C       		.byte	0xc
 2064 0176 00       		.byte	0
 2065 0177 0A       		.uleb128 0xa
 2066 0178 20020000 		.4byte	.LASF26
 2067 017c 03       		.byte	0x3
 2068 017d 95       		.byte	0x95
 2069 017e 3E010000 		.4byte	0x13e
 2070 0182 06       		.uleb128 0x6
 2071 0183 0C       		.byte	0xc
 2072 0184 03       		.byte	0x3
 2073 0185 98       		.byte	0x98
 2074 0186 AF010000 		.4byte	0x1af
 2075 018a 07       		.uleb128 0x7
 2076 018b A3040000 		.4byte	.LASF27
 2077 018f 03       		.byte	0x3
 2078 0190 9A       		.byte	0x9a
ARM GAS  C:\Users\RYANCA~1\AppData\Local\Temp\ccuGCfpb.s 			page 68


 2079 0191 6B000000 		.4byte	0x6b
 2080 0195 00       		.byte	0
 2081 0196 07       		.uleb128 0x7
 2082 0197 A1000000 		.4byte	.LASF28
 2083 019b 03       		.byte	0x3
 2084 019c 9B       		.byte	0x9b
 2085 019d 83000000 		.4byte	0x83
 2086 01a1 04       		.byte	0x4
 2087 01a2 07       		.uleb128 0x7
 2088 01a3 F0040000 		.4byte	.LASF29
 2089 01a7 03       		.byte	0x3
 2090 01a8 9C       		.byte	0x9c
 2091 01a9 83000000 		.4byte	0x83
 2092 01ad 08       		.byte	0x8
 2093 01ae 00       		.byte	0
 2094 01af 0A       		.uleb128 0xa
 2095 01b0 0A050000 		.4byte	.LASF30
 2096 01b4 03       		.byte	0x3
 2097 01b5 9D       		.byte	0x9d
 2098 01b6 82010000 		.4byte	0x182
 2099 01ba 06       		.uleb128 0x6
 2100 01bb 20       		.byte	0x20
 2101 01bc 03       		.byte	0x3
 2102 01bd A0       		.byte	0xa0
 2103 01be 17020000 		.4byte	0x217
 2104 01c2 07       		.uleb128 0x7
 2105 01c3 D1040000 		.4byte	.LASF23
 2106 01c7 03       		.byte	0x3
 2107 01c8 A2       		.byte	0xa2
 2108 01c9 33010000 		.4byte	0x133
 2109 01cd 00       		.byte	0
 2110 01ce 07       		.uleb128 0x7
 2111 01cf 56030000 		.4byte	.LASF31
 2112 01d3 03       		.byte	0x3
 2113 01d4 A3       		.byte	0xa3
 2114 01d5 33010000 		.4byte	0x133
 2115 01d9 04       		.byte	0x4
 2116 01da 07       		.uleb128 0x7
 2117 01db 2D010000 		.4byte	.LASF32
 2118 01df 03       		.byte	0x3
 2119 01e0 A4       		.byte	0xa4
 2120 01e1 FE000000 		.4byte	0xfe
 2121 01e5 08       		.byte	0x8
 2122 01e6 07       		.uleb128 0x7
 2123 01e7 3A010000 		.4byte	.LASF24
 2124 01eb 03       		.byte	0x3
 2125 01ec A5       		.byte	0xa5
 2126 01ed 33010000 		.4byte	0x133
 2127 01f1 10       		.byte	0x10
 2128 01f2 07       		.uleb128 0x7
 2129 01f3 F5040000 		.4byte	.LASF25
 2130 01f7 03       		.byte	0x3
 2131 01f8 A6       		.byte	0xa6
 2132 01f9 33010000 		.4byte	0x133
 2133 01fd 14       		.byte	0x14
 2134 01fe 07       		.uleb128 0x7
 2135 01ff A7000000 		.4byte	.LASF33
ARM GAS  C:\Users\RYANCA~1\AppData\Local\Temp\ccuGCfpb.s 			page 69


 2136 0203 03       		.byte	0x3
 2137 0204 A7       		.byte	0xa7
 2138 0205 33010000 		.4byte	0x133
 2139 0209 18       		.byte	0x18
 2140 020a 07       		.uleb128 0x7
 2141 020b 03050000 		.4byte	.LASF34
 2142 020f 03       		.byte	0x3
 2143 0210 A8       		.byte	0xa8
 2144 0211 33010000 		.4byte	0x133
 2145 0215 1C       		.byte	0x1c
 2146 0216 00       		.byte	0
 2147 0217 0A       		.uleb128 0xa
 2148 0218 DC010000 		.4byte	.LASF35
 2149 021c 03       		.byte	0x3
 2150 021d A9       		.byte	0xa9
 2151 021e BA010000 		.4byte	0x1ba
 2152 0222 06       		.uleb128 0x6
 2153 0223 10       		.byte	0x10
 2154 0224 03       		.byte	0x3
 2155 0225 AC       		.byte	0xac
 2156 0226 4F020000 		.4byte	0x24f
 2157 022a 07       		.uleb128 0x7
 2158 022b A1000000 		.4byte	.LASF28
 2159 022f 03       		.byte	0x3
 2160 0230 AE       		.byte	0xae
 2161 0231 33010000 		.4byte	0x133
 2162 0235 00       		.byte	0
 2163 0236 07       		.uleb128 0x7
 2164 0237 F0040000 		.4byte	.LASF29
 2165 023b 03       		.byte	0x3
 2166 023c AF       		.byte	0xaf
 2167 023d 33010000 		.4byte	0x133
 2168 0241 04       		.byte	0x4
 2169 0242 07       		.uleb128 0x7
 2170 0243 5E020000 		.4byte	.LASF36
 2171 0247 03       		.byte	0x3
 2172 0248 B0       		.byte	0xb0
 2173 0249 FE000000 		.4byte	0xfe
 2174 024d 08       		.byte	0x8
 2175 024e 00       		.byte	0
 2176 024f 0A       		.uleb128 0xa
 2177 0250 0A040000 		.4byte	.LASF37
 2178 0254 03       		.byte	0x3
 2179 0255 B1       		.byte	0xb1
 2180 0256 22020000 		.4byte	0x222
 2181 025a 0B       		.uleb128 0xb
 2182 025b 38040000 		.4byte	.LASF38
 2183 025f 01       		.byte	0x1
 2184 0260 0702     		.2byte	0x207
 2185 0262 6B000000 		.4byte	0x6b
 2186 0266 01       		.byte	0x1
 2187 0267 84020000 		.4byte	0x284
 2188 026b 0C       		.uleb128 0xc
 2189 026c BA000000 		.4byte	.LASF40
 2190 0270 01       		.byte	0x1
 2191 0271 0702     		.2byte	0x207
 2192 0273 77000000 		.4byte	0x77
ARM GAS  C:\Users\RYANCA~1\AppData\Local\Temp\ccuGCfpb.s 			page 70


 2193 0277 0D       		.uleb128 0xd
 2194 0278 15050000 		.4byte	.LASF42
 2195 027c 01       		.byte	0x1
 2196 027d 0902     		.2byte	0x209
 2197 027f 6B000000 		.4byte	0x6b
 2198 0283 00       		.byte	0
 2199 0284 0B       		.uleb128 0xb
 2200 0285 32020000 		.4byte	.LASF39
 2201 0289 01       		.byte	0x1
 2202 028a 3F02     		.2byte	0x23f
 2203 028c 6B000000 		.4byte	0x6b
 2204 0290 01       		.byte	0x1
 2205 0291 AE020000 		.4byte	0x2ae
 2206 0295 0C       		.uleb128 0xc
 2207 0296 FB040000 		.4byte	.LASF41
 2208 029a 01       		.byte	0x1
 2209 029b 3F02     		.2byte	0x23f
 2210 029d 6B000000 		.4byte	0x6b
 2211 02a1 0D       		.uleb128 0xd
 2212 02a2 15050000 		.4byte	.LASF42
 2213 02a6 01       		.byte	0x1
 2214 02a7 4102     		.2byte	0x241
 2215 02a9 6B000000 		.4byte	0x6b
 2216 02ad 00       		.byte	0
 2217 02ae 0B       		.uleb128 0xb
 2218 02af BF040000 		.4byte	.LASF43
 2219 02b3 01       		.byte	0x1
 2220 02b4 8C02     		.2byte	0x28c
 2221 02b6 6B000000 		.4byte	0x6b
 2222 02ba 01       		.byte	0x1
 2223 02bb 07030000 		.4byte	0x307
 2224 02bf 0C       		.uleb128 0xc
 2225 02c0 AD040000 		.4byte	.LASF44
 2226 02c4 01       		.byte	0x1
 2227 02c5 8C02     		.2byte	0x28c
 2228 02c7 6B000000 		.4byte	0x6b
 2229 02cb 0C       		.uleb128 0xc
 2230 02cc B6040000 		.4byte	.LASF45
 2231 02d0 01       		.byte	0x1
 2232 02d1 8C02     		.2byte	0x28c
 2233 02d3 6B000000 		.4byte	0x6b
 2234 02d7 0E       		.uleb128 0xe
 2235 02d8 736A7700 		.ascii	"sjw\000"
 2236 02dc 01       		.byte	0x1
 2237 02dd 8C02     		.2byte	0x28c
 2238 02df 6B000000 		.4byte	0x6b
 2239 02e3 0E       		.uleb128 0xe
 2240 02e4 736D00   		.ascii	"sm\000"
 2241 02e7 01       		.byte	0x1
 2242 02e8 8C02     		.2byte	0x28c
 2243 02ea 6B000000 		.4byte	0x6b
 2244 02ee 0D       		.uleb128 0xd
 2245 02ef 15050000 		.4byte	.LASF42
 2246 02f3 01       		.byte	0x1
 2247 02f4 8F02     		.2byte	0x28f
 2248 02f6 6B000000 		.4byte	0x6b
 2249 02fa 0D       		.uleb128 0xd
ARM GAS  C:\Users\RYANCA~1\AppData\Local\Temp\ccuGCfpb.s 			page 71


 2250 02fb 7C020000 		.4byte	.LASF46
 2251 02ff 01       		.byte	0x1
 2252 0300 9002     		.2byte	0x290
 2253 0302 6B000000 		.4byte	0x6b
 2254 0306 00       		.byte	0
 2255 0307 0B       		.uleb128 0xb
 2256 0308 1C050000 		.4byte	.LASF47
 2257 030c 01       		.byte	0x1
 2258 030d 0103     		.2byte	0x301
 2259 030f 6B000000 		.4byte	0x6b
 2260 0313 01       		.byte	0x1
 2261 0314 31030000 		.4byte	0x331
 2262 0318 0C       		.uleb128 0xc
 2263 0319 1B000000 		.4byte	.LASF48
 2264 031d 01       		.byte	0x1
 2265 031e 0103     		.2byte	0x301
 2266 0320 6B000000 		.4byte	0x6b
 2267 0324 0D       		.uleb128 0xd
 2268 0325 15050000 		.4byte	.LASF42
 2269 0329 01       		.byte	0x1
 2270 032a 0303     		.2byte	0x303
 2271 032c 6B000000 		.4byte	0x6b
 2272 0330 00       		.byte	0
 2273 0331 0B       		.uleb128 0xb
 2274 0332 4E040000 		.4byte	.LASF49
 2275 0336 01       		.byte	0x1
 2276 0337 4B03     		.2byte	0x34b
 2277 0339 6B000000 		.4byte	0x6b
 2278 033d 01       		.byte	0x1
 2279 033e 5B030000 		.4byte	0x35b
 2280 0342 0C       		.uleb128 0xc
 2281 0343 21000000 		.4byte	.LASF50
 2282 0347 01       		.byte	0x1
 2283 0348 4B03     		.2byte	0x34b
 2284 034a 6B000000 		.4byte	0x6b
 2285 034e 0D       		.uleb128 0xd
 2286 034f 15050000 		.4byte	.LASF42
 2287 0353 01       		.byte	0x1
 2288 0354 4D03     		.2byte	0x34d
 2289 0356 6B000000 		.4byte	0x6b
 2290 035a 00       		.byte	0
 2291 035b 0B       		.uleb128 0xb
 2292 035c 6B010000 		.4byte	.LASF51
 2293 0360 01       		.byte	0x1
 2294 0361 9E05     		.2byte	0x59e
 2295 0363 6B000000 		.4byte	0x6b
 2296 0367 01       		.byte	0x1
 2297 0368 85030000 		.4byte	0x385
 2298 036c 0C       		.uleb128 0xc
 2299 036d 88030000 		.4byte	.LASF52
 2300 0371 01       		.byte	0x1
 2301 0372 9E05     		.2byte	0x59e
 2302 0374 6B000000 		.4byte	0x6b
 2303 0378 0D       		.uleb128 0xd
 2304 0379 15050000 		.4byte	.LASF42
 2305 037d 01       		.byte	0x1
 2306 037e A005     		.2byte	0x5a0
ARM GAS  C:\Users\RYANCA~1\AppData\Local\Temp\ccuGCfpb.s 			page 72


 2307 0380 6B000000 		.4byte	0x6b
 2308 0384 00       		.byte	0
 2309 0385 0F       		.uleb128 0xf
 2310 0386 6B020000 		.4byte	.LASF53
 2311 038a 01       		.byte	0x1
 2312 038b 89       		.byte	0x89
 2313 038c 6B000000 		.4byte	0x6b
 2314 0390 01       		.byte	0x1
 2315 0391 B7030000 		.4byte	0x3b7
 2316 0395 10       		.uleb128 0x10
 2317 0396 B3010000 		.4byte	.LASF54
 2318 039a 01       		.byte	0x1
 2319 039b 8B       		.byte	0x8b
 2320 039c 83000000 		.4byte	0x83
 2321 03a0 10       		.uleb128 0x10
 2322 03a1 15050000 		.4byte	.LASF42
 2323 03a5 01       		.byte	0x1
 2324 03a6 8C       		.byte	0x8c
 2325 03a7 6B000000 		.4byte	0x6b
 2326 03ab 10       		.uleb128 0x10
 2327 03ac 75040000 		.4byte	.LASF55
 2328 03b0 01       		.byte	0x1
 2329 03b1 8D       		.byte	0x8d
 2330 03b2 6B000000 		.4byte	0x6b
 2331 03b6 00       		.byte	0
 2332 03b7 11       		.uleb128 0x11
 2333 03b8 81000000 		.4byte	.LASF56
 2334 03bc 01       		.byte	0x1
 2335 03bd 6E01     		.2byte	0x16e
 2336 03bf 6B000000 		.4byte	0x6b
 2337 03c3 00000000 		.4byte	.LFB5
 2338 03c7 30000000 		.4byte	.LFE5-.LFB5
 2339 03cb 01       		.uleb128 0x1
 2340 03cc 9C       		.byte	0x9c
 2341 03cd 01040000 		.4byte	0x401
 2342 03d1 12       		.uleb128 0x12
 2343 03d2 B3010000 		.4byte	.LASF54
 2344 03d6 01       		.byte	0x1
 2345 03d7 7001     		.2byte	0x170
 2346 03d9 83000000 		.4byte	0x83
 2347 03dd 00000000 		.4byte	.LLST0
 2348 03e1 12       		.uleb128 0x12
 2349 03e2 15050000 		.4byte	.LASF42
 2350 03e6 01       		.byte	0x1
 2351 03e7 7101     		.2byte	0x171
 2352 03e9 6B000000 		.4byte	0x6b
 2353 03ed 39000000 		.4byte	.LLST1
 2354 03f1 13       		.uleb128 0x13
 2355 03f2 24000000 		.4byte	.LVL5
 2356 03f6 7D0C0000 		.4byte	0xc7d
 2357 03fa 14       		.uleb128 0x14
 2358 03fb 01       		.uleb128 0x1
 2359 03fc 50       		.byte	0x50
 2360 03fd 01       		.uleb128 0x1
 2361 03fe 4C       		.byte	0x4c
 2362 03ff 00       		.byte	0
 2363 0400 00       		.byte	0
ARM GAS  C:\Users\RYANCA~1\AppData\Local\Temp\ccuGCfpb.s 			page 73


 2364 0401 11       		.uleb128 0x11
 2365 0402 FD010000 		.4byte	.LASF57
 2366 0406 01       		.byte	0x1
 2367 0407 AB01     		.2byte	0x1ab
 2368 0409 6B000000 		.4byte	0x6b
 2369 040d 00000000 		.4byte	.LFB6
 2370 0411 14000000 		.4byte	.LFE6-.LFB6
 2371 0415 01       		.uleb128 0x1
 2372 0416 9C       		.byte	0x9c
 2373 0417 2C040000 		.4byte	0x42c
 2374 041b 12       		.uleb128 0x12
 2375 041c 15050000 		.4byte	.LASF42
 2376 0420 01       		.byte	0x1
 2377 0421 AD01     		.2byte	0x1ad
 2378 0423 6B000000 		.4byte	0x6b
 2379 0427 59000000 		.4byte	.LLST2
 2380 042b 00       		.byte	0
 2381 042c 15       		.uleb128 0x15
 2382 042d FF030000 		.4byte	.LASF58
 2383 0431 01       		.byte	0x1
 2384 0432 FE       		.byte	0xfe
 2385 0433 6B000000 		.4byte	0x6b
 2386 0437 00000000 		.4byte	.LFB3
 2387 043b 44000000 		.4byte	.LFE3-.LFB3
 2388 043f 01       		.uleb128 0x1
 2389 0440 9C       		.byte	0x9c
 2390 0441 7E040000 		.4byte	0x47e
 2391 0445 12       		.uleb128 0x12
 2392 0446 B3010000 		.4byte	.LASF54
 2393 044a 01       		.byte	0x1
 2394 044b 0001     		.2byte	0x100
 2395 044d 83000000 		.4byte	0x83
 2396 0451 7D000000 		.4byte	.LLST3
 2397 0455 12       		.uleb128 0x12
 2398 0456 15050000 		.4byte	.LASF42
 2399 045a 01       		.byte	0x1
 2400 045b 0101     		.2byte	0x101
 2401 045d 6B000000 		.4byte	0x6b
 2402 0461 B6000000 		.4byte	.LLST4
 2403 0465 16       		.uleb128 0x16
 2404 0466 0C000000 		.4byte	.LVL10
 2405 046a 01040000 		.4byte	0x401
 2406 046e 13       		.uleb128 0x13
 2407 046f 12000000 		.4byte	.LVL11
 2408 0473 880C0000 		.4byte	0xc88
 2409 0477 14       		.uleb128 0x14
 2410 0478 01       		.uleb128 0x1
 2411 0479 50       		.byte	0x50
 2412 047a 01       		.uleb128 0x1
 2413 047b 4C       		.byte	0x4c
 2414 047c 00       		.byte	0
 2415 047d 00       		.byte	0
 2416 047e 11       		.uleb128 0x11
 2417 047f DC000000 		.4byte	.LASF59
 2418 0483 01       		.byte	0x1
 2419 0484 D501     		.2byte	0x1d5
 2420 0486 6B000000 		.4byte	0x6b
ARM GAS  C:\Users\RYANCA~1\AppData\Local\Temp\ccuGCfpb.s 			page 74


 2421 048a 00000000 		.4byte	.LFB7
 2422 048e 14000000 		.4byte	.LFE7-.LFB7
 2423 0492 01       		.uleb128 0x1
 2424 0493 9C       		.byte	0x9c
 2425 0494 A9040000 		.4byte	0x4a9
 2426 0498 12       		.uleb128 0x12
 2427 0499 15050000 		.4byte	.LASF42
 2428 049d 01       		.byte	0x1
 2429 049e D701     		.2byte	0x1d7
 2430 04a0 6B000000 		.4byte	0x6b
 2431 04a4 D5000000 		.4byte	.LLST5
 2432 04a8 00       		.byte	0
 2433 04a9 17       		.uleb128 0x17
 2434 04aa 5A020000 		.4byte	0x25a
 2435 04ae 00000000 		.4byte	.LFB8
 2436 04b2 34000000 		.4byte	.LFE8-.LFB8
 2437 04b6 01       		.uleb128 0x1
 2438 04b7 9C       		.byte	0x9c
 2439 04b8 F5040000 		.4byte	0x4f5
 2440 04bc 18       		.uleb128 0x18
 2441 04bd 6B020000 		.4byte	0x26b
 2442 04c1 F4000000 		.4byte	.LLST6
 2443 04c5 19       		.uleb128 0x19
 2444 04c6 77020000 		.4byte	0x277
 2445 04ca 15010000 		.4byte	.LLST7
 2446 04ce 1A       		.uleb128 0x1a
 2447 04cf 08000000 		.4byte	.LBB24
 2448 04d3 10000000 		.4byte	.LBE24-.LBB24
 2449 04d7 18       		.uleb128 0x18
 2450 04d8 6B020000 		.4byte	0x26b
 2451 04dc 34010000 		.4byte	.LLST8
 2452 04e0 1A       		.uleb128 0x1a
 2453 04e1 08000000 		.4byte	.LBB25
 2454 04e5 10000000 		.4byte	.LBE25-.LBB25
 2455 04e9 19       		.uleb128 0x19
 2456 04ea 77020000 		.4byte	0x277
 2457 04ee 55010000 		.4byte	.LLST9
 2458 04f2 00       		.byte	0
 2459 04f3 00       		.byte	0
 2460 04f4 00       		.byte	0
 2461 04f5 17       		.uleb128 0x17
 2462 04f6 84020000 		.4byte	0x284
 2463 04fa 00000000 		.4byte	.LFB9
 2464 04fe 34000000 		.4byte	.LFE9-.LFB9
 2465 0502 01       		.uleb128 0x1
 2466 0503 9C       		.byte	0x9c
 2467 0504 35050000 		.4byte	0x535
 2468 0508 18       		.uleb128 0x18
 2469 0509 95020000 		.4byte	0x295
 2470 050d 69010000 		.4byte	.LLST10
 2471 0511 19       		.uleb128 0x19
 2472 0512 A1020000 		.4byte	0x2a1
 2473 0516 A3010000 		.4byte	.LLST11
 2474 051a 1B       		.uleb128 0x1b
 2475 051b 00000000 		.4byte	.Ldebug_ranges0+0
 2476 051f 18       		.uleb128 0x18
 2477 0520 95020000 		.4byte	0x295
ARM GAS  C:\Users\RYANCA~1\AppData\Local\Temp\ccuGCfpb.s 			page 75


 2478 0524 C2010000 		.4byte	.LLST12
 2479 0528 1B       		.uleb128 0x1b
 2480 0529 00000000 		.4byte	.Ldebug_ranges0+0
 2481 052d 1C       		.uleb128 0x1c
 2482 052e A1020000 		.4byte	0x2a1
 2483 0532 00       		.byte	0
 2484 0533 00       		.byte	0
 2485 0534 00       		.byte	0
 2486 0535 17       		.uleb128 0x17
 2487 0536 AE020000 		.4byte	0x2ae
 2488 053a 00000000 		.4byte	.LFB10
 2489 053e 80000000 		.4byte	.LFE10-.LFB10
 2490 0542 01       		.uleb128 0x1
 2491 0543 9C       		.byte	0x9c
 2492 0544 C1050000 		.4byte	0x5c1
 2493 0548 18       		.uleb128 0x18
 2494 0549 BF020000 		.4byte	0x2bf
 2495 054d D6010000 		.4byte	.LLST13
 2496 0551 18       		.uleb128 0x18
 2497 0552 CB020000 		.4byte	0x2cb
 2498 0556 F7010000 		.4byte	.LLST14
 2499 055a 18       		.uleb128 0x18
 2500 055b D7020000 		.4byte	0x2d7
 2501 055f 18020000 		.4byte	.LLST15
 2502 0563 18       		.uleb128 0x18
 2503 0564 E3020000 		.4byte	0x2e3
 2504 0568 39020000 		.4byte	.LLST16
 2505 056c 19       		.uleb128 0x19
 2506 056d EE020000 		.4byte	0x2ee
 2507 0571 5A020000 		.4byte	.LLST17
 2508 0575 19       		.uleb128 0x19
 2509 0576 FA020000 		.4byte	0x2fa
 2510 057a 85020000 		.4byte	.LLST18
 2511 057e 1A       		.uleb128 0x1a
 2512 057f 4E000000 		.4byte	.LBB36
 2513 0583 1C000000 		.4byte	.LBE36-.LBB36
 2514 0587 1D       		.uleb128 0x1d
 2515 0588 BF020000 		.4byte	0x2bf
 2516 058c 18       		.uleb128 0x18
 2517 058d E3020000 		.4byte	0x2e3
 2518 0591 A8020000 		.4byte	.LLST19
 2519 0595 18       		.uleb128 0x18
 2520 0596 D7020000 		.4byte	0x2d7
 2521 059a C9020000 		.4byte	.LLST20
 2522 059e 18       		.uleb128 0x18
 2523 059f CB020000 		.4byte	0x2cb
 2524 05a3 EA020000 		.4byte	.LLST21
 2525 05a7 1A       		.uleb128 0x1a
 2526 05a8 4E000000 		.4byte	.LBB37
 2527 05ac 1C000000 		.4byte	.LBE37-.LBB37
 2528 05b0 1C       		.uleb128 0x1c
 2529 05b1 EE020000 		.4byte	0x2ee
 2530 05b5 19       		.uleb128 0x19
 2531 05b6 FA020000 		.4byte	0x2fa
 2532 05ba 0B030000 		.4byte	.LLST22
 2533 05be 00       		.byte	0
 2534 05bf 00       		.byte	0
ARM GAS  C:\Users\RYANCA~1\AppData\Local\Temp\ccuGCfpb.s 			page 76


 2535 05c0 00       		.byte	0
 2536 05c1 17       		.uleb128 0x17
 2537 05c2 07030000 		.4byte	0x307
 2538 05c6 00000000 		.4byte	.LFB11
 2539 05ca 28000000 		.4byte	.LFE11-.LFB11
 2540 05ce 01       		.uleb128 0x1
 2541 05cf 9C       		.byte	0x9c
 2542 05d0 01060000 		.4byte	0x601
 2543 05d4 18       		.uleb128 0x18
 2544 05d5 18030000 		.4byte	0x318
 2545 05d9 67030000 		.4byte	.LLST23
 2546 05dd 19       		.uleb128 0x19
 2547 05de 24030000 		.4byte	0x324
 2548 05e2 A1030000 		.4byte	.LLST24
 2549 05e6 1B       		.uleb128 0x1b
 2550 05e7 20000000 		.4byte	.Ldebug_ranges0+0x20
 2551 05eb 18       		.uleb128 0x18
 2552 05ec 18030000 		.4byte	0x318
 2553 05f0 C0030000 		.4byte	.LLST25
 2554 05f4 1B       		.uleb128 0x1b
 2555 05f5 20000000 		.4byte	.Ldebug_ranges0+0x20
 2556 05f9 1C       		.uleb128 0x1c
 2557 05fa 24030000 		.4byte	0x324
 2558 05fe 00       		.byte	0
 2559 05ff 00       		.byte	0
 2560 0600 00       		.byte	0
 2561 0601 17       		.uleb128 0x17
 2562 0602 31030000 		.4byte	0x331
 2563 0606 00000000 		.4byte	.LFB12
 2564 060a 24000000 		.4byte	.LFE12-.LFB12
 2565 060e 01       		.uleb128 0x1
 2566 060f 9C       		.byte	0x9c
 2567 0610 41060000 		.4byte	0x641
 2568 0614 18       		.uleb128 0x18
 2569 0615 42030000 		.4byte	0x342
 2570 0619 D4030000 		.4byte	.LLST26
 2571 061d 19       		.uleb128 0x19
 2572 061e 4E030000 		.4byte	0x34e
 2573 0622 0E040000 		.4byte	.LLST27
 2574 0626 1B       		.uleb128 0x1b
 2575 0627 40000000 		.4byte	.Ldebug_ranges0+0x40
 2576 062b 18       		.uleb128 0x18
 2577 062c 42030000 		.4byte	0x342
 2578 0630 2D040000 		.4byte	.LLST28
 2579 0634 1B       		.uleb128 0x1b
 2580 0635 40000000 		.4byte	.Ldebug_ranges0+0x40
 2581 0639 1C       		.uleb128 0x1c
 2582 063a 4E030000 		.4byte	0x34e
 2583 063e 00       		.byte	0
 2584 063f 00       		.byte	0
 2585 0640 00       		.byte	0
 2586 0641 11       		.uleb128 0x11
 2587 0642 8D030000 		.4byte	.LASF60
 2588 0646 01       		.byte	0x1
 2589 0647 1A04     		.2byte	0x41a
 2590 0649 6B000000 		.4byte	0x6b
 2591 064d 00000000 		.4byte	.LFB14
ARM GAS  C:\Users\RYANCA~1\AppData\Local\Temp\ccuGCfpb.s 			page 77


 2592 0651 60000000 		.4byte	.LFE14-.LFB14
 2593 0655 01       		.uleb128 0x1
 2594 0656 9C       		.byte	0x9c
 2595 0657 D4060000 		.4byte	0x6d4
 2596 065b 1E       		.uleb128 0x1e
 2597 065c 74020000 		.4byte	.LASF61
 2598 0660 01       		.byte	0x1
 2599 0661 1A04     		.2byte	0x41a
 2600 0663 D4060000 		.4byte	0x6d4
 2601 0667 41040000 		.4byte	.LLST29
 2602 066b 1E       		.uleb128 0x1e
 2603 066c 5E040000 		.4byte	.LASF62
 2604 0670 01       		.byte	0x1
 2605 0671 1A04     		.2byte	0x41a
 2606 0673 83000000 		.4byte	0x83
 2607 0677 6D040000 		.4byte	.LLST30
 2608 067b 12       		.uleb128 0x12
 2609 067c 15050000 		.4byte	.LASF42
 2610 0680 01       		.byte	0x1
 2611 0681 1D04     		.2byte	0x41d
 2612 0683 6B000000 		.4byte	0x6b
 2613 0687 AF040000 		.4byte	.LLST31
 2614 068b 1F       		.uleb128 0x1f
 2615 068c 22000000 		.4byte	.LVL57
 2616 0690 7D0C0000 		.4byte	0xc7d
 2617 0694 9E060000 		.4byte	0x69e
 2618 0698 14       		.uleb128 0x14
 2619 0699 01       		.uleb128 0x1
 2620 069a 50       		.byte	0x50
 2621 069b 01       		.uleb128 0x1
 2622 069c 4C       		.byte	0x4c
 2623 069d 00       		.byte	0
 2624 069e 1F       		.uleb128 0x1f
 2625 069f 2A000000 		.4byte	.LVL58
 2626 06a3 880C0000 		.4byte	0xc88
 2627 06a7 B1060000 		.4byte	0x6b1
 2628 06ab 14       		.uleb128 0x14
 2629 06ac 01       		.uleb128 0x1
 2630 06ad 50       		.byte	0x50
 2631 06ae 01       		.uleb128 0x1
 2632 06af 4C       		.byte	0x4c
 2633 06b0 00       		.byte	0
 2634 06b1 1F       		.uleb128 0x1f
 2635 06b2 40000000 		.4byte	.LVL60
 2636 06b6 7D0C0000 		.4byte	0xc7d
 2637 06ba C4060000 		.4byte	0x6c4
 2638 06be 14       		.uleb128 0x14
 2639 06bf 01       		.uleb128 0x1
 2640 06c0 50       		.byte	0x50
 2641 06c1 01       		.uleb128 0x1
 2642 06c2 4C       		.byte	0x4c
 2643 06c3 00       		.byte	0
 2644 06c4 13       		.uleb128 0x13
 2645 06c5 48000000 		.4byte	.LVL61
 2646 06c9 880C0000 		.4byte	0xc88
 2647 06cd 14       		.uleb128 0x14
 2648 06ce 01       		.uleb128 0x1
ARM GAS  C:\Users\RYANCA~1\AppData\Local\Temp\ccuGCfpb.s 			page 78


 2649 06cf 50       		.byte	0x50
 2650 06d0 01       		.uleb128 0x1
 2651 06d1 4C       		.byte	0x4c
 2652 06d2 00       		.byte	0
 2653 06d3 00       		.byte	0
 2654 06d4 20       		.uleb128 0x20
 2655 06d5 04       		.byte	0x4
 2656 06d6 B5000000 		.4byte	0xb5
 2657 06da 11       		.uleb128 0x11
 2658 06db 85010000 		.4byte	.LASF63
 2659 06df 01       		.byte	0x1
 2660 06e0 7604     		.2byte	0x476
 2661 06e2 6B000000 		.4byte	0x6b
 2662 06e6 00000000 		.4byte	.LFB15
 2663 06ea 18000000 		.4byte	.LFE15-.LFB15
 2664 06ee 01       		.uleb128 0x1
 2665 06ef 9C       		.byte	0x9c
 2666 06f0 15070000 		.4byte	0x715
 2667 06f4 1E       		.uleb128 0x1e
 2668 06f5 53010000 		.4byte	.LASF64
 2669 06f9 01       		.byte	0x1
 2670 06fa 7604     		.2byte	0x476
 2671 06fc 77000000 		.4byte	0x77
 2672 0700 DA040000 		.4byte	.LLST32
 2673 0704 12       		.uleb128 0x12
 2674 0705 15050000 		.4byte	.LASF42
 2675 0709 01       		.byte	0x1
 2676 070a 7804     		.2byte	0x478
 2677 070c 6B000000 		.4byte	0x6b
 2678 0710 FB040000 		.4byte	.LLST33
 2679 0714 00       		.byte	0
 2680 0715 21       		.uleb128 0x21
 2681 0716 E0030000 		.4byte	.LASF65
 2682 071a 01       		.byte	0x1
 2683 071b A104     		.2byte	0x4a1
 2684 071d 6B000000 		.4byte	0x6b
 2685 0721 00000000 		.4byte	.LFB16
 2686 0725 10000000 		.4byte	.LFE16-.LFB16
 2687 0729 01       		.uleb128 0x1
 2688 072a 9C       		.byte	0x9c
 2689 072b 21       		.uleb128 0x21
 2690 072c 58010000 		.4byte	.LASF66
 2691 0730 01       		.byte	0x1
 2692 0731 BF04     		.2byte	0x4bf
 2693 0733 6B000000 		.4byte	0x6b
 2694 0737 00000000 		.4byte	.LFB17
 2695 073b 10000000 		.4byte	.LFE17-.LFB17
 2696 073f 01       		.uleb128 0x1
 2697 0740 9C       		.byte	0x9c
 2698 0741 21       		.uleb128 0x21
 2699 0742 41020000 		.4byte	.LASF67
 2700 0746 01       		.byte	0x1
 2701 0747 DC04     		.2byte	0x4dc
 2702 0749 6B000000 		.4byte	0x6b
 2703 074d 00000000 		.4byte	.LFB18
 2704 0751 0C000000 		.4byte	.LFE18-.LFB18
 2705 0755 01       		.uleb128 0x1
ARM GAS  C:\Users\RYANCA~1\AppData\Local\Temp\ccuGCfpb.s 			page 79


 2706 0756 9C       		.byte	0x9c
 2707 0757 21       		.uleb128 0x21
 2708 0758 00000000 		.4byte	.LASF68
 2709 075c 01       		.byte	0x1
 2710 075d F604     		.2byte	0x4f6
 2711 075f 6B000000 		.4byte	0x6b
 2712 0763 00000000 		.4byte	.LFB19
 2713 0767 10000000 		.4byte	.LFE19-.LFB19
 2714 076b 01       		.uleb128 0x1
 2715 076c 9C       		.byte	0x9c
 2716 076d 21       		.uleb128 0x21
 2717 076e 44030000 		.4byte	.LASF69
 2718 0772 01       		.byte	0x1
 2719 0773 1105     		.2byte	0x511
 2720 0775 6B000000 		.4byte	0x6b
 2721 0779 00000000 		.4byte	.LFB20
 2722 077d 10000000 		.4byte	.LFE20-.LFB20
 2723 0781 01       		.uleb128 0x1
 2724 0782 9C       		.byte	0x9c
 2725 0783 11       		.uleb128 0x11
 2726 0784 E0040000 		.4byte	.LASF70
 2727 0788 01       		.byte	0x1
 2728 0789 3005     		.2byte	0x530
 2729 078b 6B000000 		.4byte	0x6b
 2730 078f 00000000 		.4byte	.LFB21
 2731 0793 90000000 		.4byte	.LFE21-.LFB21
 2732 0797 01       		.uleb128 0x1
 2733 0798 9C       		.byte	0x9c
 2734 0799 BE070000 		.4byte	0x7be
 2735 079d 1E       		.uleb128 0x1e
 2736 079e 55020000 		.4byte	.LASF71
 2737 07a2 01       		.byte	0x1
 2738 07a3 3005     		.2byte	0x530
 2739 07a5 BE070000 		.4byte	0x7be
 2740 07a9 23050000 		.4byte	.LLST34
 2741 07ad 12       		.uleb128 0x12
 2742 07ae 15050000 		.4byte	.LASF42
 2743 07b2 01       		.byte	0x1
 2744 07b3 3305     		.2byte	0x533
 2745 07b5 6B000000 		.4byte	0x6b
 2746 07b9 5D050000 		.4byte	.LLST35
 2747 07bd 00       		.byte	0
 2748 07be 20       		.uleb128 0x20
 2749 07bf 04       		.byte	0x4
 2750 07c0 C4070000 		.4byte	0x7c4
 2751 07c4 22       		.uleb128 0x22
 2752 07c5 77010000 		.4byte	0x177
 2753 07c9 11       		.uleb128 0x11
 2754 07ca 65040000 		.4byte	.LASF72
 2755 07ce 01       		.byte	0x1
 2756 07cf 6905     		.2byte	0x569
 2757 07d1 6B000000 		.4byte	0x6b
 2758 07d5 00000000 		.4byte	.LFB22
 2759 07d9 58000000 		.4byte	.LFE22-.LFB22
 2760 07dd 01       		.uleb128 0x1
 2761 07de 9C       		.byte	0x9c
 2762 07df 04080000 		.4byte	0x804
ARM GAS  C:\Users\RYANCA~1\AppData\Local\Temp\ccuGCfpb.s 			page 80


 2763 07e3 1E       		.uleb128 0x1e
 2764 07e4 D7040000 		.4byte	.LASF73
 2765 07e8 01       		.byte	0x1
 2766 07e9 6905     		.2byte	0x569
 2767 07eb 04080000 		.4byte	0x804
 2768 07ef 7C050000 		.4byte	.LLST36
 2769 07f3 12       		.uleb128 0x12
 2770 07f4 15050000 		.4byte	.LASF42
 2771 07f8 01       		.byte	0x1
 2772 07f9 6C05     		.2byte	0x56c
 2773 07fb 6B000000 		.4byte	0x6b
 2774 07ff A8050000 		.4byte	.LLST37
 2775 0803 00       		.byte	0
 2776 0804 20       		.uleb128 0x20
 2777 0805 04       		.byte	0x4
 2778 0806 0A080000 		.4byte	0x80a
 2779 080a 22       		.uleb128 0x22
 2780 080b AF010000 		.4byte	0x1af
 2781 080f 15       		.uleb128 0x15
 2782 0810 6B000000 		.4byte	.LASF74
 2783 0814 01       		.byte	0x1
 2784 0815 2F       		.byte	0x2f
 2785 0816 6B000000 		.4byte	0x6b
 2786 081a 00000000 		.4byte	.LFB1
 2787 081e 38000000 		.4byte	.LFE1-.LFB1
 2788 0822 01       		.uleb128 0x1
 2789 0823 9C       		.byte	0x9c
 2790 0824 93080000 		.4byte	0x893
 2791 0828 23       		.uleb128 0x23
 2792 0829 EA010000 		.4byte	.LASF75
 2793 082d 01       		.byte	0x1
 2794 082e 32       		.byte	0x32
 2795 082f A3080000 		.4byte	0x8a3
 2796 0833 05       		.uleb128 0x5
 2797 0834 03       		.byte	0x3
 2798 0835 60000000 		.4byte	CAN_RXConfigStruct.4983
 2799 0839 23       		.uleb128 0x23
 2800 083a 81040000 		.4byte	.LASF76
 2801 083e 01       		.byte	0x1
 2802 083f 46       		.byte	0x46
 2803 0840 B8080000 		.4byte	0x8b8
 2804 0844 05       		.uleb128 0x5
 2805 0845 03       		.byte	0x3
 2806 0846 00000000 		.4byte	CAN_TXConfigStruct.4984
 2807 084a 24       		.uleb128 0x24
 2808 084b 15050000 		.4byte	.LASF42
 2809 084f 01       		.byte	0x1
 2810 0850 52       		.byte	0x52
 2811 0851 6B000000 		.4byte	0x6b
 2812 0855 C7050000 		.4byte	.LLST38
 2813 0859 25       		.uleb128 0x25
 2814 085a 6900     		.ascii	"i\000"
 2815 085c 01       		.byte	0x1
 2816 085d 53       		.byte	0x53
 2817 085e 6B000000 		.4byte	0x6b
 2818 0862 E6050000 		.4byte	.LLST39
 2819 0866 1F       		.uleb128 0x1f
ARM GAS  C:\Users\RYANCA~1\AppData\Local\Temp\ccuGCfpb.s 			page 81


 2820 0867 0C000000 		.4byte	.LVL80
 2821 086b C9070000 		.4byte	0x7c9
 2822 086f 7D080000 		.4byte	0x87d
 2823 0873 14       		.uleb128 0x14
 2824 0874 01       		.uleb128 0x1
 2825 0875 50       		.byte	0x50
 2826 0876 05       		.uleb128 0x5
 2827 0877 75       		.byte	0x75
 2828 0878 00       		.sleb128 0
 2829 0879 76       		.byte	0x76
 2830 087a 00       		.sleb128 0
 2831 087b 22       		.byte	0x22
 2832 087c 00       		.byte	0
 2833 087d 13       		.uleb128 0x13
 2834 087e 28000000 		.4byte	.LVL81
 2835 0882 83070000 		.4byte	0x783
 2836 0886 14       		.uleb128 0x14
 2837 0887 01       		.uleb128 0x1
 2838 0888 50       		.byte	0x50
 2839 0889 07       		.uleb128 0x7
 2840 088a 75       		.byte	0x75
 2841 088b 00       		.sleb128 0
 2842 088c 74       		.byte	0x74
 2843 088d 00       		.sleb128 0
 2844 088e 22       		.byte	0x22
 2845 088f 23       		.byte	0x23
 2846 0890 60       		.uleb128 0x60
 2847 0891 00       		.byte	0
 2848 0892 00       		.byte	0
 2849 0893 08       		.uleb128 0x8
 2850 0894 C4070000 		.4byte	0x7c4
 2851 0898 A3080000 		.4byte	0x8a3
 2852 089c 09       		.uleb128 0x9
 2853 089d CD000000 		.4byte	0xcd
 2854 08a1 0F       		.byte	0xf
 2855 08a2 00       		.byte	0
 2856 08a3 22       		.uleb128 0x22
 2857 08a4 93080000 		.4byte	0x893
 2858 08a8 08       		.uleb128 0x8
 2859 08a9 0A080000 		.4byte	0x80a
 2860 08ad B8080000 		.4byte	0x8b8
 2861 08b1 09       		.uleb128 0x9
 2862 08b2 CD000000 		.4byte	0xcd
 2863 08b6 07       		.byte	0x7
 2864 08b7 00       		.byte	0
 2865 08b8 22       		.uleb128 0x22
 2866 08b9 A8080000 		.4byte	0x8a8
 2867 08bd 17       		.uleb128 0x17
 2868 08be 85030000 		.4byte	0x385
 2869 08c2 00000000 		.4byte	.LFB2
 2870 08c6 F4000000 		.4byte	.LFE2-.LFB2
 2871 08ca 01       		.uleb128 0x1
 2872 08cb 9C       		.byte	0x9c
 2873 08cc 0D0B0000 		.4byte	0xb0d
 2874 08d0 19       		.uleb128 0x19
 2875 08d1 95030000 		.4byte	0x395
 2876 08d5 FA050000 		.4byte	.LLST40
ARM GAS  C:\Users\RYANCA~1\AppData\Local\Temp\ccuGCfpb.s 			page 82


 2877 08d9 19       		.uleb128 0x19
 2878 08da A0030000 		.4byte	0x3a0
 2879 08de 33060000 		.4byte	.LLST41
 2880 08e2 26       		.uleb128 0x26
 2881 08e3 AB030000 		.4byte	0x3ab
 2882 08e7 01       		.byte	0x1
 2883 08e8 1A       		.uleb128 0x1a
 2884 08e9 28000000 		.4byte	.LBB77
 2885 08ed A0000000 		.4byte	.LBE77-.LBB77
 2886 08f1 1C       		.uleb128 0x1c
 2887 08f2 95030000 		.4byte	0x395
 2888 08f6 1C       		.uleb128 0x1c
 2889 08f7 A0030000 		.4byte	0x3a0
 2890 08fb 19       		.uleb128 0x19
 2891 08fc AB030000 		.4byte	0x3ab
 2892 0900 47060000 		.4byte	.LLST42
 2893 0904 27       		.uleb128 0x27
 2894 0905 5A020000 		.4byte	0x25a
 2895 0909 2E000000 		.4byte	.LBB78
 2896 090d 60000000 		.4byte	.Ldebug_ranges0+0x60
 2897 0911 01       		.byte	0x1
 2898 0912 B9       		.byte	0xb9
 2899 0913 4E090000 		.4byte	0x94e
 2900 0917 18       		.uleb128 0x18
 2901 0918 6B020000 		.4byte	0x26b
 2902 091c 76060000 		.4byte	.LLST43
 2903 0920 1B       		.uleb128 0x1b
 2904 0921 60000000 		.4byte	.Ldebug_ranges0+0x60
 2905 0925 19       		.uleb128 0x19
 2906 0926 77020000 		.4byte	0x277
 2907 092a 8A060000 		.4byte	.LLST44
 2908 092e 1B       		.uleb128 0x1b
 2909 092f 60000000 		.4byte	.Ldebug_ranges0+0x60
 2910 0933 18       		.uleb128 0x18
 2911 0934 6B020000 		.4byte	0x26b
 2912 0938 76060000 		.4byte	.LLST43
 2913 093c 1B       		.uleb128 0x1b
 2914 093d 60000000 		.4byte	.Ldebug_ranges0+0x60
 2915 0941 19       		.uleb128 0x19
 2916 0942 77020000 		.4byte	0x277
 2917 0946 9E060000 		.4byte	.LLST46
 2918 094a 00       		.byte	0
 2919 094b 00       		.byte	0
 2920 094c 00       		.byte	0
 2921 094d 00       		.byte	0
 2922 094e 28       		.uleb128 0x28
 2923 094f 84020000 		.4byte	0x284
 2924 0953 58000000 		.4byte	.LBB86
 2925 0957 0E000000 		.4byte	.LBE86-.LBB86
 2926 095b 01       		.byte	0x1
 2927 095c BB       		.byte	0xbb
 2928 095d A0090000 		.4byte	0x9a0
 2929 0961 18       		.uleb128 0x18
 2930 0962 95020000 		.4byte	0x295
 2931 0966 B2060000 		.4byte	.LLST47
 2932 096a 1A       		.uleb128 0x1a
 2933 096b 58000000 		.4byte	.LBB87
ARM GAS  C:\Users\RYANCA~1\AppData\Local\Temp\ccuGCfpb.s 			page 83


 2934 096f 0E000000 		.4byte	.LBE87-.LBB87
 2935 0973 19       		.uleb128 0x19
 2936 0974 A1020000 		.4byte	0x2a1
 2937 0978 C6060000 		.4byte	.LLST48
 2938 097c 1A       		.uleb128 0x1a
 2939 097d 58000000 		.4byte	.LBB88
 2940 0981 0E000000 		.4byte	.LBE88-.LBB88
 2941 0985 18       		.uleb128 0x18
 2942 0986 95020000 		.4byte	0x295
 2943 098a B2060000 		.4byte	.LLST47
 2944 098e 1A       		.uleb128 0x1a
 2945 098f 58000000 		.4byte	.LBB89
 2946 0993 0E000000 		.4byte	.LBE89-.LBB89
 2947 0997 1C       		.uleb128 0x1c
 2948 0998 A1020000 		.4byte	0x2a1
 2949 099c 00       		.byte	0
 2950 099d 00       		.byte	0
 2951 099e 00       		.byte	0
 2952 099f 00       		.byte	0
 2953 09a0 28       		.uleb128 0x28
 2954 09a1 5B030000 		.4byte	0x35b
 2955 09a5 66000000 		.4byte	.LBB90
 2956 09a9 12000000 		.4byte	.LBE90-.LBB90
 2957 09ad 01       		.byte	0x1
 2958 09ae BE       		.byte	0xbe
 2959 09af F2090000 		.4byte	0x9f2
 2960 09b3 18       		.uleb128 0x18
 2961 09b4 6C030000 		.4byte	0x36c
 2962 09b8 DA060000 		.4byte	.LLST50
 2963 09bc 1A       		.uleb128 0x1a
 2964 09bd 66000000 		.4byte	.LBB91
 2965 09c1 12000000 		.4byte	.LBE91-.LBB91
 2966 09c5 19       		.uleb128 0x19
 2967 09c6 78030000 		.4byte	0x378
 2968 09ca EE060000 		.4byte	.LLST51
 2969 09ce 1A       		.uleb128 0x1a
 2970 09cf 66000000 		.4byte	.LBB92
 2971 09d3 12000000 		.4byte	.LBE92-.LBB92
 2972 09d7 18       		.uleb128 0x18
 2973 09d8 6C030000 		.4byte	0x36c
 2974 09dc DA060000 		.4byte	.LLST50
 2975 09e0 1A       		.uleb128 0x1a
 2976 09e1 66000000 		.4byte	.LBB93
 2977 09e5 12000000 		.4byte	.LBE93-.LBB93
 2978 09e9 1C       		.uleb128 0x1c
 2979 09ea 78030000 		.4byte	0x378
 2980 09ee 00       		.byte	0
 2981 09ef 00       		.byte	0
 2982 09f0 00       		.byte	0
 2983 09f1 00       		.byte	0
 2984 09f2 28       		.uleb128 0x28
 2985 09f3 07030000 		.4byte	0x307
 2986 09f7 86000000 		.4byte	.LBB94
 2987 09fb 0E000000 		.4byte	.LBE94-.LBB94
 2988 09ff 01       		.byte	0x1
 2989 0a00 C5       		.byte	0xc5
 2990 0a01 440A0000 		.4byte	0xa44
ARM GAS  C:\Users\RYANCA~1\AppData\Local\Temp\ccuGCfpb.s 			page 84


 2991 0a05 18       		.uleb128 0x18
 2992 0a06 18030000 		.4byte	0x318
 2993 0a0a 02070000 		.4byte	.LLST53
 2994 0a0e 1A       		.uleb128 0x1a
 2995 0a0f 86000000 		.4byte	.LBB95
 2996 0a13 0E000000 		.4byte	.LBE95-.LBB95
 2997 0a17 19       		.uleb128 0x19
 2998 0a18 24030000 		.4byte	0x324
 2999 0a1c 16070000 		.4byte	.LLST54
 3000 0a20 1A       		.uleb128 0x1a
 3001 0a21 86000000 		.4byte	.LBB96
 3002 0a25 0E000000 		.4byte	.LBE96-.LBB96
 3003 0a29 18       		.uleb128 0x18
 3004 0a2a 18030000 		.4byte	0x318
 3005 0a2e 02070000 		.4byte	.LLST53
 3006 0a32 1A       		.uleb128 0x1a
 3007 0a33 86000000 		.4byte	.LBB97
 3008 0a37 0E000000 		.4byte	.LBE97-.LBB97
 3009 0a3b 1C       		.uleb128 0x1c
 3010 0a3c 24030000 		.4byte	0x324
 3011 0a40 00       		.byte	0
 3012 0a41 00       		.byte	0
 3013 0a42 00       		.byte	0
 3014 0a43 00       		.byte	0
 3015 0a44 28       		.uleb128 0x28
 3016 0a45 31030000 		.4byte	0x331
 3017 0a49 94000000 		.4byte	.LBB98
 3018 0a4d 08000000 		.4byte	.LBE98-.LBB98
 3019 0a51 01       		.byte	0x1
 3020 0a52 C7       		.byte	0xc7
 3021 0a53 960A0000 		.4byte	0xa96
 3022 0a57 18       		.uleb128 0x18
 3023 0a58 42030000 		.4byte	0x342
 3024 0a5c 2A070000 		.4byte	.LLST56
 3025 0a60 1A       		.uleb128 0x1a
 3026 0a61 94000000 		.4byte	.LBB99
 3027 0a65 08000000 		.4byte	.LBE99-.LBB99
 3028 0a69 19       		.uleb128 0x19
 3029 0a6a 4E030000 		.4byte	0x34e
 3030 0a6e 3E070000 		.4byte	.LLST57
 3031 0a72 1A       		.uleb128 0x1a
 3032 0a73 94000000 		.4byte	.LBB100
 3033 0a77 08000000 		.4byte	.LBE100-.LBB100
 3034 0a7b 18       		.uleb128 0x18
 3035 0a7c 42030000 		.4byte	0x342
 3036 0a80 2A070000 		.4byte	.LLST56
 3037 0a84 1A       		.uleb128 0x1a
 3038 0a85 94000000 		.4byte	.LBB101
 3039 0a89 08000000 		.4byte	.LBE101-.LBB101
 3040 0a8d 1C       		.uleb128 0x1c
 3041 0a8e 4E030000 		.4byte	0x34e
 3042 0a92 00       		.byte	0
 3043 0a93 00       		.byte	0
 3044 0a94 00       		.byte	0
 3045 0a95 00       		.byte	0
 3046 0a96 1F       		.uleb128 0x1f
 3047 0a97 2E000000 		.4byte	.LVL87
ARM GAS  C:\Users\RYANCA~1\AppData\Local\Temp\ccuGCfpb.s 			page 85


 3048 0a9b 7D0C0000 		.4byte	0xc7d
 3049 0a9f A90A0000 		.4byte	0xaa9
 3050 0aa3 14       		.uleb128 0x14
 3051 0aa4 01       		.uleb128 0x1
 3052 0aa5 50       		.byte	0x50
 3053 0aa6 01       		.uleb128 0x1
 3054 0aa7 4C       		.byte	0x4c
 3055 0aa8 00       		.byte	0
 3056 0aa9 1F       		.uleb128 0x1f
 3057 0aaa 38000000 		.4byte	.LVL88
 3058 0aae 930C0000 		.4byte	0xc93
 3059 0ab2 BC0A0000 		.4byte	0xabc
 3060 0ab6 14       		.uleb128 0x14
 3061 0ab7 01       		.uleb128 0x1
 3062 0ab8 50       		.byte	0x50
 3063 0ab9 01       		.uleb128 0x1
 3064 0aba 4C       		.byte	0x4c
 3065 0abb 00       		.byte	0
 3066 0abc 1F       		.uleb128 0x1f
 3067 0abd 40000000 		.4byte	.LVL89
 3068 0ac1 9E0C0000 		.4byte	0xc9e
 3069 0ac5 D40A0000 		.4byte	0xad4
 3070 0ac9 14       		.uleb128 0x14
 3071 0aca 01       		.uleb128 0x1
 3072 0acb 50       		.byte	0x50
 3073 0acc 01       		.uleb128 0x1
 3074 0acd 4C       		.byte	0x4c
 3075 0ace 14       		.uleb128 0x14
 3076 0acf 01       		.uleb128 0x1
 3077 0ad0 51       		.byte	0x51
 3078 0ad1 01       		.uleb128 0x1
 3079 0ad2 33       		.byte	0x33
 3080 0ad3 00       		.byte	0
 3081 0ad4 1F       		.uleb128 0x1f
 3082 0ad5 82000000 		.4byte	.LVL93
 3083 0ad9 AE020000 		.4byte	0x2ae
 3084 0add F10A0000 		.4byte	0xaf1
 3085 0ae1 14       		.uleb128 0x14
 3086 0ae2 01       		.uleb128 0x1
 3087 0ae3 50       		.byte	0x50
 3088 0ae4 01       		.uleb128 0x1
 3089 0ae5 34       		.byte	0x34
 3090 0ae6 14       		.uleb128 0x14
 3091 0ae7 01       		.uleb128 0x1
 3092 0ae8 51       		.byte	0x51
 3093 0ae9 01       		.uleb128 0x1
 3094 0aea 33       		.byte	0x33
 3095 0aeb 14       		.uleb128 0x14
 3096 0aec 01       		.uleb128 0x1
 3097 0aed 52       		.byte	0x52
 3098 0aee 01       		.uleb128 0x1
 3099 0aef 33       		.byte	0x33
 3100 0af0 00       		.byte	0
 3101 0af1 16       		.uleb128 0x16
 3102 0af2 A4000000 		.4byte	.LVL98
 3103 0af6 0F080000 		.4byte	0x80f
 3104 0afa 13       		.uleb128 0x13
ARM GAS  C:\Users\RYANCA~1\AppData\Local\Temp\ccuGCfpb.s 			page 86


 3105 0afb AE000000 		.4byte	.LVL99
 3106 0aff DA060000 		.4byte	0x6da
 3107 0b03 14       		.uleb128 0x14
 3108 0b04 01       		.uleb128 0x1
 3109 0b05 50       		.byte	0x50
 3110 0b06 03       		.uleb128 0x3
 3111 0b07 0A       		.byte	0xa
 3112 0b08 0110     		.2byte	0x1001
 3113 0b0a 00       		.byte	0
 3114 0b0b 00       		.byte	0
 3115 0b0c 00       		.byte	0
 3116 0b0d 11       		.uleb128 0x11
 3117 0b0e 26000000 		.4byte	.LASF77
 3118 0b12 01       		.byte	0x1
 3119 0b13 4301     		.2byte	0x143
 3120 0b15 6B000000 		.4byte	0x6b
 3121 0b19 00000000 		.4byte	.LFB4
 3122 0b1d 24000000 		.4byte	.LFE4-.LFB4
 3123 0b21 01       		.uleb128 0x1
 3124 0b22 9C       		.byte	0x9c
 3125 0b23 4A0B0000 		.4byte	0xb4a
 3126 0b27 12       		.uleb128 0x12
 3127 0b28 15050000 		.4byte	.LASF42
 3128 0b2c 01       		.byte	0x1
 3129 0b2d 4501     		.2byte	0x145
 3130 0b2f 6B000000 		.4byte	0x6b
 3131 0b33 52070000 		.4byte	.LLST59
 3132 0b37 16       		.uleb128 0x16
 3133 0b38 14000000 		.4byte	.LVL104
 3134 0b3c 2C040000 		.4byte	0x42c
 3135 0b40 16       		.uleb128 0x16
 3136 0b41 1A000000 		.4byte	.LVL106
 3137 0b45 85030000 		.4byte	0x385
 3138 0b49 00       		.byte	0
 3139 0b4a 11       		.uleb128 0x11
 3140 0b4b BB010000 		.4byte	.LASF78
 3141 0b4f 01       		.byte	0x1
 3142 0b50 AA03     		.2byte	0x3aa
 3143 0b52 6B000000 		.4byte	0x6b
 3144 0b56 00000000 		.4byte	.LFB13
 3145 0b5a 58000000 		.4byte	.LFE13-.LFB13
 3146 0b5e 01       		.uleb128 0x1
 3147 0b5f 9C       		.byte	0x9c
 3148 0b60 B00B0000 		.4byte	0xbb0
 3149 0b64 1E       		.uleb128 0x1e
 3150 0b65 2B020000 		.4byte	.LASF79
 3151 0b69 01       		.byte	0x1
 3152 0b6a AA03     		.2byte	0x3aa
 3153 0b6c 6B000000 		.4byte	0x6b
 3154 0b70 88070000 		.4byte	.LLST60
 3155 0b74 12       		.uleb128 0x12
 3156 0b75 15050000 		.4byte	.LASF42
 3157 0b79 01       		.byte	0x1
 3158 0b7a AF03     		.2byte	0x3af
 3159 0b7c 6B000000 		.4byte	0x6b
 3160 0b80 A9070000 		.4byte	.LLST61
 3161 0b84 12       		.uleb128 0x12
ARM GAS  C:\Users\RYANCA~1\AppData\Local\Temp\ccuGCfpb.s 			page 87


 3162 0b85 F1000000 		.4byte	.LASF80
 3163 0b89 01       		.byte	0x1
 3164 0b8a B003     		.2byte	0x3b0
 3165 0b8c 6B000000 		.4byte	0x6b
 3166 0b90 D3070000 		.4byte	.LLST62
 3167 0b94 16       		.uleb128 0x16
 3168 0b95 1A000000 		.4byte	.LVL110
 3169 0b99 B7030000 		.4byte	0x3b7
 3170 0b9d 16       		.uleb128 0x16
 3171 0b9e 30000000 		.4byte	.LVL111
 3172 0ba2 85030000 		.4byte	0x385
 3173 0ba6 16       		.uleb128 0x16
 3174 0ba7 4A000000 		.4byte	.LVL112
 3175 0bab 2C040000 		.4byte	0x42c
 3176 0baf 00       		.byte	0
 3177 0bb0 17       		.uleb128 0x17
 3178 0bb1 5B030000 		.4byte	0x35b
 3179 0bb5 00000000 		.4byte	.LFB23
 3180 0bb9 34000000 		.4byte	.LFE23-.LFB23
 3181 0bbd 01       		.uleb128 0x1
 3182 0bbe 9C       		.byte	0x9c
 3183 0bbf F00B0000 		.4byte	0xbf0
 3184 0bc3 18       		.uleb128 0x18
 3185 0bc4 6C030000 		.4byte	0x36c
 3186 0bc8 F2070000 		.4byte	.LLST63
 3187 0bcc 19       		.uleb128 0x19
 3188 0bcd 78030000 		.4byte	0x378
 3189 0bd1 2C080000 		.4byte	.LLST64
 3190 0bd5 1B       		.uleb128 0x1b
 3191 0bd6 78000000 		.4byte	.Ldebug_ranges0+0x78
 3192 0bda 18       		.uleb128 0x18
 3193 0bdb 6C030000 		.4byte	0x36c
 3194 0bdf 4B080000 		.4byte	.LLST65
 3195 0be3 1B       		.uleb128 0x1b
 3196 0be4 78000000 		.4byte	.Ldebug_ranges0+0x78
 3197 0be8 1C       		.uleb128 0x1c
 3198 0be9 78030000 		.4byte	0x378
 3199 0bed 00       		.byte	0
 3200 0bee 00       		.byte	0
 3201 0bef 00       		.byte	0
 3202 0bf0 11       		.uleb128 0x11
 3203 0bf1 18040000 		.4byte	.LASF81
 3204 0bf5 01       		.byte	0x1
 3205 0bf6 D505     		.2byte	0x5d5
 3206 0bf8 6B000000 		.4byte	0x6b
 3207 0bfc 00000000 		.4byte	.LFB24
 3208 0c00 34000000 		.4byte	.LFE24-.LFB24
 3209 0c04 01       		.uleb128 0x1
 3210 0c05 9C       		.byte	0x9c
 3211 0c06 2B0C0000 		.4byte	0xc2b
 3212 0c0a 1E       		.uleb128 0x1e
 3213 0c0b AE020000 		.4byte	.LASF82
 3214 0c0f 01       		.byte	0x1
 3215 0c10 D505     		.2byte	0x5d5
 3216 0c12 6B000000 		.4byte	0x6b
 3217 0c16 5F080000 		.4byte	.LLST66
 3218 0c1a 12       		.uleb128 0x12
ARM GAS  C:\Users\RYANCA~1\AppData\Local\Temp\ccuGCfpb.s 			page 88


 3219 0c1b 15050000 		.4byte	.LASF42
 3220 0c1f 01       		.byte	0x1
 3221 0c20 D705     		.2byte	0x5d7
 3222 0c22 6B000000 		.4byte	0x6b
 3223 0c26 99080000 		.4byte	.LLST67
 3224 0c2a 00       		.byte	0
 3225 0c2b 21       		.uleb128 0x21
 3226 0c2c A6030000 		.4byte	.LASF83
 3227 0c30 01       		.byte	0x1
 3228 0c31 2206     		.2byte	0x622
 3229 0c33 83000000 		.4byte	0x83
 3230 0c37 00000000 		.4byte	.LFB25
 3231 0c3b 0C000000 		.4byte	.LFE25-.LFB25
 3232 0c3f 01       		.uleb128 0x1
 3233 0c40 9C       		.byte	0x9c
 3234 0c41 11       		.uleb128 0x11
 3235 0c42 5B030000 		.4byte	.LASF84
 3236 0c46 01       		.byte	0x1
 3237 0c47 3A06     		.2byte	0x63a
 3238 0c49 6B000000 		.4byte	0x6b
 3239 0c4d 00000000 		.4byte	.LFB26
 3240 0c51 14000000 		.4byte	.LFE26-.LFB26
 3241 0c55 01       		.uleb128 0x1
 3242 0c56 9C       		.byte	0x9c
 3243 0c57 6C0C0000 		.4byte	0xc6c
 3244 0c5b 12       		.uleb128 0x12
 3245 0c5c 15050000 		.4byte	.LASF42
 3246 0c60 01       		.byte	0x1
 3247 0c61 3C06     		.2byte	0x63c
 3248 0c63 6B000000 		.4byte	0x6b
 3249 0c67 B8080000 		.4byte	.LLST68
 3250 0c6b 00       		.byte	0
 3251 0c6c 29       		.uleb128 0x29
 3252 0c6d AE000000 		.4byte	.LASF92
 3253 0c71 01       		.byte	0x1
 3254 0c72 16       		.byte	0x16
 3255 0c73 6B000000 		.4byte	0x6b
 3256 0c77 05       		.uleb128 0x5
 3257 0c78 03       		.byte	0x3
 3258 0c79 00000000 		.4byte	CAN_initVar
 3259 0c7d 2A       		.uleb128 0x2a
 3260 0c7e 20010000 		.4byte	.LASF85
 3261 0c82 20010000 		.4byte	.LASF85
 3262 0c86 04       		.byte	0x4
 3263 0c87 D8       		.byte	0xd8
 3264 0c88 2A       		.uleb128 0x2a
 3265 0c89 F3030000 		.4byte	.LASF86
 3266 0c8d F3030000 		.4byte	.LASF86
 3267 0c91 04       		.byte	0x4
 3268 0c92 D6       		.byte	0xd6
 3269 0c93 2A       		.uleb128 0x2a
 3270 0c94 11020000 		.4byte	.LASF87
 3271 0c98 11020000 		.4byte	.LASF87
 3272 0c9c 04       		.byte	0x4
 3273 0c9d D0       		.byte	0xd0
 3274 0c9e 2A       		.uleb128 0x2a
 3275 0c9f 77030000 		.4byte	.LASF88
ARM GAS  C:\Users\RYANCA~1\AppData\Local\Temp\ccuGCfpb.s 			page 89


 3276 0ca3 77030000 		.4byte	.LASF88
 3277 0ca7 04       		.byte	0x4
 3278 0ca8 D3       		.byte	0xd3
 3279 0ca9 00       		.byte	0
 3280              		.section	.debug_abbrev,"",%progbits
 3281              	.Ldebug_abbrev0:
 3282 0000 01       		.uleb128 0x1
 3283 0001 11       		.uleb128 0x11
 3284 0002 01       		.byte	0x1
 3285 0003 25       		.uleb128 0x25
 3286 0004 0E       		.uleb128 0xe
 3287 0005 13       		.uleb128 0x13
 3288 0006 0B       		.uleb128 0xb
 3289 0007 03       		.uleb128 0x3
 3290 0008 0E       		.uleb128 0xe
 3291 0009 1B       		.uleb128 0x1b
 3292 000a 0E       		.uleb128 0xe
 3293 000b 55       		.uleb128 0x55
 3294 000c 17       		.uleb128 0x17
 3295 000d 11       		.uleb128 0x11
 3296 000e 01       		.uleb128 0x1
 3297 000f 10       		.uleb128 0x10
 3298 0010 17       		.uleb128 0x17
 3299 0011 00       		.byte	0
 3300 0012 00       		.byte	0
 3301 0013 02       		.uleb128 0x2
 3302 0014 24       		.uleb128 0x24
 3303 0015 00       		.byte	0
 3304 0016 0B       		.uleb128 0xb
 3305 0017 0B       		.uleb128 0xb
 3306 0018 3E       		.uleb128 0x3e
 3307 0019 0B       		.uleb128 0xb
 3308 001a 03       		.uleb128 0x3
 3309 001b 0E       		.uleb128 0xe
 3310 001c 00       		.byte	0
 3311 001d 00       		.byte	0
 3312 001e 03       		.uleb128 0x3
 3313 001f 24       		.uleb128 0x24
 3314 0020 00       		.byte	0
 3315 0021 0B       		.uleb128 0xb
 3316 0022 0B       		.uleb128 0xb
 3317 0023 3E       		.uleb128 0x3e
 3318 0024 0B       		.uleb128 0xb
 3319 0025 03       		.uleb128 0x3
 3320 0026 08       		.uleb128 0x8
 3321 0027 00       		.byte	0
 3322 0028 00       		.byte	0
 3323 0029 04       		.uleb128 0x4
 3324 002a 16       		.uleb128 0x16
 3325 002b 00       		.byte	0
 3326 002c 03       		.uleb128 0x3
 3327 002d 0E       		.uleb128 0xe
 3328 002e 3A       		.uleb128 0x3a
 3329 002f 0B       		.uleb128 0xb
 3330 0030 3B       		.uleb128 0x3b
 3331 0031 05       		.uleb128 0x5
 3332 0032 49       		.uleb128 0x49
ARM GAS  C:\Users\RYANCA~1\AppData\Local\Temp\ccuGCfpb.s 			page 90


 3333 0033 13       		.uleb128 0x13
 3334 0034 00       		.byte	0
 3335 0035 00       		.byte	0
 3336 0036 05       		.uleb128 0x5
 3337 0037 35       		.uleb128 0x35
 3338 0038 00       		.byte	0
 3339 0039 49       		.uleb128 0x49
 3340 003a 13       		.uleb128 0x13
 3341 003b 00       		.byte	0
 3342 003c 00       		.byte	0
 3343 003d 06       		.uleb128 0x6
 3344 003e 13       		.uleb128 0x13
 3345 003f 01       		.byte	0x1
 3346 0040 0B       		.uleb128 0xb
 3347 0041 0B       		.uleb128 0xb
 3348 0042 3A       		.uleb128 0x3a
 3349 0043 0B       		.uleb128 0xb
 3350 0044 3B       		.uleb128 0x3b
 3351 0045 0B       		.uleb128 0xb
 3352 0046 01       		.uleb128 0x1
 3353 0047 13       		.uleb128 0x13
 3354 0048 00       		.byte	0
 3355 0049 00       		.byte	0
 3356 004a 07       		.uleb128 0x7
 3357 004b 0D       		.uleb128 0xd
 3358 004c 00       		.byte	0
 3359 004d 03       		.uleb128 0x3
 3360 004e 0E       		.uleb128 0xe
 3361 004f 3A       		.uleb128 0x3a
 3362 0050 0B       		.uleb128 0xb
 3363 0051 3B       		.uleb128 0x3b
 3364 0052 0B       		.uleb128 0xb
 3365 0053 49       		.uleb128 0x49
 3366 0054 13       		.uleb128 0x13
 3367 0055 38       		.uleb128 0x38
 3368 0056 0B       		.uleb128 0xb
 3369 0057 00       		.byte	0
 3370 0058 00       		.byte	0
 3371 0059 08       		.uleb128 0x8
 3372 005a 01       		.uleb128 0x1
 3373 005b 01       		.byte	0x1
 3374 005c 49       		.uleb128 0x49
 3375 005d 13       		.uleb128 0x13
 3376 005e 01       		.uleb128 0x1
 3377 005f 13       		.uleb128 0x13
 3378 0060 00       		.byte	0
 3379 0061 00       		.byte	0
 3380 0062 09       		.uleb128 0x9
 3381 0063 21       		.uleb128 0x21
 3382 0064 00       		.byte	0
 3383 0065 49       		.uleb128 0x49
 3384 0066 13       		.uleb128 0x13
 3385 0067 2F       		.uleb128 0x2f
 3386 0068 0B       		.uleb128 0xb
 3387 0069 00       		.byte	0
 3388 006a 00       		.byte	0
 3389 006b 0A       		.uleb128 0xa
ARM GAS  C:\Users\RYANCA~1\AppData\Local\Temp\ccuGCfpb.s 			page 91


 3390 006c 16       		.uleb128 0x16
 3391 006d 00       		.byte	0
 3392 006e 03       		.uleb128 0x3
 3393 006f 0E       		.uleb128 0xe
 3394 0070 3A       		.uleb128 0x3a
 3395 0071 0B       		.uleb128 0xb
 3396 0072 3B       		.uleb128 0x3b
 3397 0073 0B       		.uleb128 0xb
 3398 0074 49       		.uleb128 0x49
 3399 0075 13       		.uleb128 0x13
 3400 0076 00       		.byte	0
 3401 0077 00       		.byte	0
 3402 0078 0B       		.uleb128 0xb
 3403 0079 2E       		.uleb128 0x2e
 3404 007a 01       		.byte	0x1
 3405 007b 3F       		.uleb128 0x3f
 3406 007c 19       		.uleb128 0x19
 3407 007d 03       		.uleb128 0x3
 3408 007e 0E       		.uleb128 0xe
 3409 007f 3A       		.uleb128 0x3a
 3410 0080 0B       		.uleb128 0xb
 3411 0081 3B       		.uleb128 0x3b
 3412 0082 05       		.uleb128 0x5
 3413 0083 27       		.uleb128 0x27
 3414 0084 19       		.uleb128 0x19
 3415 0085 49       		.uleb128 0x49
 3416 0086 13       		.uleb128 0x13
 3417 0087 20       		.uleb128 0x20
 3418 0088 0B       		.uleb128 0xb
 3419 0089 01       		.uleb128 0x1
 3420 008a 13       		.uleb128 0x13
 3421 008b 00       		.byte	0
 3422 008c 00       		.byte	0
 3423 008d 0C       		.uleb128 0xc
 3424 008e 05       		.uleb128 0x5
 3425 008f 00       		.byte	0
 3426 0090 03       		.uleb128 0x3
 3427 0091 0E       		.uleb128 0xe
 3428 0092 3A       		.uleb128 0x3a
 3429 0093 0B       		.uleb128 0xb
 3430 0094 3B       		.uleb128 0x3b
 3431 0095 05       		.uleb128 0x5
 3432 0096 49       		.uleb128 0x49
 3433 0097 13       		.uleb128 0x13
 3434 0098 00       		.byte	0
 3435 0099 00       		.byte	0
 3436 009a 0D       		.uleb128 0xd
 3437 009b 34       		.uleb128 0x34
 3438 009c 00       		.byte	0
 3439 009d 03       		.uleb128 0x3
 3440 009e 0E       		.uleb128 0xe
 3441 009f 3A       		.uleb128 0x3a
 3442 00a0 0B       		.uleb128 0xb
 3443 00a1 3B       		.uleb128 0x3b
 3444 00a2 05       		.uleb128 0x5
 3445 00a3 49       		.uleb128 0x49
 3446 00a4 13       		.uleb128 0x13
ARM GAS  C:\Users\RYANCA~1\AppData\Local\Temp\ccuGCfpb.s 			page 92


 3447 00a5 00       		.byte	0
 3448 00a6 00       		.byte	0
 3449 00a7 0E       		.uleb128 0xe
 3450 00a8 05       		.uleb128 0x5
 3451 00a9 00       		.byte	0
 3452 00aa 03       		.uleb128 0x3
 3453 00ab 08       		.uleb128 0x8
 3454 00ac 3A       		.uleb128 0x3a
 3455 00ad 0B       		.uleb128 0xb
 3456 00ae 3B       		.uleb128 0x3b
 3457 00af 05       		.uleb128 0x5
 3458 00b0 49       		.uleb128 0x49
 3459 00b1 13       		.uleb128 0x13
 3460 00b2 00       		.byte	0
 3461 00b3 00       		.byte	0
 3462 00b4 0F       		.uleb128 0xf
 3463 00b5 2E       		.uleb128 0x2e
 3464 00b6 01       		.byte	0x1
 3465 00b7 3F       		.uleb128 0x3f
 3466 00b8 19       		.uleb128 0x19
 3467 00b9 03       		.uleb128 0x3
 3468 00ba 0E       		.uleb128 0xe
 3469 00bb 3A       		.uleb128 0x3a
 3470 00bc 0B       		.uleb128 0xb
 3471 00bd 3B       		.uleb128 0x3b
 3472 00be 0B       		.uleb128 0xb
 3473 00bf 27       		.uleb128 0x27
 3474 00c0 19       		.uleb128 0x19
 3475 00c1 49       		.uleb128 0x49
 3476 00c2 13       		.uleb128 0x13
 3477 00c3 20       		.uleb128 0x20
 3478 00c4 0B       		.uleb128 0xb
 3479 00c5 01       		.uleb128 0x1
 3480 00c6 13       		.uleb128 0x13
 3481 00c7 00       		.byte	0
 3482 00c8 00       		.byte	0
 3483 00c9 10       		.uleb128 0x10
 3484 00ca 34       		.uleb128 0x34
 3485 00cb 00       		.byte	0
 3486 00cc 03       		.uleb128 0x3
 3487 00cd 0E       		.uleb128 0xe
 3488 00ce 3A       		.uleb128 0x3a
 3489 00cf 0B       		.uleb128 0xb
 3490 00d0 3B       		.uleb128 0x3b
 3491 00d1 0B       		.uleb128 0xb
 3492 00d2 49       		.uleb128 0x49
 3493 00d3 13       		.uleb128 0x13
 3494 00d4 00       		.byte	0
 3495 00d5 00       		.byte	0
 3496 00d6 11       		.uleb128 0x11
 3497 00d7 2E       		.uleb128 0x2e
 3498 00d8 01       		.byte	0x1
 3499 00d9 3F       		.uleb128 0x3f
 3500 00da 19       		.uleb128 0x19
 3501 00db 03       		.uleb128 0x3
 3502 00dc 0E       		.uleb128 0xe
 3503 00dd 3A       		.uleb128 0x3a
ARM GAS  C:\Users\RYANCA~1\AppData\Local\Temp\ccuGCfpb.s 			page 93


 3504 00de 0B       		.uleb128 0xb
 3505 00df 3B       		.uleb128 0x3b
 3506 00e0 05       		.uleb128 0x5
 3507 00e1 27       		.uleb128 0x27
 3508 00e2 19       		.uleb128 0x19
 3509 00e3 49       		.uleb128 0x49
 3510 00e4 13       		.uleb128 0x13
 3511 00e5 11       		.uleb128 0x11
 3512 00e6 01       		.uleb128 0x1
 3513 00e7 12       		.uleb128 0x12
 3514 00e8 06       		.uleb128 0x6
 3515 00e9 40       		.uleb128 0x40
 3516 00ea 18       		.uleb128 0x18
 3517 00eb 9742     		.uleb128 0x2117
 3518 00ed 19       		.uleb128 0x19
 3519 00ee 01       		.uleb128 0x1
 3520 00ef 13       		.uleb128 0x13
 3521 00f0 00       		.byte	0
 3522 00f1 00       		.byte	0
 3523 00f2 12       		.uleb128 0x12
 3524 00f3 34       		.uleb128 0x34
 3525 00f4 00       		.byte	0
 3526 00f5 03       		.uleb128 0x3
 3527 00f6 0E       		.uleb128 0xe
 3528 00f7 3A       		.uleb128 0x3a
 3529 00f8 0B       		.uleb128 0xb
 3530 00f9 3B       		.uleb128 0x3b
 3531 00fa 05       		.uleb128 0x5
 3532 00fb 49       		.uleb128 0x49
 3533 00fc 13       		.uleb128 0x13
 3534 00fd 02       		.uleb128 0x2
 3535 00fe 17       		.uleb128 0x17
 3536 00ff 00       		.byte	0
 3537 0100 00       		.byte	0
 3538 0101 13       		.uleb128 0x13
 3539 0102 898201   		.uleb128 0x4109
 3540 0105 01       		.byte	0x1
 3541 0106 11       		.uleb128 0x11
 3542 0107 01       		.uleb128 0x1
 3543 0108 31       		.uleb128 0x31
 3544 0109 13       		.uleb128 0x13
 3545 010a 00       		.byte	0
 3546 010b 00       		.byte	0
 3547 010c 14       		.uleb128 0x14
 3548 010d 8A8201   		.uleb128 0x410a
 3549 0110 00       		.byte	0
 3550 0111 02       		.uleb128 0x2
 3551 0112 18       		.uleb128 0x18
 3552 0113 9142     		.uleb128 0x2111
 3553 0115 18       		.uleb128 0x18
 3554 0116 00       		.byte	0
 3555 0117 00       		.byte	0
 3556 0118 15       		.uleb128 0x15
 3557 0119 2E       		.uleb128 0x2e
 3558 011a 01       		.byte	0x1
 3559 011b 3F       		.uleb128 0x3f
 3560 011c 19       		.uleb128 0x19
ARM GAS  C:\Users\RYANCA~1\AppData\Local\Temp\ccuGCfpb.s 			page 94


 3561 011d 03       		.uleb128 0x3
 3562 011e 0E       		.uleb128 0xe
 3563 011f 3A       		.uleb128 0x3a
 3564 0120 0B       		.uleb128 0xb
 3565 0121 3B       		.uleb128 0x3b
 3566 0122 0B       		.uleb128 0xb
 3567 0123 27       		.uleb128 0x27
 3568 0124 19       		.uleb128 0x19
 3569 0125 49       		.uleb128 0x49
 3570 0126 13       		.uleb128 0x13
 3571 0127 11       		.uleb128 0x11
 3572 0128 01       		.uleb128 0x1
 3573 0129 12       		.uleb128 0x12
 3574 012a 06       		.uleb128 0x6
 3575 012b 40       		.uleb128 0x40
 3576 012c 18       		.uleb128 0x18
 3577 012d 9742     		.uleb128 0x2117
 3578 012f 19       		.uleb128 0x19
 3579 0130 01       		.uleb128 0x1
 3580 0131 13       		.uleb128 0x13
 3581 0132 00       		.byte	0
 3582 0133 00       		.byte	0
 3583 0134 16       		.uleb128 0x16
 3584 0135 898201   		.uleb128 0x4109
 3585 0138 00       		.byte	0
 3586 0139 11       		.uleb128 0x11
 3587 013a 01       		.uleb128 0x1
 3588 013b 31       		.uleb128 0x31
 3589 013c 13       		.uleb128 0x13
 3590 013d 00       		.byte	0
 3591 013e 00       		.byte	0
 3592 013f 17       		.uleb128 0x17
 3593 0140 2E       		.uleb128 0x2e
 3594 0141 01       		.byte	0x1
 3595 0142 31       		.uleb128 0x31
 3596 0143 13       		.uleb128 0x13
 3597 0144 11       		.uleb128 0x11
 3598 0145 01       		.uleb128 0x1
 3599 0146 12       		.uleb128 0x12
 3600 0147 06       		.uleb128 0x6
 3601 0148 40       		.uleb128 0x40
 3602 0149 18       		.uleb128 0x18
 3603 014a 9742     		.uleb128 0x2117
 3604 014c 19       		.uleb128 0x19
 3605 014d 01       		.uleb128 0x1
 3606 014e 13       		.uleb128 0x13
 3607 014f 00       		.byte	0
 3608 0150 00       		.byte	0
 3609 0151 18       		.uleb128 0x18
 3610 0152 05       		.uleb128 0x5
 3611 0153 00       		.byte	0
 3612 0154 31       		.uleb128 0x31
 3613 0155 13       		.uleb128 0x13
 3614 0156 02       		.uleb128 0x2
 3615 0157 17       		.uleb128 0x17
 3616 0158 00       		.byte	0
 3617 0159 00       		.byte	0
ARM GAS  C:\Users\RYANCA~1\AppData\Local\Temp\ccuGCfpb.s 			page 95


 3618 015a 19       		.uleb128 0x19
 3619 015b 34       		.uleb128 0x34
 3620 015c 00       		.byte	0
 3621 015d 31       		.uleb128 0x31
 3622 015e 13       		.uleb128 0x13
 3623 015f 02       		.uleb128 0x2
 3624 0160 17       		.uleb128 0x17
 3625 0161 00       		.byte	0
 3626 0162 00       		.byte	0
 3627 0163 1A       		.uleb128 0x1a
 3628 0164 0B       		.uleb128 0xb
 3629 0165 01       		.byte	0x1
 3630 0166 11       		.uleb128 0x11
 3631 0167 01       		.uleb128 0x1
 3632 0168 12       		.uleb128 0x12
 3633 0169 06       		.uleb128 0x6
 3634 016a 00       		.byte	0
 3635 016b 00       		.byte	0
 3636 016c 1B       		.uleb128 0x1b
 3637 016d 0B       		.uleb128 0xb
 3638 016e 01       		.byte	0x1
 3639 016f 55       		.uleb128 0x55
 3640 0170 17       		.uleb128 0x17
 3641 0171 00       		.byte	0
 3642 0172 00       		.byte	0
 3643 0173 1C       		.uleb128 0x1c
 3644 0174 34       		.uleb128 0x34
 3645 0175 00       		.byte	0
 3646 0176 31       		.uleb128 0x31
 3647 0177 13       		.uleb128 0x13
 3648 0178 00       		.byte	0
 3649 0179 00       		.byte	0
 3650 017a 1D       		.uleb128 0x1d
 3651 017b 05       		.uleb128 0x5
 3652 017c 00       		.byte	0
 3653 017d 31       		.uleb128 0x31
 3654 017e 13       		.uleb128 0x13
 3655 017f 00       		.byte	0
 3656 0180 00       		.byte	0
 3657 0181 1E       		.uleb128 0x1e
 3658 0182 05       		.uleb128 0x5
 3659 0183 00       		.byte	0
 3660 0184 03       		.uleb128 0x3
 3661 0185 0E       		.uleb128 0xe
 3662 0186 3A       		.uleb128 0x3a
 3663 0187 0B       		.uleb128 0xb
 3664 0188 3B       		.uleb128 0x3b
 3665 0189 05       		.uleb128 0x5
 3666 018a 49       		.uleb128 0x49
 3667 018b 13       		.uleb128 0x13
 3668 018c 02       		.uleb128 0x2
 3669 018d 17       		.uleb128 0x17
 3670 018e 00       		.byte	0
 3671 018f 00       		.byte	0
 3672 0190 1F       		.uleb128 0x1f
 3673 0191 898201   		.uleb128 0x4109
 3674 0194 01       		.byte	0x1
ARM GAS  C:\Users\RYANCA~1\AppData\Local\Temp\ccuGCfpb.s 			page 96


 3675 0195 11       		.uleb128 0x11
 3676 0196 01       		.uleb128 0x1
 3677 0197 31       		.uleb128 0x31
 3678 0198 13       		.uleb128 0x13
 3679 0199 01       		.uleb128 0x1
 3680 019a 13       		.uleb128 0x13
 3681 019b 00       		.byte	0
 3682 019c 00       		.byte	0
 3683 019d 20       		.uleb128 0x20
 3684 019e 0F       		.uleb128 0xf
 3685 019f 00       		.byte	0
 3686 01a0 0B       		.uleb128 0xb
 3687 01a1 0B       		.uleb128 0xb
 3688 01a2 49       		.uleb128 0x49
 3689 01a3 13       		.uleb128 0x13
 3690 01a4 00       		.byte	0
 3691 01a5 00       		.byte	0
 3692 01a6 21       		.uleb128 0x21
 3693 01a7 2E       		.uleb128 0x2e
 3694 01a8 00       		.byte	0
 3695 01a9 3F       		.uleb128 0x3f
 3696 01aa 19       		.uleb128 0x19
 3697 01ab 03       		.uleb128 0x3
 3698 01ac 0E       		.uleb128 0xe
 3699 01ad 3A       		.uleb128 0x3a
 3700 01ae 0B       		.uleb128 0xb
 3701 01af 3B       		.uleb128 0x3b
 3702 01b0 05       		.uleb128 0x5
 3703 01b1 27       		.uleb128 0x27
 3704 01b2 19       		.uleb128 0x19
 3705 01b3 49       		.uleb128 0x49
 3706 01b4 13       		.uleb128 0x13
 3707 01b5 11       		.uleb128 0x11
 3708 01b6 01       		.uleb128 0x1
 3709 01b7 12       		.uleb128 0x12
 3710 01b8 06       		.uleb128 0x6
 3711 01b9 40       		.uleb128 0x40
 3712 01ba 18       		.uleb128 0x18
 3713 01bb 9742     		.uleb128 0x2117
 3714 01bd 19       		.uleb128 0x19
 3715 01be 00       		.byte	0
 3716 01bf 00       		.byte	0
 3717 01c0 22       		.uleb128 0x22
 3718 01c1 26       		.uleb128 0x26
 3719 01c2 00       		.byte	0
 3720 01c3 49       		.uleb128 0x49
 3721 01c4 13       		.uleb128 0x13
 3722 01c5 00       		.byte	0
 3723 01c6 00       		.byte	0
 3724 01c7 23       		.uleb128 0x23
 3725 01c8 34       		.uleb128 0x34
 3726 01c9 00       		.byte	0
 3727 01ca 03       		.uleb128 0x3
 3728 01cb 0E       		.uleb128 0xe
 3729 01cc 3A       		.uleb128 0x3a
 3730 01cd 0B       		.uleb128 0xb
 3731 01ce 3B       		.uleb128 0x3b
ARM GAS  C:\Users\RYANCA~1\AppData\Local\Temp\ccuGCfpb.s 			page 97


 3732 01cf 0B       		.uleb128 0xb
 3733 01d0 49       		.uleb128 0x49
 3734 01d1 13       		.uleb128 0x13
 3735 01d2 02       		.uleb128 0x2
 3736 01d3 18       		.uleb128 0x18
 3737 01d4 00       		.byte	0
 3738 01d5 00       		.byte	0
 3739 01d6 24       		.uleb128 0x24
 3740 01d7 34       		.uleb128 0x34
 3741 01d8 00       		.byte	0
 3742 01d9 03       		.uleb128 0x3
 3743 01da 0E       		.uleb128 0xe
 3744 01db 3A       		.uleb128 0x3a
 3745 01dc 0B       		.uleb128 0xb
 3746 01dd 3B       		.uleb128 0x3b
 3747 01de 0B       		.uleb128 0xb
 3748 01df 49       		.uleb128 0x49
 3749 01e0 13       		.uleb128 0x13
 3750 01e1 02       		.uleb128 0x2
 3751 01e2 17       		.uleb128 0x17
 3752 01e3 00       		.byte	0
 3753 01e4 00       		.byte	0
 3754 01e5 25       		.uleb128 0x25
 3755 01e6 34       		.uleb128 0x34
 3756 01e7 00       		.byte	0
 3757 01e8 03       		.uleb128 0x3
 3758 01e9 08       		.uleb128 0x8
 3759 01ea 3A       		.uleb128 0x3a
 3760 01eb 0B       		.uleb128 0xb
 3761 01ec 3B       		.uleb128 0x3b
 3762 01ed 0B       		.uleb128 0xb
 3763 01ee 49       		.uleb128 0x49
 3764 01ef 13       		.uleb128 0x13
 3765 01f0 02       		.uleb128 0x2
 3766 01f1 17       		.uleb128 0x17
 3767 01f2 00       		.byte	0
 3768 01f3 00       		.byte	0
 3769 01f4 26       		.uleb128 0x26
 3770 01f5 34       		.uleb128 0x34
 3771 01f6 00       		.byte	0
 3772 01f7 31       		.uleb128 0x31
 3773 01f8 13       		.uleb128 0x13
 3774 01f9 1C       		.uleb128 0x1c
 3775 01fa 0B       		.uleb128 0xb
 3776 01fb 00       		.byte	0
 3777 01fc 00       		.byte	0
 3778 01fd 27       		.uleb128 0x27
 3779 01fe 1D       		.uleb128 0x1d
 3780 01ff 01       		.byte	0x1
 3781 0200 31       		.uleb128 0x31
 3782 0201 13       		.uleb128 0x13
 3783 0202 52       		.uleb128 0x52
 3784 0203 01       		.uleb128 0x1
 3785 0204 55       		.uleb128 0x55
 3786 0205 17       		.uleb128 0x17
 3787 0206 58       		.uleb128 0x58
 3788 0207 0B       		.uleb128 0xb
ARM GAS  C:\Users\RYANCA~1\AppData\Local\Temp\ccuGCfpb.s 			page 98


 3789 0208 59       		.uleb128 0x59
 3790 0209 0B       		.uleb128 0xb
 3791 020a 01       		.uleb128 0x1
 3792 020b 13       		.uleb128 0x13
 3793 020c 00       		.byte	0
 3794 020d 00       		.byte	0
 3795 020e 28       		.uleb128 0x28
 3796 020f 1D       		.uleb128 0x1d
 3797 0210 01       		.byte	0x1
 3798 0211 31       		.uleb128 0x31
 3799 0212 13       		.uleb128 0x13
 3800 0213 11       		.uleb128 0x11
 3801 0214 01       		.uleb128 0x1
 3802 0215 12       		.uleb128 0x12
 3803 0216 06       		.uleb128 0x6
 3804 0217 58       		.uleb128 0x58
 3805 0218 0B       		.uleb128 0xb
 3806 0219 59       		.uleb128 0x59
 3807 021a 0B       		.uleb128 0xb
 3808 021b 01       		.uleb128 0x1
 3809 021c 13       		.uleb128 0x13
 3810 021d 00       		.byte	0
 3811 021e 00       		.byte	0
 3812 021f 29       		.uleb128 0x29
 3813 0220 34       		.uleb128 0x34
 3814 0221 00       		.byte	0
 3815 0222 03       		.uleb128 0x3
 3816 0223 0E       		.uleb128 0xe
 3817 0224 3A       		.uleb128 0x3a
 3818 0225 0B       		.uleb128 0xb
 3819 0226 3B       		.uleb128 0x3b
 3820 0227 0B       		.uleb128 0xb
 3821 0228 49       		.uleb128 0x49
 3822 0229 13       		.uleb128 0x13
 3823 022a 3F       		.uleb128 0x3f
 3824 022b 19       		.uleb128 0x19
 3825 022c 02       		.uleb128 0x2
 3826 022d 18       		.uleb128 0x18
 3827 022e 00       		.byte	0
 3828 022f 00       		.byte	0
 3829 0230 2A       		.uleb128 0x2a
 3830 0231 2E       		.uleb128 0x2e
 3831 0232 00       		.byte	0
 3832 0233 3F       		.uleb128 0x3f
 3833 0234 19       		.uleb128 0x19
 3834 0235 3C       		.uleb128 0x3c
 3835 0236 19       		.uleb128 0x19
 3836 0237 6E       		.uleb128 0x6e
 3837 0238 0E       		.uleb128 0xe
 3838 0239 03       		.uleb128 0x3
 3839 023a 0E       		.uleb128 0xe
 3840 023b 3A       		.uleb128 0x3a
 3841 023c 0B       		.uleb128 0xb
 3842 023d 3B       		.uleb128 0x3b
 3843 023e 0B       		.uleb128 0xb
 3844 023f 00       		.byte	0
 3845 0240 00       		.byte	0
ARM GAS  C:\Users\RYANCA~1\AppData\Local\Temp\ccuGCfpb.s 			page 99


 3846 0241 00       		.byte	0
 3847              		.section	.debug_loc,"",%progbits
 3848              	.Ldebug_loc0:
 3849              	.LLST0:
 3850 0000 00000000 		.4byte	.LVL0
 3851 0004 0E000000 		.4byte	.LVL1
 3852 0008 0400     		.2byte	0x4
 3853 000a 0A       		.byte	0xa
 3854 000b C076     		.2byte	0x76c0
 3855 000d 9F       		.byte	0x9f
 3856 000e 0E000000 		.4byte	.LVL1
 3857 0012 14000000 		.4byte	.LVL2
 3858 0016 0100     		.2byte	0x1
 3859 0018 51       		.byte	0x51
 3860 0019 14000000 		.4byte	.LVL2
 3861 001d 16000000 		.4byte	.LVL3
 3862 0021 0300     		.2byte	0x3
 3863 0023 71       		.byte	0x71
 3864 0024 7F       		.sleb128 -1
 3865 0025 9F       		.byte	0x9f
 3866 0026 16000000 		.4byte	.LVL3
 3867 002a 23000000 		.4byte	.LVL5-1
 3868 002e 0100     		.2byte	0x1
 3869 0030 51       		.byte	0x51
 3870 0031 00000000 		.4byte	0
 3871 0035 00000000 		.4byte	0
 3872              	.LLST1:
 3873 0039 00000000 		.4byte	.LVL0
 3874 003d 1E000000 		.4byte	.LVL4
 3875 0041 0200     		.2byte	0x2
 3876 0043 31       		.byte	0x31
 3877 0044 9F       		.byte	0x9f
 3878 0045 1E000000 		.4byte	.LVL4
 3879 0049 26000000 		.4byte	.LVL6
 3880 004d 0200     		.2byte	0x2
 3881 004f 30       		.byte	0x30
 3882 0050 9F       		.byte	0x9f
 3883 0051 00000000 		.4byte	0
 3884 0055 00000000 		.4byte	0
 3885              	.LLST2:
 3886 0059 00000000 		.4byte	.LVL7
 3887 005d 0C000000 		.4byte	.LVL8
 3888 0061 0200     		.2byte	0x2
 3889 0063 31       		.byte	0x31
 3890 0064 9F       		.byte	0x9f
 3891 0065 0C000000 		.4byte	.LVL8
 3892 0069 14000000 		.4byte	.LFE6
 3893 006d 0600     		.2byte	0x6
 3894 006f 73       		.byte	0x73
 3895 0070 00       		.sleb128 0
 3896 0071 20       		.byte	0x20
 3897 0072 31       		.byte	0x31
 3898 0073 1A       		.byte	0x1a
 3899 0074 9F       		.byte	0x9f
 3900 0075 00000000 		.4byte	0
 3901 0079 00000000 		.4byte	0
 3902              	.LLST3:
ARM GAS  C:\Users\RYANCA~1\AppData\Local\Temp\ccuGCfpb.s 			page 100


 3903 007d 00000000 		.4byte	.LVL9
 3904 0081 1E000000 		.4byte	.LVL12
 3905 0085 0400     		.2byte	0x4
 3906 0087 0A       		.byte	0xa
 3907 0088 E808     		.2byte	0x8e8
 3908 008a 9F       		.byte	0x9f
 3909 008b 1E000000 		.4byte	.LVL12
 3910 008f 24000000 		.4byte	.LVL13
 3911 0093 0100     		.2byte	0x1
 3912 0095 51       		.byte	0x51
 3913 0096 24000000 		.4byte	.LVL13
 3914 009a 26000000 		.4byte	.LVL14
 3915 009e 0300     		.2byte	0x3
 3916 00a0 71       		.byte	0x71
 3917 00a1 7F       		.sleb128 -1
 3918 00a2 9F       		.byte	0x9f
 3919 00a3 26000000 		.4byte	.LVL14
 3920 00a7 30000000 		.4byte	.LVL15
 3921 00ab 0100     		.2byte	0x1
 3922 00ad 51       		.byte	0x51
 3923 00ae 00000000 		.4byte	0
 3924 00b2 00000000 		.4byte	0
 3925              	.LLST4:
 3926 00b6 00000000 		.4byte	.LVL9
 3927 00ba 30000000 		.4byte	.LVL15
 3928 00be 0200     		.2byte	0x2
 3929 00c0 31       		.byte	0x31
 3930 00c1 9F       		.byte	0x9f
 3931 00c2 30000000 		.4byte	.LVL15
 3932 00c6 44000000 		.4byte	.LFE3
 3933 00ca 0100     		.2byte	0x1
 3934 00cc 50       		.byte	0x50
 3935 00cd 00000000 		.4byte	0
 3936 00d1 00000000 		.4byte	0
 3937              	.LLST5:
 3938 00d5 00000000 		.4byte	.LVL16
 3939 00d9 0C000000 		.4byte	.LVL17
 3940 00dd 0200     		.2byte	0x2
 3941 00df 31       		.byte	0x31
 3942 00e0 9F       		.byte	0x9f
 3943 00e1 0C000000 		.4byte	.LVL17
 3944 00e5 14000000 		.4byte	.LFE7
 3945 00e9 0100     		.2byte	0x1
 3946 00eb 53       		.byte	0x53
 3947 00ec 00000000 		.4byte	0
 3948 00f0 00000000 		.4byte	0
 3949              	.LLST6:
 3950 00f4 00000000 		.4byte	.LVL18
 3951 00f8 10000000 		.4byte	.LVL20
 3952 00fc 0100     		.2byte	0x1
 3953 00fe 50       		.byte	0x50
 3954 00ff 10000000 		.4byte	.LVL20
 3955 0103 34000000 		.4byte	.LFE8
 3956 0107 0400     		.2byte	0x4
 3957 0109 F3       		.byte	0xf3
 3958 010a 01       		.uleb128 0x1
 3959 010b 50       		.byte	0x50
ARM GAS  C:\Users\RYANCA~1\AppData\Local\Temp\ccuGCfpb.s 			page 101


 3960 010c 9F       		.byte	0x9f
 3961 010d 00000000 		.4byte	0
 3962 0111 00000000 		.4byte	0
 3963              	.LLST7:
 3964 0115 00000000 		.4byte	.LVL18
 3965 0119 24000000 		.4byte	.LVL21
 3966 011d 0200     		.2byte	0x2
 3967 011f 32       		.byte	0x32
 3968 0120 9F       		.byte	0x9f
 3969 0121 24000000 		.4byte	.LVL21
 3970 0125 34000000 		.4byte	.LFE8
 3971 0129 0100     		.2byte	0x1
 3972 012b 53       		.byte	0x53
 3973 012c 00000000 		.4byte	0
 3974 0130 00000000 		.4byte	0
 3975              	.LLST8:
 3976 0134 08000000 		.4byte	.LVL19
 3977 0138 10000000 		.4byte	.LVL20
 3978 013c 0100     		.2byte	0x1
 3979 013e 50       		.byte	0x50
 3980 013f 10000000 		.4byte	.LVL20
 3981 0143 24000000 		.4byte	.LVL21
 3982 0147 0400     		.2byte	0x4
 3983 0149 F3       		.byte	0xf3
 3984 014a 01       		.uleb128 0x1
 3985 014b 50       		.byte	0x50
 3986 014c 9F       		.byte	0x9f
 3987 014d 00000000 		.4byte	0
 3988 0151 00000000 		.4byte	0
 3989              	.LLST9:
 3990 0155 08000000 		.4byte	.LVL19
 3991 0159 24000000 		.4byte	.LVL21
 3992 015d 0200     		.2byte	0x2
 3993 015f 31       		.byte	0x31
 3994 0160 9F       		.byte	0x9f
 3995 0161 00000000 		.4byte	0
 3996 0165 00000000 		.4byte	0
 3997              	.LLST10:
 3998 0169 00000000 		.4byte	.LVL22
 3999 016d 10000000 		.4byte	.LVL24
 4000 0171 0100     		.2byte	0x1
 4001 0173 50       		.byte	0x50
 4002 0174 10000000 		.4byte	.LVL24
 4003 0178 16000000 		.4byte	.LVL25
 4004 017c 0400     		.2byte	0x4
 4005 017e F3       		.byte	0xf3
 4006 017f 01       		.uleb128 0x1
 4007 0180 50       		.byte	0x50
 4008 0181 9F       		.byte	0x9f
 4009 0182 16000000 		.4byte	.LVL25
 4010 0186 1A000000 		.4byte	.LVL26
 4011 018a 0100     		.2byte	0x1
 4012 018c 50       		.byte	0x50
 4013 018d 1A000000 		.4byte	.LVL26
 4014 0191 34000000 		.4byte	.LFE9
 4015 0195 0400     		.2byte	0x4
 4016 0197 F3       		.byte	0xf3
ARM GAS  C:\Users\RYANCA~1\AppData\Local\Temp\ccuGCfpb.s 			page 102


 4017 0198 01       		.uleb128 0x1
 4018 0199 50       		.byte	0x50
 4019 019a 9F       		.byte	0x9f
 4020 019b 00000000 		.4byte	0
 4021 019f 00000000 		.4byte	0
 4022              	.LLST11:
 4023 01a3 00000000 		.4byte	.LVL22
 4024 01a7 28000000 		.4byte	.LVL27
 4025 01ab 0200     		.2byte	0x2
 4026 01ad 31       		.byte	0x31
 4027 01ae 9F       		.byte	0x9f
 4028 01af 28000000 		.4byte	.LVL27
 4029 01b3 34000000 		.4byte	.LFE9
 4030 01b7 0100     		.2byte	0x1
 4031 01b9 50       		.byte	0x50
 4032 01ba 00000000 		.4byte	0
 4033 01be 00000000 		.4byte	0
 4034              	.LLST12:
 4035 01c2 06000000 		.4byte	.LVL23
 4036 01c6 16000000 		.4byte	.LVL25
 4037 01ca 0200     		.2byte	0x2
 4038 01cc 30       		.byte	0x30
 4039 01cd 9F       		.byte	0x9f
 4040 01ce 00000000 		.4byte	0
 4041 01d2 00000000 		.4byte	0
 4042              	.LLST13:
 4043 01d6 00000000 		.4byte	.LVL28
 4044 01da 06000000 		.4byte	.LVL29
 4045 01de 0100     		.2byte	0x1
 4046 01e0 50       		.byte	0x50
 4047 01e1 06000000 		.4byte	.LVL29
 4048 01e5 80000000 		.4byte	.LFE10
 4049 01e9 0400     		.2byte	0x4
 4050 01eb F3       		.byte	0xf3
 4051 01ec 01       		.uleb128 0x1
 4052 01ed 50       		.byte	0x50
 4053 01ee 9F       		.byte	0x9f
 4054 01ef 00000000 		.4byte	0
 4055 01f3 00000000 		.4byte	0
 4056              	.LLST14:
 4057 01f7 00000000 		.4byte	.LVL28
 4058 01fb 56000000 		.4byte	.LVL37
 4059 01ff 0100     		.2byte	0x1
 4060 0201 51       		.byte	0x51
 4061 0202 56000000 		.4byte	.LVL37
 4062 0206 80000000 		.4byte	.LFE10
 4063 020a 0400     		.2byte	0x4
 4064 020c F3       		.byte	0xf3
 4065 020d 01       		.uleb128 0x1
 4066 020e 51       		.byte	0x51
 4067 020f 9F       		.byte	0x9f
 4068 0210 00000000 		.4byte	0
 4069 0214 00000000 		.4byte	0
 4070              	.LLST15:
 4071 0218 00000000 		.4byte	.LVL28
 4072 021c 58000000 		.4byte	.LVL38
 4073 0220 0100     		.2byte	0x1
ARM GAS  C:\Users\RYANCA~1\AppData\Local\Temp\ccuGCfpb.s 			page 103


 4074 0222 52       		.byte	0x52
 4075 0223 58000000 		.4byte	.LVL38
 4076 0227 80000000 		.4byte	.LFE10
 4077 022b 0400     		.2byte	0x4
 4078 022d F3       		.byte	0xf3
 4079 022e 01       		.uleb128 0x1
 4080 022f 52       		.byte	0x52
 4081 0230 9F       		.byte	0x9f
 4082 0231 00000000 		.4byte	0
 4083 0235 00000000 		.4byte	0
 4084              	.LLST16:
 4085 0239 00000000 		.4byte	.LVL28
 4086 023d 52000000 		.4byte	.LVL35
 4087 0241 0100     		.2byte	0x1
 4088 0243 53       		.byte	0x53
 4089 0244 52000000 		.4byte	.LVL35
 4090 0248 80000000 		.4byte	.LFE10
 4091 024c 0400     		.2byte	0x4
 4092 024e F3       		.byte	0xf3
 4093 024f 01       		.uleb128 0x1
 4094 0250 53       		.byte	0x53
 4095 0251 9F       		.byte	0x9f
 4096 0252 00000000 		.4byte	0
 4097 0256 00000000 		.4byte	0
 4098              	.LLST17:
 4099 025a 00000000 		.4byte	.LVL28
 4100 025e 28000000 		.4byte	.LVL30
 4101 0262 0200     		.2byte	0x2
 4102 0264 32       		.byte	0x32
 4103 0265 9F       		.byte	0x9f
 4104 0266 28000000 		.4byte	.LVL30
 4105 026a 74000000 		.4byte	.LVL40
 4106 026e 0200     		.2byte	0x2
 4107 0270 31       		.byte	0x31
 4108 0271 9F       		.byte	0x9f
 4109 0272 74000000 		.4byte	.LVL40
 4110 0276 76000000 		.4byte	.LVL41
 4111 027a 0100     		.2byte	0x1
 4112 027c 54       		.byte	0x54
 4113 027d 00000000 		.4byte	0
 4114 0281 00000000 		.4byte	0
 4115              	.LLST18:
 4116 0285 32000000 		.4byte	.LVL31
 4117 0289 34000000 		.4byte	.LVL32
 4118 028d 0100     		.2byte	0x1
 4119 028f 50       		.byte	0x50
 4120 0290 34000000 		.4byte	.LVL32
 4121 0294 36000000 		.4byte	.LVL33
 4122 0298 0600     		.2byte	0x6
 4123 029a 76       		.byte	0x76
 4124 029b 00       		.sleb128 0
 4125 029c 70       		.byte	0x70
 4126 029d 00       		.sleb128 0
 4127 029e 21       		.byte	0x21
 4128 029f 9F       		.byte	0x9f
 4129 02a0 00000000 		.4byte	0
 4130 02a4 00000000 		.4byte	0
ARM GAS  C:\Users\RYANCA~1\AppData\Local\Temp\ccuGCfpb.s 			page 104


 4131              	.LLST19:
 4132 02a8 4E000000 		.4byte	.LVL34
 4133 02ac 52000000 		.4byte	.LVL35
 4134 02b0 0100     		.2byte	0x1
 4135 02b2 53       		.byte	0x53
 4136 02b3 52000000 		.4byte	.LVL35
 4137 02b7 74000000 		.4byte	.LVL40
 4138 02bb 0400     		.2byte	0x4
 4139 02bd F3       		.byte	0xf3
 4140 02be 01       		.uleb128 0x1
 4141 02bf 53       		.byte	0x53
 4142 02c0 9F       		.byte	0x9f
 4143 02c1 00000000 		.4byte	0
 4144 02c5 00000000 		.4byte	0
 4145              	.LLST20:
 4146 02c9 4E000000 		.4byte	.LVL34
 4147 02cd 58000000 		.4byte	.LVL38
 4148 02d1 0100     		.2byte	0x1
 4149 02d3 52       		.byte	0x52
 4150 02d4 58000000 		.4byte	.LVL38
 4151 02d8 74000000 		.4byte	.LVL40
 4152 02dc 0400     		.2byte	0x4
 4153 02de F3       		.byte	0xf3
 4154 02df 01       		.uleb128 0x1
 4155 02e0 52       		.byte	0x52
 4156 02e1 9F       		.byte	0x9f
 4157 02e2 00000000 		.4byte	0
 4158 02e6 00000000 		.4byte	0
 4159              	.LLST21:
 4160 02ea 4E000000 		.4byte	.LVL34
 4161 02ee 56000000 		.4byte	.LVL37
 4162 02f2 0100     		.2byte	0x1
 4163 02f4 51       		.byte	0x51
 4164 02f5 56000000 		.4byte	.LVL37
 4165 02f9 74000000 		.4byte	.LVL40
 4166 02fd 0400     		.2byte	0x4
 4167 02ff F3       		.byte	0xf3
 4168 0300 01       		.uleb128 0x1
 4169 0301 51       		.byte	0x51
 4170 0302 9F       		.byte	0x9f
 4171 0303 00000000 		.4byte	0
 4172 0307 00000000 		.4byte	0
 4173              	.LLST22:
 4174 030b 4E000000 		.4byte	.LVL34
 4175 030f 54000000 		.4byte	.LVL36
 4176 0313 0200     		.2byte	0x2
 4177 0315 30       		.byte	0x30
 4178 0316 9F       		.byte	0x9f
 4179 0317 54000000 		.4byte	.LVL36
 4180 031b 56000000 		.4byte	.LVL37
 4181 031f 0D00     		.2byte	0xd
 4182 0321 71       		.byte	0x71
 4183 0322 00       		.sleb128 0
 4184 0323 35       		.byte	0x35
 4185 0324 24       		.byte	0x24
 4186 0325 72       		.byte	0x72
 4187 0326 00       		.sleb128 0
ARM GAS  C:\Users\RYANCA~1\AppData\Local\Temp\ccuGCfpb.s 			page 105


 4188 0327 32       		.byte	0x32
 4189 0328 24       		.byte	0x24
 4190 0329 21       		.byte	0x21
 4191 032a 73       		.byte	0x73
 4192 032b 00       		.sleb128 0
 4193 032c 21       		.byte	0x21
 4194 032d 9F       		.byte	0x9f
 4195 032e 56000000 		.4byte	.LVL37
 4196 0332 58000000 		.4byte	.LVL38
 4197 0336 0E00     		.2byte	0xe
 4198 0338 F3       		.byte	0xf3
 4199 0339 01       		.uleb128 0x1
 4200 033a 51       		.byte	0x51
 4201 033b 35       		.byte	0x35
 4202 033c 24       		.byte	0x24
 4203 033d 72       		.byte	0x72
 4204 033e 00       		.sleb128 0
 4205 033f 32       		.byte	0x32
 4206 0340 24       		.byte	0x24
 4207 0341 21       		.byte	0x21
 4208 0342 73       		.byte	0x73
 4209 0343 00       		.sleb128 0
 4210 0344 21       		.byte	0x21
 4211 0345 9F       		.byte	0x9f
 4212 0346 58000000 		.4byte	.LVL38
 4213 034a 60000000 		.4byte	.LVL39
 4214 034e 0F00     		.2byte	0xf
 4215 0350 F3       		.byte	0xf3
 4216 0351 01       		.uleb128 0x1
 4217 0352 51       		.byte	0x51
 4218 0353 35       		.byte	0x35
 4219 0354 24       		.byte	0x24
 4220 0355 F3       		.byte	0xf3
 4221 0356 01       		.uleb128 0x1
 4222 0357 52       		.byte	0x52
 4223 0358 32       		.byte	0x32
 4224 0359 24       		.byte	0x24
 4225 035a 21       		.byte	0x21
 4226 035b 73       		.byte	0x73
 4227 035c 00       		.sleb128 0
 4228 035d 21       		.byte	0x21
 4229 035e 9F       		.byte	0x9f
 4230 035f 00000000 		.4byte	0
 4231 0363 00000000 		.4byte	0
 4232              	.LLST23:
 4233 0367 00000000 		.4byte	.LVL42
 4234 036b 10000000 		.4byte	.LVL44
 4235 036f 0100     		.2byte	0x1
 4236 0371 50       		.byte	0x50
 4237 0372 10000000 		.4byte	.LVL44
 4238 0376 16000000 		.4byte	.LVL45
 4239 037a 0400     		.2byte	0x4
 4240 037c F3       		.byte	0xf3
 4241 037d 01       		.uleb128 0x1
 4242 037e 50       		.byte	0x50
 4243 037f 9F       		.byte	0x9f
 4244 0380 16000000 		.4byte	.LVL45
ARM GAS  C:\Users\RYANCA~1\AppData\Local\Temp\ccuGCfpb.s 			page 106


 4245 0384 18000000 		.4byte	.LVL46
 4246 0388 0100     		.2byte	0x1
 4247 038a 50       		.byte	0x50
 4248 038b 18000000 		.4byte	.LVL46
 4249 038f 28000000 		.4byte	.LFE11
 4250 0393 0400     		.2byte	0x4
 4251 0395 F3       		.byte	0xf3
 4252 0396 01       		.uleb128 0x1
 4253 0397 50       		.byte	0x50
 4254 0398 9F       		.byte	0x9f
 4255 0399 00000000 		.4byte	0
 4256 039d 00000000 		.4byte	0
 4257              	.LLST24:
 4258 03a1 00000000 		.4byte	.LVL42
 4259 03a5 22000000 		.4byte	.LVL47
 4260 03a9 0200     		.2byte	0x2
 4261 03ab 31       		.byte	0x31
 4262 03ac 9F       		.byte	0x9f
 4263 03ad 22000000 		.4byte	.LVL47
 4264 03b1 28000000 		.4byte	.LFE11
 4265 03b5 0100     		.2byte	0x1
 4266 03b7 50       		.byte	0x50
 4267 03b8 00000000 		.4byte	0
 4268 03bc 00000000 		.4byte	0
 4269              	.LLST25:
 4270 03c0 0A000000 		.4byte	.LVL43
 4271 03c4 16000000 		.4byte	.LVL45
 4272 03c8 0200     		.2byte	0x2
 4273 03ca 30       		.byte	0x30
 4274 03cb 9F       		.byte	0x9f
 4275 03cc 00000000 		.4byte	0
 4276 03d0 00000000 		.4byte	0
 4277              	.LLST26:
 4278 03d4 00000000 		.4byte	.LVL48
 4279 03d8 10000000 		.4byte	.LVL50
 4280 03dc 0100     		.2byte	0x1
 4281 03de 50       		.byte	0x50
 4282 03df 10000000 		.4byte	.LVL50
 4283 03e3 14000000 		.4byte	.LVL51
 4284 03e7 0400     		.2byte	0x4
 4285 03e9 F3       		.byte	0xf3
 4286 03ea 01       		.uleb128 0x1
 4287 03eb 50       		.byte	0x50
 4288 03ec 9F       		.byte	0x9f
 4289 03ed 14000000 		.4byte	.LVL51
 4290 03f1 1E000000 		.4byte	.LVL52
 4291 03f5 0100     		.2byte	0x1
 4292 03f7 50       		.byte	0x50
 4293 03f8 1E000000 		.4byte	.LVL52
 4294 03fc 24000000 		.4byte	.LFE12
 4295 0400 0400     		.2byte	0x4
 4296 0402 F3       		.byte	0xf3
 4297 0403 01       		.uleb128 0x1
 4298 0404 50       		.byte	0x50
 4299 0405 9F       		.byte	0x9f
 4300 0406 00000000 		.4byte	0
 4301 040a 00000000 		.4byte	0
ARM GAS  C:\Users\RYANCA~1\AppData\Local\Temp\ccuGCfpb.s 			page 107


 4302              	.LLST27:
 4303 040e 00000000 		.4byte	.LVL48
 4304 0412 1E000000 		.4byte	.LVL52
 4305 0416 0200     		.2byte	0x2
 4306 0418 31       		.byte	0x31
 4307 0419 9F       		.byte	0x9f
 4308 041a 1E000000 		.4byte	.LVL52
 4309 041e 24000000 		.4byte	.LFE12
 4310 0422 0100     		.2byte	0x1
 4311 0424 50       		.byte	0x50
 4312 0425 00000000 		.4byte	0
 4313 0429 00000000 		.4byte	0
 4314              	.LLST28:
 4315 042d 0A000000 		.4byte	.LVL49
 4316 0431 14000000 		.4byte	.LVL51
 4317 0435 0200     		.2byte	0x2
 4318 0437 30       		.byte	0x30
 4319 0438 9F       		.byte	0x9f
 4320 0439 00000000 		.4byte	0
 4321 043d 00000000 		.4byte	0
 4322              	.LLST29:
 4323 0441 00000000 		.4byte	.LVL53
 4324 0445 10000000 		.4byte	.LVL54
 4325 0449 0100     		.2byte	0x1
 4326 044b 50       		.byte	0x50
 4327 044c 10000000 		.4byte	.LVL54
 4328 0450 54000000 		.4byte	.LVL64
 4329 0454 0100     		.2byte	0x1
 4330 0456 55       		.byte	0x55
 4331 0457 54000000 		.4byte	.LVL64
 4332 045b 60000000 		.4byte	.LFE14
 4333 045f 0400     		.2byte	0x4
 4334 0461 F3       		.byte	0xf3
 4335 0462 01       		.uleb128 0x1
 4336 0463 50       		.byte	0x50
 4337 0464 9F       		.byte	0x9f
 4338 0465 00000000 		.4byte	0
 4339 0469 00000000 		.4byte	0
 4340              	.LLST30:
 4341 046d 00000000 		.4byte	.LVL53
 4342 0471 1C000000 		.4byte	.LVL56
 4343 0475 0100     		.2byte	0x1
 4344 0477 51       		.byte	0x51
 4345 0478 1C000000 		.4byte	.LVL56
 4346 047c 3A000000 		.4byte	.LVL59
 4347 0480 0100     		.2byte	0x1
 4348 0482 54       		.byte	0x54
 4349 0483 3A000000 		.4byte	.LVL59
 4350 0487 3F000000 		.4byte	.LVL60-1
 4351 048b 0100     		.2byte	0x1
 4352 048d 51       		.byte	0x51
 4353 048e 3F000000 		.4byte	.LVL60-1
 4354 0492 4E000000 		.4byte	.LVL62
 4355 0496 0100     		.2byte	0x1
 4356 0498 54       		.byte	0x54
 4357 0499 4E000000 		.4byte	.LVL62
 4358 049d 54000000 		.4byte	.LVL63
ARM GAS  C:\Users\RYANCA~1\AppData\Local\Temp\ccuGCfpb.s 			page 108


 4359 04a1 0400     		.2byte	0x4
 4360 04a3 F3       		.byte	0xf3
 4361 04a4 01       		.uleb128 0x1
 4362 04a5 51       		.byte	0x51
 4363 04a6 9F       		.byte	0x9f
 4364 04a7 00000000 		.4byte	0
 4365 04ab 00000000 		.4byte	0
 4366              	.LLST31:
 4367 04af 00000000 		.4byte	.LVL53
 4368 04b3 14000000 		.4byte	.LVL55
 4369 04b7 0200     		.2byte	0x2
 4370 04b9 32       		.byte	0x32
 4371 04ba 9F       		.byte	0x9f
 4372 04bb 14000000 		.4byte	.LVL55
 4373 04bf 54000000 		.4byte	.LVL63
 4374 04c3 0200     		.2byte	0x2
 4375 04c5 31       		.byte	0x31
 4376 04c6 9F       		.byte	0x9f
 4377 04c7 54000000 		.4byte	.LVL63
 4378 04cb 60000000 		.4byte	.LFE14
 4379 04cf 0100     		.2byte	0x1
 4380 04d1 50       		.byte	0x50
 4381 04d2 00000000 		.4byte	0
 4382 04d6 00000000 		.4byte	0
 4383              	.LLST32:
 4384 04da 00000000 		.4byte	.LVL65
 4385 04de 0A000000 		.4byte	.LVL68
 4386 04e2 0100     		.2byte	0x1
 4387 04e4 50       		.byte	0x50
 4388 04e5 0A000000 		.4byte	.LVL68
 4389 04e9 18000000 		.4byte	.LFE15
 4390 04ed 0400     		.2byte	0x4
 4391 04ef F3       		.byte	0xf3
 4392 04f0 01       		.uleb128 0x1
 4393 04f1 50       		.byte	0x50
 4394 04f2 9F       		.byte	0x9f
 4395 04f3 00000000 		.4byte	0
 4396 04f7 00000000 		.4byte	0
 4397              	.LLST33:
 4398 04fb 00000000 		.4byte	.LVL65
 4399 04ff 06000000 		.4byte	.LVL66
 4400 0503 0200     		.2byte	0x2
 4401 0505 31       		.byte	0x31
 4402 0506 9F       		.byte	0x9f
 4403 0507 06000000 		.4byte	.LVL66
 4404 050b 08000000 		.4byte	.LVL67
 4405 050f 0A00     		.2byte	0xa
 4406 0511 73       		.byte	0x73
 4407 0512 00       		.sleb128 0
 4408 0513 0A       		.byte	0xa
 4409 0514 FFFF     		.2byte	0xffff
 4410 0516 1A       		.byte	0x1a
 4411 0517 70       		.byte	0x70
 4412 0518 00       		.sleb128 0
 4413 0519 2E       		.byte	0x2e
 4414 051a 9F       		.byte	0x9f
 4415 051b 00000000 		.4byte	0
ARM GAS  C:\Users\RYANCA~1\AppData\Local\Temp\ccuGCfpb.s 			page 109


 4416 051f 00000000 		.4byte	0
 4417              	.LLST34:
 4418 0523 00000000 		.4byte	.LVL69
 4419 0527 2C000000 		.4byte	.LVL70
 4420 052b 0100     		.2byte	0x1
 4421 052d 50       		.byte	0x50
 4422 052e 2C000000 		.4byte	.LVL70
 4423 0532 2E000000 		.4byte	.LVL71
 4424 0536 0400     		.2byte	0x4
 4425 0538 F3       		.byte	0xf3
 4426 0539 01       		.uleb128 0x1
 4427 053a 50       		.byte	0x50
 4428 053b 9F       		.byte	0x9f
 4429 053c 2E000000 		.4byte	.LVL71
 4430 0540 78000000 		.4byte	.LVL72
 4431 0544 0100     		.2byte	0x1
 4432 0546 50       		.byte	0x50
 4433 0547 78000000 		.4byte	.LVL72
 4434 054b 90000000 		.4byte	.LFE21
 4435 054f 0400     		.2byte	0x4
 4436 0551 F3       		.byte	0xf3
 4437 0552 01       		.uleb128 0x1
 4438 0553 50       		.byte	0x50
 4439 0554 9F       		.byte	0x9f
 4440 0555 00000000 		.4byte	0
 4441 0559 00000000 		.4byte	0
 4442              	.LLST35:
 4443 055d 00000000 		.4byte	.LVL69
 4444 0561 7E000000 		.4byte	.LVL73
 4445 0565 0200     		.2byte	0x2
 4446 0567 31       		.byte	0x31
 4447 0568 9F       		.byte	0x9f
 4448 0569 7E000000 		.4byte	.LVL73
 4449 056d 90000000 		.4byte	.LFE21
 4450 0571 0100     		.2byte	0x1
 4451 0573 50       		.byte	0x50
 4452 0574 00000000 		.4byte	0
 4453 0578 00000000 		.4byte	0
 4454              	.LLST36:
 4455 057c 00000000 		.4byte	.LVL74
 4456 0580 0E000000 		.4byte	.LVL75
 4457 0584 0100     		.2byte	0x1
 4458 0586 50       		.byte	0x50
 4459 0587 0E000000 		.4byte	.LVL75
 4460 058b 3C000000 		.4byte	.LVL76
 4461 058f 0100     		.2byte	0x1
 4462 0591 53       		.byte	0x53
 4463 0592 3C000000 		.4byte	.LVL76
 4464 0596 58000000 		.4byte	.LFE22
 4465 059a 0400     		.2byte	0x4
 4466 059c F3       		.byte	0xf3
 4467 059d 01       		.uleb128 0x1
 4468 059e 50       		.byte	0x50
 4469 059f 9F       		.byte	0x9f
 4470 05a0 00000000 		.4byte	0
 4471 05a4 00000000 		.4byte	0
 4472              	.LLST37:
ARM GAS  C:\Users\RYANCA~1\AppData\Local\Temp\ccuGCfpb.s 			page 110


 4473 05a8 00000000 		.4byte	.LVL74
 4474 05ac 46000000 		.4byte	.LVL77
 4475 05b0 0200     		.2byte	0x2
 4476 05b2 31       		.byte	0x31
 4477 05b3 9F       		.byte	0x9f
 4478 05b4 46000000 		.4byte	.LVL77
 4479 05b8 58000000 		.4byte	.LFE22
 4480 05bc 0100     		.2byte	0x1
 4481 05be 50       		.byte	0x50
 4482 05bf 00000000 		.4byte	0
 4483 05c3 00000000 		.4byte	0
 4484              	.LLST38:
 4485 05c7 00000000 		.4byte	.LVL78
 4486 05cb 32000000 		.4byte	.LVL82
 4487 05cf 0200     		.2byte	0x2
 4488 05d1 30       		.byte	0x30
 4489 05d2 9F       		.byte	0x9f
 4490 05d3 32000000 		.4byte	.LVL82
 4491 05d7 38000000 		.4byte	.LFE1
 4492 05db 0100     		.2byte	0x1
 4493 05dd 50       		.byte	0x50
 4494 05de 00000000 		.4byte	0
 4495 05e2 00000000 		.4byte	0
 4496              	.LLST39:
 4497 05e6 00000000 		.4byte	.LVL78
 4498 05ea 04000000 		.4byte	.LVL79
 4499 05ee 0200     		.2byte	0x2
 4500 05f0 30       		.byte	0x30
 4501 05f1 9F       		.byte	0x9f
 4502 05f2 00000000 		.4byte	0
 4503 05f6 00000000 		.4byte	0
 4504              	.LLST40:
 4505 05fa 00000000 		.4byte	.LVL83
 4506 05fe 16000000 		.4byte	.LVL84
 4507 0602 0400     		.2byte	0x4
 4508 0604 0A       		.byte	0xa
 4509 0605 C076     		.2byte	0x76c0
 4510 0607 9F       		.byte	0x9f
 4511 0608 16000000 		.4byte	.LVL84
 4512 060c 20000000 		.4byte	.LVL85
 4513 0610 0100     		.2byte	0x1
 4514 0612 51       		.byte	0x51
 4515 0613 20000000 		.4byte	.LVL85
 4516 0617 22000000 		.4byte	.LVL86
 4517 061b 0300     		.2byte	0x3
 4518 061d 71       		.byte	0x71
 4519 061e 7F       		.sleb128 -1
 4520 061f 9F       		.byte	0x9f
 4521 0620 22000000 		.4byte	.LVL86
 4522 0624 2D000000 		.4byte	.LVL87-1
 4523 0628 0100     		.2byte	0x1
 4524 062a 51       		.byte	0x51
 4525 062b 00000000 		.4byte	0
 4526 062f 00000000 		.4byte	0
 4527              	.LLST41:
 4528 0633 00000000 		.4byte	.LVL83
 4529 0637 C8000000 		.4byte	.LVL101
ARM GAS  C:\Users\RYANCA~1\AppData\Local\Temp\ccuGCfpb.s 			page 111


 4530 063b 0200     		.2byte	0x2
 4531 063d 31       		.byte	0x31
 4532 063e 9F       		.byte	0x9f
 4533 063f 00000000 		.4byte	0
 4534 0643 00000000 		.4byte	0
 4535              	.LLST42:
 4536 0647 9C000000 		.4byte	.LVL96
 4537 064b A0000000 		.4byte	.LVL97
 4538 064f 0500     		.2byte	0x5
 4539 0651 73       		.byte	0x73
 4540 0652 00       		.sleb128 0
 4541 0653 31       		.byte	0x31
 4542 0654 1A       		.byte	0x1a
 4543 0655 9F       		.byte	0x9f
 4544 0656 A0000000 		.4byte	.LVL97
 4545 065a C6000000 		.4byte	.LVL100
 4546 065e 0200     		.2byte	0x2
 4547 0660 30       		.byte	0x30
 4548 0661 9F       		.byte	0x9f
 4549 0662 C6000000 		.4byte	.LVL100
 4550 0666 C8000000 		.4byte	.LVL101
 4551 066a 0200     		.2byte	0x2
 4552 066c 31       		.byte	0x31
 4553 066d 9F       		.byte	0x9f
 4554 066e 00000000 		.4byte	0
 4555 0672 00000000 		.4byte	0
 4556              	.LLST43:
 4557 0676 40000000 		.4byte	.LVL89
 4558 067a 58000000 		.4byte	.LVL90
 4559 067e 0200     		.2byte	0x2
 4560 0680 42       		.byte	0x42
 4561 0681 9F       		.byte	0x9f
 4562 0682 00000000 		.4byte	0
 4563 0686 00000000 		.4byte	0
 4564              	.LLST44:
 4565 068a 40000000 		.4byte	.LVL89
 4566 068e 58000000 		.4byte	.LVL90
 4567 0692 0200     		.2byte	0x2
 4568 0694 32       		.byte	0x32
 4569 0695 9F       		.byte	0x9f
 4570 0696 00000000 		.4byte	0
 4571 069a 00000000 		.4byte	0
 4572              	.LLST46:
 4573 069e 40000000 		.4byte	.LVL89
 4574 06a2 58000000 		.4byte	.LVL90
 4575 06a6 0200     		.2byte	0x2
 4576 06a8 31       		.byte	0x31
 4577 06a9 9F       		.byte	0x9f
 4578 06aa 00000000 		.4byte	0
 4579 06ae 00000000 		.4byte	0
 4580              	.LLST47:
 4581 06b2 58000000 		.4byte	.LVL90
 4582 06b6 66000000 		.4byte	.LVL91
 4583 06ba 0200     		.2byte	0x2
 4584 06bc 30       		.byte	0x30
 4585 06bd 9F       		.byte	0x9f
 4586 06be 00000000 		.4byte	0
ARM GAS  C:\Users\RYANCA~1\AppData\Local\Temp\ccuGCfpb.s 			page 112


 4587 06c2 00000000 		.4byte	0
 4588              	.LLST48:
 4589 06c6 58000000 		.4byte	.LVL90
 4590 06ca 66000000 		.4byte	.LVL91
 4591 06ce 0200     		.2byte	0x2
 4592 06d0 31       		.byte	0x31
 4593 06d1 9F       		.byte	0x9f
 4594 06d2 00000000 		.4byte	0
 4595 06d6 00000000 		.4byte	0
 4596              	.LLST50:
 4597 06da 66000000 		.4byte	.LVL91
 4598 06de 78000000 		.4byte	.LVL92
 4599 06e2 0200     		.2byte	0x2
 4600 06e4 30       		.byte	0x30
 4601 06e5 9F       		.byte	0x9f
 4602 06e6 00000000 		.4byte	0
 4603 06ea 00000000 		.4byte	0
 4604              	.LLST51:
 4605 06ee 66000000 		.4byte	.LVL91
 4606 06f2 78000000 		.4byte	.LVL92
 4607 06f6 0200     		.2byte	0x2
 4608 06f8 31       		.byte	0x31
 4609 06f9 9F       		.byte	0x9f
 4610 06fa 00000000 		.4byte	0
 4611 06fe 00000000 		.4byte	0
 4612              	.LLST53:
 4613 0702 86000000 		.4byte	.LVL94
 4614 0706 94000000 		.4byte	.LVL95
 4615 070a 0200     		.2byte	0x2
 4616 070c 30       		.byte	0x30
 4617 070d 9F       		.byte	0x9f
 4618 070e 00000000 		.4byte	0
 4619 0712 00000000 		.4byte	0
 4620              	.LLST54:
 4621 0716 86000000 		.4byte	.LVL94
 4622 071a 94000000 		.4byte	.LVL95
 4623 071e 0200     		.2byte	0x2
 4624 0720 31       		.byte	0x31
 4625 0721 9F       		.byte	0x9f
 4626 0722 00000000 		.4byte	0
 4627 0726 00000000 		.4byte	0
 4628              	.LLST56:
 4629 072a 94000000 		.4byte	.LVL95
 4630 072e C6000000 		.4byte	.LVL100
 4631 0732 0200     		.2byte	0x2
 4632 0734 30       		.byte	0x30
 4633 0735 9F       		.byte	0x9f
 4634 0736 00000000 		.4byte	0
 4635 073a 00000000 		.4byte	0
 4636              	.LLST57:
 4637 073e 94000000 		.4byte	.LVL95
 4638 0742 C6000000 		.4byte	.LVL100
 4639 0746 0200     		.2byte	0x2
 4640 0748 31       		.byte	0x31
 4641 0749 9F       		.byte	0x9f
 4642 074a 00000000 		.4byte	0
 4643 074e 00000000 		.4byte	0
ARM GAS  C:\Users\RYANCA~1\AppData\Local\Temp\ccuGCfpb.s 			page 113


 4644              	.LLST59:
 4645 0752 00000000 		.4byte	.LVL102
 4646 0756 0C000000 		.4byte	.LVL103
 4647 075a 0200     		.2byte	0x2
 4648 075c 30       		.byte	0x30
 4649 075d 9F       		.byte	0x9f
 4650 075e 14000000 		.4byte	.LVL104
 4651 0762 16000000 		.4byte	.LVL105
 4652 0766 0100     		.2byte	0x1
 4653 0768 50       		.byte	0x50
 4654 0769 16000000 		.4byte	.LVL105
 4655 076d 1A000000 		.4byte	.LVL106
 4656 0771 0200     		.2byte	0x2
 4657 0773 30       		.byte	0x30
 4658 0774 9F       		.byte	0x9f
 4659 0775 1A000000 		.4byte	.LVL106
 4660 0779 24000000 		.4byte	.LFE4
 4661 077d 0100     		.2byte	0x1
 4662 077f 50       		.byte	0x50
 4663 0780 00000000 		.4byte	0
 4664 0784 00000000 		.4byte	0
 4665              	.LLST60:
 4666 0788 00000000 		.4byte	.LVL108
 4667 078c 19000000 		.4byte	.LVL110-1
 4668 0790 0100     		.2byte	0x1
 4669 0792 50       		.byte	0x50
 4670 0793 19000000 		.4byte	.LVL110-1
 4671 0797 58000000 		.4byte	.LFE13
 4672 079b 0400     		.2byte	0x4
 4673 079d F3       		.byte	0xf3
 4674 079e 01       		.uleb128 0x1
 4675 079f 50       		.byte	0x50
 4676 07a0 9F       		.byte	0x9f
 4677 07a1 00000000 		.4byte	0
 4678 07a5 00000000 		.4byte	0
 4679              	.LLST61:
 4680 07a9 00000000 		.4byte	.LVL108
 4681 07ad 30000000 		.4byte	.LVL111
 4682 07b1 0200     		.2byte	0x2
 4683 07b3 31       		.byte	0x31
 4684 07b4 9F       		.byte	0x9f
 4685 07b5 30000000 		.4byte	.LVL111
 4686 07b9 49000000 		.4byte	.LVL112-1
 4687 07bd 0100     		.2byte	0x1
 4688 07bf 50       		.byte	0x50
 4689 07c0 4A000000 		.4byte	.LVL112
 4690 07c4 58000000 		.4byte	.LFE13
 4691 07c8 0100     		.2byte	0x1
 4692 07ca 50       		.byte	0x50
 4693 07cb 00000000 		.4byte	0
 4694 07cf 00000000 		.4byte	0
 4695              	.LLST62:
 4696 07d3 00000000 		.4byte	.LVL108
 4697 07d7 16000000 		.4byte	.LVL109
 4698 07db 0200     		.2byte	0x2
 4699 07dd 30       		.byte	0x30
 4700 07de 9F       		.byte	0x9f
ARM GAS  C:\Users\RYANCA~1\AppData\Local\Temp\ccuGCfpb.s 			page 114


 4701 07df 16000000 		.4byte	.LVL109
 4702 07e3 4A000000 		.4byte	.LVL113
 4703 07e7 0100     		.2byte	0x1
 4704 07e9 54       		.byte	0x54
 4705 07ea 00000000 		.4byte	0
 4706 07ee 00000000 		.4byte	0
 4707              	.LLST63:
 4708 07f2 00000000 		.4byte	.LVL114
 4709 07f6 10000000 		.4byte	.LVL116
 4710 07fa 0100     		.2byte	0x1
 4711 07fc 50       		.byte	0x50
 4712 07fd 10000000 		.4byte	.LVL116
 4713 0801 16000000 		.4byte	.LVL117
 4714 0805 0400     		.2byte	0x4
 4715 0807 F3       		.byte	0xf3
 4716 0808 01       		.uleb128 0x1
 4717 0809 50       		.byte	0x50
 4718 080a 9F       		.byte	0x9f
 4719 080b 16000000 		.4byte	.LVL117
 4720 080f 1A000000 		.4byte	.LVL118
 4721 0813 0100     		.2byte	0x1
 4722 0815 50       		.byte	0x50
 4723 0816 1A000000 		.4byte	.LVL118
 4724 081a 34000000 		.4byte	.LFE23
 4725 081e 0400     		.2byte	0x4
 4726 0820 F3       		.byte	0xf3
 4727 0821 01       		.uleb128 0x1
 4728 0822 50       		.byte	0x50
 4729 0823 9F       		.byte	0x9f
 4730 0824 00000000 		.4byte	0
 4731 0828 00000000 		.4byte	0
 4732              	.LLST64:
 4733 082c 00000000 		.4byte	.LVL114
 4734 0830 28000000 		.4byte	.LVL119
 4735 0834 0200     		.2byte	0x2
 4736 0836 31       		.byte	0x31
 4737 0837 9F       		.byte	0x9f
 4738 0838 28000000 		.4byte	.LVL119
 4739 083c 34000000 		.4byte	.LFE23
 4740 0840 0100     		.2byte	0x1
 4741 0842 50       		.byte	0x50
 4742 0843 00000000 		.4byte	0
 4743 0847 00000000 		.4byte	0
 4744              	.LLST65:
 4745 084b 06000000 		.4byte	.LVL115
 4746 084f 16000000 		.4byte	.LVL117
 4747 0853 0200     		.2byte	0x2
 4748 0855 30       		.byte	0x30
 4749 0856 9F       		.byte	0x9f
 4750 0857 00000000 		.4byte	0
 4751 085b 00000000 		.4byte	0
 4752              	.LLST66:
 4753 085f 00000000 		.4byte	.LVL120
 4754 0863 10000000 		.4byte	.LVL121
 4755 0867 0100     		.2byte	0x1
 4756 0869 50       		.byte	0x50
 4757 086a 10000000 		.4byte	.LVL121
ARM GAS  C:\Users\RYANCA~1\AppData\Local\Temp\ccuGCfpb.s 			page 115


 4758 086e 16000000 		.4byte	.LVL122
 4759 0872 0400     		.2byte	0x4
 4760 0874 F3       		.byte	0xf3
 4761 0875 01       		.uleb128 0x1
 4762 0876 50       		.byte	0x50
 4763 0877 9F       		.byte	0x9f
 4764 0878 16000000 		.4byte	.LVL122
 4765 087c 1A000000 		.4byte	.LVL123
 4766 0880 0100     		.2byte	0x1
 4767 0882 50       		.byte	0x50
 4768 0883 1A000000 		.4byte	.LVL123
 4769 0887 34000000 		.4byte	.LFE24
 4770 088b 0400     		.2byte	0x4
 4771 088d F3       		.byte	0xf3
 4772 088e 01       		.uleb128 0x1
 4773 088f 50       		.byte	0x50
 4774 0890 9F       		.byte	0x9f
 4775 0891 00000000 		.4byte	0
 4776 0895 00000000 		.4byte	0
 4777              	.LLST67:
 4778 0899 00000000 		.4byte	.LVL120
 4779 089d 28000000 		.4byte	.LVL124
 4780 08a1 0200     		.2byte	0x2
 4781 08a3 31       		.byte	0x31
 4782 08a4 9F       		.byte	0x9f
 4783 08a5 28000000 		.4byte	.LVL124
 4784 08a9 34000000 		.4byte	.LFE24
 4785 08ad 0100     		.2byte	0x1
 4786 08af 50       		.byte	0x50
 4787 08b0 00000000 		.4byte	0
 4788 08b4 00000000 		.4byte	0
 4789              	.LLST68:
 4790 08b8 00000000 		.4byte	.LVL125
 4791 08bc 0C000000 		.4byte	.LVL126
 4792 08c0 0200     		.2byte	0x2
 4793 08c2 31       		.byte	0x31
 4794 08c3 9F       		.byte	0x9f
 4795 08c4 0C000000 		.4byte	.LVL126
 4796 08c8 14000000 		.4byte	.LFE26
 4797 08cc 0600     		.2byte	0x6
 4798 08ce 73       		.byte	0x73
 4799 08cf 00       		.sleb128 0
 4800 08d0 20       		.byte	0x20
 4801 08d1 31       		.byte	0x31
 4802 08d2 1A       		.byte	0x1a
 4803 08d3 9F       		.byte	0x9f
 4804 08d4 00000000 		.4byte	0
 4805 08d8 00000000 		.4byte	0
 4806              		.section	.debug_aranges,"",%progbits
 4807 0000 E4000000 		.4byte	0xe4
 4808 0004 0200     		.2byte	0x2
 4809 0006 00000000 		.4byte	.Ldebug_info0
 4810 000a 04       		.byte	0x4
 4811 000b 00       		.byte	0
 4812 000c 0000     		.2byte	0
 4813 000e 0000     		.2byte	0
 4814 0010 00000000 		.4byte	.LFB5
ARM GAS  C:\Users\RYANCA~1\AppData\Local\Temp\ccuGCfpb.s 			page 116


 4815 0014 30000000 		.4byte	.LFE5-.LFB5
 4816 0018 00000000 		.4byte	.LFB6
 4817 001c 14000000 		.4byte	.LFE6-.LFB6
 4818 0020 00000000 		.4byte	.LFB3
 4819 0024 44000000 		.4byte	.LFE3-.LFB3
 4820 0028 00000000 		.4byte	.LFB7
 4821 002c 14000000 		.4byte	.LFE7-.LFB7
 4822 0030 00000000 		.4byte	.LFB8
 4823 0034 34000000 		.4byte	.LFE8-.LFB8
 4824 0038 00000000 		.4byte	.LFB9
 4825 003c 34000000 		.4byte	.LFE9-.LFB9
 4826 0040 00000000 		.4byte	.LFB10
 4827 0044 80000000 		.4byte	.LFE10-.LFB10
 4828 0048 00000000 		.4byte	.LFB11
 4829 004c 28000000 		.4byte	.LFE11-.LFB11
 4830 0050 00000000 		.4byte	.LFB12
 4831 0054 24000000 		.4byte	.LFE12-.LFB12
 4832 0058 00000000 		.4byte	.LFB14
 4833 005c 60000000 		.4byte	.LFE14-.LFB14
 4834 0060 00000000 		.4byte	.LFB15
 4835 0064 18000000 		.4byte	.LFE15-.LFB15
 4836 0068 00000000 		.4byte	.LFB16
 4837 006c 10000000 		.4byte	.LFE16-.LFB16
 4838 0070 00000000 		.4byte	.LFB17
 4839 0074 10000000 		.4byte	.LFE17-.LFB17
 4840 0078 00000000 		.4byte	.LFB18
 4841 007c 0C000000 		.4byte	.LFE18-.LFB18
 4842 0080 00000000 		.4byte	.LFB19
 4843 0084 10000000 		.4byte	.LFE19-.LFB19
 4844 0088 00000000 		.4byte	.LFB20
 4845 008c 10000000 		.4byte	.LFE20-.LFB20
 4846 0090 00000000 		.4byte	.LFB21
 4847 0094 90000000 		.4byte	.LFE21-.LFB21
 4848 0098 00000000 		.4byte	.LFB22
 4849 009c 58000000 		.4byte	.LFE22-.LFB22
 4850 00a0 00000000 		.4byte	.LFB1
 4851 00a4 38000000 		.4byte	.LFE1-.LFB1
 4852 00a8 00000000 		.4byte	.LFB2
 4853 00ac F4000000 		.4byte	.LFE2-.LFB2
 4854 00b0 00000000 		.4byte	.LFB4
 4855 00b4 24000000 		.4byte	.LFE4-.LFB4
 4856 00b8 00000000 		.4byte	.LFB13
 4857 00bc 58000000 		.4byte	.LFE13-.LFB13
 4858 00c0 00000000 		.4byte	.LFB23
 4859 00c4 34000000 		.4byte	.LFE23-.LFB23
 4860 00c8 00000000 		.4byte	.LFB24
 4861 00cc 34000000 		.4byte	.LFE24-.LFB24
 4862 00d0 00000000 		.4byte	.LFB25
 4863 00d4 0C000000 		.4byte	.LFE25-.LFB25
 4864 00d8 00000000 		.4byte	.LFB26
 4865 00dc 14000000 		.4byte	.LFE26-.LFB26
 4866 00e0 00000000 		.4byte	0
 4867 00e4 00000000 		.4byte	0
 4868              		.section	.debug_ranges,"",%progbits
 4869              	.Ldebug_ranges0:
 4870 0000 06000000 		.4byte	.LBB28
 4871 0004 16000000 		.4byte	.LBE28
ARM GAS  C:\Users\RYANCA~1\AppData\Local\Temp\ccuGCfpb.s 			page 117


 4872 0008 18000000 		.4byte	.LBB32
 4873 000c 1A000000 		.4byte	.LBE32
 4874 0010 24000000 		.4byte	.LBB33
 4875 0014 28000000 		.4byte	.LBE33
 4876 0018 00000000 		.4byte	0
 4877 001c 00000000 		.4byte	0
 4878 0020 04000000 		.4byte	.LBB40
 4879 0024 06000000 		.4byte	.LBE40
 4880 0028 0A000000 		.4byte	.LBB44
 4881 002c 18000000 		.4byte	.LBE44
 4882 0030 1E000000 		.4byte	.LBB45
 4883 0034 22000000 		.4byte	.LBE45
 4884 0038 00000000 		.4byte	0
 4885 003c 00000000 		.4byte	0
 4886 0040 04000000 		.4byte	.LBB48
 4887 0044 06000000 		.4byte	.LBE48
 4888 0048 0A000000 		.4byte	.LBB52
 4889 004c 14000000 		.4byte	.LBE52
 4890 0050 1A000000 		.4byte	.LBB53
 4891 0054 1E000000 		.4byte	.LBE53
 4892 0058 00000000 		.4byte	0
 4893 005c 00000000 		.4byte	0
 4894 0060 2E000000 		.4byte	.LBB78
 4895 0064 30000000 		.4byte	.LBE78
 4896 0068 40000000 		.4byte	.LBB85
 4897 006c 58000000 		.4byte	.LBE85
 4898 0070 00000000 		.4byte	0
 4899 0074 00000000 		.4byte	0
 4900 0078 06000000 		.4byte	.LBB104
 4901 007c 16000000 		.4byte	.LBE104
 4902 0080 18000000 		.4byte	.LBB108
 4903 0084 1A000000 		.4byte	.LBE108
 4904 0088 24000000 		.4byte	.LBB109
 4905 008c 28000000 		.4byte	.LBE109
 4906 0090 00000000 		.4byte	0
 4907 0094 00000000 		.4byte	0
 4908 0098 00000000 		.4byte	.LFB5
 4909 009c 30000000 		.4byte	.LFE5
 4910 00a0 00000000 		.4byte	.LFB6
 4911 00a4 14000000 		.4byte	.LFE6
 4912 00a8 00000000 		.4byte	.LFB3
 4913 00ac 44000000 		.4byte	.LFE3
 4914 00b0 00000000 		.4byte	.LFB7
 4915 00b4 14000000 		.4byte	.LFE7
 4916 00b8 00000000 		.4byte	.LFB8
 4917 00bc 34000000 		.4byte	.LFE8
 4918 00c0 00000000 		.4byte	.LFB9
 4919 00c4 34000000 		.4byte	.LFE9
 4920 00c8 00000000 		.4byte	.LFB10
 4921 00cc 80000000 		.4byte	.LFE10
 4922 00d0 00000000 		.4byte	.LFB11
 4923 00d4 28000000 		.4byte	.LFE11
 4924 00d8 00000000 		.4byte	.LFB12
 4925 00dc 24000000 		.4byte	.LFE12
 4926 00e0 00000000 		.4byte	.LFB14
 4927 00e4 60000000 		.4byte	.LFE14
 4928 00e8 00000000 		.4byte	.LFB15
ARM GAS  C:\Users\RYANCA~1\AppData\Local\Temp\ccuGCfpb.s 			page 118


 4929 00ec 18000000 		.4byte	.LFE15
 4930 00f0 00000000 		.4byte	.LFB16
 4931 00f4 10000000 		.4byte	.LFE16
 4932 00f8 00000000 		.4byte	.LFB17
 4933 00fc 10000000 		.4byte	.LFE17
 4934 0100 00000000 		.4byte	.LFB18
 4935 0104 0C000000 		.4byte	.LFE18
 4936 0108 00000000 		.4byte	.LFB19
 4937 010c 10000000 		.4byte	.LFE19
 4938 0110 00000000 		.4byte	.LFB20
 4939 0114 10000000 		.4byte	.LFE20
 4940 0118 00000000 		.4byte	.LFB21
 4941 011c 90000000 		.4byte	.LFE21
 4942 0120 00000000 		.4byte	.LFB22
 4943 0124 58000000 		.4byte	.LFE22
 4944 0128 00000000 		.4byte	.LFB1
 4945 012c 38000000 		.4byte	.LFE1
 4946 0130 00000000 		.4byte	.LFB2
 4947 0134 F4000000 		.4byte	.LFE2
 4948 0138 00000000 		.4byte	.LFB4
 4949 013c 24000000 		.4byte	.LFE4
 4950 0140 00000000 		.4byte	.LFB13
 4951 0144 58000000 		.4byte	.LFE13
 4952 0148 00000000 		.4byte	.LFB23
 4953 014c 34000000 		.4byte	.LFE23
 4954 0150 00000000 		.4byte	.LFB24
 4955 0154 34000000 		.4byte	.LFE24
 4956 0158 00000000 		.4byte	.LFB25
 4957 015c 0C000000 		.4byte	.LFE25
 4958 0160 00000000 		.4byte	.LFB26
 4959 0164 14000000 		.4byte	.LFE26
 4960 0168 00000000 		.4byte	0
 4961 016c 00000000 		.4byte	0
 4962              		.section	.debug_line,"",%progbits
 4963              	.Ldebug_line0:
 4964 0000 E2030000 		.section	.debug_str,"MS",%progbits,1
 4964      02005400 
 4964      00000201 
 4964      FB0E0D00 
 4964      01010101 
 4965              	.LASF68:
 4966 0000 43414E5F 		.ascii	"CAN_GetRXErrorCount\000"
 4966      47657452 
 4966      58457272 
 4966      6F72436F 
 4966      756E7400 
 4967              	.LASF10:
 4968 0014 75696E74 		.ascii	"uint16\000"
 4968      313600
 4969              	.LASF48:
 4970 001b 72657365 		.ascii	"reset\000"
 4970      7400
 4971              	.LASF50:
 4972 0021 65646765 		.ascii	"edge\000"
 4972      00
 4973              	.LASF77:
 4974 0026 43414E5F 		.ascii	"CAN_Start\000"
ARM GAS  C:\Users\RYANCA~1\AppData\Local\Temp\ccuGCfpb.s 			page 119


 4974      53746172 
 4974      7400
 4975              	.LASF91:
 4976 0030 5C5C4D61 		.ascii	"\\\\Mac\\Home\\Desktop\\Dashboard-Firmware-FE10\\Da"
 4976      635C486F 
 4976      6D655C44 
 4976      65736B74 
 4976      6F705C44 
 4977 005d 7368626F 		.ascii	"shboard.cydsn\000"
 4977      6172642E 
 4977      63796473 
 4977      6E00
 4978              	.LASF74:
 4979 006b 43414E5F 		.ascii	"CAN_RxTxBuffersConfig\000"
 4979      52785478 
 4979      42756666 
 4979      65727343 
 4979      6F6E6669 
 4980              	.LASF56:
 4981 0081 43414E5F 		.ascii	"CAN_Stop\000"
 4981      53746F70 
 4981      00
 4982              	.LASF7:
 4983 008a 6C6F6E67 		.ascii	"long long unsigned int\000"
 4983      206C6F6E 
 4983      6720756E 
 4983      7369676E 
 4983      65642069 
 4984              	.LASF28:
 4985 00a1 7478636D 		.ascii	"txcmd\000"
 4985      6400
 4986              	.LASF33:
 4987 00a7 7278616D 		.ascii	"rxamrd\000"
 4987      726400
 4988              	.LASF92:
 4989 00ae 43414E5F 		.ascii	"CAN_initVar\000"
 4989      696E6974 
 4989      56617200 
 4990              	.LASF40:
 4991 00ba 62697472 		.ascii	"bitrate\000"
 4991      61746500 
 4992              	.LASF6:
 4993 00c2 6C6F6E67 		.ascii	"long long int\000"
 4993      206C6F6E 
 4993      6720696E 
 4993      7400
 4994              	.LASF0:
 4995 00d0 7369676E 		.ascii	"signed char\000"
 4995      65642063 
 4995      68617200 
 4996              	.LASF59:
 4997 00dc 43414E5F 		.ascii	"CAN_GlobalIntDisable\000"
 4997      476C6F62 
 4997      616C496E 
 4997      74446973 
 4997      61626C65 
 4998              	.LASF80:
ARM GAS  C:\Users\RYANCA~1\AppData\Local\Temp\ccuGCfpb.s 			page 120


 4999 00f1 72756E53 		.ascii	"runState\000"
 4999      74617465 
 4999      00
 5000              	.LASF90:
 5001 00fa 47656E65 		.ascii	"Generated_Source\\PSoC4\\CAN.c\000"
 5001      72617465 
 5001      645F536F 
 5001      75726365 
 5001      5C50536F 
 5002              	.LASF4:
 5003 0117 6C6F6E67 		.ascii	"long int\000"
 5003      20696E74 
 5003      00
 5004              	.LASF85:
 5005 0120 4379496E 		.ascii	"CyIntDisable\000"
 5005      74446973 
 5005      61626C65 
 5005      00
 5006              	.LASF32:
 5007 012d 72786461 		.ascii	"rxdata\000"
 5007      746100
 5008              	.LASF9:
 5009 0134 75696E74 		.ascii	"uint8\000"
 5009      3800
 5010              	.LASF24:
 5011 013a 7278616D 		.ascii	"rxamr\000"
 5011      7200
 5012              	.LASF13:
 5013 0140 646F7562 		.ascii	"double\000"
 5013      6C6500
 5014              	.LASF11:
 5015 0147 75696E74 		.ascii	"uint32\000"
 5015      333200
 5016              	.LASF20:
 5017 014e 62797465 		.ascii	"byte\000"
 5017      00
 5018              	.LASF64:
 5019 0153 6D61736B 		.ascii	"mask\000"
 5019      00
 5020              	.LASF66:
 5021 0158 43414E5F 		.ascii	"CAN_GetRXErrorFlag\000"
 5021      47657452 
 5021      58457272 
 5021      6F72466C 
 5021      616700
 5022              	.LASF51:
 5023 016b 43414E5F 		.ascii	"CAN_SetSwapDataEndianness\000"
 5023      53657453 
 5023      77617044 
 5023      61746145 
 5023      6E646961 
 5024              	.LASF63:
 5025 0185 43414E5F 		.ascii	"CAN_SetIrqMask\000"
 5025      53657449 
 5025      72714D61 
 5025      736B00
 5026              	.LASF8:
ARM GAS  C:\Users\RYANCA~1\AppData\Local\Temp\ccuGCfpb.s 			page 121


 5027 0194 756E7369 		.ascii	"unsigned int\000"
 5027      676E6564 
 5027      20696E74 
 5027      00
 5028              	.LASF5:
 5029 01a1 6C6F6E67 		.ascii	"long unsigned int\000"
 5029      20756E73 
 5029      69676E65 
 5029      6420696E 
 5029      7400
 5030              	.LASF54:
 5031 01b3 74696D65 		.ascii	"timeout\000"
 5031      6F757400 
 5032              	.LASF78:
 5033 01bb 43414E5F 		.ascii	"CAN_SetOpMode\000"
 5033      5365744F 
 5033      704D6F64 
 5033      6500
 5034              	.LASF3:
 5035 01c9 73686F72 		.ascii	"short unsigned int\000"
 5035      7420756E 
 5035      7369676E 
 5035      65642069 
 5035      6E7400
 5036              	.LASF35:
 5037 01dc 43414E5F 		.ascii	"CAN_RX_STRUCT\000"
 5037      52585F53 
 5037      54525543 
 5037      5400
 5038              	.LASF75:
 5039 01ea 43414E5F 		.ascii	"CAN_RXConfigStruct\000"
 5039      5258436F 
 5039      6E666967 
 5039      53747275 
 5039      637400
 5040              	.LASF57:
 5041 01fd 43414E5F 		.ascii	"CAN_GlobalIntEnable\000"
 5041      476C6F62 
 5041      616C496E 
 5041      74456E61 
 5041      626C6500 
 5042              	.LASF87:
 5043 0211 4379496E 		.ascii	"CyIntSetVector\000"
 5043      74536574 
 5043      56656374 
 5043      6F7200
 5044              	.LASF26:
 5045 0220 43414E5F 		.ascii	"CAN_RX_CFG\000"
 5045      52585F43 
 5045      464700
 5046              	.LASF79:
 5047 022b 6F704D6F 		.ascii	"opMode\000"
 5047      646500
 5048              	.LASF39:
 5049 0232 43414E5F 		.ascii	"CAN_SetArbiter\000"
 5049      53657441 
 5049      72626974 
ARM GAS  C:\Users\RYANCA~1\AppData\Local\Temp\ccuGCfpb.s 			page 122


 5049      657200
 5050              	.LASF67:
 5051 0241 43414E5F 		.ascii	"CAN_GetTXErrorCount\000"
 5051      47657454 
 5051      58457272 
 5051      6F72436F 
 5051      756E7400 
 5052              	.LASF71:
 5053 0255 7278436F 		.ascii	"rxConfig\000"
 5053      6E666967 
 5053      00
 5054              	.LASF36:
 5055 025e 74786461 		.ascii	"txdata\000"
 5055      746100
 5056              	.LASF16:
 5057 0265 72656733 		.ascii	"reg32\000"
 5057      3200
 5058              	.LASF53:
 5059 026b 43414E5F 		.ascii	"CAN_Init\000"
 5059      496E6974 
 5059      00
 5060              	.LASF61:
 5061 0274 72656741 		.ascii	"regAddr\000"
 5061      64647200 
 5062              	.LASF46:
 5063 027c 63666754 		.ascii	"cfgTemp\000"
 5063      656D7000 
 5064              	.LASF22:
 5065 0284 72786D61 		.ascii	"rxmailbox\000"
 5065      696C626F 
 5065      7800
 5066              	.LASF21:
 5067 028e 43414E5F 		.ascii	"CAN_REG_32\000"
 5067      5245475F 
 5067      333200
 5068              	.LASF18:
 5069 0299 73697A65 		.ascii	"sizetype\000"
 5069      74797065 
 5069      00
 5070              	.LASF17:
 5071 02a2 6C6F6E67 		.ascii	"long double\000"
 5071      20646F75 
 5071      626C6500 
 5072              	.LASF82:
 5073 02ae 6563724D 		.ascii	"ecrMode\000"
 5073      6F646500 
 5074              	.LASF89:
 5075 02b6 474E5520 		.ascii	"GNU C11 5.4.1 20160609 (release) [ARM/embedded-5-br"
 5075      43313120 
 5075      352E342E 
 5075      31203230 
 5075      31363036 
 5076 02e9 616E6368 		.ascii	"anch revision 237715] -mcpu=cortex-m0 -mthumb -g -O"
 5076      20726576 
 5076      6973696F 
 5076      6E203233 
 5076      37373135 
ARM GAS  C:\Users\RYANCA~1\AppData\Local\Temp\ccuGCfpb.s 			page 123


 5077 031c 73202D66 		.ascii	"s -ffunction-sections -ffat-lto-objects\000"
 5077      66756E63 
 5077      74696F6E 
 5077      2D736563 
 5077      74696F6E 
 5078              	.LASF69:
 5079 0344 43414E5F 		.ascii	"CAN_GetErrorState\000"
 5079      47657445 
 5079      72726F72 
 5079      53746174 
 5079      6500
 5080              	.LASF31:
 5081 0356 72786964 		.ascii	"rxid\000"
 5081      00
 5082              	.LASF84:
 5083 035b 43414E5F 		.ascii	"CAN_ArmErrorCaptureRegister\000"
 5083      41726D45 
 5083      72726F72 
 5083      43617074 
 5083      75726552 
 5084              	.LASF88:
 5085 0377 4379496E 		.ascii	"CyIntSetPriority\000"
 5085      74536574 
 5085      5072696F 
 5085      72697479 
 5085      00
 5086              	.LASF52:
 5087 0388 73776170 		.ascii	"swap\000"
 5087      00
 5088              	.LASF60:
 5089 038d 43414E5F 		.ascii	"CAN_RXRegisterInit\000"
 5089      52585265 
 5089      67697374 
 5089      6572496E 
 5089      697400
 5090              	.LASF12:
 5091 03a0 666C6F61 		.ascii	"float\000"
 5091      7400
 5092              	.LASF83:
 5093 03a6 43414E5F 		.ascii	"CAN_ReadErrorCaptureRegister\000"
 5093      52656164 
 5093      4572726F 
 5093      72436170 
 5093      74757265 
 5094              	.LASF15:
 5095 03c3 72656738 		.ascii	"reg8\000"
 5095      00
 5096              	.LASF1:
 5097 03c8 756E7369 		.ascii	"unsigned char\000"
 5097      676E6564 
 5097      20636861 
 5097      7200
 5098              	.LASF2:
 5099 03d6 73686F72 		.ascii	"short int\000"
 5099      7420696E 
 5099      7400
 5100              	.LASF65:
ARM GAS  C:\Users\RYANCA~1\AppData\Local\Temp\ccuGCfpb.s 			page 124


 5101 03e0 43414E5F 		.ascii	"CAN_GetTXErrorFlag\000"
 5101      47657454 
 5101      58457272 
 5101      6F72466C 
 5101      616700
 5102              	.LASF86:
 5103 03f3 4379496E 		.ascii	"CyIntEnable\000"
 5103      74456E61 
 5103      626C6500 
 5104              	.LASF58:
 5105 03ff 43414E5F 		.ascii	"CAN_Enable\000"
 5105      456E6162 
 5105      6C6500
 5106              	.LASF37:
 5107 040a 43414E5F 		.ascii	"CAN_TX_STRUCT\000"
 5107      54585F53 
 5107      54525543 
 5107      5400
 5108              	.LASF81:
 5109 0418 43414E5F 		.ascii	"CAN_SetErrorCaptureRegisterMode\000"
 5109      53657445 
 5109      72726F72 
 5109      43617074 
 5109      75726552 
 5110              	.LASF38:
 5111 0438 43414E5F 		.ascii	"CAN_SetPreScaler\000"
 5111      53657450 
 5111      72655363 
 5111      616C6572 
 5111      00
 5112              	.LASF14:
 5113 0449 63686172 		.ascii	"char\000"
 5113      00
 5114              	.LASF49:
 5115 044e 43414E5F 		.ascii	"CAN_SetEdgeMode\000"
 5115      53657445 
 5115      6467654D 
 5115      6F646500 
 5116              	.LASF62:
 5117 045e 636F6E66 		.ascii	"config\000"
 5117      696700
 5118              	.LASF72:
 5119 0465 43414E5F 		.ascii	"CAN_TxBufConfig\000"
 5119      54784275 
 5119      66436F6E 
 5119      66696700 
 5120              	.LASF55:
 5121 0475 6C6F6361 		.ascii	"localResult\000"
 5121      6C526573 
 5121      756C7400 
 5122              	.LASF76:
 5123 0481 43414E5F 		.ascii	"CAN_TXConfigStruct\000"
 5123      5458436F 
 5123      6E666967 
 5123      53747275 
 5123      637400
 5124              	.LASF19:
ARM GAS  C:\Users\RYANCA~1\AppData\Local\Temp\ccuGCfpb.s 			page 125


 5125 0494 43414E5F 		.ascii	"CAN_DATA_BYTES\000"
 5125      44415441 
 5125      5F425954 
 5125      455300
 5126              	.LASF27:
 5127 04a3 74786D61 		.ascii	"txmailbox\000"
 5127      696C626F 
 5127      7800
 5128              	.LASF44:
 5129 04ad 63666754 		.ascii	"cfgTseg1\000"
 5129      73656731 
 5129      00
 5130              	.LASF45:
 5131 04b6 63666754 		.ascii	"cfgTseg2\000"
 5131      73656732 
 5131      00
 5132              	.LASF43:
 5133 04bf 43414E5F 		.ascii	"CAN_SetTsegSample\000"
 5133      53657454 
 5133      73656753 
 5133      616D706C 
 5133      6500
 5134              	.LASF23:
 5135 04d1 7278636D 		.ascii	"rxcmd\000"
 5135      6400
 5136              	.LASF73:
 5137 04d7 7478436F 		.ascii	"txConfig\000"
 5137      6E666967 
 5137      00
 5138              	.LASF70:
 5139 04e0 43414E5F 		.ascii	"CAN_RxBufConfig\000"
 5139      52784275 
 5139      66436F6E 
 5139      66696700 
 5140              	.LASF29:
 5141 04f0 74786964 		.ascii	"txid\000"
 5141      00
 5142              	.LASF25:
 5143 04f5 72786163 		.ascii	"rxacr\000"
 5143      7200
 5144              	.LASF41:
 5145 04fb 61726269 		.ascii	"arbiter\000"
 5145      74657200 
 5146              	.LASF34:
 5147 0503 72786163 		.ascii	"rxacrd\000"
 5147      726400
 5148              	.LASF30:
 5149 050a 43414E5F 		.ascii	"CAN_TX_CFG\000"
 5149      54585F43 
 5149      464700
 5150              	.LASF42:
 5151 0515 72657375 		.ascii	"result\000"
 5151      6C7400
 5152              	.LASF47:
 5153 051c 43414E5F 		.ascii	"CAN_SetRestartType\000"
 5153      53657452 
 5153      65737461 
ARM GAS  C:\Users\RYANCA~1\AppData\Local\Temp\ccuGCfpb.s 			page 126


 5153      72745479 
 5153      706500
 5154              		.ident	"GCC: (GNU Tools for ARM Embedded Processors) 5.4.1 20160609 (release) [ARM/embedded-5-bran
