ARM GAS  C:\Users\RYANCA~1\AppData\Local\Temp\ccE4tDRp.s 			page 1


   1              		.syntax unified
   2              		.cpu cortex-m0
   3              		.fpu softvfp
   4              		.eabi_attribute 20, 1
   5              		.eabi_attribute 21, 1
   6              		.eabi_attribute 23, 3
   7              		.eabi_attribute 24, 1
   8              		.eabi_attribute 25, 1
   9              		.eabi_attribute 26, 1
  10              		.eabi_attribute 30, 4
  11              		.eabi_attribute 34, 0
  12              		.eabi_attribute 18, 4
  13              		.thumb
  14              		.syntax unified
  15              		.file	"cyfitter_cfg.c"
  16              		.text
  17              	.Ltext0:
  18              		.cfi_sections	.debug_frame
  19              		.section	.text.SetAnalogRoutingPumps,"ax",%progbits
  20              		.align	1
  21              		.global	SetAnalogRoutingPumps
  22              		.code	16
  23              		.thumb_func
  24              		.type	SetAnalogRoutingPumps, %function
  25              	SetAnalogRoutingPumps:
  26              	.LFB7:
  27              		.file 1 "Generated_Source\\PSoC4\\cyfitter_cfg.c"
   1:Generated_Source\PSoC4/cyfitter_cfg.c **** 
   2:Generated_Source\PSoC4/cyfitter_cfg.c **** /*******************************************************************************
   3:Generated_Source\PSoC4/cyfitter_cfg.c **** * File Name: cyfitter_cfg.c
   4:Generated_Source\PSoC4/cyfitter_cfg.c **** * 
   5:Generated_Source\PSoC4/cyfitter_cfg.c **** * PSoC Creator  4.4
   6:Generated_Source\PSoC4/cyfitter_cfg.c **** *
   7:Generated_Source\PSoC4/cyfitter_cfg.c **** * Description:
   8:Generated_Source\PSoC4/cyfitter_cfg.c **** * This file contains device initialization code.
   9:Generated_Source\PSoC4/cyfitter_cfg.c **** * Except for the user defined sections in CyClockStartupError(), this file should not be modified.
  10:Generated_Source\PSoC4/cyfitter_cfg.c **** * This file is automatically generated by PSoC Creator.
  11:Generated_Source\PSoC4/cyfitter_cfg.c **** *
  12:Generated_Source\PSoC4/cyfitter_cfg.c **** ********************************************************************************
  13:Generated_Source\PSoC4/cyfitter_cfg.c **** * Copyright (c) 2007-2020 Cypress Semiconductor.  All rights reserved.
  14:Generated_Source\PSoC4/cyfitter_cfg.c **** * You may use this file only in accordance with the license, terms, conditions, 
  15:Generated_Source\PSoC4/cyfitter_cfg.c **** * disclaimers, and limitations in the end user license agreement accompanying 
  16:Generated_Source\PSoC4/cyfitter_cfg.c **** * the software package with which this file was provided.
  17:Generated_Source\PSoC4/cyfitter_cfg.c **** ********************************************************************************/
  18:Generated_Source\PSoC4/cyfitter_cfg.c **** 
  19:Generated_Source\PSoC4/cyfitter_cfg.c **** #include <string.h>
  20:Generated_Source\PSoC4/cyfitter_cfg.c **** #include "cytypes.h"
  21:Generated_Source\PSoC4/cyfitter_cfg.c **** #include "cydevice_trm.h"
  22:Generated_Source\PSoC4/cyfitter_cfg.c **** #include "cyfitter.h"
  23:Generated_Source\PSoC4/cyfitter_cfg.c **** #include "CyLib.h"
  24:Generated_Source\PSoC4/cyfitter_cfg.c **** #include "cyfitter_cfg.h"
  25:Generated_Source\PSoC4/cyfitter_cfg.c **** #include "cyapicallbacks.h"
  26:Generated_Source\PSoC4/cyfitter_cfg.c **** 
  27:Generated_Source\PSoC4/cyfitter_cfg.c **** 
  28:Generated_Source\PSoC4/cyfitter_cfg.c **** #if defined(__GNUC__) || defined(__ARMCC_VERSION)
  29:Generated_Source\PSoC4/cyfitter_cfg.c ****     #define CYPACKED 
  30:Generated_Source\PSoC4/cyfitter_cfg.c ****     #define CYPACKED_ATTR __attribute__ ((packed))
ARM GAS  C:\Users\RYANCA~1\AppData\Local\Temp\ccE4tDRp.s 			page 2


  31:Generated_Source\PSoC4/cyfitter_cfg.c ****     #define CYALIGNED __attribute__ ((aligned))
  32:Generated_Source\PSoC4/cyfitter_cfg.c ****     #define CY_CFG_UNUSED __attribute__ ((unused))
  33:Generated_Source\PSoC4/cyfitter_cfg.c ****     #ifndef CY_CFG_SECTION
  34:Generated_Source\PSoC4/cyfitter_cfg.c ****         #define CY_CFG_SECTION __attribute__ ((section(".psocinit")))
  35:Generated_Source\PSoC4/cyfitter_cfg.c ****     #endif
  36:Generated_Source\PSoC4/cyfitter_cfg.c ****     
  37:Generated_Source\PSoC4/cyfitter_cfg.c ****     #if defined(__ARMCC_VERSION)
  38:Generated_Source\PSoC4/cyfitter_cfg.c ****         #define CY_CFG_MEMORY_BARRIER() __memory_changed()
  39:Generated_Source\PSoC4/cyfitter_cfg.c ****     #else
  40:Generated_Source\PSoC4/cyfitter_cfg.c ****         #define CY_CFG_MEMORY_BARRIER() __sync_synchronize()
  41:Generated_Source\PSoC4/cyfitter_cfg.c ****     #endif
  42:Generated_Source\PSoC4/cyfitter_cfg.c ****     
  43:Generated_Source\PSoC4/cyfitter_cfg.c **** #elif defined(__ICCARM__)
  44:Generated_Source\PSoC4/cyfitter_cfg.c ****     #include <intrinsics.h>
  45:Generated_Source\PSoC4/cyfitter_cfg.c **** 
  46:Generated_Source\PSoC4/cyfitter_cfg.c ****     #define CYPACKED __packed
  47:Generated_Source\PSoC4/cyfitter_cfg.c ****     #define CYPACKED_ATTR 
  48:Generated_Source\PSoC4/cyfitter_cfg.c ****     #define CYALIGNED _Pragma("data_alignment=4")
  49:Generated_Source\PSoC4/cyfitter_cfg.c ****     #define CY_CFG_UNUSED _Pragma("diag_suppress=Pe177")
  50:Generated_Source\PSoC4/cyfitter_cfg.c ****     #define CY_CFG_SECTION _Pragma("location=\".psocinit\"")
  51:Generated_Source\PSoC4/cyfitter_cfg.c ****     
  52:Generated_Source\PSoC4/cyfitter_cfg.c ****     #define CY_CFG_MEMORY_BARRIER() __DMB()
  53:Generated_Source\PSoC4/cyfitter_cfg.c ****     
  54:Generated_Source\PSoC4/cyfitter_cfg.c **** #else
  55:Generated_Source\PSoC4/cyfitter_cfg.c ****     #error Unsupported toolchain
  56:Generated_Source\PSoC4/cyfitter_cfg.c **** #endif
  57:Generated_Source\PSoC4/cyfitter_cfg.c **** 
  58:Generated_Source\PSoC4/cyfitter_cfg.c **** #ifndef CYCODE
  59:Generated_Source\PSoC4/cyfitter_cfg.c ****     #define CYCODE
  60:Generated_Source\PSoC4/cyfitter_cfg.c **** #endif
  61:Generated_Source\PSoC4/cyfitter_cfg.c **** #ifndef CYDATA
  62:Generated_Source\PSoC4/cyfitter_cfg.c ****     #define CYDATA
  63:Generated_Source\PSoC4/cyfitter_cfg.c **** #endif
  64:Generated_Source\PSoC4/cyfitter_cfg.c **** #ifndef CYFAR
  65:Generated_Source\PSoC4/cyfitter_cfg.c ****     #define CYFAR
  66:Generated_Source\PSoC4/cyfitter_cfg.c **** #endif
  67:Generated_Source\PSoC4/cyfitter_cfg.c **** #ifndef CYXDATA
  68:Generated_Source\PSoC4/cyfitter_cfg.c ****     #define CYXDATA
  69:Generated_Source\PSoC4/cyfitter_cfg.c **** #endif
  70:Generated_Source\PSoC4/cyfitter_cfg.c **** 
  71:Generated_Source\PSoC4/cyfitter_cfg.c **** 
  72:Generated_Source\PSoC4/cyfitter_cfg.c **** CY_CFG_UNUSED
  73:Generated_Source\PSoC4/cyfitter_cfg.c **** static void CYMEMZERO(void *s, size_t n);
  74:Generated_Source\PSoC4/cyfitter_cfg.c **** CY_CFG_UNUSED
  75:Generated_Source\PSoC4/cyfitter_cfg.c **** static void CYMEMZERO(void *s, size_t n)
  76:Generated_Source\PSoC4/cyfitter_cfg.c **** {
  77:Generated_Source\PSoC4/cyfitter_cfg.c **** 	(void)memset(s, 0, n);
  78:Generated_Source\PSoC4/cyfitter_cfg.c **** }
  79:Generated_Source\PSoC4/cyfitter_cfg.c **** CY_CFG_UNUSED
  80:Generated_Source\PSoC4/cyfitter_cfg.c **** static void CYCONFIGCPY(void *dest, const void *src, size_t n);
  81:Generated_Source\PSoC4/cyfitter_cfg.c **** CY_CFG_UNUSED
  82:Generated_Source\PSoC4/cyfitter_cfg.c **** static void CYCONFIGCPY(void *dest, const void *src, size_t n)
  83:Generated_Source\PSoC4/cyfitter_cfg.c **** {
  84:Generated_Source\PSoC4/cyfitter_cfg.c **** 	(void)memcpy(dest, src, n);
  85:Generated_Source\PSoC4/cyfitter_cfg.c **** }
  86:Generated_Source\PSoC4/cyfitter_cfg.c **** CY_CFG_UNUSED
  87:Generated_Source\PSoC4/cyfitter_cfg.c **** static void CYCONFIGCPYCODE(void *dest, const void *src, size_t n);
ARM GAS  C:\Users\RYANCA~1\AppData\Local\Temp\ccE4tDRp.s 			page 3


  88:Generated_Source\PSoC4/cyfitter_cfg.c **** CY_CFG_UNUSED
  89:Generated_Source\PSoC4/cyfitter_cfg.c **** static void CYCONFIGCPYCODE(void *dest, const void *src, size_t n)
  90:Generated_Source\PSoC4/cyfitter_cfg.c **** {
  91:Generated_Source\PSoC4/cyfitter_cfg.c **** 	(void)memcpy(dest, src, n);
  92:Generated_Source\PSoC4/cyfitter_cfg.c **** }
  93:Generated_Source\PSoC4/cyfitter_cfg.c **** 
  94:Generated_Source\PSoC4/cyfitter_cfg.c **** 
  95:Generated_Source\PSoC4/cyfitter_cfg.c **** 
  96:Generated_Source\PSoC4/cyfitter_cfg.c **** 
  97:Generated_Source\PSoC4/cyfitter_cfg.c **** /* Clock startup error codes                                                   */
  98:Generated_Source\PSoC4/cyfitter_cfg.c **** #define CYCLOCKSTART_NO_ERROR    0u
  99:Generated_Source\PSoC4/cyfitter_cfg.c **** #define CYCLOCKSTART_XTAL_ERROR  1u
 100:Generated_Source\PSoC4/cyfitter_cfg.c **** #define CYCLOCKSTART_32KHZ_ERROR 2u
 101:Generated_Source\PSoC4/cyfitter_cfg.c **** #define CYCLOCKSTART_PLL_ERROR   3u
 102:Generated_Source\PSoC4/cyfitter_cfg.c **** #define CYCLOCKSTART_FLL_ERROR   4u
 103:Generated_Source\PSoC4/cyfitter_cfg.c **** #define CYCLOCKSTART_WCO_ERROR   5u
 104:Generated_Source\PSoC4/cyfitter_cfg.c **** 
 105:Generated_Source\PSoC4/cyfitter_cfg.c **** 
 106:Generated_Source\PSoC4/cyfitter_cfg.c **** #ifdef CY_NEED_CYCLOCKSTARTUPERROR
 107:Generated_Source\PSoC4/cyfitter_cfg.c **** /*******************************************************************************
 108:Generated_Source\PSoC4/cyfitter_cfg.c **** * Function Name: CyClockStartupError
 109:Generated_Source\PSoC4/cyfitter_cfg.c **** ********************************************************************************
 110:Generated_Source\PSoC4/cyfitter_cfg.c **** * Summary:
 111:Generated_Source\PSoC4/cyfitter_cfg.c **** *  If an error is encountered during clock configuration (crystal startup error,
 112:Generated_Source\PSoC4/cyfitter_cfg.c **** *  PLL lock error, etc.), the system will end up here.  Unless reimplemented by
 113:Generated_Source\PSoC4/cyfitter_cfg.c **** *  the customer, this function will stop in an infinite loop.
 114:Generated_Source\PSoC4/cyfitter_cfg.c **** *
 115:Generated_Source\PSoC4/cyfitter_cfg.c **** * Parameters:
 116:Generated_Source\PSoC4/cyfitter_cfg.c **** *   void
 117:Generated_Source\PSoC4/cyfitter_cfg.c **** *
 118:Generated_Source\PSoC4/cyfitter_cfg.c **** * Return:
 119:Generated_Source\PSoC4/cyfitter_cfg.c **** *   void
 120:Generated_Source\PSoC4/cyfitter_cfg.c **** *
 121:Generated_Source\PSoC4/cyfitter_cfg.c **** *******************************************************************************/
 122:Generated_Source\PSoC4/cyfitter_cfg.c **** CY_CFG_UNUSED
 123:Generated_Source\PSoC4/cyfitter_cfg.c **** static void CyClockStartupError(uint8 errorCode);
 124:Generated_Source\PSoC4/cyfitter_cfg.c **** CY_CFG_UNUSED
 125:Generated_Source\PSoC4/cyfitter_cfg.c **** static void CyClockStartupError(uint8 errorCode)
 126:Generated_Source\PSoC4/cyfitter_cfg.c **** {
 127:Generated_Source\PSoC4/cyfitter_cfg.c ****     /* To remove the compiler warning if errorCode not used.                */
 128:Generated_Source\PSoC4/cyfitter_cfg.c ****     errorCode = errorCode;
 129:Generated_Source\PSoC4/cyfitter_cfg.c **** 
 130:Generated_Source\PSoC4/cyfitter_cfg.c ****     /* If we have a clock startup error (bad MHz crystal, PLL lock, etc.),  */
 131:Generated_Source\PSoC4/cyfitter_cfg.c ****     /* we will end up here to allow the customer to implement something to  */
 132:Generated_Source\PSoC4/cyfitter_cfg.c ****     /* deal with the clock condition.                                       */
 133:Generated_Source\PSoC4/cyfitter_cfg.c **** 
 134:Generated_Source\PSoC4/cyfitter_cfg.c **** #ifdef CY_CFG_CLOCK_STARTUP_ERROR_CALLBACK
 135:Generated_Source\PSoC4/cyfitter_cfg.c ****     CY_CFG_Clock_Startup_ErrorCallback();
 136:Generated_Source\PSoC4/cyfitter_cfg.c **** #else
 137:Generated_Source\PSoC4/cyfitter_cfg.c ****     /*  If not using CY_CFG_CLOCK_STARTUP_ERROR_CALLBACK, place your clock startup code here. */
 138:Generated_Source\PSoC4/cyfitter_cfg.c ****     /* `#START CyClockStartupError` */
 139:Generated_Source\PSoC4/cyfitter_cfg.c **** 
 140:Generated_Source\PSoC4/cyfitter_cfg.c **** 
 141:Generated_Source\PSoC4/cyfitter_cfg.c **** 
 142:Generated_Source\PSoC4/cyfitter_cfg.c ****     /* `#END` */
 143:Generated_Source\PSoC4/cyfitter_cfg.c **** 
 144:Generated_Source\PSoC4/cyfitter_cfg.c ****     while(1) {}
ARM GAS  C:\Users\RYANCA~1\AppData\Local\Temp\ccE4tDRp.s 			page 4


 145:Generated_Source\PSoC4/cyfitter_cfg.c **** #endif /* CY_CFG_CLOCK_STARTUP_ERROR_CALLBACK */
 146:Generated_Source\PSoC4/cyfitter_cfg.c **** }
 147:Generated_Source\PSoC4/cyfitter_cfg.c **** #endif
 148:Generated_Source\PSoC4/cyfitter_cfg.c **** 
 149:Generated_Source\PSoC4/cyfitter_cfg.c **** #define CY_CFG_BASE_ADDR_COUNT 8u
 150:Generated_Source\PSoC4/cyfitter_cfg.c **** CYPACKED typedef struct
 151:Generated_Source\PSoC4/cyfitter_cfg.c **** {
 152:Generated_Source\PSoC4/cyfitter_cfg.c **** 	uint8 offset;
 153:Generated_Source\PSoC4/cyfitter_cfg.c **** 	uint8 value;
 154:Generated_Source\PSoC4/cyfitter_cfg.c **** } CYPACKED_ATTR cy_cfg_addrvalue_t;
 155:Generated_Source\PSoC4/cyfitter_cfg.c **** 
 156:Generated_Source\PSoC4/cyfitter_cfg.c **** 
 157:Generated_Source\PSoC4/cyfitter_cfg.c **** 
 158:Generated_Source\PSoC4/cyfitter_cfg.c **** /*******************************************************************************
 159:Generated_Source\PSoC4/cyfitter_cfg.c **** * Function Name: cfg_write_bytes32
 160:Generated_Source\PSoC4/cyfitter_cfg.c **** ********************************************************************************
 161:Generated_Source\PSoC4/cyfitter_cfg.c **** * Summary:
 162:Generated_Source\PSoC4/cyfitter_cfg.c **** *  This function is used for setting up the chip configuration areas that
 163:Generated_Source\PSoC4/cyfitter_cfg.c **** *  contain relatively sparse data.
 164:Generated_Source\PSoC4/cyfitter_cfg.c **** *
 165:Generated_Source\PSoC4/cyfitter_cfg.c **** * Parameters:
 166:Generated_Source\PSoC4/cyfitter_cfg.c **** *   void
 167:Generated_Source\PSoC4/cyfitter_cfg.c **** *
 168:Generated_Source\PSoC4/cyfitter_cfg.c **** * Return:
 169:Generated_Source\PSoC4/cyfitter_cfg.c **** *   void
 170:Generated_Source\PSoC4/cyfitter_cfg.c **** *
 171:Generated_Source\PSoC4/cyfitter_cfg.c **** *******************************************************************************/
 172:Generated_Source\PSoC4/cyfitter_cfg.c **** static void cfg_write_bytes32(const uint32 addr_table[], const cy_cfg_addrvalue_t data_table[]);
 173:Generated_Source\PSoC4/cyfitter_cfg.c **** static void cfg_write_bytes32(const uint32 addr_table[], const cy_cfg_addrvalue_t data_table[])
 174:Generated_Source\PSoC4/cyfitter_cfg.c **** {
 175:Generated_Source\PSoC4/cyfitter_cfg.c **** 	/* For 32-bit little-endian architectures */
 176:Generated_Source\PSoC4/cyfitter_cfg.c **** 	uint32 i, j = 0u;
 177:Generated_Source\PSoC4/cyfitter_cfg.c **** 	for (i = 0u; i < CY_CFG_BASE_ADDR_COUNT; i++)
 178:Generated_Source\PSoC4/cyfitter_cfg.c **** 	{
 179:Generated_Source\PSoC4/cyfitter_cfg.c **** 		uint32 baseAddr = addr_table[i];
 180:Generated_Source\PSoC4/cyfitter_cfg.c **** 		uint8 count = (uint8)baseAddr;
 181:Generated_Source\PSoC4/cyfitter_cfg.c **** 		baseAddr &= 0xFFFFFF00u;
 182:Generated_Source\PSoC4/cyfitter_cfg.c **** 		while (count != 0u)
 183:Generated_Source\PSoC4/cyfitter_cfg.c **** 		{
 184:Generated_Source\PSoC4/cyfitter_cfg.c **** 			CY_SET_REG8((void *)(baseAddr + data_table[j].offset), data_table[j].value);
 185:Generated_Source\PSoC4/cyfitter_cfg.c **** 			j++;
 186:Generated_Source\PSoC4/cyfitter_cfg.c **** 			count--;
 187:Generated_Source\PSoC4/cyfitter_cfg.c **** 		}
 188:Generated_Source\PSoC4/cyfitter_cfg.c **** 	}
 189:Generated_Source\PSoC4/cyfitter_cfg.c **** }
 190:Generated_Source\PSoC4/cyfitter_cfg.c **** 
 191:Generated_Source\PSoC4/cyfitter_cfg.c **** 
 192:Generated_Source\PSoC4/cyfitter_cfg.c **** /*******************************************************************************
 193:Generated_Source\PSoC4/cyfitter_cfg.c **** * Function Name: ClockSetup
 194:Generated_Source\PSoC4/cyfitter_cfg.c **** ********************************************************************************
 195:Generated_Source\PSoC4/cyfitter_cfg.c **** *
 196:Generated_Source\PSoC4/cyfitter_cfg.c **** * Summary:
 197:Generated_Source\PSoC4/cyfitter_cfg.c **** *   Performs the initialization of all of the clocks in the device based on the
 198:Generated_Source\PSoC4/cyfitter_cfg.c **** *   settings in the Clock tab of the DWR.  This includes enabling the requested
 199:Generated_Source\PSoC4/cyfitter_cfg.c **** *   clocks and setting the necessary dividers to produce the desired frequency. 
 200:Generated_Source\PSoC4/cyfitter_cfg.c **** *
 201:Generated_Source\PSoC4/cyfitter_cfg.c **** * Parameters:
ARM GAS  C:\Users\RYANCA~1\AppData\Local\Temp\ccE4tDRp.s 			page 5


 202:Generated_Source\PSoC4/cyfitter_cfg.c **** *   void
 203:Generated_Source\PSoC4/cyfitter_cfg.c **** *
 204:Generated_Source\PSoC4/cyfitter_cfg.c **** * Return:
 205:Generated_Source\PSoC4/cyfitter_cfg.c **** *   void
 206:Generated_Source\PSoC4/cyfitter_cfg.c **** *
 207:Generated_Source\PSoC4/cyfitter_cfg.c **** *******************************************************************************/
 208:Generated_Source\PSoC4/cyfitter_cfg.c **** static void ClockSetup(void);
 209:Generated_Source\PSoC4/cyfitter_cfg.c **** CY_CFG_SECTION
 210:Generated_Source\PSoC4/cyfitter_cfg.c **** static void ClockSetup(void)
 211:Generated_Source\PSoC4/cyfitter_cfg.c **** {
 212:Generated_Source\PSoC4/cyfitter_cfg.c **** 
 213:Generated_Source\PSoC4/cyfitter_cfg.c **** 	/* Set Flash Cycles based on max possible frequency in case a glitch occurs during ClockSetup(). *
 214:Generated_Source\PSoC4/cyfitter_cfg.c **** 	CY_SET_REG32((void CYXDATA *)(CYREG_CPUSS_FLASH_CTL), (0x0012u));
 215:Generated_Source\PSoC4/cyfitter_cfg.c **** 	/* Setup and trim IMO based on desired frequency. */
 216:Generated_Source\PSoC4/cyfitter_cfg.c **** 	CySysClkWriteImoFreq(48u);
 217:Generated_Source\PSoC4/cyfitter_cfg.c **** 	/* CYDEV_CLK_ILO_CONFIG Starting address: CYDEV_CLK_ILO_CONFIG */
 218:Generated_Source\PSoC4/cyfitter_cfg.c **** 	CY_SET_REG32((void *)(CYREG_CLK_ILO_CONFIG), 0x80000006u);
 219:Generated_Source\PSoC4/cyfitter_cfg.c **** 
 220:Generated_Source\PSoC4/cyfitter_cfg.c **** 
 221:Generated_Source\PSoC4/cyfitter_cfg.c **** 	/* Setup phase aligned clocks */
 222:Generated_Source\PSoC4/cyfitter_cfg.c **** 	CY_SET_REG32((void *)CYREG_PERI_DIV_16_CTL0, 0x00000000u);
 223:Generated_Source\PSoC4/cyfitter_cfg.c **** 	CY_SET_REG32((void *)CYREG_PERI_DIV_CMD, 0x8000FF40u);
 224:Generated_Source\PSoC4/cyfitter_cfg.c **** 	CY_SET_REG32((void *)CYREG_PERI_DIV_16_CTL1, 0x00000100u);
 225:Generated_Source\PSoC4/cyfitter_cfg.c **** 	CY_SET_REG32((void *)CYREG_PERI_DIV_CMD, 0x8000FF41u);
 226:Generated_Source\PSoC4/cyfitter_cfg.c **** 	CY_SET_REG32((void *)CYREG_PERI_DIV_16_CTL2, 0x00000800u);
 227:Generated_Source\PSoC4/cyfitter_cfg.c **** 	CY_SET_REG32((void *)CYREG_PERI_DIV_CMD, 0x8000FF42u);
 228:Generated_Source\PSoC4/cyfitter_cfg.c **** 
 229:Generated_Source\PSoC4/cyfitter_cfg.c **** 	/* CYDEV_CLK_IMO_CONFIG Starting address: CYDEV_CLK_IMO_CONFIG */
 230:Generated_Source\PSoC4/cyfitter_cfg.c **** 	CY_SET_REG32((void *)(CYREG_CLK_IMO_CONFIG), 0x82000000u);
 231:Generated_Source\PSoC4/cyfitter_cfg.c **** 
 232:Generated_Source\PSoC4/cyfitter_cfg.c **** 	/* CYDEV_CLK_SELECT Starting address: CYDEV_CLK_SELECT */
 233:Generated_Source\PSoC4/cyfitter_cfg.c **** 	CY_SET_REG32((void *)(CYREG_CLK_SELECT), 0x00040000u);
 234:Generated_Source\PSoC4/cyfitter_cfg.c **** 
 235:Generated_Source\PSoC4/cyfitter_cfg.c **** 	/* CYDEV_PERI_PCLK_CTL19 Starting address: CYDEV_PERI_PCLK_CTL19 */
 236:Generated_Source\PSoC4/cyfitter_cfg.c **** 	CY_SET_REG32((void *)(CYREG_PERI_PCLK_CTL19), 0x00000041u);
 237:Generated_Source\PSoC4/cyfitter_cfg.c **** 
 238:Generated_Source\PSoC4/cyfitter_cfg.c **** 	/* CYDEV_PERI_PCLK_CTL10 Starting address: CYDEV_PERI_PCLK_CTL10 */
 239:Generated_Source\PSoC4/cyfitter_cfg.c **** 	CY_SET_REG32((void *)(CYREG_PERI_PCLK_CTL10), 0x00000042u);
 240:Generated_Source\PSoC4/cyfitter_cfg.c **** 
 241:Generated_Source\PSoC4/cyfitter_cfg.c **** 	CY_SET_REG32((void *)(CYREG_WDT_CONFIG), 0x00000000u);
 242:Generated_Source\PSoC4/cyfitter_cfg.c **** }
 243:Generated_Source\PSoC4/cyfitter_cfg.c **** 
 244:Generated_Source\PSoC4/cyfitter_cfg.c **** 
 245:Generated_Source\PSoC4/cyfitter_cfg.c **** /* Analog API Functions */
 246:Generated_Source\PSoC4/cyfitter_cfg.c **** 
 247:Generated_Source\PSoC4/cyfitter_cfg.c **** 
 248:Generated_Source\PSoC4/cyfitter_cfg.c **** /*******************************************************************************
 249:Generated_Source\PSoC4/cyfitter_cfg.c **** * Function Name: AnalogSetDefault
 250:Generated_Source\PSoC4/cyfitter_cfg.c **** ********************************************************************************
 251:Generated_Source\PSoC4/cyfitter_cfg.c **** *
 252:Generated_Source\PSoC4/cyfitter_cfg.c **** * Summary:
 253:Generated_Source\PSoC4/cyfitter_cfg.c **** *  Sets up the analog portions of the chip to default values based on chip
 254:Generated_Source\PSoC4/cyfitter_cfg.c **** *  configuration options from the project.
 255:Generated_Source\PSoC4/cyfitter_cfg.c **** *
 256:Generated_Source\PSoC4/cyfitter_cfg.c **** * Parameters:
 257:Generated_Source\PSoC4/cyfitter_cfg.c **** *  void
 258:Generated_Source\PSoC4/cyfitter_cfg.c **** *
ARM GAS  C:\Users\RYANCA~1\AppData\Local\Temp\ccE4tDRp.s 			page 6


 259:Generated_Source\PSoC4/cyfitter_cfg.c **** * Return:
 260:Generated_Source\PSoC4/cyfitter_cfg.c **** *  void
 261:Generated_Source\PSoC4/cyfitter_cfg.c **** *
 262:Generated_Source\PSoC4/cyfitter_cfg.c **** *******************************************************************************/
 263:Generated_Source\PSoC4/cyfitter_cfg.c **** static void AnalogSetDefault(void);
 264:Generated_Source\PSoC4/cyfitter_cfg.c **** static void AnalogSetDefault(void)
 265:Generated_Source\PSoC4/cyfitter_cfg.c **** {
 266:Generated_Source\PSoC4/cyfitter_cfg.c **** 	CY_SET_XTND_REG32((void CYFAR *)CYREG_CTBM0_DFT_CTRL, 0x00000003u);
 267:Generated_Source\PSoC4/cyfitter_cfg.c **** 	CY_SET_XTND_REG32((void CYFAR *)CYREG_CTBM1_DFT_CTRL, 0x00000003u);
 268:Generated_Source\PSoC4/cyfitter_cfg.c **** 	CY_SET_XTND_REG32((void CYFAR *)CYREG_SAR_CTRL, 0x80000000u);
 269:Generated_Source\PSoC4/cyfitter_cfg.c **** 	CY_SET_XTND_REG32((void CYFAR *)CYREG_SAR_MUX_SWITCH0, 0x000000C0u);
 270:Generated_Source\PSoC4/cyfitter_cfg.c **** 	CY_SET_XTND_REG32((void CYFAR *)CYREG_SAR_MUX_SWITCH_HW_CTRL, 0x000000C0u);
 271:Generated_Source\PSoC4/cyfitter_cfg.c **** 	CY_SET_XTND_REG32((void CYFAR *)CYREG_PASS_DSAB_DSAB_CTRL, 0x00000000u);
 272:Generated_Source\PSoC4/cyfitter_cfg.c **** 	SetAnalogRoutingPumps(1);
 273:Generated_Source\PSoC4/cyfitter_cfg.c **** }
 274:Generated_Source\PSoC4/cyfitter_cfg.c **** 
 275:Generated_Source\PSoC4/cyfitter_cfg.c **** 
 276:Generated_Source\PSoC4/cyfitter_cfg.c **** /*******************************************************************************
 277:Generated_Source\PSoC4/cyfitter_cfg.c **** * Function Name: SetAnalogRoutingPumps
 278:Generated_Source\PSoC4/cyfitter_cfg.c **** ********************************************************************************
 279:Generated_Source\PSoC4/cyfitter_cfg.c **** *
 280:Generated_Source\PSoC4/cyfitter_cfg.c **** * Summary:
 281:Generated_Source\PSoC4/cyfitter_cfg.c **** * Enables or disables the analog pumps feeding analog routing switches.
 282:Generated_Source\PSoC4/cyfitter_cfg.c **** * Intended to be called at startup, based on the Vdda system configuration;
 283:Generated_Source\PSoC4/cyfitter_cfg.c **** * may be called during operation when the user informs us that the Vdda voltage crossed the pump th
 284:Generated_Source\PSoC4/cyfitter_cfg.c **** *
 285:Generated_Source\PSoC4/cyfitter_cfg.c **** * Parameters:
 286:Generated_Source\PSoC4/cyfitter_cfg.c **** *  enabled - 1 to enable the pumps, 0 to disable the pumps
 287:Generated_Source\PSoC4/cyfitter_cfg.c **** *
 288:Generated_Source\PSoC4/cyfitter_cfg.c **** * Return:
 289:Generated_Source\PSoC4/cyfitter_cfg.c **** *  void
 290:Generated_Source\PSoC4/cyfitter_cfg.c **** *
 291:Generated_Source\PSoC4/cyfitter_cfg.c **** *******************************************************************************/
 292:Generated_Source\PSoC4/cyfitter_cfg.c **** void SetAnalogRoutingPumps(uint8 enabled)
 293:Generated_Source\PSoC4/cyfitter_cfg.c **** {
  28              		.loc 1 293 0
  29              		.cfi_startproc
  30              		@ args = 0, pretend = 0, frame = 0
  31              		@ frame_needed = 0, uses_anonymous_args = 0
  32              		@ link register save eliminated.
  33              	.LVL0:
 294:Generated_Source\PSoC4/cyfitter_cfg.c **** 	uint32 regValue = CY_GET_XTND_REG32((void *)(CYREG_SAR_PUMP_CTRL));
  34              		.loc 1 294 0
  35 0000 054A     		ldr	r2, .L5
  36 0002 1368     		ldr	r3, [r2]
  37              	.LVL1:
 295:Generated_Source\PSoC4/cyfitter_cfg.c **** 	if (enabled != 0u)
  38              		.loc 1 295 0
  39 0004 0028     		cmp	r0, #0
  40 0006 03D0     		beq	.L2
 296:Generated_Source\PSoC4/cyfitter_cfg.c **** 	{
 297:Generated_Source\PSoC4/cyfitter_cfg.c **** 		regValue |= 0x80000000u;
  41              		.loc 1 297 0
  42 0008 8021     		movs	r1, #128
  43 000a 0906     		lsls	r1, r1, #24
  44 000c 0B43     		orrs	r3, r1
  45              	.LVL2:
ARM GAS  C:\Users\RYANCA~1\AppData\Local\Temp\ccE4tDRp.s 			page 7


  46 000e 01E0     		b	.L3
  47              	.L2:
 298:Generated_Source\PSoC4/cyfitter_cfg.c **** 	}
 299:Generated_Source\PSoC4/cyfitter_cfg.c **** 	else
 300:Generated_Source\PSoC4/cyfitter_cfg.c **** 	{
 301:Generated_Source\PSoC4/cyfitter_cfg.c **** 		regValue &= ~0x80000000u;
  48              		.loc 1 301 0
  49 0010 5B00     		lsls	r3, r3, #1
  50              	.LVL3:
  51 0012 5B08     		lsrs	r3, r3, #1
  52              	.LVL4:
  53              	.L3:
 302:Generated_Source\PSoC4/cyfitter_cfg.c **** 	}
 303:Generated_Source\PSoC4/cyfitter_cfg.c **** 	CY_SET_XTND_REG32((void *)(CYREG_SAR_PUMP_CTRL), regValue);
  54              		.loc 1 303 0
  55 0014 1360     		str	r3, [r2]
 304:Generated_Source\PSoC4/cyfitter_cfg.c **** }
  56              		.loc 1 304 0
  57              		@ sp needed
  58 0016 7047     		bx	lr
  59              	.L6:
  60              		.align	2
  61              	.L5:
  62 0018 80033A40 		.word	1077543808
  63              		.cfi_endproc
  64              	.LFE7:
  65              		.size	SetAnalogRoutingPumps, .-SetAnalogRoutingPumps
  66              		.section	.psocinit,"ax",%progbits
  67              		.align	1
  68              		.global	cyfitter_cfg
  69              		.code	16
  70              		.thumb_func
  71              		.type	cyfitter_cfg, %function
  72              	cyfitter_cfg:
  73              	.LFB8:
 305:Generated_Source\PSoC4/cyfitter_cfg.c **** 
 306:Generated_Source\PSoC4/cyfitter_cfg.c **** 
 307:Generated_Source\PSoC4/cyfitter_cfg.c **** 
 308:Generated_Source\PSoC4/cyfitter_cfg.c **** 
 309:Generated_Source\PSoC4/cyfitter_cfg.c **** /*******************************************************************************
 310:Generated_Source\PSoC4/cyfitter_cfg.c **** * Function Name: cyfitter_cfg
 311:Generated_Source\PSoC4/cyfitter_cfg.c **** ********************************************************************************
 312:Generated_Source\PSoC4/cyfitter_cfg.c **** * Summary:
 313:Generated_Source\PSoC4/cyfitter_cfg.c **** *  This function is called by the start-up code for the selected device. It
 314:Generated_Source\PSoC4/cyfitter_cfg.c **** *  performs all of the necessary device configuration based on the design
 315:Generated_Source\PSoC4/cyfitter_cfg.c **** *  settings.  This includes settings from the Design Wide Resources (DWR) such
 316:Generated_Source\PSoC4/cyfitter_cfg.c **** *  as Clocks and Pins as well as any component configuration that is necessary.
 317:Generated_Source\PSoC4/cyfitter_cfg.c **** *
 318:Generated_Source\PSoC4/cyfitter_cfg.c **** * Parameters:
 319:Generated_Source\PSoC4/cyfitter_cfg.c **** *   void
 320:Generated_Source\PSoC4/cyfitter_cfg.c **** *
 321:Generated_Source\PSoC4/cyfitter_cfg.c **** * Return:
 322:Generated_Source\PSoC4/cyfitter_cfg.c **** *   void
 323:Generated_Source\PSoC4/cyfitter_cfg.c **** *
 324:Generated_Source\PSoC4/cyfitter_cfg.c **** *******************************************************************************/
 325:Generated_Source\PSoC4/cyfitter_cfg.c **** CY_CFG_SECTION
 326:Generated_Source\PSoC4/cyfitter_cfg.c **** void cyfitter_cfg(void)
ARM GAS  C:\Users\RYANCA~1\AppData\Local\Temp\ccE4tDRp.s 			page 8


 327:Generated_Source\PSoC4/cyfitter_cfg.c **** {
  74              		.loc 1 327 0
  75              		.cfi_startproc
  76              		@ args = 0, pretend = 0, frame = 8
  77              		@ frame_needed = 0, uses_anonymous_args = 0
  78 0000 F7B5     		push	{r0, r1, r2, r4, r5, r6, r7, lr}
  79              		.cfi_def_cfa_offset 32
  80              		.cfi_offset 0, -32
  81              		.cfi_offset 1, -28
  82              		.cfi_offset 2, -24
  83              		.cfi_offset 4, -20
  84              		.cfi_offset 5, -16
  85              		.cfi_offset 6, -12
  86              		.cfi_offset 7, -8
  87              		.cfi_offset 14, -4
 328:Generated_Source\PSoC4/cyfitter_cfg.c **** 	/* Disable interrupts by default. Let user enable if/when they want. */
 329:Generated_Source\PSoC4/cyfitter_cfg.c **** 	CyGlobalIntDisable;
  88              		.loc 1 329 0
  89              		.syntax divided
  90              	@ 329 "Generated_Source\PSoC4\cyfitter_cfg.c" 1
  91 0002 72B6     		CPSID   i
  92              	@ 0 "" 2
 330:Generated_Source\PSoC4/cyfitter_cfg.c **** 
 331:Generated_Source\PSoC4/cyfitter_cfg.c **** 	/* Enable the clock in the interrupt controller for the routed interrupts */
 332:Generated_Source\PSoC4/cyfitter_cfg.c **** 	CY_SET_REG8((void *)CYREG_UDB_UDBIF_INT_CLK_CTL, 0x01u);
  93              		.loc 1 332 0
  94              		.thumb
  95              		.syntax unified
  96 0004 0122     		movs	r2, #1
  97 0006 614B     		ldr	r3, .L13
  98              	.LBB14:
  99              	.LBB15:
 100              	.LBB16:
 101              	.LBB17:
  77:Generated_Source\PSoC4/cyfitter_cfg.c **** }
 102              		.loc 1 77 0
 103 0008 0021     		movs	r1, #0
 104              	.LBE17:
 105              	.LBE16:
 106              	.LBE15:
 107              	.LBE14:
 108              		.loc 1 332 0
 109 000a 1A70     		strb	r2, [r3]
 110              	.LVL5:
 111              	.LBB30:
 112              	.LBB22:
 113              	.LBB20:
 114              	.LBB18:
  77:Generated_Source\PSoC4/cyfitter_cfg.c **** }
 115              		.loc 1 77 0
 116 000c 8022     		movs	r2, #128
 117 000e 6048     		ldr	r0, .L13+4
 118 0010 D200     		lsls	r2, r2, #3
 119 0012 FFF7FEFF 		bl	memset
 120              	.LVL6:
 121 0016 8022     		movs	r2, #128
 122 0018 0021     		movs	r1, #0
ARM GAS  C:\Users\RYANCA~1\AppData\Local\Temp\ccE4tDRp.s 			page 9


 123 001a D200     		lsls	r2, r2, #3
 124 001c 5D48     		ldr	r0, .L13+8
 125 001e FFF7FEFF 		bl	memset
 126              	.LVL7:
 127 0022 0022     		movs	r2, #0
 128              	.LBE18:
 129              	.LBE20:
 130              	.LBE22:
 131              	.LBB23:
 132              	.LBB24:
 133              	.LBB25:
 181:Generated_Source\PSoC4/cyfitter_cfg.c **** 		while (count != 0u)
 134              		.loc 1 181 0
 135 0024 FF25     		movs	r5, #255
 136              	.LBE25:
 137              	.LBE24:
 138              	.LBE23:
 139              	.LBB28:
 140              	.LBB21:
 141              	.LBB19:
  77:Generated_Source\PSoC4/cyfitter_cfg.c **** }
 142              		.loc 1 77 0
 143 0026 1100     		movs	r1, r2
 144 0028 5B4E     		ldr	r6, .L13+12
 145 002a 2036     		adds	r6, r6, #32
 146              	.LVL8:
 147              	.L10:
 148              	.LBE19:
 149              	.LBE21:
 150              	.LBE28:
 151              	.LBB29:
 152              	.LBB27:
 153              	.LBB26:
 179:Generated_Source\PSoC4/cyfitter_cfg.c **** 		uint8 count = (uint8)baseAddr;
 154              		.loc 1 179 0
 155 002c 5A4B     		ldr	r3, .L13+12
 156 002e D058     		ldr	r0, [r2, r3]
 157              	.LVL9:
 158 0030 4B00     		lsls	r3, r1, #1
 181:Generated_Source\PSoC4/cyfitter_cfg.c **** 		while (count != 0u)
 159              		.loc 1 181 0
 160 0032 0700     		movs	r7, r0
 161 0034 2840     		ands	r0, r5
 162              	.LVL10:
 163 0036 0918     		adds	r1, r1, r0
 164              	.LVL11:
 165 0038 4800     		lsls	r0, r1, #1
 166 003a 0130     		adds	r0, r0, #1
 167 003c 0133     		adds	r3, r3, #1
 168 003e 3018     		adds	r0, r6, r0
 169 0040 AF43     		bics	r7, r5
 170              	.LVL12:
 171 0042 F318     		adds	r3, r6, r3
 172 0044 0190     		str	r0, [sp, #4]
 173              	.LVL13:
 174              	.L8:
 182:Generated_Source\PSoC4/cyfitter_cfg.c **** 		{
ARM GAS  C:\Users\RYANCA~1\AppData\Local\Temp\ccE4tDRp.s 			page 10


 175              		.loc 1 182 0
 176 0046 0198     		ldr	r0, [sp, #4]
 177 0048 8342     		cmp	r3, r0
 178 004a 07D0     		beq	.L12
 184:Generated_Source\PSoC4/cyfitter_cfg.c **** 			j++;
 179              		.loc 1 184 0
 180 004c 581E     		subs	r0, r3, #1
 181 004e 0078     		ldrb	r0, [r0]
 182 0050 C019     		adds	r0, r0, r7
 183 0052 0400     		movs	r4, r0
 184 0054 1878     		ldrb	r0, [r3]
 185 0056 0233     		adds	r3, r3, #2
 186 0058 2070     		strb	r0, [r4]
 187 005a F4E7     		b	.L8
 188              	.L12:
 189              	.LVL14:
 190 005c 0432     		adds	r2, r2, #4
 191              	.LBE26:
 177:Generated_Source\PSoC4/cyfitter_cfg.c **** 	{
 192              		.loc 1 177 0
 193 005e 202A     		cmp	r2, #32
 194 0060 E4D1     		bne	.L10
 195              	.LVL15:
 196              	.LBE27:
 197              	.LBE29:
 333:Generated_Source\PSoC4/cyfitter_cfg.c **** 	{
 334:Generated_Source\PSoC4/cyfitter_cfg.c **** 		static const uint32 CYCODE cy_cfg_addr_table[] = {
 335:Generated_Source\PSoC4/cyfitter_cfg.c **** 			0x400F0003u, /* Base address: 0x400F0000 Count: 3 */
 336:Generated_Source\PSoC4/cyfitter_cfg.c **** 			0x400F305Du, /* Base address: 0x400F3000 Count: 93 */
 337:Generated_Source\PSoC4/cyfitter_cfg.c **** 			0x400F3140u, /* Base address: 0x400F3100 Count: 64 */
 338:Generated_Source\PSoC4/cyfitter_cfg.c **** 			0x400F3256u, /* Base address: 0x400F3200 Count: 86 */
 339:Generated_Source\PSoC4/cyfitter_cfg.c **** 			0x400F3355u, /* Base address: 0x400F3300 Count: 85 */
 340:Generated_Source\PSoC4/cyfitter_cfg.c **** 			0x400F400Du, /* Base address: 0x400F4000 Count: 13 */
 341:Generated_Source\PSoC4/cyfitter_cfg.c **** 			0x400F4130u, /* Base address: 0x400F4100 Count: 48 */
 342:Generated_Source\PSoC4/cyfitter_cfg.c **** 			0x400F6002u, /* Base address: 0x400F6000 Count: 2 */
 343:Generated_Source\PSoC4/cyfitter_cfg.c **** 		};
 344:Generated_Source\PSoC4/cyfitter_cfg.c **** 
 345:Generated_Source\PSoC4/cyfitter_cfg.c **** 		static const cy_cfg_addrvalue_t CYCODE cy_cfg_data_table[] = {
 346:Generated_Source\PSoC4/cyfitter_cfg.c **** 			{0x23u, 0x08u},
 347:Generated_Source\PSoC4/cyfitter_cfg.c **** 			{0x33u, 0x09u},
 348:Generated_Source\PSoC4/cyfitter_cfg.c **** 			{0x80u, 0x0Du},
 349:Generated_Source\PSoC4/cyfitter_cfg.c **** 			{0x01u, 0x01u},
 350:Generated_Source\PSoC4/cyfitter_cfg.c **** 			{0x04u, 0x11u},
 351:Generated_Source\PSoC4/cyfitter_cfg.c **** 			{0x05u, 0x09u},
 352:Generated_Source\PSoC4/cyfitter_cfg.c **** 			{0x06u, 0x2Au},
 353:Generated_Source\PSoC4/cyfitter_cfg.c **** 			{0x07u, 0x10u},
 354:Generated_Source\PSoC4/cyfitter_cfg.c **** 			{0x08u, 0x3Du},
 355:Generated_Source\PSoC4/cyfitter_cfg.c **** 			{0x09u, 0x03u},
 356:Generated_Source\PSoC4/cyfitter_cfg.c **** 			{0x0Bu, 0x04u},
 357:Generated_Source\PSoC4/cyfitter_cfg.c **** 			{0x0Cu, 0x20u},
 358:Generated_Source\PSoC4/cyfitter_cfg.c **** 			{0x0Du, 0x05u},
 359:Generated_Source\PSoC4/cyfitter_cfg.c **** 			{0x0Fu, 0x1Au},
 360:Generated_Source\PSoC4/cyfitter_cfg.c **** 			{0x14u, 0x03u},
 361:Generated_Source\PSoC4/cyfitter_cfg.c **** 			{0x15u, 0x01u},
 362:Generated_Source\PSoC4/cyfitter_cfg.c **** 			{0x19u, 0x08u},
 363:Generated_Source\PSoC4/cyfitter_cfg.c **** 			{0x1Au, 0x10u},
 364:Generated_Source\PSoC4/cyfitter_cfg.c **** 			{0x20u, 0x08u},
ARM GAS  C:\Users\RYANCA~1\AppData\Local\Temp\ccE4tDRp.s 			page 11


 365:Generated_Source\PSoC4/cyfitter_cfg.c **** 			{0x22u, 0x36u},
 366:Generated_Source\PSoC4/cyfitter_cfg.c **** 			{0x24u, 0x07u},
 367:Generated_Source\PSoC4/cyfitter_cfg.c **** 			{0x26u, 0x08u},
 368:Generated_Source\PSoC4/cyfitter_cfg.c **** 			{0x29u, 0x1Eu},
 369:Generated_Source\PSoC4/cyfitter_cfg.c **** 			{0x2Bu, 0x01u},
 370:Generated_Source\PSoC4/cyfitter_cfg.c **** 			{0x2Du, 0x10u},
 371:Generated_Source\PSoC4/cyfitter_cfg.c **** 			{0x34u, 0x3Fu},
 372:Generated_Source\PSoC4/cyfitter_cfg.c **** 			{0x37u, 0x1Fu},
 373:Generated_Source\PSoC4/cyfitter_cfg.c **** 			{0x40u, 0x51u},
 374:Generated_Source\PSoC4/cyfitter_cfg.c **** 			{0x49u, 0xFFu},
 375:Generated_Source\PSoC4/cyfitter_cfg.c **** 			{0x4Au, 0xFFu},
 376:Generated_Source\PSoC4/cyfitter_cfg.c **** 			{0x4Bu, 0xFFu},
 377:Generated_Source\PSoC4/cyfitter_cfg.c **** 			{0x4Fu, 0x01u},
 378:Generated_Source\PSoC4/cyfitter_cfg.c **** 			{0x50u, 0x18u},
 379:Generated_Source\PSoC4/cyfitter_cfg.c **** 			{0x52u, 0x80u},
 380:Generated_Source\PSoC4/cyfitter_cfg.c **** 			{0x54u, 0x01u},
 381:Generated_Source\PSoC4/cyfitter_cfg.c **** 			{0x56u, 0x04u},
 382:Generated_Source\PSoC4/cyfitter_cfg.c **** 			{0x58u, 0x04u},
 383:Generated_Source\PSoC4/cyfitter_cfg.c **** 			{0x59u, 0x04u},
 384:Generated_Source\PSoC4/cyfitter_cfg.c **** 			{0x5Au, 0x04u},
 385:Generated_Source\PSoC4/cyfitter_cfg.c **** 			{0x5Bu, 0x04u},
 386:Generated_Source\PSoC4/cyfitter_cfg.c **** 			{0x5Du, 0x99u},
 387:Generated_Source\PSoC4/cyfitter_cfg.c **** 			{0x5Fu, 0x01u},
 388:Generated_Source\PSoC4/cyfitter_cfg.c **** 			{0x60u, 0x40u},
 389:Generated_Source\PSoC4/cyfitter_cfg.c **** 			{0x62u, 0x40u},
 390:Generated_Source\PSoC4/cyfitter_cfg.c **** 			{0x64u, 0x40u},
 391:Generated_Source\PSoC4/cyfitter_cfg.c **** 			{0x65u, 0x40u},
 392:Generated_Source\PSoC4/cyfitter_cfg.c **** 			{0x66u, 0x80u},
 393:Generated_Source\PSoC4/cyfitter_cfg.c **** 			{0x68u, 0x80u},
 394:Generated_Source\PSoC4/cyfitter_cfg.c **** 			{0x6Au, 0x80u},
 395:Generated_Source\PSoC4/cyfitter_cfg.c **** 			{0x6Cu, 0x80u},
 396:Generated_Source\PSoC4/cyfitter_cfg.c **** 			{0x6Eu, 0x80u},
 397:Generated_Source\PSoC4/cyfitter_cfg.c **** 			{0x81u, 0x1Au},
 398:Generated_Source\PSoC4/cyfitter_cfg.c **** 			{0x83u, 0x04u},
 399:Generated_Source\PSoC4/cyfitter_cfg.c **** 			{0x84u, 0x01u},
 400:Generated_Source\PSoC4/cyfitter_cfg.c **** 			{0x85u, 0x1Au},
 401:Generated_Source\PSoC4/cyfitter_cfg.c **** 			{0x87u, 0x04u},
 402:Generated_Source\PSoC4/cyfitter_cfg.c **** 			{0x88u, 0x01u},
 403:Generated_Source\PSoC4/cyfitter_cfg.c **** 			{0x89u, 0x08u},
 404:Generated_Source\PSoC4/cyfitter_cfg.c **** 			{0x8Bu, 0x10u},
 405:Generated_Source\PSoC4/cyfitter_cfg.c **** 			{0x8Fu, 0x04u},
 406:Generated_Source\PSoC4/cyfitter_cfg.c **** 			{0x91u, 0x10u},
 407:Generated_Source\PSoC4/cyfitter_cfg.c **** 			{0x93u, 0x08u},
 408:Generated_Source\PSoC4/cyfitter_cfg.c **** 			{0x95u, 0x18u},
 409:Generated_Source\PSoC4/cyfitter_cfg.c **** 			{0x97u, 0x05u},
 410:Generated_Source\PSoC4/cyfitter_cfg.c **** 			{0x9Au, 0x01u},
 411:Generated_Source\PSoC4/cyfitter_cfg.c **** 			{0x9Bu, 0x1Bu},
 412:Generated_Source\PSoC4/cyfitter_cfg.c **** 			{0xABu, 0x02u},
 413:Generated_Source\PSoC4/cyfitter_cfg.c **** 			{0xB3u, 0x07u},
 414:Generated_Source\PSoC4/cyfitter_cfg.c **** 			{0xB5u, 0x18u},
 415:Generated_Source\PSoC4/cyfitter_cfg.c **** 			{0xB6u, 0x01u},
 416:Generated_Source\PSoC4/cyfitter_cfg.c **** 			{0xB8u, 0x80u},
 417:Generated_Source\PSoC4/cyfitter_cfg.c **** 			{0xBBu, 0x28u},
 418:Generated_Source\PSoC4/cyfitter_cfg.c **** 			{0xC0u, 0x51u},
 419:Generated_Source\PSoC4/cyfitter_cfg.c **** 			{0xC9u, 0xFFu},
 420:Generated_Source\PSoC4/cyfitter_cfg.c **** 			{0xCAu, 0xFFu},
 421:Generated_Source\PSoC4/cyfitter_cfg.c **** 			{0xCBu, 0xFFu},
ARM GAS  C:\Users\RYANCA~1\AppData\Local\Temp\ccE4tDRp.s 			page 12


 422:Generated_Source\PSoC4/cyfitter_cfg.c **** 			{0xCDu, 0x83u},
 423:Generated_Source\PSoC4/cyfitter_cfg.c **** 			{0xCEu, 0x03u},
 424:Generated_Source\PSoC4/cyfitter_cfg.c **** 			{0xCFu, 0x01u},
 425:Generated_Source\PSoC4/cyfitter_cfg.c **** 			{0xD0u, 0x18u},
 426:Generated_Source\PSoC4/cyfitter_cfg.c **** 			{0xD4u, 0xFFu},
 427:Generated_Source\PSoC4/cyfitter_cfg.c **** 			{0xD8u, 0x04u},
 428:Generated_Source\PSoC4/cyfitter_cfg.c **** 			{0xD9u, 0x04u},
 429:Generated_Source\PSoC4/cyfitter_cfg.c **** 			{0xDAu, 0x04u},
 430:Generated_Source\PSoC4/cyfitter_cfg.c **** 			{0xDBu, 0x0Eu},
 431:Generated_Source\PSoC4/cyfitter_cfg.c **** 			{0xDDu, 0x09u},
 432:Generated_Source\PSoC4/cyfitter_cfg.c **** 			{0xDFu, 0x01u},
 433:Generated_Source\PSoC4/cyfitter_cfg.c **** 			{0xE0u, 0x40u},
 434:Generated_Source\PSoC4/cyfitter_cfg.c **** 			{0xE2u, 0x40u},
 435:Generated_Source\PSoC4/cyfitter_cfg.c **** 			{0xE4u, 0x40u},
 436:Generated_Source\PSoC4/cyfitter_cfg.c **** 			{0xE5u, 0x40u},
 437:Generated_Source\PSoC4/cyfitter_cfg.c **** 			{0xE6u, 0x80u},
 438:Generated_Source\PSoC4/cyfitter_cfg.c **** 			{0xE8u, 0x80u},
 439:Generated_Source\PSoC4/cyfitter_cfg.c **** 			{0xEAu, 0x80u},
 440:Generated_Source\PSoC4/cyfitter_cfg.c **** 			{0xECu, 0x80u},
 441:Generated_Source\PSoC4/cyfitter_cfg.c **** 			{0xEEu, 0x80u},
 442:Generated_Source\PSoC4/cyfitter_cfg.c **** 			{0x00u, 0x84u},
 443:Generated_Source\PSoC4/cyfitter_cfg.c **** 			{0x01u, 0x20u},
 444:Generated_Source\PSoC4/cyfitter_cfg.c **** 			{0x03u, 0x08u},
 445:Generated_Source\PSoC4/cyfitter_cfg.c **** 			{0x04u, 0x04u},
 446:Generated_Source\PSoC4/cyfitter_cfg.c **** 			{0x05u, 0x20u},
 447:Generated_Source\PSoC4/cyfitter_cfg.c **** 			{0x08u, 0x10u},
 448:Generated_Source\PSoC4/cyfitter_cfg.c **** 			{0x09u, 0x08u},
 449:Generated_Source\PSoC4/cyfitter_cfg.c **** 			{0x0Cu, 0x01u},
 450:Generated_Source\PSoC4/cyfitter_cfg.c **** 			{0x0Eu, 0x08u},
 451:Generated_Source\PSoC4/cyfitter_cfg.c **** 			{0x0Fu, 0x80u},
 452:Generated_Source\PSoC4/cyfitter_cfg.c **** 			{0x11u, 0x08u},
 453:Generated_Source\PSoC4/cyfitter_cfg.c **** 			{0x12u, 0x80u},
 454:Generated_Source\PSoC4/cyfitter_cfg.c **** 			{0x18u, 0x04u},
 455:Generated_Source\PSoC4/cyfitter_cfg.c **** 			{0x1Eu, 0x01u},
 456:Generated_Source\PSoC4/cyfitter_cfg.c **** 			{0x20u, 0x02u},
 457:Generated_Source\PSoC4/cyfitter_cfg.c **** 			{0x21u, 0x40u},
 458:Generated_Source\PSoC4/cyfitter_cfg.c **** 			{0x22u, 0x80u},
 459:Generated_Source\PSoC4/cyfitter_cfg.c **** 			{0x24u, 0x20u},
 460:Generated_Source\PSoC4/cyfitter_cfg.c **** 			{0x25u, 0x14u},
 461:Generated_Source\PSoC4/cyfitter_cfg.c **** 			{0x26u, 0x04u},
 462:Generated_Source\PSoC4/cyfitter_cfg.c **** 			{0x2Au, 0x80u},
 463:Generated_Source\PSoC4/cyfitter_cfg.c **** 			{0x2Bu, 0x08u},
 464:Generated_Source\PSoC4/cyfitter_cfg.c **** 			{0x2Cu, 0x08u},
 465:Generated_Source\PSoC4/cyfitter_cfg.c **** 			{0x30u, 0x38u},
 466:Generated_Source\PSoC4/cyfitter_cfg.c **** 			{0x35u, 0x20u},
 467:Generated_Source\PSoC4/cyfitter_cfg.c **** 			{0x36u, 0x04u},
 468:Generated_Source\PSoC4/cyfitter_cfg.c **** 			{0x37u, 0x01u},
 469:Generated_Source\PSoC4/cyfitter_cfg.c **** 			{0x38u, 0x24u},
 470:Generated_Source\PSoC4/cyfitter_cfg.c **** 			{0x39u, 0x82u},
 471:Generated_Source\PSoC4/cyfitter_cfg.c **** 			{0x3Cu, 0x86u},
 472:Generated_Source\PSoC4/cyfitter_cfg.c **** 			{0x3Du, 0x20u},
 473:Generated_Source\PSoC4/cyfitter_cfg.c **** 			{0x3Eu, 0x80u},
 474:Generated_Source\PSoC4/cyfitter_cfg.c **** 			{0x42u, 0x02u},
 475:Generated_Source\PSoC4/cyfitter_cfg.c **** 			{0x46u, 0x02u},
 476:Generated_Source\PSoC4/cyfitter_cfg.c **** 			{0x48u, 0x02u},
 477:Generated_Source\PSoC4/cyfitter_cfg.c **** 			{0x4Cu, 0x02u},
 478:Generated_Source\PSoC4/cyfitter_cfg.c **** 			{0x58u, 0x01u},
ARM GAS  C:\Users\RYANCA~1\AppData\Local\Temp\ccE4tDRp.s 			page 13


 479:Generated_Source\PSoC4/cyfitter_cfg.c **** 			{0x59u, 0x08u},
 480:Generated_Source\PSoC4/cyfitter_cfg.c **** 			{0x5Au, 0x80u},
 481:Generated_Source\PSoC4/cyfitter_cfg.c **** 			{0x5Cu, 0x12u},
 482:Generated_Source\PSoC4/cyfitter_cfg.c **** 			{0x5Du, 0x44u},
 483:Generated_Source\PSoC4/cyfitter_cfg.c **** 			{0x61u, 0x02u},
 484:Generated_Source\PSoC4/cyfitter_cfg.c **** 			{0x64u, 0x20u},
 485:Generated_Source\PSoC4/cyfitter_cfg.c **** 			{0x66u, 0x41u},
 486:Generated_Source\PSoC4/cyfitter_cfg.c **** 			{0x67u, 0x04u},
 487:Generated_Source\PSoC4/cyfitter_cfg.c **** 			{0x70u, 0x02u},
 488:Generated_Source\PSoC4/cyfitter_cfg.c **** 			{0x73u, 0x40u},
 489:Generated_Source\PSoC4/cyfitter_cfg.c **** 			{0x7Fu, 0x20u},
 490:Generated_Source\PSoC4/cyfitter_cfg.c **** 			{0x80u, 0x02u},
 491:Generated_Source\PSoC4/cyfitter_cfg.c **** 			{0x89u, 0x02u},
 492:Generated_Source\PSoC4/cyfitter_cfg.c **** 			{0x8Eu, 0x01u},
 493:Generated_Source\PSoC4/cyfitter_cfg.c **** 			{0xC0u, 0x67u},
 494:Generated_Source\PSoC4/cyfitter_cfg.c **** 			{0xC2u, 0x46u},
 495:Generated_Source\PSoC4/cyfitter_cfg.c **** 			{0xC4u, 0x0Cu},
 496:Generated_Source\PSoC4/cyfitter_cfg.c **** 			{0xCAu, 0x2Cu},
 497:Generated_Source\PSoC4/cyfitter_cfg.c **** 			{0xCCu, 0xE6u},
 498:Generated_Source\PSoC4/cyfitter_cfg.c **** 			{0xCEu, 0xFFu},
 499:Generated_Source\PSoC4/cyfitter_cfg.c **** 			{0xD0u, 0x18u},
 500:Generated_Source\PSoC4/cyfitter_cfg.c **** 			{0xD2u, 0x18u},
 501:Generated_Source\PSoC4/cyfitter_cfg.c **** 			{0xD6u, 0xFBu},
 502:Generated_Source\PSoC4/cyfitter_cfg.c **** 			{0xD8u, 0xF1u},
 503:Generated_Source\PSoC4/cyfitter_cfg.c **** 			{0xDEu, 0x40u},
 504:Generated_Source\PSoC4/cyfitter_cfg.c **** 			{0xE4u, 0x40u},
 505:Generated_Source\PSoC4/cyfitter_cfg.c **** 			{0xE6u, 0x20u},
 506:Generated_Source\PSoC4/cyfitter_cfg.c **** 			{0x02u, 0x03u},
 507:Generated_Source\PSoC4/cyfitter_cfg.c **** 			{0x03u, 0x01u},
 508:Generated_Source\PSoC4/cyfitter_cfg.c **** 			{0x04u, 0x05u},
 509:Generated_Source\PSoC4/cyfitter_cfg.c **** 			{0x08u, 0x07u},
 510:Generated_Source\PSoC4/cyfitter_cfg.c **** 			{0x15u, 0x01u},
 511:Generated_Source\PSoC4/cyfitter_cfg.c **** 			{0x18u, 0x03u},
 512:Generated_Source\PSoC4/cyfitter_cfg.c **** 			{0x1Au, 0x04u},
 513:Generated_Source\PSoC4/cyfitter_cfg.c **** 			{0x29u, 0x01u},
 514:Generated_Source\PSoC4/cyfitter_cfg.c **** 			{0x30u, 0x01u},
 515:Generated_Source\PSoC4/cyfitter_cfg.c **** 			{0x32u, 0x06u},
 516:Generated_Source\PSoC4/cyfitter_cfg.c **** 			{0x35u, 0x01u},
 517:Generated_Source\PSoC4/cyfitter_cfg.c **** 			{0x38u, 0x0Au},
 518:Generated_Source\PSoC4/cyfitter_cfg.c **** 			{0x40u, 0x51u},
 519:Generated_Source\PSoC4/cyfitter_cfg.c **** 			{0x45u, 0x0Cu},
 520:Generated_Source\PSoC4/cyfitter_cfg.c **** 			{0x46u, 0x0Eu},
 521:Generated_Source\PSoC4/cyfitter_cfg.c **** 			{0x47u, 0x20u},
 522:Generated_Source\PSoC4/cyfitter_cfg.c **** 			{0x48u, 0x25u},
 523:Generated_Source\PSoC4/cyfitter_cfg.c **** 			{0x49u, 0xFFu},
 524:Generated_Source\PSoC4/cyfitter_cfg.c **** 			{0x4Au, 0xFFu},
 525:Generated_Source\PSoC4/cyfitter_cfg.c **** 			{0x4Bu, 0xFFu},
 526:Generated_Source\PSoC4/cyfitter_cfg.c **** 			{0x4Du, 0x83u},
 527:Generated_Source\PSoC4/cyfitter_cfg.c **** 			{0x4Eu, 0x03u},
 528:Generated_Source\PSoC4/cyfitter_cfg.c **** 			{0x4Fu, 0x01u},
 529:Generated_Source\PSoC4/cyfitter_cfg.c **** 			{0x50u, 0x18u},
 530:Generated_Source\PSoC4/cyfitter_cfg.c **** 			{0x58u, 0x04u},
 531:Generated_Source\PSoC4/cyfitter_cfg.c **** 			{0x59u, 0x04u},
 532:Generated_Source\PSoC4/cyfitter_cfg.c **** 			{0x5Au, 0x04u},
 533:Generated_Source\PSoC4/cyfitter_cfg.c **** 			{0x5Du, 0x09u},
 534:Generated_Source\PSoC4/cyfitter_cfg.c **** 			{0x5Fu, 0x01u},
 535:Generated_Source\PSoC4/cyfitter_cfg.c **** 			{0x60u, 0x40u},
ARM GAS  C:\Users\RYANCA~1\AppData\Local\Temp\ccE4tDRp.s 			page 14


 536:Generated_Source\PSoC4/cyfitter_cfg.c **** 			{0x62u, 0x40u},
 537:Generated_Source\PSoC4/cyfitter_cfg.c **** 			{0x64u, 0x40u},
 538:Generated_Source\PSoC4/cyfitter_cfg.c **** 			{0x65u, 0x40u},
 539:Generated_Source\PSoC4/cyfitter_cfg.c **** 			{0x66u, 0x80u},
 540:Generated_Source\PSoC4/cyfitter_cfg.c **** 			{0x68u, 0x80u},
 541:Generated_Source\PSoC4/cyfitter_cfg.c **** 			{0x6Au, 0x80u},
 542:Generated_Source\PSoC4/cyfitter_cfg.c **** 			{0x6Cu, 0x80u},
 543:Generated_Source\PSoC4/cyfitter_cfg.c **** 			{0x6Eu, 0x80u},
 544:Generated_Source\PSoC4/cyfitter_cfg.c **** 			{0x80u, 0x04u},
 545:Generated_Source\PSoC4/cyfitter_cfg.c **** 			{0x82u, 0x02u},
 546:Generated_Source\PSoC4/cyfitter_cfg.c **** 			{0x84u, 0x0Cu},
 547:Generated_Source\PSoC4/cyfitter_cfg.c **** 			{0x86u, 0x02u},
 548:Generated_Source\PSoC4/cyfitter_cfg.c **** 			{0x88u, 0x0Au},
 549:Generated_Source\PSoC4/cyfitter_cfg.c **** 			{0x8Au, 0x04u},
 550:Generated_Source\PSoC4/cyfitter_cfg.c **** 			{0x8Bu, 0x01u},
 551:Generated_Source\PSoC4/cyfitter_cfg.c **** 			{0x8Eu, 0x04u},
 552:Generated_Source\PSoC4/cyfitter_cfg.c **** 			{0x92u, 0x01u},
 553:Generated_Source\PSoC4/cyfitter_cfg.c **** 			{0x94u, 0x06u},
 554:Generated_Source\PSoC4/cyfitter_cfg.c **** 			{0x96u, 0x08u},
 555:Generated_Source\PSoC4/cyfitter_cfg.c **** 			{0xA2u, 0x01u},
 556:Generated_Source\PSoC4/cyfitter_cfg.c **** 			{0xA6u, 0x02u},
 557:Generated_Source\PSoC4/cyfitter_cfg.c **** 			{0xA8u, 0x04u},
 558:Generated_Source\PSoC4/cyfitter_cfg.c **** 			{0xAFu, 0x01u},
 559:Generated_Source\PSoC4/cyfitter_cfg.c **** 			{0xB0u, 0x01u},
 560:Generated_Source\PSoC4/cyfitter_cfg.c **** 			{0xB1u, 0x01u},
 561:Generated_Source\PSoC4/cyfitter_cfg.c **** 			{0xB2u, 0x0Cu},
 562:Generated_Source\PSoC4/cyfitter_cfg.c **** 			{0xB4u, 0x02u},
 563:Generated_Source\PSoC4/cyfitter_cfg.c **** 			{0xB9u, 0x02u},
 564:Generated_Source\PSoC4/cyfitter_cfg.c **** 			{0xBEu, 0x11u},
 565:Generated_Source\PSoC4/cyfitter_cfg.c **** 			{0xBFu, 0x01u},
 566:Generated_Source\PSoC4/cyfitter_cfg.c **** 			{0xC0u, 0x52u},
 567:Generated_Source\PSoC4/cyfitter_cfg.c **** 			{0xC1u, 0x06u},
 568:Generated_Source\PSoC4/cyfitter_cfg.c **** 			{0xC5u, 0x62u},
 569:Generated_Source\PSoC4/cyfitter_cfg.c **** 			{0xC6u, 0xEFu},
 570:Generated_Source\PSoC4/cyfitter_cfg.c **** 			{0xC7u, 0xDCu},
 571:Generated_Source\PSoC4/cyfitter_cfg.c **** 			{0xC8u, 0x3Fu},
 572:Generated_Source\PSoC4/cyfitter_cfg.c **** 			{0xC9u, 0xFFu},
 573:Generated_Source\PSoC4/cyfitter_cfg.c **** 			{0xCAu, 0xFFu},
 574:Generated_Source\PSoC4/cyfitter_cfg.c **** 			{0xCBu, 0xFFu},
 575:Generated_Source\PSoC4/cyfitter_cfg.c **** 			{0xD0u, 0x04u},
 576:Generated_Source\PSoC4/cyfitter_cfg.c **** 			{0xD4u, 0x02u},
 577:Generated_Source\PSoC4/cyfitter_cfg.c **** 			{0xD6u, 0x01u},
 578:Generated_Source\PSoC4/cyfitter_cfg.c **** 			{0xD8u, 0x04u},
 579:Generated_Source\PSoC4/cyfitter_cfg.c **** 			{0xD9u, 0x04u},
 580:Generated_Source\PSoC4/cyfitter_cfg.c **** 			{0xDAu, 0x04u},
 581:Generated_Source\PSoC4/cyfitter_cfg.c **** 			{0xDBu, 0x04u},
 582:Generated_Source\PSoC4/cyfitter_cfg.c **** 			{0xDFu, 0x01u},
 583:Generated_Source\PSoC4/cyfitter_cfg.c **** 			{0xE2u, 0xC0u},
 584:Generated_Source\PSoC4/cyfitter_cfg.c **** 			{0xE4u, 0x30u},
 585:Generated_Source\PSoC4/cyfitter_cfg.c **** 			{0xE7u, 0x10u},
 586:Generated_Source\PSoC4/cyfitter_cfg.c **** 			{0xE8u, 0x80u},
 587:Generated_Source\PSoC4/cyfitter_cfg.c **** 			{0xEAu, 0x20u},
 588:Generated_Source\PSoC4/cyfitter_cfg.c **** 			{0xECu, 0x40u},
 589:Generated_Source\PSoC4/cyfitter_cfg.c **** 			{0xEDu, 0x40u},
 590:Generated_Source\PSoC4/cyfitter_cfg.c **** 			{0xEEu, 0x10u},
 591:Generated_Source\PSoC4/cyfitter_cfg.c **** 			{0xEFu, 0x50u},
 592:Generated_Source\PSoC4/cyfitter_cfg.c **** 			{0x00u, 0x0Au},
ARM GAS  C:\Users\RYANCA~1\AppData\Local\Temp\ccE4tDRp.s 			page 15


 593:Generated_Source\PSoC4/cyfitter_cfg.c **** 			{0x02u, 0x01u},
 594:Generated_Source\PSoC4/cyfitter_cfg.c **** 			{0x03u, 0x48u},
 595:Generated_Source\PSoC4/cyfitter_cfg.c **** 			{0x04u, 0x24u},
 596:Generated_Source\PSoC4/cyfitter_cfg.c **** 			{0x07u, 0x40u},
 597:Generated_Source\PSoC4/cyfitter_cfg.c **** 			{0x08u, 0x08u},
 598:Generated_Source\PSoC4/cyfitter_cfg.c **** 			{0x0Bu, 0x40u},
 599:Generated_Source\PSoC4/cyfitter_cfg.c **** 			{0x0Eu, 0x08u},
 600:Generated_Source\PSoC4/cyfitter_cfg.c **** 			{0x10u, 0x28u},
 601:Generated_Source\PSoC4/cyfitter_cfg.c **** 			{0x11u, 0x02u},
 602:Generated_Source\PSoC4/cyfitter_cfg.c **** 			{0x18u, 0x20u},
 603:Generated_Source\PSoC4/cyfitter_cfg.c **** 			{0x19u, 0x10u},
 604:Generated_Source\PSoC4/cyfitter_cfg.c **** 			{0x1Au, 0x80u},
 605:Generated_Source\PSoC4/cyfitter_cfg.c **** 			{0x1Bu, 0x28u},
 606:Generated_Source\PSoC4/cyfitter_cfg.c **** 			{0x1Du, 0x04u},
 607:Generated_Source\PSoC4/cyfitter_cfg.c **** 			{0x1Fu, 0x01u},
 608:Generated_Source\PSoC4/cyfitter_cfg.c **** 			{0x23u, 0x80u},
 609:Generated_Source\PSoC4/cyfitter_cfg.c **** 			{0x24u, 0x08u},
 610:Generated_Source\PSoC4/cyfitter_cfg.c **** 			{0x2Au, 0x40u},
 611:Generated_Source\PSoC4/cyfitter_cfg.c **** 			{0x2Fu, 0x08u},
 612:Generated_Source\PSoC4/cyfitter_cfg.c **** 			{0x36u, 0x04u},
 613:Generated_Source\PSoC4/cyfitter_cfg.c **** 			{0x3Au, 0x10u},
 614:Generated_Source\PSoC4/cyfitter_cfg.c **** 			{0x3Cu, 0x02u},
 615:Generated_Source\PSoC4/cyfitter_cfg.c **** 			{0x40u, 0x0Cu},
 616:Generated_Source\PSoC4/cyfitter_cfg.c **** 			{0x46u, 0x02u},
 617:Generated_Source\PSoC4/cyfitter_cfg.c **** 			{0x48u, 0x65u},
 618:Generated_Source\PSoC4/cyfitter_cfg.c **** 			{0x4Au, 0x04u},
 619:Generated_Source\PSoC4/cyfitter_cfg.c **** 			{0x4Du, 0x08u},
 620:Generated_Source\PSoC4/cyfitter_cfg.c **** 			{0x4Fu, 0x40u},
 621:Generated_Source\PSoC4/cyfitter_cfg.c **** 			{0x51u, 0x09u},
 622:Generated_Source\PSoC4/cyfitter_cfg.c **** 			{0x52u, 0x51u},
 623:Generated_Source\PSoC4/cyfitter_cfg.c **** 			{0x55u, 0x01u},
 624:Generated_Source\PSoC4/cyfitter_cfg.c **** 			{0x56u, 0x02u},
 625:Generated_Source\PSoC4/cyfitter_cfg.c **** 			{0x57u, 0x40u},
 626:Generated_Source\PSoC4/cyfitter_cfg.c **** 			{0x59u, 0x10u},
 627:Generated_Source\PSoC4/cyfitter_cfg.c **** 			{0x5Bu, 0x80u},
 628:Generated_Source\PSoC4/cyfitter_cfg.c **** 			{0x68u, 0x08u},
 629:Generated_Source\PSoC4/cyfitter_cfg.c **** 			{0x69u, 0x11u},
 630:Generated_Source\PSoC4/cyfitter_cfg.c **** 			{0x6Bu, 0x11u},
 631:Generated_Source\PSoC4/cyfitter_cfg.c **** 			{0x71u, 0x42u},
 632:Generated_Source\PSoC4/cyfitter_cfg.c **** 			{0x72u, 0x10u},
 633:Generated_Source\PSoC4/cyfitter_cfg.c **** 			{0x73u, 0x08u},
 634:Generated_Source\PSoC4/cyfitter_cfg.c **** 			{0x80u, 0x24u},
 635:Generated_Source\PSoC4/cyfitter_cfg.c **** 			{0x81u, 0x02u},
 636:Generated_Source\PSoC4/cyfitter_cfg.c **** 			{0x83u, 0x08u},
 637:Generated_Source\PSoC4/cyfitter_cfg.c **** 			{0x85u, 0x40u},
 638:Generated_Source\PSoC4/cyfitter_cfg.c **** 			{0x89u, 0x15u},
 639:Generated_Source\PSoC4/cyfitter_cfg.c **** 			{0x8Bu, 0x04u},
 640:Generated_Source\PSoC4/cyfitter_cfg.c **** 			{0x8Du, 0x04u},
 641:Generated_Source\PSoC4/cyfitter_cfg.c **** 			{0x8Eu, 0x10u},
 642:Generated_Source\PSoC4/cyfitter_cfg.c **** 			{0x8Fu, 0x11u},
 643:Generated_Source\PSoC4/cyfitter_cfg.c **** 			{0x90u, 0x04u},
 644:Generated_Source\PSoC4/cyfitter_cfg.c **** 			{0x93u, 0x40u},
 645:Generated_Source\PSoC4/cyfitter_cfg.c **** 			{0x95u, 0x06u},
 646:Generated_Source\PSoC4/cyfitter_cfg.c **** 			{0x96u, 0x80u},
 647:Generated_Source\PSoC4/cyfitter_cfg.c **** 			{0x97u, 0x04u},
 648:Generated_Source\PSoC4/cyfitter_cfg.c **** 			{0x9Cu, 0x20u},
 649:Generated_Source\PSoC4/cyfitter_cfg.c **** 			{0x9Du, 0x08u},
ARM GAS  C:\Users\RYANCA~1\AppData\Local\Temp\ccE4tDRp.s 			page 16


 650:Generated_Source\PSoC4/cyfitter_cfg.c **** 			{0x9Eu, 0x02u},
 651:Generated_Source\PSoC4/cyfitter_cfg.c **** 			{0x9Fu, 0x01u},
 652:Generated_Source\PSoC4/cyfitter_cfg.c **** 			{0xA0u, 0x01u},
 653:Generated_Source\PSoC4/cyfitter_cfg.c **** 			{0xA2u, 0x04u},
 654:Generated_Source\PSoC4/cyfitter_cfg.c **** 			{0xA4u, 0x68u},
 655:Generated_Source\PSoC4/cyfitter_cfg.c **** 			{0xA5u, 0x08u},
 656:Generated_Source\PSoC4/cyfitter_cfg.c **** 			{0xA7u, 0x68u},
 657:Generated_Source\PSoC4/cyfitter_cfg.c **** 			{0xA9u, 0x50u},
 658:Generated_Source\PSoC4/cyfitter_cfg.c **** 			{0xAEu, 0x01u},
 659:Generated_Source\PSoC4/cyfitter_cfg.c **** 			{0xAFu, 0x01u},
 660:Generated_Source\PSoC4/cyfitter_cfg.c **** 			{0xB2u, 0x40u},
 661:Generated_Source\PSoC4/cyfitter_cfg.c **** 			{0xB4u, 0x10u},
 662:Generated_Source\PSoC4/cyfitter_cfg.c **** 			{0xC0u, 0x7Fu},
 663:Generated_Source\PSoC4/cyfitter_cfg.c **** 			{0xC2u, 0x4Cu},
 664:Generated_Source\PSoC4/cyfitter_cfg.c **** 			{0xC4u, 0x0Eu},
 665:Generated_Source\PSoC4/cyfitter_cfg.c **** 			{0xCAu, 0x28u},
 666:Generated_Source\PSoC4/cyfitter_cfg.c **** 			{0xCCu, 0x40u},
 667:Generated_Source\PSoC4/cyfitter_cfg.c **** 			{0xCEu, 0x84u},
 668:Generated_Source\PSoC4/cyfitter_cfg.c **** 			{0xD0u, 0x14u},
 669:Generated_Source\PSoC4/cyfitter_cfg.c **** 			{0xD2u, 0x1Cu},
 670:Generated_Source\PSoC4/cyfitter_cfg.c **** 			{0xD6u, 0x0Cu},
 671:Generated_Source\PSoC4/cyfitter_cfg.c **** 			{0xE0u, 0x20u},
 672:Generated_Source\PSoC4/cyfitter_cfg.c **** 			{0xE2u, 0xD0u},
 673:Generated_Source\PSoC4/cyfitter_cfg.c **** 			{0xE4u, 0x20u},
 674:Generated_Source\PSoC4/cyfitter_cfg.c **** 			{0xE6u, 0xD0u},
 675:Generated_Source\PSoC4/cyfitter_cfg.c **** 			{0xE8u, 0x10u},
 676:Generated_Source\PSoC4/cyfitter_cfg.c **** 			{0xECu, 0x80u},
 677:Generated_Source\PSoC4/cyfitter_cfg.c **** 			{0x53u, 0x02u},
 678:Generated_Source\PSoC4/cyfitter_cfg.c **** 			{0x55u, 0x01u},
 679:Generated_Source\PSoC4/cyfitter_cfg.c **** 			{0x61u, 0x08u},
 680:Generated_Source\PSoC4/cyfitter_cfg.c **** 			{0x64u, 0x20u},
 681:Generated_Source\PSoC4/cyfitter_cfg.c **** 			{0x68u, 0x20u},
 682:Generated_Source\PSoC4/cyfitter_cfg.c **** 			{0x83u, 0x02u},
 683:Generated_Source\PSoC4/cyfitter_cfg.c **** 			{0x88u, 0x20u},
 684:Generated_Source\PSoC4/cyfitter_cfg.c **** 			{0x8Du, 0x20u},
 685:Generated_Source\PSoC4/cyfitter_cfg.c **** 			{0xD4u, 0x80u},
 686:Generated_Source\PSoC4/cyfitter_cfg.c **** 			{0xD6u, 0x20u},
 687:Generated_Source\PSoC4/cyfitter_cfg.c **** 			{0xD8u, 0xC0u},
 688:Generated_Source\PSoC4/cyfitter_cfg.c **** 			{0xDAu, 0x40u},
 689:Generated_Source\PSoC4/cyfitter_cfg.c **** 			{0xE4u, 0x80u},
 690:Generated_Source\PSoC4/cyfitter_cfg.c **** 			{0x01u, 0x22u},
 691:Generated_Source\PSoC4/cyfitter_cfg.c **** 			{0x04u, 0x08u},
 692:Generated_Source\PSoC4/cyfitter_cfg.c **** 			{0x07u, 0x02u},
 693:Generated_Source\PSoC4/cyfitter_cfg.c **** 			{0x0Bu, 0x82u},
 694:Generated_Source\PSoC4/cyfitter_cfg.c **** 			{0x0Cu, 0x08u},
 695:Generated_Source\PSoC4/cyfitter_cfg.c **** 			{0x0Du, 0x20u},
 696:Generated_Source\PSoC4/cyfitter_cfg.c **** 			{0x34u, 0x02u},
 697:Generated_Source\PSoC4/cyfitter_cfg.c **** 			{0x50u, 0x10u},
 698:Generated_Source\PSoC4/cyfitter_cfg.c **** 			{0x54u, 0x02u},
 699:Generated_Source\PSoC4/cyfitter_cfg.c **** 			{0x56u, 0x10u},
 700:Generated_Source\PSoC4/cyfitter_cfg.c **** 			{0x58u, 0x08u},
 701:Generated_Source\PSoC4/cyfitter_cfg.c **** 			{0x59u, 0x40u},
 702:Generated_Source\PSoC4/cyfitter_cfg.c **** 			{0x5Fu, 0x01u},
 703:Generated_Source\PSoC4/cyfitter_cfg.c **** 			{0x62u, 0x02u},
 704:Generated_Source\PSoC4/cyfitter_cfg.c **** 			{0x65u, 0x01u},
 705:Generated_Source\PSoC4/cyfitter_cfg.c **** 			{0x80u, 0x02u},
 706:Generated_Source\PSoC4/cyfitter_cfg.c **** 			{0x81u, 0x01u},
ARM GAS  C:\Users\RYANCA~1\AppData\Local\Temp\ccE4tDRp.s 			page 17


 707:Generated_Source\PSoC4/cyfitter_cfg.c **** 			{0x82u, 0x02u},
 708:Generated_Source\PSoC4/cyfitter_cfg.c **** 			{0x83u, 0x01u},
 709:Generated_Source\PSoC4/cyfitter_cfg.c **** 			{0x84u, 0x08u},
 710:Generated_Source\PSoC4/cyfitter_cfg.c **** 			{0x88u, 0x0Au},
 711:Generated_Source\PSoC4/cyfitter_cfg.c **** 			{0x89u, 0x60u},
 712:Generated_Source\PSoC4/cyfitter_cfg.c **** 			{0x8Cu, 0x30u},
 713:Generated_Source\PSoC4/cyfitter_cfg.c **** 			{0x8Du, 0x01u},
 714:Generated_Source\PSoC4/cyfitter_cfg.c **** 			{0x8Fu, 0x01u},
 715:Generated_Source\PSoC4/cyfitter_cfg.c **** 			{0x94u, 0x08u},
 716:Generated_Source\PSoC4/cyfitter_cfg.c **** 			{0x97u, 0x80u},
 717:Generated_Source\PSoC4/cyfitter_cfg.c **** 			{0x9Au, 0x10u},
 718:Generated_Source\PSoC4/cyfitter_cfg.c **** 			{0x9Cu, 0x20u},
 719:Generated_Source\PSoC4/cyfitter_cfg.c **** 			{0x9Du, 0x02u},
 720:Generated_Source\PSoC4/cyfitter_cfg.c **** 			{0x9Fu, 0x02u},
 721:Generated_Source\PSoC4/cyfitter_cfg.c **** 			{0xA5u, 0x21u},
 722:Generated_Source\PSoC4/cyfitter_cfg.c **** 			{0xA9u, 0x0Au},
 723:Generated_Source\PSoC4/cyfitter_cfg.c **** 			{0xAEu, 0x10u},
 724:Generated_Source\PSoC4/cyfitter_cfg.c **** 			{0xAFu, 0x02u},
 725:Generated_Source\PSoC4/cyfitter_cfg.c **** 			{0xB3u, 0x40u},
 726:Generated_Source\PSoC4/cyfitter_cfg.c **** 			{0xB4u, 0x04u},
 727:Generated_Source\PSoC4/cyfitter_cfg.c **** 			{0xC0u, 0xF0u},
 728:Generated_Source\PSoC4/cyfitter_cfg.c **** 			{0xC2u, 0xF0u},
 729:Generated_Source\PSoC4/cyfitter_cfg.c **** 			{0xCCu, 0x80u},
 730:Generated_Source\PSoC4/cyfitter_cfg.c **** 			{0xD4u, 0xE0u},
 731:Generated_Source\PSoC4/cyfitter_cfg.c **** 			{0xD6u, 0xE0u},
 732:Generated_Source\PSoC4/cyfitter_cfg.c **** 			{0xD8u, 0xC0u},
 733:Generated_Source\PSoC4/cyfitter_cfg.c **** 			{0xE2u, 0xA0u},
 734:Generated_Source\PSoC4/cyfitter_cfg.c **** 			{0xE4u, 0x20u},
 735:Generated_Source\PSoC4/cyfitter_cfg.c **** 			{0xE6u, 0x90u},
 736:Generated_Source\PSoC4/cyfitter_cfg.c **** 			{0xEAu, 0xD0u},
 737:Generated_Source\PSoC4/cyfitter_cfg.c **** 			{0xECu, 0x20u},
 738:Generated_Source\PSoC4/cyfitter_cfg.c **** 			{0x10u, 0x01u},
 739:Generated_Source\PSoC4/cyfitter_cfg.c **** 			{0x11u, 0x01u},
 740:Generated_Source\PSoC4/cyfitter_cfg.c **** 		};
 741:Generated_Source\PSoC4/cyfitter_cfg.c **** 
 742:Generated_Source\PSoC4/cyfitter_cfg.c **** 
 743:Generated_Source\PSoC4/cyfitter_cfg.c **** 
 744:Generated_Source\PSoC4/cyfitter_cfg.c **** 		CYPACKED typedef struct {
 745:Generated_Source\PSoC4/cyfitter_cfg.c **** 			void CYFAR *address;
 746:Generated_Source\PSoC4/cyfitter_cfg.c **** 			uint16 size;
 747:Generated_Source\PSoC4/cyfitter_cfg.c **** 		} CYPACKED_ATTR cfg_memset_t;
 748:Generated_Source\PSoC4/cyfitter_cfg.c **** 
 749:Generated_Source\PSoC4/cyfitter_cfg.c **** 		static const cfg_memset_t CYCODE cfg_memset_list[] = {
 750:Generated_Source\PSoC4/cyfitter_cfg.c **** 			/* address, size */
 751:Generated_Source\PSoC4/cyfitter_cfg.c **** 			{(void CYFAR *)(CYDEV_UDB_P0_U0_BASE), 1024u},
 752:Generated_Source\PSoC4/cyfitter_cfg.c **** 			{(void CYFAR *)(CYDEV_UDB_DSI0_BASE), 1024u},
 753:Generated_Source\PSoC4/cyfitter_cfg.c **** 		};
 754:Generated_Source\PSoC4/cyfitter_cfg.c **** 
 755:Generated_Source\PSoC4/cyfitter_cfg.c **** 		uint8 CYDATA i;
 756:Generated_Source\PSoC4/cyfitter_cfg.c **** 
 757:Generated_Source\PSoC4/cyfitter_cfg.c **** 		/* Zero out critical memory blocks before beginning configuration */
 758:Generated_Source\PSoC4/cyfitter_cfg.c **** 		for (i = 0u; i < (sizeof(cfg_memset_list)/sizeof(cfg_memset_list[0])); i++)
 759:Generated_Source\PSoC4/cyfitter_cfg.c **** 		{
 760:Generated_Source\PSoC4/cyfitter_cfg.c **** 			const cfg_memset_t CYCODE * CYDATA ms = &cfg_memset_list[i];
 761:Generated_Source\PSoC4/cyfitter_cfg.c **** 			CYMEMZERO(ms->address, (size_t)(uint32)(ms->size));
 762:Generated_Source\PSoC4/cyfitter_cfg.c **** 		}
 763:Generated_Source\PSoC4/cyfitter_cfg.c **** 
ARM GAS  C:\Users\RYANCA~1\AppData\Local\Temp\ccE4tDRp.s 			page 18


 764:Generated_Source\PSoC4/cyfitter_cfg.c **** 		cfg_write_bytes32(cy_cfg_addr_table, cy_cfg_data_table);
 765:Generated_Source\PSoC4/cyfitter_cfg.c **** 
 766:Generated_Source\PSoC4/cyfitter_cfg.c **** 		/* Perform normal device configuration. Order is not critical for these items. */
 767:Generated_Source\PSoC4/cyfitter_cfg.c **** 		CY_SET_REG16((void *)(CYREG_UDB_BCTL0_DRV), 0x0100u);
 198              		.loc 1 767 0
 199 0062 8025     		movs	r5, #128
 768:Generated_Source\PSoC4/cyfitter_cfg.c **** 		CY_SET_REG8((void *)(CYREG_UDB_BCTL0_DRV + 0x2u), 0x01u);
 200              		.loc 1 768 0
 201 0064 0124     		movs	r4, #1
 767:Generated_Source\PSoC4/cyfitter_cfg.c **** 		CY_SET_REG8((void *)(CYREG_UDB_BCTL0_DRV + 0x2u), 0x01u);
 202              		.loc 1 767 0
 203 0066 4D4B     		ldr	r3, .L13+16
 204 0068 6D00     		lsls	r5, r5, #1
 205 006a 1D80     		strh	r5, [r3]
 206              		.loc 1 768 0
 207 006c 4C4B     		ldr	r3, .L13+20
 769:Generated_Source\PSoC4/cyfitter_cfg.c **** 
 770:Generated_Source\PSoC4/cyfitter_cfg.c **** 		/* HSIOM Starting address: CYDEV_HSIOM_BASE */
 771:Generated_Source\PSoC4/cyfitter_cfg.c **** 		CY_SET_REG32((void *)(CYDEV_HSIOM_BASE), 0x330033AAu);
 208              		.loc 1 771 0
 209 006e 4D4A     		ldr	r2, .L13+24
 768:Generated_Source\PSoC4/cyfitter_cfg.c **** 
 210              		.loc 1 768 0
 211 0070 1C70     		strb	r4, [r3]
 212              		.loc 1 771 0
 213 0072 4D4B     		ldr	r3, .L13+28
 772:Generated_Source\PSoC4/cyfitter_cfg.c **** 		CY_SET_REG32((void *)(CYREG_HSIOM_PORT_SEL1), 0x22222222u);
 773:Generated_Source\PSoC4/cyfitter_cfg.c **** 		CY_SET_REG32((void *)(CYREG_HSIOM_PORT_SEL3), 0x0000EE00u);
 774:Generated_Source\PSoC4/cyfitter_cfg.c **** 
 775:Generated_Source\PSoC4/cyfitter_cfg.c **** 		/* UDB_PA_0 Starting address: CYDEV_UDB_PA0_BASE */
 776:Generated_Source\PSoC4/cyfitter_cfg.c **** 		CY_SET_REG32((void *)(CYDEV_UDB_PA0_BASE), 0x00990000u);
 777:Generated_Source\PSoC4/cyfitter_cfg.c **** 		CY_SET_REG32((void *)(CYREG_UDB_PA0_CFG8), 0xB0B00000u);
 214              		.loc 1 777 0
 215 0074 4D49     		ldr	r1, .L13+32
 771:Generated_Source\PSoC4/cyfitter_cfg.c **** 		CY_SET_REG32((void *)(CYREG_HSIOM_PORT_SEL1), 0x22222222u);
 216              		.loc 1 771 0
 217 0076 1A60     		str	r2, [r3]
 772:Generated_Source\PSoC4/cyfitter_cfg.c **** 		CY_SET_REG32((void *)(CYREG_HSIOM_PORT_SEL1), 0x22222222u);
 218              		.loc 1 772 0
 219 0078 4D4A     		ldr	r2, .L13+36
 220 007a 4E4B     		ldr	r3, .L13+40
 221              	.LBE30:
 778:Generated_Source\PSoC4/cyfitter_cfg.c **** 
 779:Generated_Source\PSoC4/cyfitter_cfg.c **** 		/* UDB_PA_1 Starting address: CYDEV_UDB_PA1_BASE */
 780:Generated_Source\PSoC4/cyfitter_cfg.c **** 		CY_SET_REG32((void *)(CYDEV_UDB_PA1_BASE), 0x00990000u);
 781:Generated_Source\PSoC4/cyfitter_cfg.c **** 		CY_SET_REG32((void *)(CYREG_UDB_PA1_CFG8), 0x9CC90000u);
 782:Generated_Source\PSoC4/cyfitter_cfg.c **** 		CY_SET_REG32((void *)(CYREG_UDB_PA1_CFG12), 0x0000FFFFu);
 783:Generated_Source\PSoC4/cyfitter_cfg.c **** 
 784:Generated_Source\PSoC4/cyfitter_cfg.c **** 		/* UDB_PA_2 Starting address: CYDEV_UDB_PA2_BASE */
 785:Generated_Source\PSoC4/cyfitter_cfg.c **** 		CY_SET_REG32((void *)(CYDEV_UDB_PA2_BASE), 0x00990000u);
 786:Generated_Source\PSoC4/cyfitter_cfg.c **** 
 787:Generated_Source\PSoC4/cyfitter_cfg.c **** 		/* UDB_PA_3 Starting address: CYDEV_UDB_PA3_BASE */
 788:Generated_Source\PSoC4/cyfitter_cfg.c **** 		CY_SET_REG32((void *)(CYDEV_UDB_PA3_BASE), 0x00990000u);
 789:Generated_Source\PSoC4/cyfitter_cfg.c **** 
 790:Generated_Source\PSoC4/cyfitter_cfg.c **** 		/* INT_SELECT Starting address: CYDEV_CPUSS_INT_SEL */
 791:Generated_Source\PSoC4/cyfitter_cfg.c **** 		CY_SET_REG32((void *)(CYREG_CPUSS_INT_SEL), 0x00000001u);
 792:Generated_Source\PSoC4/cyfitter_cfg.c **** 
ARM GAS  C:\Users\RYANCA~1\AppData\Local\Temp\ccE4tDRp.s 			page 19


 793:Generated_Source\PSoC4/cyfitter_cfg.c **** 		/* INT_CONFIG Starting address: CYDEV_UDB_INT_CFG */
 794:Generated_Source\PSoC4/cyfitter_cfg.c **** 		CY_SET_REG32((void *)(CYREG_UDB_INT_CFG), 0x00000001u);
 795:Generated_Source\PSoC4/cyfitter_cfg.c **** 
 796:Generated_Source\PSoC4/cyfitter_cfg.c **** 		/* Enable UDB array and digital routing */
 797:Generated_Source\PSoC4/cyfitter_cfg.c **** 		CY_SET_XTND_REG8((void *)CYREG_UDB_UDBIF_WAIT_CFG, (uint8)((CY_GET_XTND_REG8((void *)CYREG_UDB_UD
 798:Generated_Source\PSoC4/cyfitter_cfg.c **** 		CY_SET_XTND_REG8((void *)CYREG_UDB_UDBIF_BANK_CTL, (uint8)(CY_GET_XTND_REG8((void *)CYREG_UDB_UDB
 799:Generated_Source\PSoC4/cyfitter_cfg.c **** 	}
 800:Generated_Source\PSoC4/cyfitter_cfg.c **** 
 801:Generated_Source\PSoC4/cyfitter_cfg.c **** 	/* Perform second pass device configuration. These items must be configured in specific order afte
 802:Generated_Source\PSoC4/cyfitter_cfg.c **** 	/* IOPINS0_0 Starting address: CYDEV_GPIO_PRT0_BASE */
 803:Generated_Source\PSoC4/cyfitter_cfg.c **** 	CY_SET_REG32((void *)(CYDEV_GPIO_PRT0_BASE), 0x000000FEu);
 804:Generated_Source\PSoC4/cyfitter_cfg.c **** 	CY_SET_REG32((void *)(CYREG_GPIO_PRT0_PC), 0x00DB6DB1u);
 805:Generated_Source\PSoC4/cyfitter_cfg.c **** 
 806:Generated_Source\PSoC4/cyfitter_cfg.c **** 	/* IOPINS0_1 Starting address: CYDEV_GPIO_PRT1_BASE */
 807:Generated_Source\PSoC4/cyfitter_cfg.c **** 	CY_SET_REG32((void *)(CYDEV_GPIO_PRT1_BASE), 0x000000FFu);
 808:Generated_Source\PSoC4/cyfitter_cfg.c **** 	CY_SET_REG32((void *)(CYREG_GPIO_PRT1_PC), 0x00DB6DB6u);
 809:Generated_Source\PSoC4/cyfitter_cfg.c **** 
 810:Generated_Source\PSoC4/cyfitter_cfg.c **** 	/* IOPINS0_2 Starting address: CYDEV_GPIO_PRT2_BASE */
 811:Generated_Source\PSoC4/cyfitter_cfg.c **** 	CY_SET_REG32((void *)(CYDEV_GPIO_PRT2_BASE), 0x000000C0u);
 222              		.loc 1 811 0
 223 007c C026     		movs	r6, #192
 224              	.LBB31:
 772:Generated_Source\PSoC4/cyfitter_cfg.c **** 		CY_SET_REG32((void *)(CYREG_HSIOM_PORT_SEL3), 0x0000EE00u);
 225              		.loc 1 772 0
 226 007e 1A60     		str	r2, [r3]
 773:Generated_Source\PSoC4/cyfitter_cfg.c **** 
 227              		.loc 1 773 0
 228 0080 EE22     		movs	r2, #238
 229 0082 4D4B     		ldr	r3, .L13+44
 230 0084 1202     		lsls	r2, r2, #8
 231 0086 1A60     		str	r2, [r3]
 776:Generated_Source\PSoC4/cyfitter_cfg.c **** 		CY_SET_REG32((void *)(CYREG_UDB_PA0_CFG8), 0xB0B00000u);
 232              		.loc 1 776 0
 233 0088 9923     		movs	r3, #153
 234 008a 4C4A     		ldr	r2, .L13+48
 235 008c 1B04     		lsls	r3, r3, #16
 236 008e 1360     		str	r3, [r2]
 777:Generated_Source\PSoC4/cyfitter_cfg.c **** 
 237              		.loc 1 777 0
 238 0090 4B4A     		ldr	r2, .L13+52
 239              	.LBE31:
 812:Generated_Source\PSoC4/cyfitter_cfg.c **** 	CY_SET_REG32((void *)(CYREG_GPIO_PRT2_PC2), 0x000000C0u);
 813:Generated_Source\PSoC4/cyfitter_cfg.c **** 
 814:Generated_Source\PSoC4/cyfitter_cfg.c **** 	/* IOPINS0_3 Starting address: CYDEV_GPIO_PRT3_BASE */
 815:Generated_Source\PSoC4/cyfitter_cfg.c **** 	CY_SET_REG32((void *)(CYREG_GPIO_PRT3_PC), 0x00C49D80u);
 816:Generated_Source\PSoC4/cyfitter_cfg.c **** 
 817:Generated_Source\PSoC4/cyfitter_cfg.c **** 	/* IOPINS0_4 Starting address: CYDEV_GPIO_PRT4_BASE */
 818:Generated_Source\PSoC4/cyfitter_cfg.c **** 	CY_SET_REG32((void *)(CYDEV_GPIO_PRT4_BASE), 0x00000038u);
 819:Generated_Source\PSoC4/cyfitter_cfg.c **** 	CY_SET_REG32((void *)(CYREG_GPIO_PRT4_PC), 0x00036C40u);
 820:Generated_Source\PSoC4/cyfitter_cfg.c **** 
 821:Generated_Source\PSoC4/cyfitter_cfg.c **** 	/* IOPINS0_5 Starting address: CYDEV_GPIO_PRT5_BASE */
 822:Generated_Source\PSoC4/cyfitter_cfg.c **** 	CY_SET_REG32((void *)(CYREG_GPIO_PRT5_PC), 0x00030C00u);
 823:Generated_Source\PSoC4/cyfitter_cfg.c **** 
 824:Generated_Source\PSoC4/cyfitter_cfg.c **** 	/* IOPINS0_6 Starting address: CYDEV_GPIO_PRT6_BASE */
 825:Generated_Source\PSoC4/cyfitter_cfg.c **** 	CY_SET_REG32((void *)(CYREG_GPIO_PRT6_PC), 0x00009000u);
 826:Generated_Source\PSoC4/cyfitter_cfg.c **** 
 827:Generated_Source\PSoC4/cyfitter_cfg.c **** 	/* IOPINS0_7 Starting address: CYDEV_GPIO_PRT7_BASE */
ARM GAS  C:\Users\RYANCA~1\AppData\Local\Temp\ccE4tDRp.s 			page 20


 828:Generated_Source\PSoC4/cyfitter_cfg.c **** 	CY_SET_REG32((void *)(CYREG_GPIO_PRT7_PC), 0x00000030u);
 240              		.loc 1 828 0
 241 0092 3020     		movs	r0, #48
 242              	.LBB32:
 777:Generated_Source\PSoC4/cyfitter_cfg.c **** 
 243              		.loc 1 777 0
 244 0094 1160     		str	r1, [r2]
 780:Generated_Source\PSoC4/cyfitter_cfg.c **** 		CY_SET_REG32((void *)(CYREG_UDB_PA1_CFG8), 0x9CC90000u);
 245              		.loc 1 780 0
 246 0096 4B4A     		ldr	r2, .L13+56
 781:Generated_Source\PSoC4/cyfitter_cfg.c **** 		CY_SET_REG32((void *)(CYREG_UDB_PA1_CFG12), 0x0000FFFFu);
 247              		.loc 1 781 0
 248 0098 4B49     		ldr	r1, .L13+60
 780:Generated_Source\PSoC4/cyfitter_cfg.c **** 		CY_SET_REG32((void *)(CYREG_UDB_PA1_CFG8), 0x9CC90000u);
 249              		.loc 1 780 0
 250 009a 1360     		str	r3, [r2]
 781:Generated_Source\PSoC4/cyfitter_cfg.c **** 		CY_SET_REG32((void *)(CYREG_UDB_PA1_CFG12), 0x0000FFFFu);
 251              		.loc 1 781 0
 252 009c 4B4A     		ldr	r2, .L13+64
 253              	.LBE32:
 829:Generated_Source\PSoC4/cyfitter_cfg.c **** 
 830:Generated_Source\PSoC4/cyfitter_cfg.c **** 
 831:Generated_Source\PSoC4/cyfitter_cfg.c **** 	/* Setup clocks based on selections from Clock DWR */
 832:Generated_Source\PSoC4/cyfitter_cfg.c **** 	ClockSetup();
 833:Generated_Source\PSoC4/cyfitter_cfg.c **** 
 834:Generated_Source\PSoC4/cyfitter_cfg.c **** 	/* Perform basic analog initialization to defaults */
 835:Generated_Source\PSoC4/cyfitter_cfg.c **** 	AnalogSetDefault();
 836:Generated_Source\PSoC4/cyfitter_cfg.c **** 
 837:Generated_Source\PSoC4/cyfitter_cfg.c **** }
 254              		.loc 1 837 0
 255              		@ sp needed
 256              	.LBB33:
 781:Generated_Source\PSoC4/cyfitter_cfg.c **** 		CY_SET_REG32((void *)(CYREG_UDB_PA1_CFG12), 0x0000FFFFu);
 257              		.loc 1 781 0
 258 009e 1160     		str	r1, [r2]
 782:Generated_Source\PSoC4/cyfitter_cfg.c **** 
 259              		.loc 1 782 0
 260 00a0 4B49     		ldr	r1, .L13+68
 261 00a2 4C4A     		ldr	r2, .L13+72
 262 00a4 1160     		str	r1, [r2]
 797:Generated_Source\PSoC4/cyfitter_cfg.c **** 		CY_SET_XTND_REG8((void *)CYREG_UDB_UDBIF_BANK_CTL, (uint8)(CY_GET_XTND_REG8((void *)CYREG_UDB_UDB
 263              		.loc 1 797 0
 264 00a6 3C21     		movs	r1, #60
 785:Generated_Source\PSoC4/cyfitter_cfg.c **** 
 265              		.loc 1 785 0
 266 00a8 4B4A     		ldr	r2, .L13+76
 267 00aa 1360     		str	r3, [r2]
 788:Generated_Source\PSoC4/cyfitter_cfg.c **** 
 268              		.loc 1 788 0
 269 00ac 4B4A     		ldr	r2, .L13+80
 270 00ae 1360     		str	r3, [r2]
 791:Generated_Source\PSoC4/cyfitter_cfg.c **** 
 271              		.loc 1 791 0
 272 00b0 4B4B     		ldr	r3, .L13+84
 797:Generated_Source\PSoC4/cyfitter_cfg.c **** 		CY_SET_XTND_REG8((void *)CYREG_UDB_UDBIF_BANK_CTL, (uint8)(CY_GET_XTND_REG8((void *)CYREG_UDB_UDB
 273              		.loc 1 797 0
 274 00b2 4C4A     		ldr	r2, .L13+88
ARM GAS  C:\Users\RYANCA~1\AppData\Local\Temp\ccE4tDRp.s 			page 21


 791:Generated_Source\PSoC4/cyfitter_cfg.c **** 
 275              		.loc 1 791 0
 276 00b4 1C60     		str	r4, [r3]
 794:Generated_Source\PSoC4/cyfitter_cfg.c **** 
 277              		.loc 1 794 0
 278 00b6 4C4B     		ldr	r3, .L13+92
 279 00b8 1C60     		str	r4, [r3]
 797:Generated_Source\PSoC4/cyfitter_cfg.c **** 		CY_SET_XTND_REG8((void *)CYREG_UDB_UDBIF_BANK_CTL, (uint8)(CY_GET_XTND_REG8((void *)CYREG_UDB_UDB
 280              		.loc 1 797 0
 281 00ba 1378     		ldrb	r3, [r2]
 282 00bc 8B43     		bics	r3, r1
 283 00be 2839     		subs	r1, r1, #40
 284 00c0 0B43     		orrs	r3, r1
 285 00c2 1370     		strb	r3, [r2]
 798:Generated_Source\PSoC4/cyfitter_cfg.c **** 	}
 286              		.loc 1 798 0
 287 00c4 494A     		ldr	r2, .L13+96
 288 00c6 0231     		adds	r1, r1, #2
 289 00c8 1378     		ldrb	r3, [r2]
 290 00ca 0B43     		orrs	r3, r1
 291 00cc 1370     		strb	r3, [r2]
 292              	.LBE33:
 803:Generated_Source\PSoC4/cyfitter_cfg.c **** 	CY_SET_REG32((void *)(CYREG_GPIO_PRT0_PC), 0x00DB6DB1u);
 293              		.loc 1 803 0
 294 00ce FE22     		movs	r2, #254
 295 00d0 474B     		ldr	r3, .L13+100
 296 00d2 1A60     		str	r2, [r3]
 804:Generated_Source\PSoC4/cyfitter_cfg.c **** 
 297              		.loc 1 804 0
 298 00d4 474A     		ldr	r2, .L13+104
 299 00d6 484B     		ldr	r3, .L13+108
 300 00d8 1A60     		str	r2, [r3]
 807:Generated_Source\PSoC4/cyfitter_cfg.c **** 	CY_SET_REG32((void *)(CYREG_GPIO_PRT1_PC), 0x00DB6DB6u);
 301              		.loc 1 807 0
 302 00da FF22     		movs	r2, #255
 303 00dc 474B     		ldr	r3, .L13+112
 304 00de 1A60     		str	r2, [r3]
 808:Generated_Source\PSoC4/cyfitter_cfg.c **** 
 305              		.loc 1 808 0
 306 00e0 474A     		ldr	r2, .L13+116
 307 00e2 484B     		ldr	r3, .L13+120
 308 00e4 1A60     		str	r2, [r3]
 811:Generated_Source\PSoC4/cyfitter_cfg.c **** 	CY_SET_REG32((void *)(CYREG_GPIO_PRT2_PC2), 0x000000C0u);
 309              		.loc 1 811 0
 310 00e6 484B     		ldr	r3, .L13+124
 815:Generated_Source\PSoC4/cyfitter_cfg.c **** 
 311              		.loc 1 815 0
 312 00e8 484A     		ldr	r2, .L13+128
 811:Generated_Source\PSoC4/cyfitter_cfg.c **** 	CY_SET_REG32((void *)(CYREG_GPIO_PRT2_PC2), 0x000000C0u);
 313              		.loc 1 811 0
 314 00ea 1E60     		str	r6, [r3]
 812:Generated_Source\PSoC4/cyfitter_cfg.c **** 
 315              		.loc 1 812 0
 316 00ec 484B     		ldr	r3, .L13+132
 317 00ee 1E60     		str	r6, [r3]
 815:Generated_Source\PSoC4/cyfitter_cfg.c **** 
 318              		.loc 1 815 0
ARM GAS  C:\Users\RYANCA~1\AppData\Local\Temp\ccE4tDRp.s 			page 22


 319 00f0 484B     		ldr	r3, .L13+136
 320 00f2 1A60     		str	r2, [r3]
 818:Generated_Source\PSoC4/cyfitter_cfg.c **** 	CY_SET_REG32((void *)(CYREG_GPIO_PRT4_PC), 0x00036C40u);
 321              		.loc 1 818 0
 322 00f4 3822     		movs	r2, #56
 323 00f6 484B     		ldr	r3, .L13+140
 324 00f8 1A60     		str	r2, [r3]
 819:Generated_Source\PSoC4/cyfitter_cfg.c **** 
 325              		.loc 1 819 0
 326 00fa 484A     		ldr	r2, .L13+144
 327 00fc 484B     		ldr	r3, .L13+148
 328 00fe 1A60     		str	r2, [r3]
 822:Generated_Source\PSoC4/cyfitter_cfg.c **** 
 329              		.loc 1 822 0
 330 0100 C322     		movs	r2, #195
 331 0102 484B     		ldr	r3, .L13+152
 332 0104 9202     		lsls	r2, r2, #10
 333 0106 1A60     		str	r2, [r3]
 825:Generated_Source\PSoC4/cyfitter_cfg.c **** 
 334              		.loc 1 825 0
 335 0108 9022     		movs	r2, #144
 336 010a 474B     		ldr	r3, .L13+156
 337 010c 1202     		lsls	r2, r2, #8
 338 010e 1A60     		str	r2, [r3]
 339              	.LBB34:
 340              	.LBB35:
 214:Generated_Source\PSoC4/cyfitter_cfg.c **** 	/* Setup and trim IMO based on desired frequency. */
 341              		.loc 1 214 0
 342 0110 1222     		movs	r2, #18
 343              	.LBE35:
 344              	.LBE34:
 828:Generated_Source\PSoC4/cyfitter_cfg.c **** 
 345              		.loc 1 828 0
 346 0112 464B     		ldr	r3, .L13+160
 347 0114 1860     		str	r0, [r3]
 348              	.LBB39:
 349              	.LBB36:
 214:Generated_Source\PSoC4/cyfitter_cfg.c **** 	/* Setup and trim IMO based on desired frequency. */
 350              		.loc 1 214 0
 351 0116 464B     		ldr	r3, .L13+164
 352 0118 1A60     		str	r2, [r3]
 216:Generated_Source\PSoC4/cyfitter_cfg.c **** 	/* CYDEV_CLK_ILO_CONFIG Starting address: CYDEV_CLK_ILO_CONFIG */
 353              		.loc 1 216 0
 354 011a FFF7FEFF 		bl	CySysClkWriteImoFreq
 355              	.LVL16:
 218:Generated_Source\PSoC4/cyfitter_cfg.c **** 
 356              		.loc 1 218 0
 357 011e 454A     		ldr	r2, .L13+168
 358 0120 454B     		ldr	r3, .L13+172
 226:Generated_Source\PSoC4/cyfitter_cfg.c **** 	CY_SET_REG32((void *)CYREG_PERI_DIV_CMD, 0x8000FF42u);
 359              		.loc 1 226 0
 360 0122 8020     		movs	r0, #128
 218:Generated_Source\PSoC4/cyfitter_cfg.c **** 
 361              		.loc 1 218 0
 362 0124 1A60     		str	r2, [r3]
 222:Generated_Source\PSoC4/cyfitter_cfg.c **** 	CY_SET_REG32((void *)CYREG_PERI_DIV_CMD, 0x8000FF40u);
 363              		.loc 1 222 0
ARM GAS  C:\Users\RYANCA~1\AppData\Local\Temp\ccE4tDRp.s 			page 23


 364 0126 0023     		movs	r3, #0
 365 0128 444A     		ldr	r2, .L13+176
 223:Generated_Source\PSoC4/cyfitter_cfg.c **** 	CY_SET_REG32((void *)CYREG_PERI_DIV_16_CTL1, 0x00000100u);
 366              		.loc 1 223 0
 367 012a 4549     		ldr	r1, .L13+180
 222:Generated_Source\PSoC4/cyfitter_cfg.c **** 	CY_SET_REG32((void *)CYREG_PERI_DIV_CMD, 0x8000FF40u);
 368              		.loc 1 222 0
 369 012c 1360     		str	r3, [r2]
 223:Generated_Source\PSoC4/cyfitter_cfg.c **** 	CY_SET_REG32((void *)CYREG_PERI_DIV_16_CTL1, 0x00000100u);
 370              		.loc 1 223 0
 371 012e 454A     		ldr	r2, .L13+184
 226:Generated_Source\PSoC4/cyfitter_cfg.c **** 	CY_SET_REG32((void *)CYREG_PERI_DIV_CMD, 0x8000FF42u);
 372              		.loc 1 226 0
 373 0130 0001     		lsls	r0, r0, #4
 223:Generated_Source\PSoC4/cyfitter_cfg.c **** 	CY_SET_REG32((void *)CYREG_PERI_DIV_16_CTL1, 0x00000100u);
 374              		.loc 1 223 0
 375 0132 1160     		str	r1, [r2]
 224:Generated_Source\PSoC4/cyfitter_cfg.c **** 	CY_SET_REG32((void *)CYREG_PERI_DIV_CMD, 0x8000FF41u);
 376              		.loc 1 224 0
 377 0134 4449     		ldr	r1, .L13+188
 378 0136 0D60     		str	r5, [r1]
 225:Generated_Source\PSoC4/cyfitter_cfg.c **** 	CY_SET_REG32((void *)CYREG_PERI_DIV_16_CTL2, 0x00000800u);
 379              		.loc 1 225 0
 380 0138 4449     		ldr	r1, .L13+192
 381 013a 1160     		str	r1, [r2]
 226:Generated_Source\PSoC4/cyfitter_cfg.c **** 	CY_SET_REG32((void *)CYREG_PERI_DIV_CMD, 0x8000FF42u);
 382              		.loc 1 226 0
 383 013c 4449     		ldr	r1, .L13+196
 384 013e 0860     		str	r0, [r1]
 227:Generated_Source\PSoC4/cyfitter_cfg.c **** 
 385              		.loc 1 227 0
 386 0140 4449     		ldr	r1, .L13+200
 387              	.LBE36:
 388              	.LBE39:
 389              	.LBB40:
 390              	.LBB41:
 272:Generated_Source\PSoC4/cyfitter_cfg.c **** }
 391              		.loc 1 272 0
 392 0142 2000     		movs	r0, r4
 393              	.LBE41:
 394              	.LBE40:
 395              	.LBB44:
 396              	.LBB37:
 227:Generated_Source\PSoC4/cyfitter_cfg.c **** 
 397              		.loc 1 227 0
 398 0144 1160     		str	r1, [r2]
 230:Generated_Source\PSoC4/cyfitter_cfg.c **** 
 399              		.loc 1 230 0
 400 0146 8221     		movs	r1, #130
 401 0148 434A     		ldr	r2, .L13+204
 402 014a 0906     		lsls	r1, r1, #24
 403 014c 1160     		str	r1, [r2]
 233:Generated_Source\PSoC4/cyfitter_cfg.c **** 
 404              		.loc 1 233 0
 405 014e 8021     		movs	r1, #128
 406 0150 424A     		ldr	r2, .L13+208
 407 0152 C902     		lsls	r1, r1, #11
ARM GAS  C:\Users\RYANCA~1\AppData\Local\Temp\ccE4tDRp.s 			page 24


 408 0154 1160     		str	r1, [r2]
 236:Generated_Source\PSoC4/cyfitter_cfg.c **** 
 409              		.loc 1 236 0
 410 0156 4121     		movs	r1, #65
 411 0158 414A     		ldr	r2, .L13+212
 412 015a 1160     		str	r1, [r2]
 239:Generated_Source\PSoC4/cyfitter_cfg.c **** 
 413              		.loc 1 239 0
 414 015c 414A     		ldr	r2, .L13+216
 415 015e 0919     		adds	r1, r1, r4
 416 0160 1160     		str	r1, [r2]
 241:Generated_Source\PSoC4/cyfitter_cfg.c **** }
 417              		.loc 1 241 0
 418 0162 414A     		ldr	r2, .L13+220
 419              	.LBE37:
 420              	.LBE44:
 421              	.LBB45:
 422              	.LBB42:
 266:Generated_Source\PSoC4/cyfitter_cfg.c **** 	CY_SET_XTND_REG32((void CYFAR *)CYREG_CTBM1_DFT_CTRL, 0x00000003u);
 423              		.loc 1 266 0
 424 0164 4149     		ldr	r1, .L13+224
 425              	.LBE42:
 426              	.LBE45:
 427              	.LBB46:
 428              	.LBB38:
 241:Generated_Source\PSoC4/cyfitter_cfg.c **** }
 429              		.loc 1 241 0
 430 0166 1360     		str	r3, [r2]
 431              	.LBE38:
 432              	.LBE46:
 433              	.LBB47:
 434              	.LBB43:
 266:Generated_Source\PSoC4/cyfitter_cfg.c **** 	CY_SET_XTND_REG32((void CYFAR *)CYREG_CTBM1_DFT_CTRL, 0x00000003u);
 435              		.loc 1 266 0
 436 0168 0322     		movs	r2, #3
 437 016a 0A60     		str	r2, [r1]
 267:Generated_Source\PSoC4/cyfitter_cfg.c **** 	CY_SET_XTND_REG32((void CYFAR *)CYREG_SAR_CTRL, 0x80000000u);
 438              		.loc 1 267 0
 439 016c 4049     		ldr	r1, .L13+228
 440 016e 0A60     		str	r2, [r1]
 268:Generated_Source\PSoC4/cyfitter_cfg.c **** 	CY_SET_XTND_REG32((void CYFAR *)CYREG_SAR_MUX_SWITCH0, 0x000000C0u);
 441              		.loc 1 268 0
 442 0170 8021     		movs	r1, #128
 443 0172 404A     		ldr	r2, .L13+232
 444 0174 0906     		lsls	r1, r1, #24
 445 0176 1160     		str	r1, [r2]
 269:Generated_Source\PSoC4/cyfitter_cfg.c **** 	CY_SET_XTND_REG32((void CYFAR *)CYREG_SAR_MUX_SWITCH_HW_CTRL, 0x000000C0u);
 446              		.loc 1 269 0
 447 0178 3F4A     		ldr	r2, .L13+236
 448 017a 1660     		str	r6, [r2]
 270:Generated_Source\PSoC4/cyfitter_cfg.c **** 	CY_SET_XTND_REG32((void CYFAR *)CYREG_PASS_DSAB_DSAB_CTRL, 0x00000000u);
 449              		.loc 1 270 0
 450 017c 3F4A     		ldr	r2, .L13+240
 451 017e 1660     		str	r6, [r2]
 271:Generated_Source\PSoC4/cyfitter_cfg.c **** 	SetAnalogRoutingPumps(1);
 452              		.loc 1 271 0
 453 0180 3F4A     		ldr	r2, .L13+244
ARM GAS  C:\Users\RYANCA~1\AppData\Local\Temp\ccE4tDRp.s 			page 25


 454 0182 1360     		str	r3, [r2]
 272:Generated_Source\PSoC4/cyfitter_cfg.c **** }
 455              		.loc 1 272 0
 456 0184 FFF7FEFF 		bl	SetAnalogRoutingPumps
 457              	.LVL17:
 458              	.LBE43:
 459              	.LBE47:
 460              		.loc 1 837 0
 461 0188 F7BD     		pop	{r0, r1, r2, r4, r5, r6, r7, pc}
 462              	.L14:
 463 018a C046     		.align	2
 464              	.L13:
 465 018c 1C700F40 		.word	1074753564
 466 0190 00300F40 		.word	1074737152
 467 0194 00400F40 		.word	1074741248
 468 0198 00000000 		.word	.LANCHOR0
 469 019c 00600F40 		.word	1074749440
 470 01a0 02600F40 		.word	1074749442
 471 01a4 AA330033 		.word	855651242
 472 01a8 00000240 		.word	1073872896
 473 01ac 0000B0B0 		.word	-1330642944
 474 01b0 22222222 		.word	572662306
 475 01b4 00010240 		.word	1073873152
 476 01b8 00030240 		.word	1073873664
 477 01bc 00500F40 		.word	1074745344
 478 01c0 08500F40 		.word	1074745352
 479 01c4 10500F40 		.word	1074745360
 480 01c8 0000C99C 		.word	-1664548864
 481 01cc 18500F40 		.word	1074745368
 482 01d0 FFFF0000 		.word	65535
 483 01d4 1C500F40 		.word	1074745372
 484 01d8 20500F40 		.word	1074745376
 485 01dc 30500F40 		.word	1074745392
 486 01e0 20001040 		.word	1074790432
 487 01e4 01700F40 		.word	1074753537
 488 01e8 00800F40 		.word	1074757632
 489 01ec 00700F40 		.word	1074753536
 490 01f0 00000440 		.word	1074003968
 491 01f4 B16DDB00 		.word	14380465
 492 01f8 08000440 		.word	1074003976
 493 01fc 00010440 		.word	1074004224
 494 0200 B66DDB00 		.word	14380470
 495 0204 08010440 		.word	1074004232
 496 0208 00020440 		.word	1074004480
 497 020c 809DC400 		.word	12885376
 498 0210 18020440 		.word	1074004504
 499 0214 08030440 		.word	1074004744
 500 0218 00040440 		.word	1074004992
 501 021c 406C0300 		.word	224320
 502 0220 08040440 		.word	1074005000
 503 0224 08050440 		.word	1074005256
 504 0228 08060440 		.word	1074005512
 505 022c 08070440 		.word	1074005768
 506 0230 30001040 		.word	1074790448
 507 0234 06000080 		.word	-2147483642
 508 0238 04010B40 		.word	1074462980
 509 023c 00030140 		.word	1073808128
ARM GAS  C:\Users\RYANCA~1\AppData\Local\Temp\ccE4tDRp.s 			page 26


 510 0240 40FF0080 		.word	-2147418304
 511 0244 00000140 		.word	1073807360
 512 0248 04030140 		.word	1073808132
 513 024c 41FF0080 		.word	-2147418303
 514 0250 08030140 		.word	1073808136
 515 0254 42FF0080 		.word	-2147418302
 516 0258 08010B40 		.word	1074462984
 517 025c 00010B40 		.word	1074462976
 518 0260 4C010140 		.word	1073807692
 519 0264 28010140 		.word	1073807656
 520 0268 0C020B40 		.word	1074463244
 521 026c 30003040 		.word	1076887600
 522 0270 30003140 		.word	1076953136
 523 0274 00003A40 		.word	1077542912
 524 0278 00033A40 		.word	1077543680
 525 027c 40033A40 		.word	1077543744
 526 0280 000E3F40 		.word	1077874176
 527              		.cfi_endproc
 528              	.LFE8:
 529              		.size	cyfitter_cfg, .-cyfitter_cfg
 530              		.section	.rodata
 531              		.align	2
 532              		.set	.LANCHOR0,. + 0
 533              		.type	cy_cfg_addr_table.4911, %object
 534              		.size	cy_cfg_addr_table.4911, 32
 535              	cy_cfg_addr_table.4911:
 536 0000 03000F40 		.word	1074724867
 537 0004 5D300F40 		.word	1074737245
 538 0008 40310F40 		.word	1074737472
 539 000c 56320F40 		.word	1074737750
 540 0010 55330F40 		.word	1074738005
 541 0014 0D400F40 		.word	1074741261
 542 0018 30410F40 		.word	1074741552
 543 001c 02600F40 		.word	1074749442
 544              		.type	cy_cfg_data_table.4912, %object
 545              		.size	cy_cfg_data_table.4912, 788
 546              	cy_cfg_data_table.4912:
 547 0020 23       		.byte	35
 548 0021 08       		.byte	8
 549 0022 33       		.byte	51
 550 0023 09       		.byte	9
 551 0024 80       		.byte	-128
 552 0025 0D       		.byte	13
 553 0026 01       		.byte	1
 554 0027 01       		.byte	1
 555 0028 04       		.byte	4
 556 0029 11       		.byte	17
 557 002a 05       		.byte	5
 558 002b 09       		.byte	9
 559 002c 06       		.byte	6
 560 002d 2A       		.byte	42
 561 002e 07       		.byte	7
 562 002f 10       		.byte	16
 563 0030 08       		.byte	8
 564 0031 3D       		.byte	61
 565 0032 09       		.byte	9
 566 0033 03       		.byte	3
ARM GAS  C:\Users\RYANCA~1\AppData\Local\Temp\ccE4tDRp.s 			page 27


 567 0034 0B       		.byte	11
 568 0035 04       		.byte	4
 569 0036 0C       		.byte	12
 570 0037 20       		.byte	32
 571 0038 0D       		.byte	13
 572 0039 05       		.byte	5
 573 003a 0F       		.byte	15
 574 003b 1A       		.byte	26
 575 003c 14       		.byte	20
 576 003d 03       		.byte	3
 577 003e 15       		.byte	21
 578 003f 01       		.byte	1
 579 0040 19       		.byte	25
 580 0041 08       		.byte	8
 581 0042 1A       		.byte	26
 582 0043 10       		.byte	16
 583 0044 20       		.byte	32
 584 0045 08       		.byte	8
 585 0046 22       		.byte	34
 586 0047 36       		.byte	54
 587 0048 24       		.byte	36
 588 0049 07       		.byte	7
 589 004a 26       		.byte	38
 590 004b 08       		.byte	8
 591 004c 29       		.byte	41
 592 004d 1E       		.byte	30
 593 004e 2B       		.byte	43
 594 004f 01       		.byte	1
 595 0050 2D       		.byte	45
 596 0051 10       		.byte	16
 597 0052 34       		.byte	52
 598 0053 3F       		.byte	63
 599 0054 37       		.byte	55
 600 0055 1F       		.byte	31
 601 0056 40       		.byte	64
 602 0057 51       		.byte	81
 603 0058 49       		.byte	73
 604 0059 FF       		.byte	-1
 605 005a 4A       		.byte	74
 606 005b FF       		.byte	-1
 607 005c 4B       		.byte	75
 608 005d FF       		.byte	-1
 609 005e 4F       		.byte	79
 610 005f 01       		.byte	1
 611 0060 50       		.byte	80
 612 0061 18       		.byte	24
 613 0062 52       		.byte	82
 614 0063 80       		.byte	-128
 615 0064 54       		.byte	84
 616 0065 01       		.byte	1
 617 0066 56       		.byte	86
 618 0067 04       		.byte	4
 619 0068 58       		.byte	88
 620 0069 04       		.byte	4
 621 006a 59       		.byte	89
 622 006b 04       		.byte	4
 623 006c 5A       		.byte	90
ARM GAS  C:\Users\RYANCA~1\AppData\Local\Temp\ccE4tDRp.s 			page 28


 624 006d 04       		.byte	4
 625 006e 5B       		.byte	91
 626 006f 04       		.byte	4
 627 0070 5D       		.byte	93
 628 0071 99       		.byte	-103
 629 0072 5F       		.byte	95
 630 0073 01       		.byte	1
 631 0074 60       		.byte	96
 632 0075 40       		.byte	64
 633 0076 62       		.byte	98
 634 0077 40       		.byte	64
 635 0078 64       		.byte	100
 636 0079 40       		.byte	64
 637 007a 65       		.byte	101
 638 007b 40       		.byte	64
 639 007c 66       		.byte	102
 640 007d 80       		.byte	-128
 641 007e 68       		.byte	104
 642 007f 80       		.byte	-128
 643 0080 6A       		.byte	106
 644 0081 80       		.byte	-128
 645 0082 6C       		.byte	108
 646 0083 80       		.byte	-128
 647 0084 6E       		.byte	110
 648 0085 80       		.byte	-128
 649 0086 81       		.byte	-127
 650 0087 1A       		.byte	26
 651 0088 83       		.byte	-125
 652 0089 04       		.byte	4
 653 008a 84       		.byte	-124
 654 008b 01       		.byte	1
 655 008c 85       		.byte	-123
 656 008d 1A       		.byte	26
 657 008e 87       		.byte	-121
 658 008f 04       		.byte	4
 659 0090 88       		.byte	-120
 660 0091 01       		.byte	1
 661 0092 89       		.byte	-119
 662 0093 08       		.byte	8
 663 0094 8B       		.byte	-117
 664 0095 10       		.byte	16
 665 0096 8F       		.byte	-113
 666 0097 04       		.byte	4
 667 0098 91       		.byte	-111
 668 0099 10       		.byte	16
 669 009a 93       		.byte	-109
 670 009b 08       		.byte	8
 671 009c 95       		.byte	-107
 672 009d 18       		.byte	24
 673 009e 97       		.byte	-105
 674 009f 05       		.byte	5
 675 00a0 9A       		.byte	-102
 676 00a1 01       		.byte	1
 677 00a2 9B       		.byte	-101
 678 00a3 1B       		.byte	27
 679 00a4 AB       		.byte	-85
 680 00a5 02       		.byte	2
ARM GAS  C:\Users\RYANCA~1\AppData\Local\Temp\ccE4tDRp.s 			page 29


 681 00a6 B3       		.byte	-77
 682 00a7 07       		.byte	7
 683 00a8 B5       		.byte	-75
 684 00a9 18       		.byte	24
 685 00aa B6       		.byte	-74
 686 00ab 01       		.byte	1
 687 00ac B8       		.byte	-72
 688 00ad 80       		.byte	-128
 689 00ae BB       		.byte	-69
 690 00af 28       		.byte	40
 691 00b0 C0       		.byte	-64
 692 00b1 51       		.byte	81
 693 00b2 C9       		.byte	-55
 694 00b3 FF       		.byte	-1
 695 00b4 CA       		.byte	-54
 696 00b5 FF       		.byte	-1
 697 00b6 CB       		.byte	-53
 698 00b7 FF       		.byte	-1
 699 00b8 CD       		.byte	-51
 700 00b9 83       		.byte	-125
 701 00ba CE       		.byte	-50
 702 00bb 03       		.byte	3
 703 00bc CF       		.byte	-49
 704 00bd 01       		.byte	1
 705 00be D0       		.byte	-48
 706 00bf 18       		.byte	24
 707 00c0 D4       		.byte	-44
 708 00c1 FF       		.byte	-1
 709 00c2 D8       		.byte	-40
 710 00c3 04       		.byte	4
 711 00c4 D9       		.byte	-39
 712 00c5 04       		.byte	4
 713 00c6 DA       		.byte	-38
 714 00c7 04       		.byte	4
 715 00c8 DB       		.byte	-37
 716 00c9 0E       		.byte	14
 717 00ca DD       		.byte	-35
 718 00cb 09       		.byte	9
 719 00cc DF       		.byte	-33
 720 00cd 01       		.byte	1
 721 00ce E0       		.byte	-32
 722 00cf 40       		.byte	64
 723 00d0 E2       		.byte	-30
 724 00d1 40       		.byte	64
 725 00d2 E4       		.byte	-28
 726 00d3 40       		.byte	64
 727 00d4 E5       		.byte	-27
 728 00d5 40       		.byte	64
 729 00d6 E6       		.byte	-26
 730 00d7 80       		.byte	-128
 731 00d8 E8       		.byte	-24
 732 00d9 80       		.byte	-128
 733 00da EA       		.byte	-22
 734 00db 80       		.byte	-128
 735 00dc EC       		.byte	-20
 736 00dd 80       		.byte	-128
 737 00de EE       		.byte	-18
ARM GAS  C:\Users\RYANCA~1\AppData\Local\Temp\ccE4tDRp.s 			page 30


 738 00df 80       		.byte	-128
 739 00e0 00       		.byte	0
 740 00e1 84       		.byte	-124
 741 00e2 01       		.byte	1
 742 00e3 20       		.byte	32
 743 00e4 03       		.byte	3
 744 00e5 08       		.byte	8
 745 00e6 04       		.byte	4
 746 00e7 04       		.byte	4
 747 00e8 05       		.byte	5
 748 00e9 20       		.byte	32
 749 00ea 08       		.byte	8
 750 00eb 10       		.byte	16
 751 00ec 09       		.byte	9
 752 00ed 08       		.byte	8
 753 00ee 0C       		.byte	12
 754 00ef 01       		.byte	1
 755 00f0 0E       		.byte	14
 756 00f1 08       		.byte	8
 757 00f2 0F       		.byte	15
 758 00f3 80       		.byte	-128
 759 00f4 11       		.byte	17
 760 00f5 08       		.byte	8
 761 00f6 12       		.byte	18
 762 00f7 80       		.byte	-128
 763 00f8 18       		.byte	24
 764 00f9 04       		.byte	4
 765 00fa 1E       		.byte	30
 766 00fb 01       		.byte	1
 767 00fc 20       		.byte	32
 768 00fd 02       		.byte	2
 769 00fe 21       		.byte	33
 770 00ff 40       		.byte	64
 771 0100 22       		.byte	34
 772 0101 80       		.byte	-128
 773 0102 24       		.byte	36
 774 0103 20       		.byte	32
 775 0104 25       		.byte	37
 776 0105 14       		.byte	20
 777 0106 26       		.byte	38
 778 0107 04       		.byte	4
 779 0108 2A       		.byte	42
 780 0109 80       		.byte	-128
 781 010a 2B       		.byte	43
 782 010b 08       		.byte	8
 783 010c 2C       		.byte	44
 784 010d 08       		.byte	8
 785 010e 30       		.byte	48
 786 010f 38       		.byte	56
 787 0110 35       		.byte	53
 788 0111 20       		.byte	32
 789 0112 36       		.byte	54
 790 0113 04       		.byte	4
 791 0114 37       		.byte	55
 792 0115 01       		.byte	1
 793 0116 38       		.byte	56
 794 0117 24       		.byte	36
ARM GAS  C:\Users\RYANCA~1\AppData\Local\Temp\ccE4tDRp.s 			page 31


 795 0118 39       		.byte	57
 796 0119 82       		.byte	-126
 797 011a 3C       		.byte	60
 798 011b 86       		.byte	-122
 799 011c 3D       		.byte	61
 800 011d 20       		.byte	32
 801 011e 3E       		.byte	62
 802 011f 80       		.byte	-128
 803 0120 42       		.byte	66
 804 0121 02       		.byte	2
 805 0122 46       		.byte	70
 806 0123 02       		.byte	2
 807 0124 48       		.byte	72
 808 0125 02       		.byte	2
 809 0126 4C       		.byte	76
 810 0127 02       		.byte	2
 811 0128 58       		.byte	88
 812 0129 01       		.byte	1
 813 012a 59       		.byte	89
 814 012b 08       		.byte	8
 815 012c 5A       		.byte	90
 816 012d 80       		.byte	-128
 817 012e 5C       		.byte	92
 818 012f 12       		.byte	18
 819 0130 5D       		.byte	93
 820 0131 44       		.byte	68
 821 0132 61       		.byte	97
 822 0133 02       		.byte	2
 823 0134 64       		.byte	100
 824 0135 20       		.byte	32
 825 0136 66       		.byte	102
 826 0137 41       		.byte	65
 827 0138 67       		.byte	103
 828 0139 04       		.byte	4
 829 013a 70       		.byte	112
 830 013b 02       		.byte	2
 831 013c 73       		.byte	115
 832 013d 40       		.byte	64
 833 013e 7F       		.byte	127
 834 013f 20       		.byte	32
 835 0140 80       		.byte	-128
 836 0141 02       		.byte	2
 837 0142 89       		.byte	-119
 838 0143 02       		.byte	2
 839 0144 8E       		.byte	-114
 840 0145 01       		.byte	1
 841 0146 C0       		.byte	-64
 842 0147 67       		.byte	103
 843 0148 C2       		.byte	-62
 844 0149 46       		.byte	70
 845 014a C4       		.byte	-60
 846 014b 0C       		.byte	12
 847 014c CA       		.byte	-54
 848 014d 2C       		.byte	44
 849 014e CC       		.byte	-52
 850 014f E6       		.byte	-26
 851 0150 CE       		.byte	-50
ARM GAS  C:\Users\RYANCA~1\AppData\Local\Temp\ccE4tDRp.s 			page 32


 852 0151 FF       		.byte	-1
 853 0152 D0       		.byte	-48
 854 0153 18       		.byte	24
 855 0154 D2       		.byte	-46
 856 0155 18       		.byte	24
 857 0156 D6       		.byte	-42
 858 0157 FB       		.byte	-5
 859 0158 D8       		.byte	-40
 860 0159 F1       		.byte	-15
 861 015a DE       		.byte	-34
 862 015b 40       		.byte	64
 863 015c E4       		.byte	-28
 864 015d 40       		.byte	64
 865 015e E6       		.byte	-26
 866 015f 20       		.byte	32
 867 0160 02       		.byte	2
 868 0161 03       		.byte	3
 869 0162 03       		.byte	3
 870 0163 01       		.byte	1
 871 0164 04       		.byte	4
 872 0165 05       		.byte	5
 873 0166 08       		.byte	8
 874 0167 07       		.byte	7
 875 0168 15       		.byte	21
 876 0169 01       		.byte	1
 877 016a 18       		.byte	24
 878 016b 03       		.byte	3
 879 016c 1A       		.byte	26
 880 016d 04       		.byte	4
 881 016e 29       		.byte	41
 882 016f 01       		.byte	1
 883 0170 30       		.byte	48
 884 0171 01       		.byte	1
 885 0172 32       		.byte	50
 886 0173 06       		.byte	6
 887 0174 35       		.byte	53
 888 0175 01       		.byte	1
 889 0176 38       		.byte	56
 890 0177 0A       		.byte	10
 891 0178 40       		.byte	64
 892 0179 51       		.byte	81
 893 017a 45       		.byte	69
 894 017b 0C       		.byte	12
 895 017c 46       		.byte	70
 896 017d 0E       		.byte	14
 897 017e 47       		.byte	71
 898 017f 20       		.byte	32
 899 0180 48       		.byte	72
 900 0181 25       		.byte	37
 901 0182 49       		.byte	73
 902 0183 FF       		.byte	-1
 903 0184 4A       		.byte	74
 904 0185 FF       		.byte	-1
 905 0186 4B       		.byte	75
 906 0187 FF       		.byte	-1
 907 0188 4D       		.byte	77
 908 0189 83       		.byte	-125
ARM GAS  C:\Users\RYANCA~1\AppData\Local\Temp\ccE4tDRp.s 			page 33


 909 018a 4E       		.byte	78
 910 018b 03       		.byte	3
 911 018c 4F       		.byte	79
 912 018d 01       		.byte	1
 913 018e 50       		.byte	80
 914 018f 18       		.byte	24
 915 0190 58       		.byte	88
 916 0191 04       		.byte	4
 917 0192 59       		.byte	89
 918 0193 04       		.byte	4
 919 0194 5A       		.byte	90
 920 0195 04       		.byte	4
 921 0196 5D       		.byte	93
 922 0197 09       		.byte	9
 923 0198 5F       		.byte	95
 924 0199 01       		.byte	1
 925 019a 60       		.byte	96
 926 019b 40       		.byte	64
 927 019c 62       		.byte	98
 928 019d 40       		.byte	64
 929 019e 64       		.byte	100
 930 019f 40       		.byte	64
 931 01a0 65       		.byte	101
 932 01a1 40       		.byte	64
 933 01a2 66       		.byte	102
 934 01a3 80       		.byte	-128
 935 01a4 68       		.byte	104
 936 01a5 80       		.byte	-128
 937 01a6 6A       		.byte	106
 938 01a7 80       		.byte	-128
 939 01a8 6C       		.byte	108
 940 01a9 80       		.byte	-128
 941 01aa 6E       		.byte	110
 942 01ab 80       		.byte	-128
 943 01ac 80       		.byte	-128
 944 01ad 04       		.byte	4
 945 01ae 82       		.byte	-126
 946 01af 02       		.byte	2
 947 01b0 84       		.byte	-124
 948 01b1 0C       		.byte	12
 949 01b2 86       		.byte	-122
 950 01b3 02       		.byte	2
 951 01b4 88       		.byte	-120
 952 01b5 0A       		.byte	10
 953 01b6 8A       		.byte	-118
 954 01b7 04       		.byte	4
 955 01b8 8B       		.byte	-117
 956 01b9 01       		.byte	1
 957 01ba 8E       		.byte	-114
 958 01bb 04       		.byte	4
 959 01bc 92       		.byte	-110
 960 01bd 01       		.byte	1
 961 01be 94       		.byte	-108
 962 01bf 06       		.byte	6
 963 01c0 96       		.byte	-106
 964 01c1 08       		.byte	8
 965 01c2 A2       		.byte	-94
ARM GAS  C:\Users\RYANCA~1\AppData\Local\Temp\ccE4tDRp.s 			page 34


 966 01c3 01       		.byte	1
 967 01c4 A6       		.byte	-90
 968 01c5 02       		.byte	2
 969 01c6 A8       		.byte	-88
 970 01c7 04       		.byte	4
 971 01c8 AF       		.byte	-81
 972 01c9 01       		.byte	1
 973 01ca B0       		.byte	-80
 974 01cb 01       		.byte	1
 975 01cc B1       		.byte	-79
 976 01cd 01       		.byte	1
 977 01ce B2       		.byte	-78
 978 01cf 0C       		.byte	12
 979 01d0 B4       		.byte	-76
 980 01d1 02       		.byte	2
 981 01d2 B9       		.byte	-71
 982 01d3 02       		.byte	2
 983 01d4 BE       		.byte	-66
 984 01d5 11       		.byte	17
 985 01d6 BF       		.byte	-65
 986 01d7 01       		.byte	1
 987 01d8 C0       		.byte	-64
 988 01d9 52       		.byte	82
 989 01da C1       		.byte	-63
 990 01db 06       		.byte	6
 991 01dc C5       		.byte	-59
 992 01dd 62       		.byte	98
 993 01de C6       		.byte	-58
 994 01df EF       		.byte	-17
 995 01e0 C7       		.byte	-57
 996 01e1 DC       		.byte	-36
 997 01e2 C8       		.byte	-56
 998 01e3 3F       		.byte	63
 999 01e4 C9       		.byte	-55
 1000 01e5 FF       		.byte	-1
 1001 01e6 CA       		.byte	-54
 1002 01e7 FF       		.byte	-1
 1003 01e8 CB       		.byte	-53
 1004 01e9 FF       		.byte	-1
 1005 01ea D0       		.byte	-48
 1006 01eb 04       		.byte	4
 1007 01ec D4       		.byte	-44
 1008 01ed 02       		.byte	2
 1009 01ee D6       		.byte	-42
 1010 01ef 01       		.byte	1
 1011 01f0 D8       		.byte	-40
 1012 01f1 04       		.byte	4
 1013 01f2 D9       		.byte	-39
 1014 01f3 04       		.byte	4
 1015 01f4 DA       		.byte	-38
 1016 01f5 04       		.byte	4
 1017 01f6 DB       		.byte	-37
 1018 01f7 04       		.byte	4
 1019 01f8 DF       		.byte	-33
 1020 01f9 01       		.byte	1
 1021 01fa E2       		.byte	-30
 1022 01fb C0       		.byte	-64
ARM GAS  C:\Users\RYANCA~1\AppData\Local\Temp\ccE4tDRp.s 			page 35


 1023 01fc E4       		.byte	-28
 1024 01fd 30       		.byte	48
 1025 01fe E7       		.byte	-25
 1026 01ff 10       		.byte	16
 1027 0200 E8       		.byte	-24
 1028 0201 80       		.byte	-128
 1029 0202 EA       		.byte	-22
 1030 0203 20       		.byte	32
 1031 0204 EC       		.byte	-20
 1032 0205 40       		.byte	64
 1033 0206 ED       		.byte	-19
 1034 0207 40       		.byte	64
 1035 0208 EE       		.byte	-18
 1036 0209 10       		.byte	16
 1037 020a EF       		.byte	-17
 1038 020b 50       		.byte	80
 1039 020c 00       		.byte	0
 1040 020d 0A       		.byte	10
 1041 020e 02       		.byte	2
 1042 020f 01       		.byte	1
 1043 0210 03       		.byte	3
 1044 0211 48       		.byte	72
 1045 0212 04       		.byte	4
 1046 0213 24       		.byte	36
 1047 0214 07       		.byte	7
 1048 0215 40       		.byte	64
 1049 0216 08       		.byte	8
 1050 0217 08       		.byte	8
 1051 0218 0B       		.byte	11
 1052 0219 40       		.byte	64
 1053 021a 0E       		.byte	14
 1054 021b 08       		.byte	8
 1055 021c 10       		.byte	16
 1056 021d 28       		.byte	40
 1057 021e 11       		.byte	17
 1058 021f 02       		.byte	2
 1059 0220 18       		.byte	24
 1060 0221 20       		.byte	32
 1061 0222 19       		.byte	25
 1062 0223 10       		.byte	16
 1063 0224 1A       		.byte	26
 1064 0225 80       		.byte	-128
 1065 0226 1B       		.byte	27
 1066 0227 28       		.byte	40
 1067 0228 1D       		.byte	29
 1068 0229 04       		.byte	4
 1069 022a 1F       		.byte	31
 1070 022b 01       		.byte	1
 1071 022c 23       		.byte	35
 1072 022d 80       		.byte	-128
 1073 022e 24       		.byte	36
 1074 022f 08       		.byte	8
 1075 0230 2A       		.byte	42
 1076 0231 40       		.byte	64
 1077 0232 2F       		.byte	47
 1078 0233 08       		.byte	8
 1079 0234 36       		.byte	54
ARM GAS  C:\Users\RYANCA~1\AppData\Local\Temp\ccE4tDRp.s 			page 36


 1080 0235 04       		.byte	4
 1081 0236 3A       		.byte	58
 1082 0237 10       		.byte	16
 1083 0238 3C       		.byte	60
 1084 0239 02       		.byte	2
 1085 023a 40       		.byte	64
 1086 023b 0C       		.byte	12
 1087 023c 46       		.byte	70
 1088 023d 02       		.byte	2
 1089 023e 48       		.byte	72
 1090 023f 65       		.byte	101
 1091 0240 4A       		.byte	74
 1092 0241 04       		.byte	4
 1093 0242 4D       		.byte	77
 1094 0243 08       		.byte	8
 1095 0244 4F       		.byte	79
 1096 0245 40       		.byte	64
 1097 0246 51       		.byte	81
 1098 0247 09       		.byte	9
 1099 0248 52       		.byte	82
 1100 0249 51       		.byte	81
 1101 024a 55       		.byte	85
 1102 024b 01       		.byte	1
 1103 024c 56       		.byte	86
 1104 024d 02       		.byte	2
 1105 024e 57       		.byte	87
 1106 024f 40       		.byte	64
 1107 0250 59       		.byte	89
 1108 0251 10       		.byte	16
 1109 0252 5B       		.byte	91
 1110 0253 80       		.byte	-128
 1111 0254 68       		.byte	104
 1112 0255 08       		.byte	8
 1113 0256 69       		.byte	105
 1114 0257 11       		.byte	17
 1115 0258 6B       		.byte	107
 1116 0259 11       		.byte	17
 1117 025a 71       		.byte	113
 1118 025b 42       		.byte	66
 1119 025c 72       		.byte	114
 1120 025d 10       		.byte	16
 1121 025e 73       		.byte	115
 1122 025f 08       		.byte	8
 1123 0260 80       		.byte	-128
 1124 0261 24       		.byte	36
 1125 0262 81       		.byte	-127
 1126 0263 02       		.byte	2
 1127 0264 83       		.byte	-125
 1128 0265 08       		.byte	8
 1129 0266 85       		.byte	-123
 1130 0267 40       		.byte	64
 1131 0268 89       		.byte	-119
 1132 0269 15       		.byte	21
 1133 026a 8B       		.byte	-117
 1134 026b 04       		.byte	4
 1135 026c 8D       		.byte	-115
 1136 026d 04       		.byte	4
ARM GAS  C:\Users\RYANCA~1\AppData\Local\Temp\ccE4tDRp.s 			page 37


 1137 026e 8E       		.byte	-114
 1138 026f 10       		.byte	16
 1139 0270 8F       		.byte	-113
 1140 0271 11       		.byte	17
 1141 0272 90       		.byte	-112
 1142 0273 04       		.byte	4
 1143 0274 93       		.byte	-109
 1144 0275 40       		.byte	64
 1145 0276 95       		.byte	-107
 1146 0277 06       		.byte	6
 1147 0278 96       		.byte	-106
 1148 0279 80       		.byte	-128
 1149 027a 97       		.byte	-105
 1150 027b 04       		.byte	4
 1151 027c 9C       		.byte	-100
 1152 027d 20       		.byte	32
 1153 027e 9D       		.byte	-99
 1154 027f 08       		.byte	8
 1155 0280 9E       		.byte	-98
 1156 0281 02       		.byte	2
 1157 0282 9F       		.byte	-97
 1158 0283 01       		.byte	1
 1159 0284 A0       		.byte	-96
 1160 0285 01       		.byte	1
 1161 0286 A2       		.byte	-94
 1162 0287 04       		.byte	4
 1163 0288 A4       		.byte	-92
 1164 0289 68       		.byte	104
 1165 028a A5       		.byte	-91
 1166 028b 08       		.byte	8
 1167 028c A7       		.byte	-89
 1168 028d 68       		.byte	104
 1169 028e A9       		.byte	-87
 1170 028f 50       		.byte	80
 1171 0290 AE       		.byte	-82
 1172 0291 01       		.byte	1
 1173 0292 AF       		.byte	-81
 1174 0293 01       		.byte	1
 1175 0294 B2       		.byte	-78
 1176 0295 40       		.byte	64
 1177 0296 B4       		.byte	-76
 1178 0297 10       		.byte	16
 1179 0298 C0       		.byte	-64
 1180 0299 7F       		.byte	127
 1181 029a C2       		.byte	-62
 1182 029b 4C       		.byte	76
 1183 029c C4       		.byte	-60
 1184 029d 0E       		.byte	14
 1185 029e CA       		.byte	-54
 1186 029f 28       		.byte	40
 1187 02a0 CC       		.byte	-52
 1188 02a1 40       		.byte	64
 1189 02a2 CE       		.byte	-50
 1190 02a3 84       		.byte	-124
 1191 02a4 D0       		.byte	-48
 1192 02a5 14       		.byte	20
 1193 02a6 D2       		.byte	-46
ARM GAS  C:\Users\RYANCA~1\AppData\Local\Temp\ccE4tDRp.s 			page 38


 1194 02a7 1C       		.byte	28
 1195 02a8 D6       		.byte	-42
 1196 02a9 0C       		.byte	12
 1197 02aa E0       		.byte	-32
 1198 02ab 20       		.byte	32
 1199 02ac E2       		.byte	-30
 1200 02ad D0       		.byte	-48
 1201 02ae E4       		.byte	-28
 1202 02af 20       		.byte	32
 1203 02b0 E6       		.byte	-26
 1204 02b1 D0       		.byte	-48
 1205 02b2 E8       		.byte	-24
 1206 02b3 10       		.byte	16
 1207 02b4 EC       		.byte	-20
 1208 02b5 80       		.byte	-128
 1209 02b6 53       		.byte	83
 1210 02b7 02       		.byte	2
 1211 02b8 55       		.byte	85
 1212 02b9 01       		.byte	1
 1213 02ba 61       		.byte	97
 1214 02bb 08       		.byte	8
 1215 02bc 64       		.byte	100
 1216 02bd 20       		.byte	32
 1217 02be 68       		.byte	104
 1218 02bf 20       		.byte	32
 1219 02c0 83       		.byte	-125
 1220 02c1 02       		.byte	2
 1221 02c2 88       		.byte	-120
 1222 02c3 20       		.byte	32
 1223 02c4 8D       		.byte	-115
 1224 02c5 20       		.byte	32
 1225 02c6 D4       		.byte	-44
 1226 02c7 80       		.byte	-128
 1227 02c8 D6       		.byte	-42
 1228 02c9 20       		.byte	32
 1229 02ca D8       		.byte	-40
 1230 02cb C0       		.byte	-64
 1231 02cc DA       		.byte	-38
 1232 02cd 40       		.byte	64
 1233 02ce E4       		.byte	-28
 1234 02cf 80       		.byte	-128
 1235 02d0 01       		.byte	1
 1236 02d1 22       		.byte	34
 1237 02d2 04       		.byte	4
 1238 02d3 08       		.byte	8
 1239 02d4 07       		.byte	7
 1240 02d5 02       		.byte	2
 1241 02d6 0B       		.byte	11
 1242 02d7 82       		.byte	-126
 1243 02d8 0C       		.byte	12
 1244 02d9 08       		.byte	8
 1245 02da 0D       		.byte	13
 1246 02db 20       		.byte	32
 1247 02dc 34       		.byte	52
 1248 02dd 02       		.byte	2
 1249 02de 50       		.byte	80
 1250 02df 10       		.byte	16
ARM GAS  C:\Users\RYANCA~1\AppData\Local\Temp\ccE4tDRp.s 			page 39


 1251 02e0 54       		.byte	84
 1252 02e1 02       		.byte	2
 1253 02e2 56       		.byte	86
 1254 02e3 10       		.byte	16
 1255 02e4 58       		.byte	88
 1256 02e5 08       		.byte	8
 1257 02e6 59       		.byte	89
 1258 02e7 40       		.byte	64
 1259 02e8 5F       		.byte	95
 1260 02e9 01       		.byte	1
 1261 02ea 62       		.byte	98
 1262 02eb 02       		.byte	2
 1263 02ec 65       		.byte	101
 1264 02ed 01       		.byte	1
 1265 02ee 80       		.byte	-128
 1266 02ef 02       		.byte	2
 1267 02f0 81       		.byte	-127
 1268 02f1 01       		.byte	1
 1269 02f2 82       		.byte	-126
 1270 02f3 02       		.byte	2
 1271 02f4 83       		.byte	-125
 1272 02f5 01       		.byte	1
 1273 02f6 84       		.byte	-124
 1274 02f7 08       		.byte	8
 1275 02f8 88       		.byte	-120
 1276 02f9 0A       		.byte	10
 1277 02fa 89       		.byte	-119
 1278 02fb 60       		.byte	96
 1279 02fc 8C       		.byte	-116
 1280 02fd 30       		.byte	48
 1281 02fe 8D       		.byte	-115
 1282 02ff 01       		.byte	1
 1283 0300 8F       		.byte	-113
 1284 0301 01       		.byte	1
 1285 0302 94       		.byte	-108
 1286 0303 08       		.byte	8
 1287 0304 97       		.byte	-105
 1288 0305 80       		.byte	-128
 1289 0306 9A       		.byte	-102
 1290 0307 10       		.byte	16
 1291 0308 9C       		.byte	-100
 1292 0309 20       		.byte	32
 1293 030a 9D       		.byte	-99
 1294 030b 02       		.byte	2
 1295 030c 9F       		.byte	-97
 1296 030d 02       		.byte	2
 1297 030e A5       		.byte	-91
 1298 030f 21       		.byte	33
 1299 0310 A9       		.byte	-87
 1300 0311 0A       		.byte	10
 1301 0312 AE       		.byte	-82
 1302 0313 10       		.byte	16
 1303 0314 AF       		.byte	-81
 1304 0315 02       		.byte	2
 1305 0316 B3       		.byte	-77
 1306 0317 40       		.byte	64
 1307 0318 B4       		.byte	-76
ARM GAS  C:\Users\RYANCA~1\AppData\Local\Temp\ccE4tDRp.s 			page 40


 1308 0319 04       		.byte	4
 1309 031a C0       		.byte	-64
 1310 031b F0       		.byte	-16
 1311 031c C2       		.byte	-62
 1312 031d F0       		.byte	-16
 1313 031e CC       		.byte	-52
 1314 031f 80       		.byte	-128
 1315 0320 D4       		.byte	-44
 1316 0321 E0       		.byte	-32
 1317 0322 D6       		.byte	-42
 1318 0323 E0       		.byte	-32
 1319 0324 D8       		.byte	-40
 1320 0325 C0       		.byte	-64
 1321 0326 E2       		.byte	-30
 1322 0327 A0       		.byte	-96
 1323 0328 E4       		.byte	-28
 1324 0329 20       		.byte	32
 1325 032a E6       		.byte	-26
 1326 032b 90       		.byte	-112
 1327 032c EA       		.byte	-22
 1328 032d D0       		.byte	-48
 1329 032e EC       		.byte	-20
 1330 032f 20       		.byte	32
 1331 0330 10       		.byte	16
 1332 0331 01       		.byte	1
 1333 0332 11       		.byte	17
 1334 0333 01       		.byte	1
 1335              		.text
 1336              	.Letext0:
 1337              		.file 2 "c:\\program files (x86)\\cypress\\psoc creator\\4.4\\psoc creator\\import\\gnu\\arm\\5.4.
 1338              		.file 3 "Generated_Source\\PSoC4\\cytypes.h"
 1339              		.file 4 "Generated_Source\\PSoC4\\CyLib.h"