ARM GAS  C:\Users\RYANCA~1\AppData\Local\Temp\ccZAR4Lf.s 			page 1


   1              		.syntax unified
   2              		.cpu cortex-m0
   3              		.fpu softvfp
   4              		.eabi_attribute 20, 1
   5              		.eabi_attribute 21, 1
   6              		.eabi_attribute 23, 3
   7              		.eabi_attribute 24, 1
   8              		.eabi_attribute 25, 1
   9              		.eabi_attribute 26, 1
  10              		.eabi_attribute 30, 4
  11              		.eabi_attribute 34, 0
  12              		.eabi_attribute 18, 4
  13              		.thumb
  14              		.syntax unified
  15              		.file	"CyLib.c"
  16              		.text
  17              	.Ltext0:
  18              		.cfi_sections	.debug_frame
  19              		.section	.text.CySysClkImoStart,"ax",%progbits
  20              		.align	1
  21              		.global	CySysClkImoStart
  22              		.code	16
  23              		.thumb_func
  24              		.type	CySysClkImoStart, %function
  25              	CySysClkImoStart:
  26              	.LFB1:
  27              		.file 1 "Generated_Source\\PSoC4\\CyLib.c"
   1:Generated_Source\PSoC4/CyLib.c **** /***************************************************************************//**
   2:Generated_Source\PSoC4/CyLib.c **** * \file CyLib.c
   3:Generated_Source\PSoC4/CyLib.c **** * \version 6.10
   4:Generated_Source\PSoC4/CyLib.c **** *
   5:Generated_Source\PSoC4/CyLib.c **** * \brief Provides a system API for the Clocking, Interrupts, SysTick, and
   6:Generated_Source\PSoC4/CyLib.c **** * Voltage Detect.
   7:Generated_Source\PSoC4/CyLib.c **** *
   8:Generated_Source\PSoC4/CyLib.c **** * \note Documentation of the API's in this file is located in the PSoC 4 System
   9:Generated_Source\PSoC4/CyLib.c **** * Reference Guide provided with PSoC Creator.
  10:Generated_Source\PSoC4/CyLib.c **** *
  11:Generated_Source\PSoC4/CyLib.c **** ********************************************************************************
  12:Generated_Source\PSoC4/CyLib.c **** * \copyright
  13:Generated_Source\PSoC4/CyLib.c **** * Copyright 2010-2021, Cypress Semiconductor Corporation.  All rights reserved.
  14:Generated_Source\PSoC4/CyLib.c **** * You may use this file only in accordance with the license, terms, conditions,
  15:Generated_Source\PSoC4/CyLib.c **** * disclaimers, and limitations in the end user license agreement accompanying
  16:Generated_Source\PSoC4/CyLib.c **** * the software package with which this file was provided.
  17:Generated_Source\PSoC4/CyLib.c **** *******************************************************************************/
  18:Generated_Source\PSoC4/CyLib.c **** 
  19:Generated_Source\PSoC4/CyLib.c **** #include "CyLib.h"
  20:Generated_Source\PSoC4/CyLib.c **** 
  21:Generated_Source\PSoC4/CyLib.c **** /* CySysClkWriteImoFreq() || CySysClkImoEnableWcoLock() */
  22:Generated_Source\PSoC4/CyLib.c **** #if ((CY_IP_SRSSV2 && CY_IP_FMLT) || CY_IP_IMO_TRIMMABLE_BY_WCO)
  23:Generated_Source\PSoC4/CyLib.c ****     #include "CyFlash.h"
  24:Generated_Source\PSoC4/CyLib.c **** #endif /* (CY_IP_SRSSV2 && CY_IP_FMLT) */
  25:Generated_Source\PSoC4/CyLib.c **** 
  26:Generated_Source\PSoC4/CyLib.c **** /* Do not use these definitions directly in your application */
  27:Generated_Source\PSoC4/CyLib.c **** uint32 cydelayFreqHz  = CYDEV_BCLK__SYSCLK__HZ;
  28:Generated_Source\PSoC4/CyLib.c **** uint32 cydelayFreqKhz = (CYDEV_BCLK__SYSCLK__HZ + CY_DELAY_1K_MINUS_1_THRESHOLD) / CY_DELAY_1K_THRE
  29:Generated_Source\PSoC4/CyLib.c **** uint8  cydelayFreqMhz = (uint8)((CYDEV_BCLK__SYSCLK__HZ + CY_DELAY_1M_MINUS_1_THRESHOLD) / CY_DELAY
  30:Generated_Source\PSoC4/CyLib.c **** uint32 cydelay32kMs   = CY_DELAY_MS_OVERFLOW * ((CYDEV_BCLK__SYSCLK__HZ + CY_DELAY_1K_MINUS_1_THRES
ARM GAS  C:\Users\RYANCA~1\AppData\Local\Temp\ccZAR4Lf.s 			page 2


  31:Generated_Source\PSoC4/CyLib.c ****                         CY_DELAY_1K_THRESHOLD);
  32:Generated_Source\PSoC4/CyLib.c **** 
  33:Generated_Source\PSoC4/CyLib.c **** 
  34:Generated_Source\PSoC4/CyLib.c **** static cySysTickCallback CySysTickCallbacks[CY_SYS_SYST_NUM_OF_CALLBACKS];
  35:Generated_Source\PSoC4/CyLib.c **** static void CySysTickServiceCallbacks(void);
  36:Generated_Source\PSoC4/CyLib.c **** 
  37:Generated_Source\PSoC4/CyLib.c **** #if (CY_IP_PLL)
  38:Generated_Source\PSoC4/CyLib.c ****     static uint32 CySysClkPllGetBypassMode(uint32 pll);
  39:Generated_Source\PSoC4/CyLib.c ****     static cystatus CySysClkPllConfigChangeAllowed(uint32 pll);
  40:Generated_Source\PSoC4/CyLib.c **** #endif /* (CY_IP_PLL) */
  41:Generated_Source\PSoC4/CyLib.c **** 
  42:Generated_Source\PSoC4/CyLib.c **** 
  43:Generated_Source\PSoC4/CyLib.c **** /***************************************************************************//**
  44:Generated_Source\PSoC4/CyLib.c **** * Indicates whether or not the SysTick has been initialized. The variable is
  45:Generated_Source\PSoC4/CyLib.c **** * initialized to 0 and set to 1 the first time CySysTickStart() is called.
  46:Generated_Source\PSoC4/CyLib.c **** *
  47:Generated_Source\PSoC4/CyLib.c **** * This allows the component to restart without reinitialization after the first
  48:Generated_Source\PSoC4/CyLib.c **** * call to the CySysTickStart() routine.
  49:Generated_Source\PSoC4/CyLib.c **** *
  50:Generated_Source\PSoC4/CyLib.c **** * If reinitialization of the SysTick is required, call CySysTickInit() before
  51:Generated_Source\PSoC4/CyLib.c **** * calling CySysTickStart(). Alternatively, the SysTick can be reinitialized by
  52:Generated_Source\PSoC4/CyLib.c **** * calling the CySysTickInit() and CySysTickEnable() functions.
  53:Generated_Source\PSoC4/CyLib.c **** *******************************************************************************/
  54:Generated_Source\PSoC4/CyLib.c **** uint32 CySysTickInitVar = 0u;
  55:Generated_Source\PSoC4/CyLib.c **** 
  56:Generated_Source\PSoC4/CyLib.c **** 
  57:Generated_Source\PSoC4/CyLib.c **** #if(CY_IP_SRSSV2)
  58:Generated_Source\PSoC4/CyLib.c ****         /* Conversion between CySysClkWriteImoFreq() parameter and register's value */
  59:Generated_Source\PSoC4/CyLib.c ****         const uint8 cyImoFreqMhz2Reg[CY_SYS_CLK_IMO_FREQ_TABLE_SIZE] = {
  60:Generated_Source\PSoC4/CyLib.c ****             /*  3 MHz */ 0x03u,  /*  4 MHz */ 0x04u,  /*  5 MHz */ 0x05u,  /*  6 MHz */ 0x06u,
  61:Generated_Source\PSoC4/CyLib.c ****             /*  7 MHz */ 0x07u,  /*  8 MHz */ 0x08u,  /*  9 MHz */ 0x09u,  /* 10 MHz */ 0x0Au,
  62:Generated_Source\PSoC4/CyLib.c ****             /* 11 MHz */ 0x0Bu,  /* 12 MHz */ 0x0Cu,  /* 13 MHz */ 0x0Eu,  /* 14 MHz */ 0x0Fu,
  63:Generated_Source\PSoC4/CyLib.c ****             /* 15 MHz */ 0x10u,  /* 16 MHz */ 0x11u,  /* 17 MHz */ 0x12u,  /* 18 MHz */ 0x13u,
  64:Generated_Source\PSoC4/CyLib.c ****             /* 19 MHz */ 0x14u,  /* 20 MHz */ 0x15u,  /* 21 MHz */ 0x16u,  /* 22 MHz */ 0x17u,
  65:Generated_Source\PSoC4/CyLib.c ****             /* 23 MHz */ 0x18u,  /* 24 MHz */ 0x19u,  /* 25 MHz */ 0x1Bu,  /* 26 MHz */ 0x1Cu,
  66:Generated_Source\PSoC4/CyLib.c ****             /* 27 MHz */ 0x1Du,  /* 28 MHz */ 0x1Eu,  /* 29 MHz */ 0x1Fu,  /* 30 MHz */ 0x20u,
  67:Generated_Source\PSoC4/CyLib.c ****             /* 31 MHz */ 0x21u,  /* 32 MHz */ 0x22u,  /* 33 MHz */ 0x23u,  /* 34 MHz */ 0x25u,
  68:Generated_Source\PSoC4/CyLib.c ****             /* 35 MHz */ 0x26u,  /* 36 MHz */ 0x27u,  /* 37 MHz */ 0x28u,  /* 38 MHz */ 0x29u,
  69:Generated_Source\PSoC4/CyLib.c ****             /* 39 MHz */ 0x2Au,  /* 40 MHz */ 0x2Bu,  /* 41 MHz */ 0x2Eu,  /* 42 MHz */ 0x2Fu,
  70:Generated_Source\PSoC4/CyLib.c ****             /* 43 MHz */ 0x30u,  /* 44 MHz */ 0x31u,  /* 45 MHz */ 0x32u,  /* 46 MHz */ 0x33u,
  71:Generated_Source\PSoC4/CyLib.c ****             /* 47 MHz */ 0x34u,  /* 48 MHz */ 0x35u };
  72:Generated_Source\PSoC4/CyLib.c **** #endif /* (CY_IP_SRSSV2) */
  73:Generated_Source\PSoC4/CyLib.c **** 
  74:Generated_Source\PSoC4/CyLib.c **** #if (CY_IP_IMO_TRIMMABLE_BY_USB && CY_IP_SRSSV2)
  75:Generated_Source\PSoC4/CyLib.c ****     #define CY_CRI_TESTPGM_6_REV            (6u)
  76:Generated_Source\PSoC4/CyLib.c ****     #define CY_CRI_TESTPGM_9_REV            (9u)
  77:Generated_Source\PSoC4/CyLib.c ****     #define CYSFLASH_CRI_testpgm_rev_MASK   (0x0000003Fu)
  78:Generated_Source\PSoC4/CyLib.c **** 
  79:Generated_Source\PSoC4/CyLib.c ****     /* Stored CY_SYS_CLK_IMO_TRIM4_REG when modified for USB lock */
  80:Generated_Source\PSoC4/CyLib.c ****     uint32 CySysClkImoTrim4 = 0u;
  81:Generated_Source\PSoC4/CyLib.c ****     uint32 CySysClkImoTrim5 = 0u;
  82:Generated_Source\PSoC4/CyLib.c **** 
  83:Generated_Source\PSoC4/CyLib.c ****     static void CySysClkImoSetPwrBgTrim5(void);
  84:Generated_Source\PSoC4/CyLib.c ****     static void CySysClkImoSetImoTrims(void);
  85:Generated_Source\PSoC4/CyLib.c **** #endif /* (CY_IP_IMO_TRIMMABLE_BY_USB && CY_IP_SRSSV2) */
  86:Generated_Source\PSoC4/CyLib.c **** 
  87:Generated_Source\PSoC4/CyLib.c **** /* Stored PUMP_SEL configuration during disable (IMO output by default) */
ARM GAS  C:\Users\RYANCA~1\AppData\Local\Temp\ccZAR4Lf.s 			page 3


  88:Generated_Source\PSoC4/CyLib.c **** uint32 CySysClkPumpConfig = CY_SYS_CLK_PUMP_ENABLE;
  89:Generated_Source\PSoC4/CyLib.c **** 
  90:Generated_Source\PSoC4/CyLib.c **** 
  91:Generated_Source\PSoC4/CyLib.c **** /*******************************************************************************
  92:Generated_Source\PSoC4/CyLib.c **** * Function Name: CySysClkImoStart
  93:Generated_Source\PSoC4/CyLib.c **** ****************************************************************************//**
  94:Generated_Source\PSoC4/CyLib.c **** *
  95:Generated_Source\PSoC4/CyLib.c **** * Enables the IMO.
  96:Generated_Source\PSoC4/CyLib.c **** *
  97:Generated_Source\PSoC4/CyLib.c **** * For PSoC 4100M / PSoC 4200M / PSoC 4000S / PSoC 4100S / PSoC 4500 / PSoC Analog
  98:Generated_Source\PSoC4/CyLib.c **** * Coprocessor devices, this function will also enable WCO lock if selected in
  99:Generated_Source\PSoC4/CyLib.c **** * the Design Wide Resources tab.
 100:Generated_Source\PSoC4/CyLib.c **** *
 101:Generated_Source\PSoC4/CyLib.c **** * For PSoC 4200L devices, this function will also enable USB lock if selected
 102:Generated_Source\PSoC4/CyLib.c **** * in the Design Wide Resources tab.
 103:Generated_Source\PSoC4/CyLib.c **** *
 104:Generated_Source\PSoC4/CyLib.c **** *******************************************************************************/
 105:Generated_Source\PSoC4/CyLib.c **** void CySysClkImoStart(void)
 106:Generated_Source\PSoC4/CyLib.c **** {
  28              		.loc 1 106 0
  29              		.cfi_startproc
  30              		@ args = 0, pretend = 0, frame = 0
  31              		@ frame_needed = 0, uses_anonymous_args = 0
  32              		@ link register save eliminated.
 107:Generated_Source\PSoC4/CyLib.c ****     CY_SYS_CLK_IMO_CONFIG_REG |= CY_SYS_CLK_IMO_CONFIG_ENABLE;
  33              		.loc 1 107 0
  34 0000 8021     		movs	r1, #128
  35 0002 034A     		ldr	r2, .L2
  36 0004 0906     		lsls	r1, r1, #24
  37 0006 1368     		ldr	r3, [r2]
 108:Generated_Source\PSoC4/CyLib.c **** 
 109:Generated_Source\PSoC4/CyLib.c ****     #if (CY_IP_IMO_TRIMMABLE_BY_WCO)
 110:Generated_Source\PSoC4/CyLib.c ****         #if (CYDEV_IMO_TRIMMED_BY_WCO == 1u)
 111:Generated_Source\PSoC4/CyLib.c ****             CySysClkImoEnableWcoLock();
 112:Generated_Source\PSoC4/CyLib.c ****         #endif  /* (CYDEV_IMO_TRIMMED_BY_WCO == 1u) */
 113:Generated_Source\PSoC4/CyLib.c ****     #endif  /* (CY_IP_IMO_TRIMMABLE_BY_WCO) */
 114:Generated_Source\PSoC4/CyLib.c **** 
 115:Generated_Source\PSoC4/CyLib.c **** 
 116:Generated_Source\PSoC4/CyLib.c ****     #if (CY_IP_IMO_TRIMMABLE_BY_USB)
 117:Generated_Source\PSoC4/CyLib.c ****         #if (CYDEV_IMO_TRIMMED_BY_USB == 1u)
 118:Generated_Source\PSoC4/CyLib.c ****             CySysClkImoEnableUsbLock();
 119:Generated_Source\PSoC4/CyLib.c ****         #endif  /* (CYDEV_IMO_TRIMMED_BY_USB == 1u) */
 120:Generated_Source\PSoC4/CyLib.c ****     #endif  /* (CY_IP_IMO_TRIMMABLE_BY_USB) */
 121:Generated_Source\PSoC4/CyLib.c **** 
 122:Generated_Source\PSoC4/CyLib.c **** }
  38              		.loc 1 122 0
  39              		@ sp needed
 107:Generated_Source\PSoC4/CyLib.c ****     CY_SYS_CLK_IMO_CONFIG_REG |= CY_SYS_CLK_IMO_CONFIG_ENABLE;
  40              		.loc 1 107 0
  41 0008 0B43     		orrs	r3, r1
  42 000a 1360     		str	r3, [r2]
  43              		.loc 1 122 0
  44 000c 7047     		bx	lr
  45              	.L3:
  46 000e C046     		.align	2
  47              	.L2:
  48 0010 08010B40 		.word	1074462984
ARM GAS  C:\Users\RYANCA~1\AppData\Local\Temp\ccZAR4Lf.s 			page 4


  49              		.cfi_endproc
  50              	.LFE1:
  51              		.size	CySysClkImoStart, .-CySysClkImoStart
  52              		.section	.text.CySysClkImoDisableWcoLock,"ax",%progbits
  53              		.align	1
  54              		.global	CySysClkImoDisableWcoLock
  55              		.code	16
  56              		.thumb_func
  57              		.type	CySysClkImoDisableWcoLock, %function
  58              	CySysClkImoDisableWcoLock:
  59              	.LFB4:
 123:Generated_Source\PSoC4/CyLib.c **** 
 124:Generated_Source\PSoC4/CyLib.c **** 
 125:Generated_Source\PSoC4/CyLib.c **** /*******************************************************************************
 126:Generated_Source\PSoC4/CyLib.c **** * Function Name: CySysClkImoStop
 127:Generated_Source\PSoC4/CyLib.c **** ****************************************************************************//**
 128:Generated_Source\PSoC4/CyLib.c **** *
 129:Generated_Source\PSoC4/CyLib.c **** * Disables the IMO.
 130:Generated_Source\PSoC4/CyLib.c **** *
 131:Generated_Source\PSoC4/CyLib.c **** * For PSoC 4100M / PSoC 4200M / PSoC 4200L / PSoC 4000S / PSoC 4100S /
 132:Generated_Source\PSoC4/CyLib.c **** * PSoC 4500 / PSoC Analog Coprocessor devices, this function will also
 133:Generated_Source\PSoC4/CyLib.c **** * disable WCO lock.
 134:Generated_Source\PSoC4/CyLib.c **** *
 135:Generated_Source\PSoC4/CyLib.c **** * For PSoC PSoC 4200L devices, this function will also disable USB lock.
 136:Generated_Source\PSoC4/CyLib.c **** *
 137:Generated_Source\PSoC4/CyLib.c **** *******************************************************************************/
 138:Generated_Source\PSoC4/CyLib.c **** void CySysClkImoStop(void)
 139:Generated_Source\PSoC4/CyLib.c **** {
 140:Generated_Source\PSoC4/CyLib.c ****     #if (CY_IP_IMO_TRIMMABLE_BY_WCO)
 141:Generated_Source\PSoC4/CyLib.c ****         CySysClkImoDisableWcoLock();
 142:Generated_Source\PSoC4/CyLib.c ****     #endif  /* (CY_IP_IMO_TRIMMABLE_BY_WCO) */
 143:Generated_Source\PSoC4/CyLib.c **** 
 144:Generated_Source\PSoC4/CyLib.c ****     #if (CY_IP_IMO_TRIMMABLE_BY_USB)
 145:Generated_Source\PSoC4/CyLib.c ****         CySysClkImoDisableUsbLock();
 146:Generated_Source\PSoC4/CyLib.c ****     #endif  /* (CY_IP_IMO_TRIMMABLE_BY_USB) */
 147:Generated_Source\PSoC4/CyLib.c **** 
 148:Generated_Source\PSoC4/CyLib.c ****     CY_SYS_CLK_IMO_CONFIG_REG &= ( uint32 ) ( ~( uint32 )CY_SYS_CLK_IMO_CONFIG_ENABLE);
 149:Generated_Source\PSoC4/CyLib.c **** }
 150:Generated_Source\PSoC4/CyLib.c **** 
 151:Generated_Source\PSoC4/CyLib.c **** #if (CY_IP_IMO_TRIMMABLE_BY_WCO)
 152:Generated_Source\PSoC4/CyLib.c **** 
 153:Generated_Source\PSoC4/CyLib.c ****     /*******************************************************************************
 154:Generated_Source\PSoC4/CyLib.c ****     * Function Name: CySysClkImoEnableWcoLock
 155:Generated_Source\PSoC4/CyLib.c ****     ****************************************************************************//**
 156:Generated_Source\PSoC4/CyLib.c ****     *
 157:Generated_Source\PSoC4/CyLib.c ****     * Enables the IMO to WCO lock feature. This function works only if the WCO is
 158:Generated_Source\PSoC4/CyLib.c ****     * already enabled. If the WCO is not enabled then this function returns
 159:Generated_Source\PSoC4/CyLib.c ****     * without enabling the lock feature.
 160:Generated_Source\PSoC4/CyLib.c ****     *
 161:Generated_Source\PSoC4/CyLib.c ****     * It takes up to 20 ms for the IMO to stabilize. The delay is implemented with
 162:Generated_Source\PSoC4/CyLib.c ****     * CyDelay() function. The delay interval is measured based on the system
 163:Generated_Source\PSoC4/CyLib.c ****     * frequency defined by PSoC Creator at build time. If System clock frequency
 164:Generated_Source\PSoC4/CyLib.c ****     * is changed in runtime, the CyDelayFreq() with the appropriate parameter
 165:Generated_Source\PSoC4/CyLib.c ****     * should be called.
 166:Generated_Source\PSoC4/CyLib.c ****     *
 167:Generated_Source\PSoC4/CyLib.c ****     * For PSoC 4200L devices, note that the IMO can lock to either WCO or USB
 168:Generated_Source\PSoC4/CyLib.c ****     * but not both.
ARM GAS  C:\Users\RYANCA~1\AppData\Local\Temp\ccZAR4Lf.s 			page 5


 169:Generated_Source\PSoC4/CyLib.c ****     *
 170:Generated_Source\PSoC4/CyLib.c ****     * This function is applicable for PSoC 4100M / PSoC 4200M / PSoC 4000S /
 171:Generated_Source\PSoC4/CyLib.c ****     * PSoC 4100S / PSoC 4500 / PSoC Analog Coprocessor / PSoC 4200L.
 172:Generated_Source\PSoC4/CyLib.c ****     *
 173:Generated_Source\PSoC4/CyLib.c ****     *******************************************************************************/
 174:Generated_Source\PSoC4/CyLib.c ****     void CySysClkImoEnableWcoLock(void)
 175:Generated_Source\PSoC4/CyLib.c ****     {
 176:Generated_Source\PSoC4/CyLib.c ****         #if(CY_IP_SRSSV2)
 177:Generated_Source\PSoC4/CyLib.c ****             uint32 i;
 178:Generated_Source\PSoC4/CyLib.c ****         #endif  /* (CY_IP_SRSSV2) */
 179:Generated_Source\PSoC4/CyLib.c **** 
 180:Generated_Source\PSoC4/CyLib.c ****         uint32 freq;
 181:Generated_Source\PSoC4/CyLib.c ****         uint8  interruptState;
 182:Generated_Source\PSoC4/CyLib.c ****         uint32 regTmp;
 183:Generated_Source\PSoC4/CyLib.c ****         uint32 lfLimit = 0u;
 184:Generated_Source\PSoC4/CyLib.c ****         volatile uint32 flashCtlReg;
 185:Generated_Source\PSoC4/CyLib.c **** 
 186:Generated_Source\PSoC4/CyLib.c ****         if (0u != CySysClkWcoEnabled())
 187:Generated_Source\PSoC4/CyLib.c ****         {
 188:Generated_Source\PSoC4/CyLib.c ****             interruptState = CyEnterCriticalSection();
 189:Generated_Source\PSoC4/CyLib.c **** 
 190:Generated_Source\PSoC4/CyLib.c ****             /* Set oscillator interface control port to WCO */
 191:Generated_Source\PSoC4/CyLib.c ****             #if (CY_IP_IMO_TRIMMABLE_BY_WCO && CY_IP_IMO_TRIMMABLE_BY_USB)
 192:Generated_Source\PSoC4/CyLib.c ****                 CY_SYS_CLK_OSCINTF_CTL_REG =
 193:Generated_Source\PSoC4/CyLib.c ****                     (CY_SYS_CLK_OSCINTF_CTL_REG & (uint32) ~CY_SYS_CLK_OSCINTF_CTL_PORT_SEL_MASK) |
 194:Generated_Source\PSoC4/CyLib.c ****                     CY_SYS_CLK_OSCINTF_CTL_PORT_SEL_WCO;
 195:Generated_Source\PSoC4/CyLib.c ****             #endif /* (CY_IP_IMO_TRIMMABLE_BY_WCO && CY_IP_IMO_TRIMMABLE_BY_USB) */
 196:Generated_Source\PSoC4/CyLib.c **** 
 197:Generated_Source\PSoC4/CyLib.c ****             /* Get current IMO frequency based on the register value */
 198:Generated_Source\PSoC4/CyLib.c ****             #if(CY_IP_SRSSV2)
 199:Generated_Source\PSoC4/CyLib.c ****                 freq = CY_SYS_CLK_IMO_MIN_FREQ_MHZ;
 200:Generated_Source\PSoC4/CyLib.c ****                 for(i = 0u; i < CY_SYS_CLK_IMO_FREQ_TABLE_SIZE; i++)
 201:Generated_Source\PSoC4/CyLib.c ****                 {
 202:Generated_Source\PSoC4/CyLib.c ****                     if ((uint8) (CY_SYS_CLK_IMO_TRIM2_REG & CY_SYS_CLK_IMO_FREQ_BITS_MASK) == cyImo
 203:Generated_Source\PSoC4/CyLib.c ****                     {
 204:Generated_Source\PSoC4/CyLib.c ****                         freq = i + CY_SYS_CLK_IMO_FREQ_TABLE_OFFSET;
 205:Generated_Source\PSoC4/CyLib.c ****                         break;
 206:Generated_Source\PSoC4/CyLib.c ****                     }
 207:Generated_Source\PSoC4/CyLib.c ****                 }
 208:Generated_Source\PSoC4/CyLib.c ****             #else
 209:Generated_Source\PSoC4/CyLib.c ****                 /* Calculate frequency by shifting register field value and adding constant. */
 210:Generated_Source\PSoC4/CyLib.c ****                 #if(CY_IP_SRSSLT)
 211:Generated_Source\PSoC4/CyLib.c ****                     freq = (((uint32) ((CY_SYS_CLK_IMO_SELECT_REG & ((uint32) CY_SYS_CLK_IMO_SELECT
 212:Generated_Source\PSoC4/CyLib.c ****                                         CY_SYS_CLK_IMO_SELECT_FREQ_SHIFT) + CY_SYS_CLK_IMO_MIN_FREQ
 213:Generated_Source\PSoC4/CyLib.c ****                                       ((CY_SYS_CLK_SELECT_REG >> CY_SYS_CLK_SELECT_HFCLK_DIV_SHIFT)
 214:Generated_Source\PSoC4/CyLib.c ****                                        (uint32) CY_SYS_CLK_SELECT_HFCLK_DIV_MASK));
 215:Generated_Source\PSoC4/CyLib.c ****                 #else
 216:Generated_Source\PSoC4/CyLib.c ****                     freq = ((uint32) ((CY_SYS_CLK_IMO_SELECT_REG & ((uint32) CY_SYS_CLK_IMO_SELECT_
 217:Generated_Source\PSoC4/CyLib.c ****                                        CY_SYS_CLK_IMO_SELECT_FREQ_SHIFT) + CY_SYS_CLK_IMO_MIN_FREQ_
 218:Generated_Source\PSoC4/CyLib.c ****                 #endif  /* (CY_IP_SRSSLT) */
 219:Generated_Source\PSoC4/CyLib.c **** 
 220:Generated_Source\PSoC4/CyLib.c ****             #endif  /* (CY_IP_SRSSV2) */
 221:Generated_Source\PSoC4/CyLib.c **** 
 222:Generated_Source\PSoC4/CyLib.c ****             CY_SYS_CLK_IMO_TRIM1_REG = 0u;
 223:Generated_Source\PSoC4/CyLib.c **** 
 224:Generated_Source\PSoC4/CyLib.c ****             /* For the WCO locking mode, the IMO gain needs to be CY_SYS_CLK_IMO_TRIM4_GAIN */
 225:Generated_Source\PSoC4/CyLib.c ****             #if(CY_IP_SRSSV2)
ARM GAS  C:\Users\RYANCA~1\AppData\Local\Temp\ccZAR4Lf.s 			page 6


 226:Generated_Source\PSoC4/CyLib.c ****                 if ((CY_SYS_CLK_IMO_TRIM4_REG & CY_SYS_CLK_IMO_TRIM4_GAIN_MASK) == 0u)
 227:Generated_Source\PSoC4/CyLib.c ****                 {
 228:Generated_Source\PSoC4/CyLib.c ****                      CY_SYS_CLK_IMO_TRIM4_REG = (CY_SYS_CLK_IMO_TRIM4_REG & (uint32) ~CY_SYS_CLK_IM
 229:Generated_Source\PSoC4/CyLib.c ****                                                  CY_SYS_CLK_IMO_TRIM4_WCO_GAIN;
 230:Generated_Source\PSoC4/CyLib.c ****                 }
 231:Generated_Source\PSoC4/CyLib.c ****             #endif /* (CY_IP_SRSSV2) */
 232:Generated_Source\PSoC4/CyLib.c **** 
 233:Generated_Source\PSoC4/CyLib.c ****             regTmp  = CY_SYS_CLK_WCO_DPLL_REG & ~(CY_SYS_CLK_WCO_DPLL_MULT_MASK |
 234:Generated_Source\PSoC4/CyLib.c ****                                                   CY_SYS_CLK_WCO_CONFIG_DPLL_LF_IGAIN_MASK |
 235:Generated_Source\PSoC4/CyLib.c ****                                                   CY_SYS_CLK_WCO_CONFIG_DPLL_LF_PGAIN_MASK |
 236:Generated_Source\PSoC4/CyLib.c ****                                                   CY_SYS_CLK_WCO_CONFIG_DPLL_LF_LIMIT_MASK);
 237:Generated_Source\PSoC4/CyLib.c **** 
 238:Generated_Source\PSoC4/CyLib.c ****             /* Set multiplier to determine IMO frequency in multiples of the WCO frequency */
 239:Generated_Source\PSoC4/CyLib.c ****             regTmp |= (CY_SYS_CLK_WCO_DPLL_MULT_VALUE(freq) & CY_SYS_CLK_WCO_DPLL_MULT_MASK);
 240:Generated_Source\PSoC4/CyLib.c **** 
 241:Generated_Source\PSoC4/CyLib.c ****             /* Set DPLL Loop Filter Integral and Proportional Gains Setting */
 242:Generated_Source\PSoC4/CyLib.c ****             regTmp |= (CY_SYS_CLK_WCO_CONFIG_DPLL_LF_IGAIN | CY_SYS_CLK_WCO_CONFIG_DPLL_LF_PGAIN);
 243:Generated_Source\PSoC4/CyLib.c **** 
 244:Generated_Source\PSoC4/CyLib.c ****             CY_SYS_CLK_WCO_DPLL_REG = regTmp;
 245:Generated_Source\PSoC4/CyLib.c **** 
 246:Generated_Source\PSoC4/CyLib.c ****             flashCtlReg = CY_FLASH_CTL_REG;
 247:Generated_Source\PSoC4/CyLib.c ****             CySysFlashSetWaitCycles(CY_SYS_CLK_IMO_MAX_FREQ_MHZ);
 248:Generated_Source\PSoC4/CyLib.c ****             CY_SYS_CLK_WCO_CONFIG_REG |= CY_SYS_CLK_WCO_CONFIG_DPLL_ENABLE;
 249:Generated_Source\PSoC4/CyLib.c **** 
 250:Generated_Source\PSoC4/CyLib.c ****             regTmp  = CY_SYS_CLK_WCO_DPLL_REG & ~(CY_SYS_CLK_WCO_CONFIG_DPLL_LF_LIMIT_MASK);
 251:Generated_Source\PSoC4/CyLib.c **** 
 252:Generated_Source\PSoC4/CyLib.c ****             while (lfLimit < (CY_SYS_CLK_WCO_CONFIG_DPLL_LF_LIMIT_MAX - CY_SYS_CLK_WCO_CONFIG_DPLL_
 253:Generated_Source\PSoC4/CyLib.c ****             {
 254:Generated_Source\PSoC4/CyLib.c ****                 CyDelay(CY_SYS_CLK_WCO_DPLL_TIMEOUT_MS);
 255:Generated_Source\PSoC4/CyLib.c ****                 lfLimit += CY_SYS_CLK_WCO_CONFIG_DPLL_LF_LIMIT_STEP;
 256:Generated_Source\PSoC4/CyLib.c ****                 CY_SYS_CLK_WCO_DPLL_REG = (regTmp | (lfLimit << CY_SYS_CLK_WCO_CONFIG_DPLL_LF_LIMIT
 257:Generated_Source\PSoC4/CyLib.c ****             }
 258:Generated_Source\PSoC4/CyLib.c **** 
 259:Generated_Source\PSoC4/CyLib.c ****             CyDelay(CY_SYS_CLK_WCO_DPLL_TIMEOUT_MS);
 260:Generated_Source\PSoC4/CyLib.c ****             CY_SYS_CLK_WCO_DPLL_REG = (regTmp | (CY_SYS_CLK_WCO_CONFIG_DPLL_LF_LIMIT_MAX <<
 261:Generated_Source\PSoC4/CyLib.c ****                                                  CY_SYS_CLK_WCO_CONFIG_DPLL_LF_LIMIT_SHIFT));
 262:Generated_Source\PSoC4/CyLib.c **** 
 263:Generated_Source\PSoC4/CyLib.c ****             CY_FLASH_CTL_REG = flashCtlReg;
 264:Generated_Source\PSoC4/CyLib.c **** 
 265:Generated_Source\PSoC4/CyLib.c ****             CyExitCriticalSection(interruptState);
 266:Generated_Source\PSoC4/CyLib.c ****         }
 267:Generated_Source\PSoC4/CyLib.c ****     }
 268:Generated_Source\PSoC4/CyLib.c **** 
 269:Generated_Source\PSoC4/CyLib.c **** 
 270:Generated_Source\PSoC4/CyLib.c ****     /*******************************************************************************
 271:Generated_Source\PSoC4/CyLib.c ****     * Function Name: CySysClkImoDisableWcoLock
 272:Generated_Source\PSoC4/CyLib.c ****     ****************************************************************************//**
 273:Generated_Source\PSoC4/CyLib.c ****     *
 274:Generated_Source\PSoC4/CyLib.c ****     * Disables the IMO to WCO lock feature.
 275:Generated_Source\PSoC4/CyLib.c ****     *
 276:Generated_Source\PSoC4/CyLib.c ****     * For PSoC 4200L devices, note that the IMO can lock to either WCO or USB
 277:Generated_Source\PSoC4/CyLib.c ****     * but not both.
 278:Generated_Source\PSoC4/CyLib.c ****     *
 279:Generated_Source\PSoC4/CyLib.c ****     * This function is applicable for PSoC 4100M / PSoC 4200M / PSoC 4000S /
 280:Generated_Source\PSoC4/CyLib.c ****     * PSoC 4100S / PSoC 4500 / PSoC Analog Coprocessor / PSoC 4200L.
 281:Generated_Source\PSoC4/CyLib.c ****     *
 282:Generated_Source\PSoC4/CyLib.c ****     *******************************************************************************/
ARM GAS  C:\Users\RYANCA~1\AppData\Local\Temp\ccZAR4Lf.s 			page 7


 283:Generated_Source\PSoC4/CyLib.c ****     void CySysClkImoDisableWcoLock(void)
 284:Generated_Source\PSoC4/CyLib.c ****     {
  60              		.loc 1 284 0
  61              		.cfi_startproc
  62              		@ args = 0, pretend = 0, frame = 0
  63              		@ frame_needed = 0, uses_anonymous_args = 0
  64              	.LVL0:
 285:Generated_Source\PSoC4/CyLib.c ****         #if(CY_IP_SRSSV2)
 286:Generated_Source\PSoC4/CyLib.c ****             uint32 i;
 287:Generated_Source\PSoC4/CyLib.c ****         #endif  /* (CY_IP_SRSSV2) */
 288:Generated_Source\PSoC4/CyLib.c **** 
 289:Generated_Source\PSoC4/CyLib.c ****         uint32 freq;
 290:Generated_Source\PSoC4/CyLib.c **** 
 291:Generated_Source\PSoC4/CyLib.c ****         /* Get current IMO frequency based on the register value */
 292:Generated_Source\PSoC4/CyLib.c ****         #if(CY_IP_SRSSV2)
 293:Generated_Source\PSoC4/CyLib.c ****             freq = CY_SYS_CLK_IMO_MIN_FREQ_MHZ;
 294:Generated_Source\PSoC4/CyLib.c ****             for(i = 0u; i < CY_SYS_CLK_IMO_FREQ_TABLE_SIZE; i++)
  65              		.loc 1 294 0
  66 0000 0023     		movs	r3, #0
 295:Generated_Source\PSoC4/CyLib.c ****             {
 296:Generated_Source\PSoC4/CyLib.c ****                 if ((uint8) (CY_SYS_CLK_IMO_TRIM2_REG & CY_SYS_CLK_IMO_FREQ_BITS_MASK) == cyImoFreq
  67              		.loc 1 296 0
  68 0002 3F20     		movs	r0, #63
 284:Generated_Source\PSoC4/CyLib.c ****         #if(CY_IP_SRSSV2)
  69              		.loc 1 284 0
  70 0004 30B5     		push	{r4, r5, lr}
  71              		.cfi_def_cfa_offset 12
  72              		.cfi_offset 4, -12
  73              		.cfi_offset 5, -8
  74              		.cfi_offset 14, -4
  75              		.loc 1 296 0
  76 0006 0C49     		ldr	r1, .L10
  77 0008 0C4C     		ldr	r4, .L10+4
  78              	.LVL1:
  79              	.L7:
  80 000a 0A68     		ldr	r2, [r1]
  81 000c 1D5D     		ldrb	r5, [r3, r4]
  82 000e 0240     		ands	r2, r0
  83 0010 AA42     		cmp	r2, r5
  84 0012 01D1     		bne	.L5
 297:Generated_Source\PSoC4/CyLib.c ****                 {
 298:Generated_Source\PSoC4/CyLib.c ****                     freq = i + CY_SYS_CLK_IMO_FREQ_TABLE_OFFSET;
  85              		.loc 1 298 0
  86 0014 0333     		adds	r3, r3, #3
  87              	.LVL2:
 299:Generated_Source\PSoC4/CyLib.c ****                     break;
  88              		.loc 1 299 0
  89 0016 03E0     		b	.L6
  90              	.LVL3:
  91              	.L5:
 294:Generated_Source\PSoC4/CyLib.c ****             {
  92              		.loc 1 294 0 discriminator 2
  93 0018 0133     		adds	r3, r3, #1
  94              	.LVL4:
  95 001a 2E2B     		cmp	r3, #46
  96 001c F5D1     		bne	.L7
 293:Generated_Source\PSoC4/CyLib.c ****             for(i = 0u; i < CY_SYS_CLK_IMO_FREQ_TABLE_SIZE; i++)
ARM GAS  C:\Users\RYANCA~1\AppData\Local\Temp\ccZAR4Lf.s 			page 8


  97              		.loc 1 293 0
  98 001e 2B3B     		subs	r3, r3, #43
  99              	.LVL5:
 100              	.L6:
 300:Generated_Source\PSoC4/CyLib.c ****                 }
 301:Generated_Source\PSoC4/CyLib.c ****             }
 302:Generated_Source\PSoC4/CyLib.c ****         #else
 303:Generated_Source\PSoC4/CyLib.c ****             /* Calculate frequency by shifting register field value and adding constant. */
 304:Generated_Source\PSoC4/CyLib.c ****             #if(CY_IP_SRSSLT)
 305:Generated_Source\PSoC4/CyLib.c ****                 freq = (((uint32) ((CY_SYS_CLK_IMO_SELECT_REG & ((uint32) CY_SYS_CLK_IMO_SELECT_FRE
 306:Generated_Source\PSoC4/CyLib.c ****                                     CY_SYS_CLK_IMO_SELECT_FREQ_SHIFT) + CY_SYS_CLK_IMO_MIN_FREQ_MHZ
 307:Generated_Source\PSoC4/CyLib.c ****                                   ((CY_SYS_CLK_SELECT_REG >> CY_SYS_CLK_SELECT_HFCLK_DIV_SHIFT) &
 308:Generated_Source\PSoC4/CyLib.c ****                                    (uint32) CY_SYS_CLK_SELECT_HFCLK_DIV_MASK));
 309:Generated_Source\PSoC4/CyLib.c ****             #else
 310:Generated_Source\PSoC4/CyLib.c ****                 freq = ((uint32) ((CY_SYS_CLK_IMO_SELECT_REG & ((uint32) CY_SYS_CLK_IMO_SELECT_FREQ
 311:Generated_Source\PSoC4/CyLib.c ****                                    CY_SYS_CLK_IMO_SELECT_FREQ_SHIFT) + CY_SYS_CLK_IMO_MIN_FREQ_MHZ)
 312:Generated_Source\PSoC4/CyLib.c ****             #endif  /* (CY_IP_SRSSLT) */
 313:Generated_Source\PSoC4/CyLib.c **** 
 314:Generated_Source\PSoC4/CyLib.c ****         #endif  /* (CY_IP_SRSSV2) */
 315:Generated_Source\PSoC4/CyLib.c **** 
 316:Generated_Source\PSoC4/CyLib.c ****         CY_SYS_CLK_WCO_CONFIG_REG &= (uint32) ~CY_SYS_CLK_WCO_CONFIG_DPLL_ENABLE;
 101              		.loc 1 316 0
 102 0020 0749     		ldr	r1, .L10+8
 103 0022 084A     		ldr	r2, .L10+12
 104 0024 0868     		ldr	r0, [r1]
 317:Generated_Source\PSoC4/CyLib.c **** 
 318:Generated_Source\PSoC4/CyLib.c ****         #if(CY_IP_SRSSLT)
 319:Generated_Source\PSoC4/CyLib.c ****             CY_SYS_CLK_IMO_TRIM1_REG = CY_SFLASH_IMO_TRIM_REG(freq - CY_SYS_CLK_IMO_MIN_FREQ_MHZ);
 320:Generated_Source\PSoC4/CyLib.c ****         #else
 321:Generated_Source\PSoC4/CyLib.c ****             CY_SYS_CLK_IMO_TRIM1_REG = CY_SFLASH_IMO_TRIM_REG(freq - CY_SYS_CLK_IMO_FREQ_TABLE_OFFS
 322:Generated_Source\PSoC4/CyLib.c ****         #endif
 323:Generated_Source\PSoC4/CyLib.c ****     }
 105              		.loc 1 323 0
 106              		@ sp needed
 316:Generated_Source\PSoC4/CyLib.c **** 
 107              		.loc 1 316 0
 108 0026 0240     		ands	r2, r0
 109 0028 0A60     		str	r2, [r1]
 321:Generated_Source\PSoC4/CyLib.c ****         #endif
 110              		.loc 1 321 0
 111 002a 074A     		ldr	r2, .L10+16
 112 002c 9B18     		adds	r3, r3, r2
 113              	.LVL6:
 114 002e 1B78     		ldrb	r3, [r3]
 115              	.LVL7:
 116 0030 064A     		ldr	r2, .L10+20
 117 0032 DBB2     		uxtb	r3, r3
 118 0034 1360     		str	r3, [r2]
 119              		.loc 1 323 0
 120 0036 30BD     		pop	{r4, r5, pc}
 121              	.L11:
 122              		.align	2
 123              	.L10:
 124 0038 2CFF0B40 		.word	1074528044
 125 003c 00000000 		.word	.LANCHOR0
 126 0040 00002240 		.word	1075970048
 127 0044 FFFFFFBF 		.word	-1073741825
ARM GAS  C:\Users\RYANCA~1\AppData\Local\Temp\ccZAR4Lf.s 			page 9


 128 0048 CDF1FF0F 		.word	268431821
 129 004c 28FF0B40 		.word	1074528040
 130              		.cfi_endproc
 131              	.LFE4:
 132              		.size	CySysClkImoDisableWcoLock, .-CySysClkImoDisableWcoLock
 133              		.section	.text.CySysClkImoStop,"ax",%progbits
 134              		.align	1
 135              		.global	CySysClkImoStop
 136              		.code	16
 137              		.thumb_func
 138              		.type	CySysClkImoStop, %function
 139              	CySysClkImoStop:
 140              	.LFB2:
 139:Generated_Source\PSoC4/CyLib.c ****     #if (CY_IP_IMO_TRIMMABLE_BY_WCO)
 141              		.loc 1 139 0
 142              		.cfi_startproc
 143              		@ args = 0, pretend = 0, frame = 0
 144              		@ frame_needed = 0, uses_anonymous_args = 0
 145 0000 10B5     		push	{r4, lr}
 146              		.cfi_def_cfa_offset 8
 147              		.cfi_offset 4, -8
 148              		.cfi_offset 14, -4
 141:Generated_Source\PSoC4/CyLib.c ****     #endif  /* (CY_IP_IMO_TRIMMABLE_BY_WCO) */
 149              		.loc 1 141 0
 150 0002 FFF7FEFF 		bl	CySysClkImoDisableWcoLock
 151              	.LVL8:
 148:Generated_Source\PSoC4/CyLib.c **** }
 152              		.loc 1 148 0
 153 0006 034A     		ldr	r2, .L13
 149:Generated_Source\PSoC4/CyLib.c **** 
 154              		.loc 1 149 0
 155              		@ sp needed
 148:Generated_Source\PSoC4/CyLib.c **** }
 156              		.loc 1 148 0
 157 0008 1368     		ldr	r3, [r2]
 158 000a 5B00     		lsls	r3, r3, #1
 159 000c 5B08     		lsrs	r3, r3, #1
 160 000e 1360     		str	r3, [r2]
 149:Generated_Source\PSoC4/CyLib.c **** 
 161              		.loc 1 149 0
 162 0010 10BD     		pop	{r4, pc}
 163              	.L14:
 164 0012 C046     		.align	2
 165              	.L13:
 166 0014 08010B40 		.word	1074462984
 167              		.cfi_endproc
 168              	.LFE2:
 169              		.size	CySysClkImoStop, .-CySysClkImoStop
 170              		.section	.text.CySysClkImoGetWcoLock,"ax",%progbits
 171              		.align	1
 172              		.global	CySysClkImoGetWcoLock
 173              		.code	16
 174              		.thumb_func
 175              		.type	CySysClkImoGetWcoLock, %function
 176              	CySysClkImoGetWcoLock:
 177              	.LFB5:
 324:Generated_Source\PSoC4/CyLib.c **** 
ARM GAS  C:\Users\RYANCA~1\AppData\Local\Temp\ccZAR4Lf.s 			page 10


 325:Generated_Source\PSoC4/CyLib.c **** 
 326:Generated_Source\PSoC4/CyLib.c ****     /*******************************************************************************
 327:Generated_Source\PSoC4/CyLib.c ****     * Function Name: CySysClkImoGetWcoLock
 328:Generated_Source\PSoC4/CyLib.c ****     ****************************************************************************//**
 329:Generated_Source\PSoC4/CyLib.c ****     *
 330:Generated_Source\PSoC4/CyLib.c ****     * Reports the IMO to WCO lock enable state.
 331:Generated_Source\PSoC4/CyLib.c ****     *
 332:Generated_Source\PSoC4/CyLib.c ****     * This function is applicable for PSoC 4100M / PSoC 4200M / PSoC 4000S /
 333:Generated_Source\PSoC4/CyLib.c ****     * PSoC 4100S / PSoC 4500 / PSoC Analog Coprocessor / PSoC 4200L.
 334:Generated_Source\PSoC4/CyLib.c ****     *
 335:Generated_Source\PSoC4/CyLib.c ****     * \return 1 if IMO to WCO lock is enabled.
 336:Generated_Source\PSoC4/CyLib.c ****     * \return 0 if IMO to WCO lock is disabled.
 337:Generated_Source\PSoC4/CyLib.c ****     *
 338:Generated_Source\PSoC4/CyLib.c ****     *******************************************************************************/
 339:Generated_Source\PSoC4/CyLib.c ****     uint32 CySysClkImoGetWcoLock(void)
 340:Generated_Source\PSoC4/CyLib.c ****     {
 178              		.loc 1 340 0
 179              		.cfi_startproc
 180              		@ args = 0, pretend = 0, frame = 0
 181              		@ frame_needed = 0, uses_anonymous_args = 0
 182              		@ link register save eliminated.
 341:Generated_Source\PSoC4/CyLib.c ****         return ((0u != (CY_SYS_CLK_WCO_CONFIG_REG & CY_SYS_CLK_WCO_CONFIG_DPLL_ENABLE)) ?
 183              		.loc 1 341 0
 184 0000 024B     		ldr	r3, .L16
 342:Generated_Source\PSoC4/CyLib.c ****                 (uint32) 1u :
 343:Generated_Source\PSoC4/CyLib.c ****                 (uint32) 0u);
 344:Generated_Source\PSoC4/CyLib.c ****     }
 185              		.loc 1 344 0
 186              		@ sp needed
 341:Generated_Source\PSoC4/CyLib.c ****         return ((0u != (CY_SYS_CLK_WCO_CONFIG_REG & CY_SYS_CLK_WCO_CONFIG_DPLL_ENABLE)) ?
 187              		.loc 1 341 0
 188 0002 1868     		ldr	r0, [r3]
 189 0004 4000     		lsls	r0, r0, #1
 190 0006 C00F     		lsrs	r0, r0, #31
 191              		.loc 1 344 0
 192 0008 7047     		bx	lr
 193              	.L17:
 194 000a C046     		.align	2
 195              	.L16:
 196 000c 00002240 		.word	1075970048
 197              		.cfi_endproc
 198              	.LFE5:
 199              		.size	CySysClkImoGetWcoLock, .-CySysClkImoGetWcoLock
 200              		.section	.text.CySysClkWriteHfclkDirect,"ax",%progbits
 201              		.align	1
 202              		.global	CySysClkWriteHfclkDirect
 203              		.code	16
 204              		.thumb_func
 205              		.type	CySysClkWriteHfclkDirect, %function
 206              	CySysClkWriteHfclkDirect:
 207              	.LFB6:
 345:Generated_Source\PSoC4/CyLib.c **** 
 346:Generated_Source\PSoC4/CyLib.c **** #endif /* (CY_IP_IMO_TRIMMABLE_BY_WCO) */
 347:Generated_Source\PSoC4/CyLib.c **** 
 348:Generated_Source\PSoC4/CyLib.c **** 
 349:Generated_Source\PSoC4/CyLib.c **** #if (CY_IP_IMO_TRIMMABLE_BY_USB)
 350:Generated_Source\PSoC4/CyLib.c **** 
ARM GAS  C:\Users\RYANCA~1\AppData\Local\Temp\ccZAR4Lf.s 			page 11


 351:Generated_Source\PSoC4/CyLib.c ****     /*******************************************************************************
 352:Generated_Source\PSoC4/CyLib.c ****     * Function Name: CySysClkImoEnableUsbLock
 353:Generated_Source\PSoC4/CyLib.c ****     ****************************************************************************//**
 354:Generated_Source\PSoC4/CyLib.c ****     *
 355:Generated_Source\PSoC4/CyLib.c ****     * Enables the IMO to USB lock feature.
 356:Generated_Source\PSoC4/CyLib.c ****     *
 357:Generated_Source\PSoC4/CyLib.c ****     * This function must be called before CySysClkWriteImoFreq().
 358:Generated_Source\PSoC4/CyLib.c ****     *
 359:Generated_Source\PSoC4/CyLib.c ****     * This function is called from CySysClkImoStart() function if USB lock
 360:Generated_Source\PSoC4/CyLib.c ****     * selected in the Design Wide Resources tab.
 361:Generated_Source\PSoC4/CyLib.c ****     *
 362:Generated_Source\PSoC4/CyLib.c ****     * This is applicable for PSoC 4200L family of devices only. For PSoC 4200L
 363:Generated_Source\PSoC4/CyLib.c ****     * devices, the IMO can lock to either WCO or USB, but not both.
 364:Generated_Source\PSoC4/CyLib.c ****     *
 365:Generated_Source\PSoC4/CyLib.c ****     *******************************************************************************/
 366:Generated_Source\PSoC4/CyLib.c ****     void CySysClkImoEnableUsbLock(void)
 367:Generated_Source\PSoC4/CyLib.c ****     {
 368:Generated_Source\PSoC4/CyLib.c ****         /* Set oscillator interface control port to USB */
 369:Generated_Source\PSoC4/CyLib.c ****         #if (CY_IP_IMO_TRIMMABLE_BY_WCO && CY_IP_IMO_TRIMMABLE_BY_USB)
 370:Generated_Source\PSoC4/CyLib.c ****             CY_SYS_CLK_OSCINTF_CTL_REG = (CY_SYS_CLK_OSCINTF_CTL_REG & (uint32) ~CY_SYS_CLK_OSCINTF
 371:Generated_Source\PSoC4/CyLib.c ****                                           CY_SYS_CLK_OSCINTF_CTL_PORT_SEL_USB;
 372:Generated_Source\PSoC4/CyLib.c ****         #endif /* (CY_IP_IMO_TRIMMABLE_BY_WCO && CY_IP_IMO_TRIMMABLE_BY_USB) */
 373:Generated_Source\PSoC4/CyLib.c **** 
 374:Generated_Source\PSoC4/CyLib.c ****         #if(CY_IP_SRSSV2)
 375:Generated_Source\PSoC4/CyLib.c **** 
 376:Generated_Source\PSoC4/CyLib.c ****             /* Save trims to restore in CySysClkImoDisableUsbLock() */
 377:Generated_Source\PSoC4/CyLib.c ****             CySysClkImoTrim4 = CY_SYS_CLK_IMO_TRIM4_REG;
 378:Generated_Source\PSoC4/CyLib.c ****             CySysClkImoTrim5 = CY_PWR_BG_TRIM5_REG;
 379:Generated_Source\PSoC4/CyLib.c **** 
 380:Generated_Source\PSoC4/CyLib.c ****             CySysClkImoSetImoTrims();
 381:Generated_Source\PSoC4/CyLib.c ****             CySysClkImoSetPwrBgTrim5();
 382:Generated_Source\PSoC4/CyLib.c **** 
 383:Generated_Source\PSoC4/CyLib.c ****         #endif  /* (CY_IP_SRSSV2) */
 384:Generated_Source\PSoC4/CyLib.c **** 
 385:Generated_Source\PSoC4/CyLib.c ****         CY_SYS_CLK_USBDEVv2_CR1_REG |= CY_SYS_CLK_USBDEVv2_CR1_ENABLE_LOCK;
 386:Generated_Source\PSoC4/CyLib.c ****     }
 387:Generated_Source\PSoC4/CyLib.c **** 
 388:Generated_Source\PSoC4/CyLib.c **** 
 389:Generated_Source\PSoC4/CyLib.c ****     /*******************************************************************************
 390:Generated_Source\PSoC4/CyLib.c ****     * Function Name: CySysClkImoDisableUsbLock
 391:Generated_Source\PSoC4/CyLib.c ****     ****************************************************************************//**
 392:Generated_Source\PSoC4/CyLib.c ****     *
 393:Generated_Source\PSoC4/CyLib.c ****     * Disables the IMO to USB lock feature.
 394:Generated_Source\PSoC4/CyLib.c ****     *
 395:Generated_Source\PSoC4/CyLib.c ****     * This function is called from CySysClkImoStop() function if USB lock selected
 396:Generated_Source\PSoC4/CyLib.c ****     * in the Design Wide Resources tab.
 397:Generated_Source\PSoC4/CyLib.c ****     *
 398:Generated_Source\PSoC4/CyLib.c ****     * This is applicable for PSoC 4200L family of devices only. For PSoC 4200L
 399:Generated_Source\PSoC4/CyLib.c ****     * devices, the IMO can lock to either WCO or USB, but not both.
 400:Generated_Source\PSoC4/CyLib.c ****     *
 401:Generated_Source\PSoC4/CyLib.c ****     *******************************************************************************/
 402:Generated_Source\PSoC4/CyLib.c ****     void CySysClkImoDisableUsbLock(void)
 403:Generated_Source\PSoC4/CyLib.c ****     {
 404:Generated_Source\PSoC4/CyLib.c ****         #if(CY_IP_SRSSV2)
 405:Generated_Source\PSoC4/CyLib.c ****             uint32 i;
 406:Generated_Source\PSoC4/CyLib.c **** 
 407:Generated_Source\PSoC4/CyLib.c ****             /* Get current IMO frequency based on the register value */
ARM GAS  C:\Users\RYANCA~1\AppData\Local\Temp\ccZAR4Lf.s 			page 12


 408:Generated_Source\PSoC4/CyLib.c ****             uint32 freq = CY_SYS_CLK_IMO_MIN_FREQ_MHZ;
 409:Generated_Source\PSoC4/CyLib.c **** 
 410:Generated_Source\PSoC4/CyLib.c ****             for(i = 0u; i < CY_SYS_CLK_IMO_FREQ_TABLE_SIZE; i++)
 411:Generated_Source\PSoC4/CyLib.c ****             {
 412:Generated_Source\PSoC4/CyLib.c ****                 if ((uint8) (CY_SYS_CLK_IMO_TRIM2_REG & CY_SYS_CLK_IMO_FREQ_BITS_MASK) == cyImoFreq
 413:Generated_Source\PSoC4/CyLib.c ****                 {
 414:Generated_Source\PSoC4/CyLib.c ****                     freq = i + CY_SYS_CLK_IMO_FREQ_TABLE_OFFSET;
 415:Generated_Source\PSoC4/CyLib.c ****                     break;
 416:Generated_Source\PSoC4/CyLib.c ****                 }
 417:Generated_Source\PSoC4/CyLib.c ****             }
 418:Generated_Source\PSoC4/CyLib.c ****         #endif  /* (CY_IP_SRSSV2) */
 419:Generated_Source\PSoC4/CyLib.c **** 
 420:Generated_Source\PSoC4/CyLib.c ****         CY_SYS_CLK_USBDEVv2_CR1_REG &= (uint32) ~CY_SYS_CLK_USBDEVv2_CR1_ENABLE_LOCK;
 421:Generated_Source\PSoC4/CyLib.c **** 
 422:Generated_Source\PSoC4/CyLib.c ****         #if(CY_IP_SRSSV2)
 423:Generated_Source\PSoC4/CyLib.c ****             /* Restore IMO trim registers saved by CySysClkImoEnableUsbLock() */
 424:Generated_Source\PSoC4/CyLib.c ****             CY_SYS_CLK_IMO_TRIM4_REG = ((CY_SYS_CLK_IMO_TRIM4_REG & (uint32) ~CY_SYS_CLK_IMO_TRIM4_
 425:Generated_Source\PSoC4/CyLib.c ****                                         (CySysClkImoTrim4 & CY_SYS_CLK_IMO_TRIM4_GAIN_MASK));
 426:Generated_Source\PSoC4/CyLib.c ****             CY_PWR_BG_TRIM5_REG = CySysClkImoTrim5;
 427:Generated_Source\PSoC4/CyLib.c **** 
 428:Generated_Source\PSoC4/CyLib.c ****             CY_SYS_CLK_IMO_TRIM1_REG = CY_SFLASH_IMO_TRIM_REG(freq - CY_SYS_CLK_IMO_FREQ_TABLE_OFFS
 429:Generated_Source\PSoC4/CyLib.c **** 
 430:Generated_Source\PSoC4/CyLib.c ****         #endif  /* (CY_IP_SRSSV2) */
 431:Generated_Source\PSoC4/CyLib.c ****     }
 432:Generated_Source\PSoC4/CyLib.c **** 
 433:Generated_Source\PSoC4/CyLib.c **** 
 434:Generated_Source\PSoC4/CyLib.c ****     /*******************************************************************************
 435:Generated_Source\PSoC4/CyLib.c ****     * Function Name: CySysClkImoGetUsbLock
 436:Generated_Source\PSoC4/CyLib.c ****     ****************************************************************************//**
 437:Generated_Source\PSoC4/CyLib.c ****     *
 438:Generated_Source\PSoC4/CyLib.c ****     * Reports the IMO to USB lock enable state.
 439:Generated_Source\PSoC4/CyLib.c ****     *
 440:Generated_Source\PSoC4/CyLib.c ****     * This is applicable for PSoC 4200L family of devices only. For PSoC 4200L
 441:Generated_Source\PSoC4/CyLib.c ****     * devices, the IMO can lock to either WCO or USB, but not both.
 442:Generated_Source\PSoC4/CyLib.c ****     *
 443:Generated_Source\PSoC4/CyLib.c ****     * \return 1 if IMO to USB lock is enabled.
 444:Generated_Source\PSoC4/CyLib.c ****     * \return 0 if IMO to USB lock is disabled.
 445:Generated_Source\PSoC4/CyLib.c ****     *
 446:Generated_Source\PSoC4/CyLib.c ****     *******************************************************************************/
 447:Generated_Source\PSoC4/CyLib.c ****     uint32 CySysClkImoGetUsbLock(void)
 448:Generated_Source\PSoC4/CyLib.c ****     {
 449:Generated_Source\PSoC4/CyLib.c ****         return ((0u != (CY_SYS_CLK_USBDEVv2_CR1_REG & CY_SYS_CLK_USBDEVv2_CR1_ENABLE_LOCK)) ?
 450:Generated_Source\PSoC4/CyLib.c ****                 (uint32) 1u :
 451:Generated_Source\PSoC4/CyLib.c ****                 (uint32) 0u);
 452:Generated_Source\PSoC4/CyLib.c ****     }
 453:Generated_Source\PSoC4/CyLib.c **** 
 454:Generated_Source\PSoC4/CyLib.c **** #if (CY_IP_SRSSV2)
 455:Generated_Source\PSoC4/CyLib.c **** 
 456:Generated_Source\PSoC4/CyLib.c ****     /*******************************************************************************
 457:Generated_Source\PSoC4/CyLib.c ****     * Function Name: CySysClkImoSetPwrBgTrim5
 458:Generated_Source\PSoC4/CyLib.c ****     ****************************************************************************//**
 459:Generated_Source\PSoC4/CyLib.c ****     *
 460:Generated_Source\PSoC4/CyLib.c ****     * Updates Bandgap trim register based on the test program revision.
 461:Generated_Source\PSoC4/CyLib.c ****     *
 462:Generated_Source\PSoC4/CyLib.c ****     *******************************************************************************/
 463:Generated_Source\PSoC4/CyLib.c ****     static void CySysClkImoSetPwrBgTrim5(void)
 464:Generated_Source\PSoC4/CyLib.c ****     {
ARM GAS  C:\Users\RYANCA~1\AppData\Local\Temp\ccZAR4Lf.s 			page 13


 465:Generated_Source\PSoC4/CyLib.c ****         /* Get sort test revision number */
 466:Generated_Source\PSoC4/CyLib.c ****         uint32  testRev = ((CY_SFLASH_CRI_TESTPGM_REV_REG >> CYSFLASH_CRI_testpgm_rev__OFFSET) &
 467:Generated_Source\PSoC4/CyLib.c ****                             CYSFLASH_CRI_testpgm_rev_MASK);
 468:Generated_Source\PSoC4/CyLib.c **** 
 469:Generated_Source\PSoC4/CyLib.c ****         if(testRev <= CY_CRI_TESTPGM_9_REV)
 470:Generated_Source\PSoC4/CyLib.c ****         {
 471:Generated_Source\PSoC4/CyLib.c ****             CY_PWR_BG_TRIM5_REG = CY_SFLASH_IMO_TMPCO0_REG;
 472:Generated_Source\PSoC4/CyLib.c ****         }
 473:Generated_Source\PSoC4/CyLib.c ****         else
 474:Generated_Source\PSoC4/CyLib.c ****         {
 475:Generated_Source\PSoC4/CyLib.c ****             CY_PWR_BG_TRIM5_REG = CY_SFLASH_USBMODE_IMO_TEMPCO_REG;
 476:Generated_Source\PSoC4/CyLib.c ****         }
 477:Generated_Source\PSoC4/CyLib.c ****     }
 478:Generated_Source\PSoC4/CyLib.c **** 
 479:Generated_Source\PSoC4/CyLib.c ****     /*******************************************************************************
 480:Generated_Source\PSoC4/CyLib.c ****     * Function Name: CySysClkImoSetImoTrims
 481:Generated_Source\PSoC4/CyLib.c ****     ****************************************************************************//**
 482:Generated_Source\PSoC4/CyLib.c ****     *
 483:Generated_Source\PSoC4/CyLib.c ****     * Updates IMO trim registers based on the IMO frequency and test program
 484:Generated_Source\PSoC4/CyLib.c ****     * revision.
 485:Generated_Source\PSoC4/CyLib.c ****     *
 486:Generated_Source\PSoC4/CyLib.c ****     *******************************************************************************/
 487:Generated_Source\PSoC4/CyLib.c ****     static void CySysClkImoSetImoTrims(void)
 488:Generated_Source\PSoC4/CyLib.c ****     {
 489:Generated_Source\PSoC4/CyLib.c ****         uint32 i;
 490:Generated_Source\PSoC4/CyLib.c **** 
 491:Generated_Source\PSoC4/CyLib.c ****         /* Get current IMO frequency based on the register value */
 492:Generated_Source\PSoC4/CyLib.c ****         uint32 freq = CY_SYS_CLK_IMO_MIN_FREQ_MHZ;
 493:Generated_Source\PSoC4/CyLib.c **** 
 494:Generated_Source\PSoC4/CyLib.c ****         for(i = 0u; i < CY_SYS_CLK_IMO_FREQ_TABLE_SIZE; i++)
 495:Generated_Source\PSoC4/CyLib.c ****         {
 496:Generated_Source\PSoC4/CyLib.c ****             if ((uint8) (CY_SYS_CLK_IMO_TRIM2_REG & CY_SYS_CLK_IMO_FREQ_BITS_MASK) == cyImoFreqMhz2
 497:Generated_Source\PSoC4/CyLib.c ****             {
 498:Generated_Source\PSoC4/CyLib.c ****                 freq = i + CY_SYS_CLK_IMO_FREQ_TABLE_OFFSET;
 499:Generated_Source\PSoC4/CyLib.c ****                 break;
 500:Generated_Source\PSoC4/CyLib.c ****             }
 501:Generated_Source\PSoC4/CyLib.c ****         }
 502:Generated_Source\PSoC4/CyLib.c **** 
 503:Generated_Source\PSoC4/CyLib.c ****         /* Get sort test revision number */
 504:Generated_Source\PSoC4/CyLib.c ****         uint32  testRev = ((CY_SFLASH_CRI_TESTPGM_REV_REG >> CYSFLASH_CRI_testpgm_rev__OFFSET) &
 505:Generated_Source\PSoC4/CyLib.c ****             CYSFLASH_CRI_testpgm_rev_MASK);
 506:Generated_Source\PSoC4/CyLib.c **** 
 507:Generated_Source\PSoC4/CyLib.c ****         if(testRev <= CY_CRI_TESTPGM_6_REV)
 508:Generated_Source\PSoC4/CyLib.c ****         {
 509:Generated_Source\PSoC4/CyLib.c ****             if (48u == freq)
 510:Generated_Source\PSoC4/CyLib.c ****             {
 511:Generated_Source\PSoC4/CyLib.c ****                 CY_SYS_CLK_IMO_TRIM1_REG = (uint32) CY_SFLASH_IMO_TRIM_USBMODE_48_REG;
 512:Generated_Source\PSoC4/CyLib.c ****             }
 513:Generated_Source\PSoC4/CyLib.c ****             else if (24u == freq)
 514:Generated_Source\PSoC4/CyLib.c ****             {
 515:Generated_Source\PSoC4/CyLib.c ****                 CY_SYS_CLK_IMO_TRIM1_REG = (uint32) CY_SFLASH_IMO_TRIM_USBMODE_24_REG;
 516:Generated_Source\PSoC4/CyLib.c ****             }
 517:Generated_Source\PSoC4/CyLib.c ****             else
 518:Generated_Source\PSoC4/CyLib.c ****             {
 519:Generated_Source\PSoC4/CyLib.c ****                 /* Do nothing */
 520:Generated_Source\PSoC4/CyLib.c ****             }
 521:Generated_Source\PSoC4/CyLib.c **** 
ARM GAS  C:\Users\RYANCA~1\AppData\Local\Temp\ccZAR4Lf.s 			page 14


 522:Generated_Source\PSoC4/CyLib.c ****             /* Set IMO Gain in IMO Trim Register 4 */
 523:Generated_Source\PSoC4/CyLib.c ****             CY_SYS_CLK_IMO_TRIM4_REG = (CY_SYS_CLK_IMO_TRIM4_REG & (uint32) ~CY_SYS_CLK_IMO_TRIM4_G
 524:Generated_Source\PSoC4/CyLib.c ****                                         CY_SYS_CLK_IMO_TRIM4_USB_GAIN;
 525:Generated_Source\PSoC4/CyLib.c ****         }
 526:Generated_Source\PSoC4/CyLib.c ****         else
 527:Generated_Source\PSoC4/CyLib.c ****         {
 528:Generated_Source\PSoC4/CyLib.c ****             if (48u == freq)
 529:Generated_Source\PSoC4/CyLib.c ****             {
 530:Generated_Source\PSoC4/CyLib.c ****                 CY_SYS_CLK_IMO_TRIM1_REG = (uint32) CY_SFLASH_CU_IMO_TRIM_USBMODE_48_REG;
 531:Generated_Source\PSoC4/CyLib.c ****             }
 532:Generated_Source\PSoC4/CyLib.c ****             else if (24u == freq)
 533:Generated_Source\PSoC4/CyLib.c ****             {
 534:Generated_Source\PSoC4/CyLib.c ****                 CY_SYS_CLK_IMO_TRIM1_REG = (uint32) CY_SFLASH_CU_IMO_TRIM_USBMODE_24_REG;
 535:Generated_Source\PSoC4/CyLib.c ****             }
 536:Generated_Source\PSoC4/CyLib.c ****             else
 537:Generated_Source\PSoC4/CyLib.c ****             {
 538:Generated_Source\PSoC4/CyLib.c ****                 /* Do nothing */
 539:Generated_Source\PSoC4/CyLib.c ****             }
 540:Generated_Source\PSoC4/CyLib.c **** 
 541:Generated_Source\PSoC4/CyLib.c ****             /* Set IMO Gain in IMO Trim Register 4 */
 542:Generated_Source\PSoC4/CyLib.c ****             CY_SYS_CLK_IMO_TRIM4_REG = (CY_SYS_CLK_IMO_TRIM4_REG & (uint32) ~CY_SYS_CLK_IMO_TRIM4_G
 543:Generated_Source\PSoC4/CyLib.c ****                                         CY_SFLASH_USBMODE_IMO_GAIN_TRIM_REG;
 544:Generated_Source\PSoC4/CyLib.c ****         }
 545:Generated_Source\PSoC4/CyLib.c ****     }
 546:Generated_Source\PSoC4/CyLib.c ****     #endif /* (CY_IP_SRSSV2) */
 547:Generated_Source\PSoC4/CyLib.c **** 
 548:Generated_Source\PSoC4/CyLib.c **** #endif  /* (CY_IP_IMO_TRIMMABLE_BY_USB) */
 549:Generated_Source\PSoC4/CyLib.c **** 
 550:Generated_Source\PSoC4/CyLib.c **** 
 551:Generated_Source\PSoC4/CyLib.c **** /*******************************************************************************
 552:Generated_Source\PSoC4/CyLib.c **** * Function Name: CySysClkWriteHfclkDirect
 553:Generated_Source\PSoC4/CyLib.c **** ****************************************************************************//**
 554:Generated_Source\PSoC4/CyLib.c **** *
 555:Generated_Source\PSoC4/CyLib.c **** * Selects the direct source for the HFCLK.
 556:Generated_Source\PSoC4/CyLib.c **** *
 557:Generated_Source\PSoC4/CyLib.c **** * The new source must be running and stable before calling this function.
 558:Generated_Source\PSoC4/CyLib.c **** *
 559:Generated_Source\PSoC4/CyLib.c **** * PSoC 4000:
 560:Generated_Source\PSoC4/CyLib.c **** * The SYSCLK has a maximum speed of 16 MHz, so HFCLK and SYSCLK dividers should
 561:Generated_Source\PSoC4/CyLib.c **** * be selected in a way to not to exceed 16 MHz for the System clock.
 562:Generated_Source\PSoC4/CyLib.c **** *
 563:Generated_Source\PSoC4/CyLib.c **** * If the SYSCLK clock frequency increases during device operation, call
 564:Generated_Source\PSoC4/CyLib.c **** * CySysFlashSetWaitCycles() with the appropriate parameter to adjust the number
 565:Generated_Source\PSoC4/CyLib.c **** * of clock cycles the cache will wait before sampling data comes back from
 566:Generated_Source\PSoC4/CyLib.c **** * Flash. If the SYSCLK clock frequency decreases, you can call
 567:Generated_Source\PSoC4/CyLib.c **** * CySysFlashSetWaitCycles() to improve the CPU performance. See
 568:Generated_Source\PSoC4/CyLib.c **** * CySysFlashSetWaitCycles() description for more information.
 569:Generated_Source\PSoC4/CyLib.c **** *
 570:Generated_Source\PSoC4/CyLib.c **** * Do not select PLL as the source for HFCLK if PLL output frequency exceeds
 571:Generated_Source\PSoC4/CyLib.c **** * maximum permissible value for HFCLK.
 572:Generated_Source\PSoC4/CyLib.c **** *
 573:Generated_Source\PSoC4/CyLib.c **** * \param clkSelect One of the available HFCLK direct sources.
 574:Generated_Source\PSoC4/CyLib.c **** * CY_SYS_CLK_HFCLK_IMO     IMO.
 575:Generated_Source\PSoC4/CyLib.c **** * CY_SYS_CLK_HFCLK_EXTCLK  External clock pin.
 576:Generated_Source\PSoC4/CyLib.c **** * CY_SYS_CLK_HFCLK_ECO     External crystal oscillator. Applicable for
 577:Generated_Source\PSoC4/CyLib.c **** *                          PSoC 4100 BLE / PSoC 4200 BLE / PSoC 4200L /
 578:Generated_Source\PSoC4/CyLib.c **** *                          4100S / 4500 with ECO.
ARM GAS  C:\Users\RYANCA~1\AppData\Local\Temp\ccZAR4Lf.s 			page 15


 579:Generated_Source\PSoC4/CyLib.c **** * CY_SYS_CLK_HFCLK_PLL0    PLL#0. Applicable for PSoC 4200L /
 580:Generated_Source\PSoC4/CyLib.c **** *                          4100S / 4500 with PLL.
 581:Generated_Source\PSoC4/CyLib.c **** * CY_SYS_CLK_HFCLK_PLL1    PLL#1. Applicable for PSoC 4200L.
 582:Generated_Source\PSoC4/CyLib.c **** *
 583:Generated_Source\PSoC4/CyLib.c **** *******************************************************************************/
 584:Generated_Source\PSoC4/CyLib.c **** void CySysClkWriteHfclkDirect(uint32 clkSelect)
 585:Generated_Source\PSoC4/CyLib.c **** {
 208              		.loc 1 585 0
 209              		.cfi_startproc
 210              		@ args = 0, pretend = 0, frame = 0
 211              		@ frame_needed = 0, uses_anonymous_args = 0
 212              	.LVL9:
 213 0000 10B5     		push	{r4, lr}
 214              		.cfi_def_cfa_offset 8
 215              		.cfi_offset 4, -8
 216              		.cfi_offset 14, -4
 217              		.loc 1 585 0
 218 0002 0400     		movs	r4, r0
 586:Generated_Source\PSoC4/CyLib.c ****     uint8  interruptState;
 587:Generated_Source\PSoC4/CyLib.c ****     uint32 tmpReg;
 588:Generated_Source\PSoC4/CyLib.c **** 
 589:Generated_Source\PSoC4/CyLib.c ****     #if (CY_IP_SRSSLT && CY_IP_PLL)
 590:Generated_Source\PSoC4/CyLib.c ****         uint8 i = 0u;
 591:Generated_Source\PSoC4/CyLib.c ****     #endif /* (CY_IP_SRSSLT && CY_IP_PLL) */
 592:Generated_Source\PSoC4/CyLib.c **** 
 593:Generated_Source\PSoC4/CyLib.c ****     interruptState = CyEnterCriticalSection();
 219              		.loc 1 593 0
 220 0004 FFF7FEFF 		bl	CyEnterCriticalSection
 221              	.LVL10:
 594:Generated_Source\PSoC4/CyLib.c **** 
 595:Generated_Source\PSoC4/CyLib.c **** #if (CY_IP_SRSSLT && CY_IP_PLL)
 596:Generated_Source\PSoC4/CyLib.c ****     if ((CY_SYS_CLK_HFCLK_PLL0 == clkSelect) || (CY_SYS_CLK_HFCLK_ECO == clkSelect))
 597:Generated_Source\PSoC4/CyLib.c ****     {
 598:Generated_Source\PSoC4/CyLib.c ****         tmpReg = CY_SYS_CLK_SELECT_REG & ~CY_SYS_CLK_SELECT_DIRECT_SEL_MASK;
 599:Generated_Source\PSoC4/CyLib.c ****         tmpReg |= CY_SYS_CLK_HFCLK_IMO;
 600:Generated_Source\PSoC4/CyLib.c ****         CY_SYS_CLK_SELECT_REG = tmpReg;
 601:Generated_Source\PSoC4/CyLib.c **** 
 602:Generated_Source\PSoC4/CyLib.c ****         /* SRSSLT block does not have registers to select PLL. It is part of EXCO */
 603:Generated_Source\PSoC4/CyLib.c ****         tmpReg = CY_SYS_ECO_CLK_SELECT_REG & ~CY_SYS_ECO_CLK_SELECT_ECO_PLL_MASK;
 604:Generated_Source\PSoC4/CyLib.c ****         tmpReg |= ((clkSelect & CY_SYS_CLK_SELECT_HFCLK_SEL_PLL_MASK) >> CY_SYS_CLK_SELECT_HFCLK_PL
 605:Generated_Source\PSoC4/CyLib.c ****         CY_SYS_ECO_CLK_SELECT_REG = tmpReg;
 606:Generated_Source\PSoC4/CyLib.c **** 
 607:Generated_Source\PSoC4/CyLib.c ****         /* Check if ECO is enabled and running */
 608:Generated_Source\PSoC4/CyLib.c ****         if ((0UL == (CY_SYS_CLK_ECO_CONFIG_REG & CY_SYS_CLK_ECO_CONFIG_ENABLE)) ||
 609:Generated_Source\PSoC4/CyLib.c ****             (0UL != (CY_SYS_CLK_ECO_STATUS_REG & CY_SYS_CLK_ECO_STATUS_WATCHDOG_ERROR)))
 610:Generated_Source\PSoC4/CyLib.c ****         {
 611:Generated_Source\PSoC4/CyLib.c ****             /* Generate clock sequence to change clock source in CY_SYS_ECO_CLK_SELECT_REG */
 612:Generated_Source\PSoC4/CyLib.c ****             CY_SYS_EXCO_PGM_CLK_REG |= CY_SYS_EXCO_PGM_CLK_ENABLE_MASK;
 613:Generated_Source\PSoC4/CyLib.c **** 
 614:Generated_Source\PSoC4/CyLib.c ****             for(i = 0u; i < CY_SYS_EXCO_PGM_CLK_SEQ_GENERATOR; i++)
 615:Generated_Source\PSoC4/CyLib.c ****             {
 616:Generated_Source\PSoC4/CyLib.c ****                 CY_SYS_EXCO_PGM_CLK_REG |= CY_SYS_EXCO_PGM_CLK_CLK_ECO_MASK;
 617:Generated_Source\PSoC4/CyLib.c ****                 CY_SYS_EXCO_PGM_CLK_REG &= ~CY_SYS_EXCO_PGM_CLK_CLK_ECO_MASK;
 618:Generated_Source\PSoC4/CyLib.c ****             }
 619:Generated_Source\PSoC4/CyLib.c **** 
 620:Generated_Source\PSoC4/CyLib.c ****             CY_SYS_EXCO_PGM_CLK_REG &= ~CY_SYS_EXCO_PGM_CLK_ENABLE_MASK;
 621:Generated_Source\PSoC4/CyLib.c ****         }
ARM GAS  C:\Users\RYANCA~1\AppData\Local\Temp\ccZAR4Lf.s 			page 16


 622:Generated_Source\PSoC4/CyLib.c ****     }
 623:Generated_Source\PSoC4/CyLib.c **** #endif /* (CY_IP_SRSSLT && CY_IP_PLL) */
 624:Generated_Source\PSoC4/CyLib.c **** 
 625:Generated_Source\PSoC4/CyLib.c ****     tmpReg = CY_SYS_CLK_SELECT_REG & ~(CY_SYS_CLK_SELECT_DIRECT_SEL_MASK |
 222              		.loc 1 625 0
 223 0008 0723     		movs	r3, #7
 224 000a 0449     		ldr	r1, .L19
 626:Generated_Source\PSoC4/CyLib.c ****                                        CY_SYS_CLK_SELECT_HFCLK_SEL_MASK);
 627:Generated_Source\PSoC4/CyLib.c **** 
 628:Generated_Source\PSoC4/CyLib.c **** #if (CY_IP_SRSSV2 && CY_IP_PLL)
 629:Generated_Source\PSoC4/CyLib.c ****     if ((CY_SYS_CLK_HFCLK_PLL0 == clkSelect) || (CY_SYS_CLK_HFCLK_PLL1 == clkSelect))
 630:Generated_Source\PSoC4/CyLib.c ****     {
 631:Generated_Source\PSoC4/CyLib.c ****         tmpReg |= (clkSelect & CY_SYS_CLK_SELECT_HFCLK_SEL_MASK);
 632:Generated_Source\PSoC4/CyLib.c ****     }
 633:Generated_Source\PSoC4/CyLib.c ****     else
 634:Generated_Source\PSoC4/CyLib.c **** #endif /* (CY_IP_SRSSV2 && CY_IP_PLL) */
 635:Generated_Source\PSoC4/CyLib.c ****     {
 636:Generated_Source\PSoC4/CyLib.c ****         tmpReg |= (clkSelect & CY_SYS_CLK_SELECT_DIRECT_SEL_MASK);
 637:Generated_Source\PSoC4/CyLib.c ****     }
 638:Generated_Source\PSoC4/CyLib.c **** 
 639:Generated_Source\PSoC4/CyLib.c ****     CY_SYS_CLK_SELECT_REG = tmpReg;
 640:Generated_Source\PSoC4/CyLib.c **** 
 641:Generated_Source\PSoC4/CyLib.c ****     CyExitCriticalSection(interruptState);
 642:Generated_Source\PSoC4/CyLib.c **** }
 225              		.loc 1 642 0
 226              		@ sp needed
 625:Generated_Source\PSoC4/CyLib.c ****                                        CY_SYS_CLK_SELECT_HFCLK_SEL_MASK);
 227              		.loc 1 625 0
 228 000c 0A68     		ldr	r2, [r1]
 229 000e 9A43     		bics	r2, r3
 230              	.LVL11:
 636:Generated_Source\PSoC4/CyLib.c ****     }
 231              		.loc 1 636 0
 232 0010 2340     		ands	r3, r4
 233 0012 1343     		orrs	r3, r2
 234              	.LVL12:
 639:Generated_Source\PSoC4/CyLib.c **** 
 235              		.loc 1 639 0
 236 0014 0B60     		str	r3, [r1]
 641:Generated_Source\PSoC4/CyLib.c **** }
 237              		.loc 1 641 0
 238 0016 FFF7FEFF 		bl	CyExitCriticalSection
 239              	.LVL13:
 240              	.LVL14:
 241              		.loc 1 642 0
 242 001a 10BD     		pop	{r4, pc}
 243              	.L20:
 244              		.align	2
 245              	.L19:
 246 001c 00010B40 		.word	1074462976
 247              		.cfi_endproc
 248              	.LFE6:
 249              		.size	CySysClkWriteHfclkDirect, .-CySysClkWriteHfclkDirect
 250              		.section	.text.CySysEnablePumpClock,"ax",%progbits
 251              		.align	1
 252              		.global	CySysEnablePumpClock
 253              		.code	16
ARM GAS  C:\Users\RYANCA~1\AppData\Local\Temp\ccZAR4Lf.s 			page 17


 254              		.thumb_func
 255              		.type	CySysEnablePumpClock, %function
 256              	CySysEnablePumpClock:
 257              	.LFB7:
 643:Generated_Source\PSoC4/CyLib.c **** 
 644:Generated_Source\PSoC4/CyLib.c **** 
 645:Generated_Source\PSoC4/CyLib.c **** /*******************************************************************************
 646:Generated_Source\PSoC4/CyLib.c **** * Function Name: CySysEnablePumpClock
 647:Generated_Source\PSoC4/CyLib.c **** ****************************************************************************//**
 648:Generated_Source\PSoC4/CyLib.c **** *
 649:Generated_Source\PSoC4/CyLib.c **** * Enables / disables the pump clock.
 650:Generated_Source\PSoC4/CyLib.c **** *
 651:Generated_Source\PSoC4/CyLib.c **** * \param enable
 652:Generated_Source\PSoC4/CyLib.c **** * CY_SYS_CLK_PUMP_DISABLE - Disables the pump clock
 653:Generated_Source\PSoC4/CyLib.c **** * CY_SYS_CLK_PUMP_ENABLE - Enables and restores the operating source of
 654:Generated_Source\PSoC4/CyLib.c **** * the pump clock.
 655:Generated_Source\PSoC4/CyLib.c **** *
 656:Generated_Source\PSoC4/CyLib.c **** * \sideeffect
 657:Generated_Source\PSoC4/CyLib.c **** *  Enabling/disabling the pump clock does not guarantee glitch free operation
 658:Generated_Source\PSoC4/CyLib.c **** *  when changing the IMO parameters or clock divider settings.
 659:Generated_Source\PSoC4/CyLib.c **** *
 660:Generated_Source\PSoC4/CyLib.c **** *******************************************************************************/
 661:Generated_Source\PSoC4/CyLib.c **** void CySysEnablePumpClock(uint32 enable)
 662:Generated_Source\PSoC4/CyLib.c **** {
 258              		.loc 1 662 0
 259              		.cfi_startproc
 260              		@ args = 0, pretend = 0, frame = 0
 261              		@ frame_needed = 0, uses_anonymous_args = 0
 262              	.LVL15:
 263 0000 10B5     		push	{r4, lr}
 264              		.cfi_def_cfa_offset 8
 265              		.cfi_offset 4, -8
 266              		.cfi_offset 14, -4
 267 0002 094B     		ldr	r3, .L25
 268 0004 094C     		ldr	r4, .L25+4
 663:Generated_Source\PSoC4/CyLib.c ****     #if(CY_IP_SRSSV2)
 664:Generated_Source\PSoC4/CyLib.c ****         if (0u != (CY_SYS_CLK_PUMP_ENABLE & enable))
 269              		.loc 1 664 0
 270 0006 C207     		lsls	r2, r0, #31
 271 0008 04D5     		bpl	.L22
 665:Generated_Source\PSoC4/CyLib.c ****         {
 666:Generated_Source\PSoC4/CyLib.c ****             CY_SYS_CLK_IMO_CONFIG_REG |= (CySysClkPumpConfig << CY_SYS_CLK_IMO_CONFIG_PUMP_SEL_SHIF
 272              		.loc 1 666 0
 273 000a 2268     		ldr	r2, [r4]
 274 000c 1968     		ldr	r1, [r3]
 275 000e 5206     		lsls	r2, r2, #25
 276 0010 0A43     		orrs	r2, r1
 277 0012 06E0     		b	.L24
 278              	.L22:
 667:Generated_Source\PSoC4/CyLib.c ****         }
 668:Generated_Source\PSoC4/CyLib.c ****         else
 669:Generated_Source\PSoC4/CyLib.c ****         {
 670:Generated_Source\PSoC4/CyLib.c ****             CySysClkPumpConfig = (CY_SYS_CLK_IMO_CONFIG_REG >> CY_SYS_CLK_IMO_CONFIG_PUMP_SEL_SHIFT
 279              		.loc 1 670 0
 280 0014 1A68     		ldr	r2, [r3]
 281 0016 1201     		lsls	r2, r2, #4
 282 0018 520F     		lsrs	r2, r2, #29
ARM GAS  C:\Users\RYANCA~1\AppData\Local\Temp\ccZAR4Lf.s 			page 18


 283 001a 2260     		str	r2, [r4]
 671:Generated_Source\PSoC4/CyLib.c ****                                   CY_SYS_CLK_IMO_CONFIG_PUMP_SEL_MASK;
 672:Generated_Source\PSoC4/CyLib.c ****             CY_SYS_CLK_IMO_CONFIG_REG &= ~(CY_SYS_CLK_IMO_CONFIG_PUMP_SEL_MASK << CY_SYS_CLK_IMO_CO
 284              		.loc 1 672 0
 285 001c 1968     		ldr	r1, [r3]
 286 001e 044A     		ldr	r2, .L25+8
 287 0020 0A40     		ands	r2, r1
 288              	.L24:
 289 0022 1A60     		str	r2, [r3]
 673:Generated_Source\PSoC4/CyLib.c ****         }
 674:Generated_Source\PSoC4/CyLib.c ****     #else /* CY_IP_SRSSLT */
 675:Generated_Source\PSoC4/CyLib.c ****         if (0u != (CY_SYS_CLK_PUMP_ENABLE & enable))
 676:Generated_Source\PSoC4/CyLib.c ****         {
 677:Generated_Source\PSoC4/CyLib.c ****             CY_SYS_CLK_SELECT_REG |= (CySysClkPumpConfig << CY_SYS_CLK_SELECT_PUMP_SEL_SHIFT);
 678:Generated_Source\PSoC4/CyLib.c ****         }
 679:Generated_Source\PSoC4/CyLib.c ****         else
 680:Generated_Source\PSoC4/CyLib.c ****         {
 681:Generated_Source\PSoC4/CyLib.c ****             CySysClkPumpConfig = (CY_SYS_CLK_SELECT_REG >> CY_SYS_CLK_SELECT_PUMP_SEL_SHIFT) &
 682:Generated_Source\PSoC4/CyLib.c ****                                   CY_SYS_CLK_SELECT_PUMP_SEL_MASK;
 683:Generated_Source\PSoC4/CyLib.c ****             CY_SYS_CLK_SELECT_REG &= ~(CY_SYS_CLK_SELECT_PUMP_SEL_MASK << CY_SYS_CLK_SELECT_PUMP_SE
 684:Generated_Source\PSoC4/CyLib.c ****         }
 685:Generated_Source\PSoC4/CyLib.c ****     #endif  /* (CY_IP_SRSSV2) */
 686:Generated_Source\PSoC4/CyLib.c **** }
 290              		.loc 1 686 0
 291              		@ sp needed
 292 0024 10BD     		pop	{r4, pc}
 293              	.L26:
 294 0026 C046     		.align	2
 295              	.L25:
 296 0028 08010B40 		.word	1074462984
 297 002c 00000000 		.word	.LANCHOR1
 298 0030 FFFFFFF1 		.word	-234881025
 299              		.cfi_endproc
 300              	.LFE7:
 301              		.size	CySysEnablePumpClock, .-CySysEnablePumpClock
 302              		.section	.text.CySysClkGetSysclkSource,"ax",%progbits
 303              		.align	1
 304              		.global	CySysClkGetSysclkSource
 305              		.code	16
 306              		.thumb_func
 307              		.type	CySysClkGetSysclkSource, %function
 308              	CySysClkGetSysclkSource:
 309              	.LFB8:
 687:Generated_Source\PSoC4/CyLib.c **** 
 688:Generated_Source\PSoC4/CyLib.c **** 
 689:Generated_Source\PSoC4/CyLib.c **** /*******************************************************************************
 690:Generated_Source\PSoC4/CyLib.c **** * Function Name: CySysClkGetSysclkSource
 691:Generated_Source\PSoC4/CyLib.c **** ****************************************************************************//**
 692:Generated_Source\PSoC4/CyLib.c **** *
 693:Generated_Source\PSoC4/CyLib.c **** * Returns the source of the System clock.
 694:Generated_Source\PSoC4/CyLib.c **** *
 695:Generated_Source\PSoC4/CyLib.c **** * \return The same as \ref CySysClkWriteHfclkDirect() function parameters.
 696:Generated_Source\PSoC4/CyLib.c **** *
 697:Generated_Source\PSoC4/CyLib.c **** *******************************************************************************/
 698:Generated_Source\PSoC4/CyLib.c **** uint32 CySysClkGetSysclkSource(void)
 699:Generated_Source\PSoC4/CyLib.c **** {
 310              		.loc 1 699 0
ARM GAS  C:\Users\RYANCA~1\AppData\Local\Temp\ccZAR4Lf.s 			page 19


 311              		.cfi_startproc
 312              		@ args = 0, pretend = 0, frame = 0
 313              		@ frame_needed = 0, uses_anonymous_args = 0
 314 0000 10B5     		push	{r4, lr}
 315              		.cfi_def_cfa_offset 8
 316              		.cfi_offset 4, -8
 317              		.cfi_offset 14, -4
 700:Generated_Source\PSoC4/CyLib.c ****     uint8  interruptState;
 701:Generated_Source\PSoC4/CyLib.c ****     uint32 sysclkSource;
 702:Generated_Source\PSoC4/CyLib.c **** 
 703:Generated_Source\PSoC4/CyLib.c ****     interruptState = CyEnterCriticalSection();
 318              		.loc 1 703 0
 319 0002 FFF7FEFF 		bl	CyEnterCriticalSection
 320              	.LVL16:
 704:Generated_Source\PSoC4/CyLib.c **** 
 705:Generated_Source\PSoC4/CyLib.c **** #if (CY_IP_SRSSV2 && CY_IP_PLL)
 706:Generated_Source\PSoC4/CyLib.c ****     if ((CY_SYS_CLK_SELECT_REG & CY_SYS_CLK_SELECT_HFCLK_SEL_MASK) != 0u)
 707:Generated_Source\PSoC4/CyLib.c ****     {
 708:Generated_Source\PSoC4/CyLib.c ****         sysclkSource = (CY_SYS_CLK_SELECT_REG & CY_SYS_CLK_SELECT_HFCLK_SEL_MASK);
 709:Generated_Source\PSoC4/CyLib.c ****     }
 710:Generated_Source\PSoC4/CyLib.c ****     else
 711:Generated_Source\PSoC4/CyLib.c **** #endif /* (CY_IP_SRSSV2 && CY_IP_PLL) */
 712:Generated_Source\PSoC4/CyLib.c ****     {
 713:Generated_Source\PSoC4/CyLib.c ****         sysclkSource = (CY_SYS_CLK_SELECT_REG & CY_SYS_CLK_SELECT_DIRECT_SEL_MASK);
 321              		.loc 1 713 0
 322 0006 034B     		ldr	r3, .L28
 714:Generated_Source\PSoC4/CyLib.c **** 
 715:Generated_Source\PSoC4/CyLib.c ****     #if (CY_IP_SRSSLT && CY_IP_PLL)
 716:Generated_Source\PSoC4/CyLib.c ****         sysclkSource |= (((uint32)(CY_SYS_ECO_CLK_SELECT_REG & CY_SYS_ECO_CLK_SELECT_ECO_PLL_MASK))
 717:Generated_Source\PSoC4/CyLib.c ****                          CY_SYS_CLK_SELECT_HFCLK_PLL_SHIFT);
 718:Generated_Source\PSoC4/CyLib.c ****     #endif /* (CY_IP_SRSSLT && CY_IP_PLL) */
 719:Generated_Source\PSoC4/CyLib.c **** 
 720:Generated_Source\PSoC4/CyLib.c ****     }
 721:Generated_Source\PSoC4/CyLib.c **** 
 722:Generated_Source\PSoC4/CyLib.c ****     CyExitCriticalSection(interruptState);
 723:Generated_Source\PSoC4/CyLib.c **** 
 724:Generated_Source\PSoC4/CyLib.c ****     return (sysclkSource);
 725:Generated_Source\PSoC4/CyLib.c **** }
 323              		.loc 1 725 0
 324              		@ sp needed
 713:Generated_Source\PSoC4/CyLib.c **** 
 325              		.loc 1 713 0
 326 0008 1C68     		ldr	r4, [r3]
 327              	.LVL17:
 722:Generated_Source\PSoC4/CyLib.c **** 
 328              		.loc 1 722 0
 329 000a FFF7FEFF 		bl	CyExitCriticalSection
 330              	.LVL18:
 724:Generated_Source\PSoC4/CyLib.c **** }
 331              		.loc 1 724 0
 332 000e 0720     		movs	r0, #7
 333 0010 2040     		ands	r0, r4
 334              	.LVL19:
 335              		.loc 1 725 0
 336 0012 10BD     		pop	{r4, pc}
 337              	.L29:
 338              		.align	2
ARM GAS  C:\Users\RYANCA~1\AppData\Local\Temp\ccZAR4Lf.s 			page 20


 339              	.L28:
 340 0014 00010B40 		.word	1074462976
 341              		.cfi_endproc
 342              	.LFE8:
 343              		.size	CySysClkGetSysclkSource, .-CySysClkGetSysclkSource
 344              		.section	.text.CySysClkWriteSysclkDiv,"ax",%progbits
 345              		.align	1
 346              		.global	CySysClkWriteSysclkDiv
 347              		.code	16
 348              		.thumb_func
 349              		.type	CySysClkWriteSysclkDiv, %function
 350              	CySysClkWriteSysclkDiv:
 351              	.LFB9:
 726:Generated_Source\PSoC4/CyLib.c **** 
 727:Generated_Source\PSoC4/CyLib.c **** 
 728:Generated_Source\PSoC4/CyLib.c **** /*******************************************************************************
 729:Generated_Source\PSoC4/CyLib.c **** * Function Name: CySysClkWriteSysclkDiv
 730:Generated_Source\PSoC4/CyLib.c **** ****************************************************************************//**
 731:Generated_Source\PSoC4/CyLib.c **** *
 732:Generated_Source\PSoC4/CyLib.c **** * Selects the prescaler divide amount for SYSCLK from HFCLK.
 733:Generated_Source\PSoC4/CyLib.c **** *
 734:Generated_Source\PSoC4/CyLib.c **** * PSoC 4000: The SYSCLK has the speed of 16 MHz, so HFCLK and SYSCLK dividers
 735:Generated_Source\PSoC4/CyLib.c **** * should be selected in a way, not to exceed 16 MHz for SYSCLK.
 736:Generated_Source\PSoC4/CyLib.c **** *
 737:Generated_Source\PSoC4/CyLib.c **** * PSoC 4100 \ PSoC 4100 BLE \ PSoC 4100M: The SYSCLK has the speed of 24 MHz,
 738:Generated_Source\PSoC4/CyLib.c **** * so HFCLK and SYSCLK dividers should be selected in a way, not to exceed 24 MHz
 739:Generated_Source\PSoC4/CyLib.c **** * for SYSCLK.
 740:Generated_Source\PSoC4/CyLib.c **** *
 741:Generated_Source\PSoC4/CyLib.c **** * If the SYSCLK clock frequency increases during the device operation, call
 742:Generated_Source\PSoC4/CyLib.c **** * \ref CySysFlashSetWaitCycles() with the appropriate parameter to adjust the
 743:Generated_Source\PSoC4/CyLib.c **** * number of clock cycles the cache will wait before sampling data comes back
 744:Generated_Source\PSoC4/CyLib.c **** * from Flash. If the SYSCLK clock frequency decreases, you can call
 745:Generated_Source\PSoC4/CyLib.c **** * \ref CySysFlashSetWaitCycles() to improve the CPU performance. See
 746:Generated_Source\PSoC4/CyLib.c **** * \ref CySysFlashSetWaitCycles() description for more information.
 747:Generated_Source\PSoC4/CyLib.c **** *
 748:Generated_Source\PSoC4/CyLib.c **** * \param divider Power of 2 prescaler selection
 749:Generated_Source\PSoC4/CyLib.c **** *  CY_SYS_CLK_SYSCLK_DIV1        SYSCLK = HFCLK / 1
 750:Generated_Source\PSoC4/CyLib.c **** *  CY_SYS_CLK_SYSCLK_DIV2        SYSCLK = HFCLK / 2
 751:Generated_Source\PSoC4/CyLib.c **** *  CY_SYS_CLK_SYSCLK_DIV4        SYSCLK = HFCLK / 4
 752:Generated_Source\PSoC4/CyLib.c **** *  CY_SYS_CLK_SYSCLK_DIV8        SYSCLK = HFCLK / 8
 753:Generated_Source\PSoC4/CyLib.c **** *  CY_SYS_CLK_SYSCLK_DIV16       SYSCLK = HFCLK / 16  (N/A for 4000 Family)
 754:Generated_Source\PSoC4/CyLib.c **** *  CY_SYS_CLK_SYSCLK_DIV32       SYSCLK = HFCLK / 32  (N/A for 4000 Family)
 755:Generated_Source\PSoC4/CyLib.c **** *  CY_SYS_CLK_SYSCLK_DIV64       SYSCLK = HFCLK / 64  (N/A for 4000 Family)
 756:Generated_Source\PSoC4/CyLib.c **** *  CY_SYS_CLK_SYSCLK_DIV128      SYSCLK = HFCLK / 128 (N/A for 4000 Family)
 757:Generated_Source\PSoC4/CyLib.c **** *
 758:Generated_Source\PSoC4/CyLib.c **** *******************************************************************************/
 759:Generated_Source\PSoC4/CyLib.c **** void CySysClkWriteSysclkDiv(uint32 divider)
 760:Generated_Source\PSoC4/CyLib.c **** {
 352              		.loc 1 760 0
 353              		.cfi_startproc
 354              		@ args = 0, pretend = 0, frame = 0
 355              		@ frame_needed = 0, uses_anonymous_args = 0
 356              	.LVL20:
 357 0000 70B5     		push	{r4, r5, r6, lr}
 358              		.cfi_def_cfa_offset 16
 359              		.cfi_offset 4, -16
 360              		.cfi_offset 5, -12
ARM GAS  C:\Users\RYANCA~1\AppData\Local\Temp\ccZAR4Lf.s 			page 21


 361              		.cfi_offset 6, -8
 362              		.cfi_offset 14, -4
 363              		.loc 1 760 0
 364 0002 0400     		movs	r4, r0
 761:Generated_Source\PSoC4/CyLib.c ****     uint8  interruptState;
 762:Generated_Source\PSoC4/CyLib.c **** 
 763:Generated_Source\PSoC4/CyLib.c ****     interruptState = CyEnterCriticalSection();
 365              		.loc 1 763 0
 366 0004 FFF7FEFF 		bl	CyEnterCriticalSection
 367              	.LVL21:
 764:Generated_Source\PSoC4/CyLib.c **** 
 765:Generated_Source\PSoC4/CyLib.c ****     CY_SYS_CLK_SELECT_REG = ((uint32)(((uint32)divider & CY_SYS_CLK_SELECT_SYSCLK_DIV_MASK) <<
 766:Generated_Source\PSoC4/CyLib.c ****                                     CY_SYS_CLK_SELECT_SYSCLK_DIV_SHIFT)) |
 368              		.loc 1 766 0
 369 0008 E104     		lsls	r1, r4, #19
 370 000a E024     		movs	r4, #224
 371              	.LVL22:
 767:Generated_Source\PSoC4/CyLib.c ****                             (CY_SYS_CLK_SELECT_REG & ((uint32)(~(uint32)(CY_SYS_CLK_SELECT_SYSCLK_D
 372              		.loc 1 767 0
 373 000c 054D     		ldr	r5, .L31
 766:Generated_Source\PSoC4/CyLib.c ****                             (CY_SYS_CLK_SELECT_REG & ((uint32)(~(uint32)(CY_SYS_CLK_SELECT_SYSCLK_D
 374              		.loc 1 766 0
 375 000e A403     		lsls	r4, r4, #14
 376              		.loc 1 767 0
 377 0010 2B68     		ldr	r3, [r5]
 766:Generated_Source\PSoC4/CyLib.c ****                             (CY_SYS_CLK_SELECT_REG & ((uint32)(~(uint32)(CY_SYS_CLK_SELECT_SYSCLK_D
 378              		.loc 1 766 0
 379 0012 054A     		ldr	r2, .L31+4
 380 0014 2140     		ands	r1, r4
 381 0016 1A40     		ands	r2, r3
 382 0018 0B00     		movs	r3, r1
 383 001a 1343     		orrs	r3, r2
 765:Generated_Source\PSoC4/CyLib.c ****                                     CY_SYS_CLK_SELECT_SYSCLK_DIV_SHIFT)) |
 384              		.loc 1 765 0
 385 001c 2B60     		str	r3, [r5]
 768:Generated_Source\PSoC4/CyLib.c ****                                     CY_SYS_CLK_SELECT_SYSCLK_DIV_SHIFT))));
 769:Generated_Source\PSoC4/CyLib.c **** 
 770:Generated_Source\PSoC4/CyLib.c ****     CyExitCriticalSection(interruptState);
 386              		.loc 1 770 0
 387 001e FFF7FEFF 		bl	CyExitCriticalSection
 388              	.LVL23:
 771:Generated_Source\PSoC4/CyLib.c **** }
 389              		.loc 1 771 0
 390              		@ sp needed
 391 0022 70BD     		pop	{r4, r5, r6, pc}
 392              	.L32:
 393              		.align	2
 394              	.L31:
 395 0024 00010B40 		.word	1074462976
 396 0028 FFFFC7FF 		.word	-3670017
 397              		.cfi_endproc
 398              	.LFE9:
 399              		.size	CySysClkWriteSysclkDiv, .-CySysClkWriteSysclkDiv
 400              		.section	.text.CySysLvdDisable,"ax",%progbits
 401              		.align	1
 402              		.global	CySysLvdDisable
 403              		.code	16
ARM GAS  C:\Users\RYANCA~1\AppData\Local\Temp\ccZAR4Lf.s 			page 22


 404              		.thumb_func
 405              		.type	CySysLvdDisable, %function
 406              	CySysLvdDisable:
 407              	.LFB12:
 772:Generated_Source\PSoC4/CyLib.c **** 
 773:Generated_Source\PSoC4/CyLib.c **** 
 774:Generated_Source\PSoC4/CyLib.c **** /*******************************************************************************
 775:Generated_Source\PSoC4/CyLib.c **** * Function Name: CySysClkWriteImoFreq
 776:Generated_Source\PSoC4/CyLib.c **** ****************************************************************************//**
 777:Generated_Source\PSoC4/CyLib.c **** *
 778:Generated_Source\PSoC4/CyLib.c **** * Sets the frequency of the IMO.
 779:Generated_Source\PSoC4/CyLib.c **** *
 780:Generated_Source\PSoC4/CyLib.c **** * PSoC 4000: The SYSCLK has the speed of 16 MHz, so HFCLK and SYSCLK dividers
 781:Generated_Source\PSoC4/CyLib.c **** * should be selected in a way, not to exceed 16 MHz for SYSCLK.
 782:Generated_Source\PSoC4/CyLib.c **** *
 783:Generated_Source\PSoC4/CyLib.c **** * PSoC 4100 \ PSoC 4100 BLE \ PSoC 4100M: The SYSCLK has the speed of 24 MHz,
 784:Generated_Source\PSoC4/CyLib.c **** * so HFCLK and SYSCLK dividers should be selected in a way, not to exceed 24 MHz
 785:Generated_Source\PSoC4/CyLib.c **** * for SYSCLK.
 786:Generated_Source\PSoC4/CyLib.c **** *
 787:Generated_Source\PSoC4/CyLib.c **** * For PSoC 4200M and PSoC 4200L device families, if WCO lock feature is enabled
 788:Generated_Source\PSoC4/CyLib.c **** * then this API will disable the lock, write the new IMO frequency and then
 789:Generated_Source\PSoC4/CyLib.c **** * re-enable the lock.
 790:Generated_Source\PSoC4/CyLib.c **** *
 791:Generated_Source\PSoC4/CyLib.c **** * For PSoC 4200L device families, this function enables the USB lock when 24 or
 792:Generated_Source\PSoC4/CyLib.c **** * 48 MHz passed as a parameter if the USB lock option is enabled in Design Wide
 793:Generated_Source\PSoC4/CyLib.c **** * Resources tab or CySysClkImoEnableUsbLock() was called before. Note the USB
 794:Generated_Source\PSoC4/CyLib.c **** * lock is disabled during IMO frequency change.
 795:Generated_Source\PSoC4/CyLib.c **** *
 796:Generated_Source\PSoC4/CyLib.c **** * The CPU is halted if new frequency is invalid and project is compiled
 797:Generated_Source\PSoC4/CyLib.c **** * in debug mode.
 798:Generated_Source\PSoC4/CyLib.c **** *
 799:Generated_Source\PSoC4/CyLib.c **** * If the SYSCLK clock frequency increases during the device operation, call
 800:Generated_Source\PSoC4/CyLib.c **** * \ref CySysFlashSetWaitCycles() with the appropriate parameter to adjust the
 801:Generated_Source\PSoC4/CyLib.c **** * number of clock cycles the cache will wait before sampling data comes back
 802:Generated_Source\PSoC4/CyLib.c **** * from Flash. If the SYSCLK clock frequency decreases, you can call
 803:Generated_Source\PSoC4/CyLib.c **** * \ref CySysFlashSetWaitCycles() to improve the CPU performance. See
 804:Generated_Source\PSoC4/CyLib.c **** * \ref CySysFlashSetWaitCycles() description for more information.
 805:Generated_Source\PSoC4/CyLib.c **** *
 806:Generated_Source\PSoC4/CyLib.c **** * PSoC 4000: The System Clock (SYSCLK) has maximum speed of 16 MHz, so HFCLK
 807:Generated_Source\PSoC4/CyLib.c **** * and SYSCLK dividers should be selected in a way, to not to exceed 16 MHz for
 808:Generated_Source\PSoC4/CyLib.c **** * the System clock.
 809:Generated_Source\PSoC4/CyLib.c **** *
 810:Generated_Source\PSoC4/CyLib.c **** * \param freq All PSoC 4 families excluding the following: Valid range [3-48]
 811:Generated_Source\PSoC4/CyLib.c **** * with step size equals 1. PSoC 4000: Valid values are 24, 32, and 48.
 812:Generated_Source\PSoC4/CyLib.c **** * PSoC 4000S / PSoC 4100S / PSoC Analog Coprocessor: Valid range [24-48] with
 813:Generated_Source\PSoC4/CyLib.c **** * step size equals 4.
 814:Generated_Source\PSoC4/CyLib.c **** *
 815:Generated_Source\PSoC4/CyLib.c **** *******************************************************************************/
 816:Generated_Source\PSoC4/CyLib.c **** #if(CY_IP_SRSSV2)
 817:Generated_Source\PSoC4/CyLib.c ****     void CySysClkWriteImoFreq(uint32 freq)
 818:Generated_Source\PSoC4/CyLib.c ****     {
 819:Generated_Source\PSoC4/CyLib.c ****         #if (CY_IP_FMLT)
 820:Generated_Source\PSoC4/CyLib.c ****             volatile uint32   parameters[2u];
 821:Generated_Source\PSoC4/CyLib.c ****             volatile uint32   regValues[4u];
 822:Generated_Source\PSoC4/CyLib.c ****         #else
 823:Generated_Source\PSoC4/CyLib.c ****             uint8  bgTrim4;
 824:Generated_Source\PSoC4/CyLib.c ****             uint8  bgTrim5;
ARM GAS  C:\Users\RYANCA~1\AppData\Local\Temp\ccZAR4Lf.s 			page 23


 825:Generated_Source\PSoC4/CyLib.c ****             uint8  newImoTrim2Value;
 826:Generated_Source\PSoC4/CyLib.c ****             uint8  currentImoTrim2Value;
 827:Generated_Source\PSoC4/CyLib.c ****         #endif /* (CY_IP_FM) */
 828:Generated_Source\PSoC4/CyLib.c **** 
 829:Generated_Source\PSoC4/CyLib.c ****         #if (CY_IP_IMO_TRIMMABLE_BY_WCO)
 830:Generated_Source\PSoC4/CyLib.c ****             uint32 wcoLock = 0u;
 831:Generated_Source\PSoC4/CyLib.c ****         #endif  /* (CY_IP_IMO_TRIMMABLE_BY_WCO) */
 832:Generated_Source\PSoC4/CyLib.c **** 
 833:Generated_Source\PSoC4/CyLib.c ****         #if (CY_IP_IMO_TRIMMABLE_BY_USB)
 834:Generated_Source\PSoC4/CyLib.c ****             uint32 usbLock = 0u;
 835:Generated_Source\PSoC4/CyLib.c ****         #endif  /* (CY_IP_IMO_TRIMMABLE_BY_USB) */
 836:Generated_Source\PSoC4/CyLib.c **** 
 837:Generated_Source\PSoC4/CyLib.c ****         uint8  interruptState;
 838:Generated_Source\PSoC4/CyLib.c **** 
 839:Generated_Source\PSoC4/CyLib.c **** 
 840:Generated_Source\PSoC4/CyLib.c ****         interruptState = CyEnterCriticalSection();
 841:Generated_Source\PSoC4/CyLib.c **** 
 842:Generated_Source\PSoC4/CyLib.c ****         #if (CY_IP_IMO_TRIMMABLE_BY_WCO)
 843:Generated_Source\PSoC4/CyLib.c ****             if(0u != CySysClkImoGetWcoLock())
 844:Generated_Source\PSoC4/CyLib.c ****             {
 845:Generated_Source\PSoC4/CyLib.c ****                 wcoLock = 1u;
 846:Generated_Source\PSoC4/CyLib.c ****                 CySysClkImoDisableWcoLock();
 847:Generated_Source\PSoC4/CyLib.c ****             }
 848:Generated_Source\PSoC4/CyLib.c ****         #endif  /* (CY_IP_IMO_TRIMMABLE_BY_WCO) */
 849:Generated_Source\PSoC4/CyLib.c **** 
 850:Generated_Source\PSoC4/CyLib.c **** 
 851:Generated_Source\PSoC4/CyLib.c ****         #if (CY_IP_IMO_TRIMMABLE_BY_USB)
 852:Generated_Source\PSoC4/CyLib.c **** 
 853:Generated_Source\PSoC4/CyLib.c ****             #if (CYDEV_IMO_TRIMMED_BY_USB == 0u)
 854:Generated_Source\PSoC4/CyLib.c ****                 if(0u != CySysClkImoGetUsbLock())
 855:Generated_Source\PSoC4/CyLib.c ****                 {
 856:Generated_Source\PSoC4/CyLib.c ****             #endif  /* (CYDEV_IMO_TRIMMED_BY_USB == 0u) */
 857:Generated_Source\PSoC4/CyLib.c **** 
 858:Generated_Source\PSoC4/CyLib.c ****                 if ((24u == freq) || (48u == freq))
 859:Generated_Source\PSoC4/CyLib.c ****                 {
 860:Generated_Source\PSoC4/CyLib.c ****                     usbLock = 1u;
 861:Generated_Source\PSoC4/CyLib.c ****                     CySysClkImoDisableUsbLock();
 862:Generated_Source\PSoC4/CyLib.c ****                 }
 863:Generated_Source\PSoC4/CyLib.c **** 
 864:Generated_Source\PSoC4/CyLib.c ****             #if (CYDEV_IMO_TRIMMED_BY_USB == 0u)
 865:Generated_Source\PSoC4/CyLib.c ****                 }
 866:Generated_Source\PSoC4/CyLib.c ****             #endif  /* (CYDEV_IMO_TRIMMED_BY_USB == 0u) */
 867:Generated_Source\PSoC4/CyLib.c **** 
 868:Generated_Source\PSoC4/CyLib.c ****         #endif  /* (CYDEV_IMO_TRIMMED_BY_USB == 0u) */
 869:Generated_Source\PSoC4/CyLib.c **** 
 870:Generated_Source\PSoC4/CyLib.c **** 
 871:Generated_Source\PSoC4/CyLib.c ****         #if (CY_IP_FMLT)
 872:Generated_Source\PSoC4/CyLib.c **** 
 873:Generated_Source\PSoC4/CyLib.c ****             /* FM-Lite Clock Restore */
 874:Generated_Source\PSoC4/CyLib.c ****             regValues[0u] = CY_SYS_CLK_IMO_CONFIG_REG;
 875:Generated_Source\PSoC4/CyLib.c ****             regValues[1u] = CY_SYS_CLK_SELECT_REG;
 876:Generated_Source\PSoC4/CyLib.c ****             regValues[2u] = cyImoFreqMhz2Reg[freq - CY_SYS_CLK_IMO_FREQ_TABLE_OFFSET];
 877:Generated_Source\PSoC4/CyLib.c ****             regValues[3u] = CY_FLASH_CTL_REG;
 878:Generated_Source\PSoC4/CyLib.c **** 
 879:Generated_Source\PSoC4/CyLib.c ****             parameters[0u] =
 880:Generated_Source\PSoC4/CyLib.c ****                 (uint32) ((CY_FLASH_KEY_TWO(CY_FLASH_API_OPCODE_CLK_RESTORE) <<  CY_FLASH_PARAM_KEY
 881:Generated_Source\PSoC4/CyLib.c ****                             CY_FLASH_KEY_ONE);
ARM GAS  C:\Users\RYANCA~1\AppData\Local\Temp\ccZAR4Lf.s 			page 24


 882:Generated_Source\PSoC4/CyLib.c ****             parameters[1u] = (uint32) &regValues[0u];
 883:Generated_Source\PSoC4/CyLib.c **** 
 884:Generated_Source\PSoC4/CyLib.c ****             CY_FLASH_CPUSS_SYSARG_REG = (uint32) &parameters[0u];
 885:Generated_Source\PSoC4/CyLib.c ****             CY_FLASH_CPUSS_SYSREQ_REG = CY_FLASH_CPUSS_REQ_START | CY_FLASH_API_OPCODE_CLK_RESTORE;
 886:Generated_Source\PSoC4/CyLib.c ****             (void) CY_FLASH_CPUSS_SYSARG_REG;
 887:Generated_Source\PSoC4/CyLib.c **** 
 888:Generated_Source\PSoC4/CyLib.c ****         #else /* (CY_IP_FM) */
 889:Generated_Source\PSoC4/CyLib.c **** 
 890:Generated_Source\PSoC4/CyLib.c ****         if ((freq >= CY_SYS_CLK_IMO_MIN_FREQ_MHZ) && (freq <= CY_SYS_CLK_IMO_MAX_FREQ_MHZ))
 891:Generated_Source\PSoC4/CyLib.c ****         {
 892:Generated_Source\PSoC4/CyLib.c ****             if(freq <= CY_SFLASH_IMO_MAXF0_REG)
 893:Generated_Source\PSoC4/CyLib.c ****             {
 894:Generated_Source\PSoC4/CyLib.c ****                 bgTrim4 = CY_SFLASH_IMO_ABS0_REG;
 895:Generated_Source\PSoC4/CyLib.c ****                 bgTrim5 = CY_SFLASH_IMO_TMPCO0_REG;
 896:Generated_Source\PSoC4/CyLib.c ****             }
 897:Generated_Source\PSoC4/CyLib.c ****             else if(freq <= CY_SFLASH_IMO_MAXF1_REG)
 898:Generated_Source\PSoC4/CyLib.c ****             {
 899:Generated_Source\PSoC4/CyLib.c ****                 bgTrim4 = CY_SFLASH_IMO_ABS1_REG;
 900:Generated_Source\PSoC4/CyLib.c ****                 bgTrim5 = CY_SFLASH_IMO_TMPCO1_REG;
 901:Generated_Source\PSoC4/CyLib.c ****             }
 902:Generated_Source\PSoC4/CyLib.c ****             else if(freq <= CY_SFLASH_IMO_MAXF2_REG)
 903:Generated_Source\PSoC4/CyLib.c ****             {
 904:Generated_Source\PSoC4/CyLib.c ****                 bgTrim4 = CY_SFLASH_IMO_ABS2_REG;
 905:Generated_Source\PSoC4/CyLib.c ****                 bgTrim5 = CY_SFLASH_IMO_TMPCO2_REG;
 906:Generated_Source\PSoC4/CyLib.c ****             }
 907:Generated_Source\PSoC4/CyLib.c ****             else if(freq <= CY_SFLASH_IMO_MAXF3_REG)
 908:Generated_Source\PSoC4/CyLib.c ****             {
 909:Generated_Source\PSoC4/CyLib.c ****                 bgTrim4 = CY_SFLASH_IMO_ABS3_REG;
 910:Generated_Source\PSoC4/CyLib.c ****                 bgTrim5 = CY_SFLASH_IMO_TMPCO3_REG;
 911:Generated_Source\PSoC4/CyLib.c ****             }
 912:Generated_Source\PSoC4/CyLib.c ****             else
 913:Generated_Source\PSoC4/CyLib.c ****             {
 914:Generated_Source\PSoC4/CyLib.c ****                 bgTrim4 = CY_SFLASH_IMO_ABS4_REG;
 915:Generated_Source\PSoC4/CyLib.c ****                 bgTrim5 = CY_SFLASH_IMO_TMPCO4_REG;
 916:Generated_Source\PSoC4/CyLib.c ****             }
 917:Generated_Source\PSoC4/CyLib.c **** 
 918:Generated_Source\PSoC4/CyLib.c ****             /* Get IMO_TRIM2 value for the new frequency */
 919:Generated_Source\PSoC4/CyLib.c ****             newImoTrim2Value = cyImoFreqMhz2Reg[freq - CY_SYS_CLK_IMO_FREQ_TABLE_OFFSET];
 920:Generated_Source\PSoC4/CyLib.c **** 
 921:Generated_Source\PSoC4/CyLib.c **** 
 922:Generated_Source\PSoC4/CyLib.c ****             /****************************************************************************
 923:Generated_Source\PSoC4/CyLib.c ****             * The IMO can have a different trim per frequency. To avoid possible corner
 924:Generated_Source\PSoC4/CyLib.c ****             * cases where a trim change can exceed the maximum frequency, the trim must
 925:Generated_Source\PSoC4/CyLib.c ****             * be applied at a frequency that is low enough.
 926:Generated_Source\PSoC4/CyLib.c ****             *
 927:Generated_Source\PSoC4/CyLib.c ****             * Comparing IMO_TRIM2 values for the current and new frequencies, since
 928:Generated_Source\PSoC4/CyLib.c ****             * IMO_TRIM2 value as a function of IMO frequency is a strictly increasing
 929:Generated_Source\PSoC4/CyLib.c ****             * function and is time-invariant.
 930:Generated_Source\PSoC4/CyLib.c ****             ***************************************************************************/
 931:Generated_Source\PSoC4/CyLib.c ****             if ((newImoTrim2Value >= CY_SYS_CLK_IMO_BOUNDARY_FREQ_TRIM2) && (freq >= CY_SYS_CLK_IMO
 932:Generated_Source\PSoC4/CyLib.c ****             {
 933:Generated_Source\PSoC4/CyLib.c ****                 /* Set boundary IMO frequency: safe for IMO above 48 MHZ trimming */
 934:Generated_Source\PSoC4/CyLib.c ****                 CY_SYS_CLK_IMO_TRIM2_REG = (uint32) cyImoFreqMhz2Reg[CY_SYS_CLK_IMO_TEMP_FREQ_MHZ -
 935:Generated_Source\PSoC4/CyLib.c ****                                                                      CY_SYS_CLK_IMO_FREQ_TABLE_OFFS
 936:Generated_Source\PSoC4/CyLib.c **** 
 937:Generated_Source\PSoC4/CyLib.c ****                 CyDelayCycles(CY_SYS_CLK_IMO_FREQ_TIMEOUT_CYCLES);
 938:Generated_Source\PSoC4/CyLib.c **** 
ARM GAS  C:\Users\RYANCA~1\AppData\Local\Temp\ccZAR4Lf.s 			page 25


 939:Generated_Source\PSoC4/CyLib.c ****                 currentImoTrim2Value = CY_SYS_CLK_IMO_TEMP_FREQ_TRIM2;
 940:Generated_Source\PSoC4/CyLib.c ****             }
 941:Generated_Source\PSoC4/CyLib.c ****             else
 942:Generated_Source\PSoC4/CyLib.c ****             {
 943:Generated_Source\PSoC4/CyLib.c ****                 currentImoTrim2Value = (uint8) (CY_SYS_CLK_IMO_TRIM2_REG & CY_SYS_CLK_IMO_FREQ_BITS
 944:Generated_Source\PSoC4/CyLib.c ****             }
 945:Generated_Source\PSoC4/CyLib.c **** 
 946:Generated_Source\PSoC4/CyLib.c **** 
 947:Generated_Source\PSoC4/CyLib.c ****             /***************************************************************************
 948:Generated_Source\PSoC4/CyLib.c ****             * A trim change needs to be allowed to settle (within 5us) before the Freq
 949:Generated_Source\PSoC4/CyLib.c ****             * can be changed to a new frequency.
 950:Generated_Source\PSoC4/CyLib.c ****             *
 951:Generated_Source\PSoC4/CyLib.c ****             * Comparing IMO_TRIM2 values for the current and new frequencies, since
 952:Generated_Source\PSoC4/CyLib.c ****             * IMO_TRIM2 value as a function of IMO frequency is a strictly increasing
 953:Generated_Source\PSoC4/CyLib.c ****             * function and is time-invariant.
 954:Generated_Source\PSoC4/CyLib.c ****             ***************************************************************************/
 955:Generated_Source\PSoC4/CyLib.c ****             if (newImoTrim2Value < currentImoTrim2Value)
 956:Generated_Source\PSoC4/CyLib.c ****             {
 957:Generated_Source\PSoC4/CyLib.c ****                 /* Set new IMO frequency */
 958:Generated_Source\PSoC4/CyLib.c ****                 CY_SYS_CLK_IMO_TRIM2_REG = cyImoFreqMhz2Reg[freq - CY_SYS_CLK_IMO_FREQ_TABLE_OFFSET
 959:Generated_Source\PSoC4/CyLib.c ****                 CyDelayCycles(CY_SYS_CLK_IMO_FREQ_TIMEOUT_CYCLES);
 960:Generated_Source\PSoC4/CyLib.c ****             }
 961:Generated_Source\PSoC4/CyLib.c **** 
 962:Generated_Source\PSoC4/CyLib.c ****             /* Set trims for the new IMO frequency */
 963:Generated_Source\PSoC4/CyLib.c ****             CY_SYS_CLK_IMO_TRIM1_REG = (uint32) CY_SFLASH_IMO_TRIM_REG(freq - CY_SYS_CLK_IMO_FREQ_T
 964:Generated_Source\PSoC4/CyLib.c ****             CY_PWR_BG_TRIM4_REG  = bgTrim4;
 965:Generated_Source\PSoC4/CyLib.c ****             CY_PWR_BG_TRIM5_REG  = bgTrim5;
 966:Generated_Source\PSoC4/CyLib.c ****             CyDelayUs(CY_SYS_CLK_IMO_TRIM_TIMEOUT_US);
 967:Generated_Source\PSoC4/CyLib.c **** 
 968:Generated_Source\PSoC4/CyLib.c ****             if (newImoTrim2Value > currentImoTrim2Value)
 969:Generated_Source\PSoC4/CyLib.c ****             {
 970:Generated_Source\PSoC4/CyLib.c ****                 /* Set new IMO frequency */
 971:Generated_Source\PSoC4/CyLib.c ****                 CY_SYS_CLK_IMO_TRIM2_REG = cyImoFreqMhz2Reg[freq - CY_SYS_CLK_IMO_FREQ_TABLE_OFFSET
 972:Generated_Source\PSoC4/CyLib.c ****                 CyDelayCycles(CY_SYS_CLK_IMO_FREQ_TIMEOUT_CYCLES);
 973:Generated_Source\PSoC4/CyLib.c ****             }
 974:Generated_Source\PSoC4/CyLib.c ****         }
 975:Generated_Source\PSoC4/CyLib.c ****         else
 976:Generated_Source\PSoC4/CyLib.c ****         {
 977:Generated_Source\PSoC4/CyLib.c ****             /* Halt CPU in debug mode if new frequency is invalid */
 978:Generated_Source\PSoC4/CyLib.c ****             CYASSERT(0u != 0u);
 979:Generated_Source\PSoC4/CyLib.c ****         }
 980:Generated_Source\PSoC4/CyLib.c **** 
 981:Generated_Source\PSoC4/CyLib.c ****         #endif /* (CY_IP_FMLT) */
 982:Generated_Source\PSoC4/CyLib.c **** 
 983:Generated_Source\PSoC4/CyLib.c ****         #if (CY_IP_IMO_TRIMMABLE_BY_WCO)
 984:Generated_Source\PSoC4/CyLib.c ****             if (1u == wcoLock)
 985:Generated_Source\PSoC4/CyLib.c ****             {
 986:Generated_Source\PSoC4/CyLib.c ****                 CySysClkImoEnableWcoLock();
 987:Generated_Source\PSoC4/CyLib.c ****             }
 988:Generated_Source\PSoC4/CyLib.c ****         #endif  /* (CY_IP_IMO_TRIMMABLE_BY_WCO) */
 989:Generated_Source\PSoC4/CyLib.c **** 
 990:Generated_Source\PSoC4/CyLib.c ****         #if (CY_IP_IMO_TRIMMABLE_BY_USB)
 991:Generated_Source\PSoC4/CyLib.c ****             if (1u == usbLock)
 992:Generated_Source\PSoC4/CyLib.c ****             {
 993:Generated_Source\PSoC4/CyLib.c ****                 CySysClkImoEnableUsbLock();
 994:Generated_Source\PSoC4/CyLib.c ****             }
 995:Generated_Source\PSoC4/CyLib.c ****         #endif  /* (CY_IP_IMO_TRIMMABLE_BY_USB) */
ARM GAS  C:\Users\RYANCA~1\AppData\Local\Temp\ccZAR4Lf.s 			page 26


 996:Generated_Source\PSoC4/CyLib.c **** 
 997:Generated_Source\PSoC4/CyLib.c ****         CyExitCriticalSection(interruptState);
 998:Generated_Source\PSoC4/CyLib.c ****     }
 999:Generated_Source\PSoC4/CyLib.c **** 
1000:Generated_Source\PSoC4/CyLib.c **** #else
1001:Generated_Source\PSoC4/CyLib.c **** 
1002:Generated_Source\PSoC4/CyLib.c ****     void CySysClkWriteImoFreq(uint32 freq)
1003:Generated_Source\PSoC4/CyLib.c ****     {
1004:Generated_Source\PSoC4/CyLib.c ****         uint8  interruptState;
1005:Generated_Source\PSoC4/CyLib.c ****         uint8  imoTrim1Value;
1006:Generated_Source\PSoC4/CyLib.c **** 
1007:Generated_Source\PSoC4/CyLib.c ****         #if (CY_IP_IMO_TRIMMABLE_BY_WCO)
1008:Generated_Source\PSoC4/CyLib.c ****             uint32 wcoLock = 0u;
1009:Generated_Source\PSoC4/CyLib.c ****         #endif  /* (CY_IP_IMO_TRIMMABLE_BY_WCO) */
1010:Generated_Source\PSoC4/CyLib.c **** 
1011:Generated_Source\PSoC4/CyLib.c ****         #if (CY_IP_IMO_TRIMMABLE_BY_USB)
1012:Generated_Source\PSoC4/CyLib.c ****             uint32 usbLock = 0u;
1013:Generated_Source\PSoC4/CyLib.c ****         #endif  /* (CY_IP_IMO_TRIMMABLE_BY_USB) */
1014:Generated_Source\PSoC4/CyLib.c **** 
1015:Generated_Source\PSoC4/CyLib.c ****         #if (CY_PSOC4_4000)
1016:Generated_Source\PSoC4/CyLib.c ****             if ((freq == 24u) || (freq == 32u) || (freq == 48u))
1017:Generated_Source\PSoC4/CyLib.c ****         #elif (CY_CCG3)
1018:Generated_Source\PSoC4/CyLib.c ****             if ((freq == 24u) || (freq == 36u) || (freq == 48u))
1019:Generated_Source\PSoC4/CyLib.c ****         #else
1020:Generated_Source\PSoC4/CyLib.c ****             if ((freq == 24u) || (freq == 28u) || (freq == 32u) ||
1021:Generated_Source\PSoC4/CyLib.c ****                 (freq == 36u) || (freq == 40u) || (freq == 44u) ||
1022:Generated_Source\PSoC4/CyLib.c ****                 (freq == 48u))
1023:Generated_Source\PSoC4/CyLib.c ****         #endif /* (CY_PSOC4_4000) */
1024:Generated_Source\PSoC4/CyLib.c ****         {
1025:Generated_Source\PSoC4/CyLib.c ****             interruptState = CyEnterCriticalSection();
1026:Generated_Source\PSoC4/CyLib.c **** 
1027:Generated_Source\PSoC4/CyLib.c ****             #if (CY_IP_IMO_TRIMMABLE_BY_WCO)
1028:Generated_Source\PSoC4/CyLib.c ****                 if(0u != CySysClkImoGetWcoLock())
1029:Generated_Source\PSoC4/CyLib.c ****                 {
1030:Generated_Source\PSoC4/CyLib.c ****                     wcoLock = 1u;
1031:Generated_Source\PSoC4/CyLib.c ****                     CySysClkImoDisableWcoLock();
1032:Generated_Source\PSoC4/CyLib.c ****                 }
1033:Generated_Source\PSoC4/CyLib.c ****             #endif  /* (CY_IP_IMO_TRIMMABLE_BY_WCO) */
1034:Generated_Source\PSoC4/CyLib.c **** 
1035:Generated_Source\PSoC4/CyLib.c ****             #if (CY_IP_IMO_TRIMMABLE_BY_USB)
1036:Generated_Source\PSoC4/CyLib.c **** 
1037:Generated_Source\PSoC4/CyLib.c ****                 #if (CYDEV_IMO_TRIMMED_BY_USB == 0u)
1038:Generated_Source\PSoC4/CyLib.c ****                     if(0u != CySysClkImoGetUsbLock())
1039:Generated_Source\PSoC4/CyLib.c ****                     {
1040:Generated_Source\PSoC4/CyLib.c ****                 #endif  /* (CYDEV_IMO_TRIMMED_BY_USB == 0u) */
1041:Generated_Source\PSoC4/CyLib.c **** 
1042:Generated_Source\PSoC4/CyLib.c ****                     if (48u == freq)
1043:Generated_Source\PSoC4/CyLib.c ****                     {
1044:Generated_Source\PSoC4/CyLib.c ****                         usbLock = 1u;
1045:Generated_Source\PSoC4/CyLib.c ****                         CySysClkImoDisableUsbLock();
1046:Generated_Source\PSoC4/CyLib.c ****                     }
1047:Generated_Source\PSoC4/CyLib.c **** 
1048:Generated_Source\PSoC4/CyLib.c ****                 #if (CYDEV_IMO_TRIMMED_BY_USB == 0u)
1049:Generated_Source\PSoC4/CyLib.c ****                     }
1050:Generated_Source\PSoC4/CyLib.c ****                 #endif  /* (CYDEV_IMO_TRIMMED_BY_USB == 0u) */
1051:Generated_Source\PSoC4/CyLib.c **** 
1052:Generated_Source\PSoC4/CyLib.c ****             #endif  /* (CYDEV_IMO_TRIMMED_BY_USB == 0u) */
ARM GAS  C:\Users\RYANCA~1\AppData\Local\Temp\ccZAR4Lf.s 			page 27


1053:Generated_Source\PSoC4/CyLib.c **** 
1054:Generated_Source\PSoC4/CyLib.c **** 
1055:Generated_Source\PSoC4/CyLib.c ****             /* Set IMO to 24 MHz - CLK_IMO_SELECT.FREQ = 0 */
1056:Generated_Source\PSoC4/CyLib.c ****             CY_SYS_CLK_IMO_SELECT_REG &= ((uint32) ~CY_SYS_CLK_IMO_SELECT_FREQ_MASK);
1057:Generated_Source\PSoC4/CyLib.c **** 
1058:Generated_Source\PSoC4/CyLib.c **** 
1059:Generated_Source\PSoC4/CyLib.c ****             /* Apply coarse trim */
1060:Generated_Source\PSoC4/CyLib.c ****             #if (CY_IP_IMO_TRIMMABLE_BY_USB)
1061:Generated_Source\PSoC4/CyLib.c ****                 if ((1u == usbLock) && (48u == freq))
1062:Generated_Source\PSoC4/CyLib.c ****                 {
1063:Generated_Source\PSoC4/CyLib.c ****                     imoTrim1Value = CY_SFLASH_IMO_TRIM_USBMODE_48_REG;
1064:Generated_Source\PSoC4/CyLib.c ****                 }
1065:Generated_Source\PSoC4/CyLib.c ****                 else if ((1u == usbLock) && (24u == freq))
1066:Generated_Source\PSoC4/CyLib.c ****                 {
1067:Generated_Source\PSoC4/CyLib.c ****                     imoTrim1Value = CY_SFLASH_IMO_TRIM_USBMODE_24_REG;
1068:Generated_Source\PSoC4/CyLib.c ****                 }
1069:Generated_Source\PSoC4/CyLib.c ****                 else
1070:Generated_Source\PSoC4/CyLib.c ****                 {
1071:Generated_Source\PSoC4/CyLib.c ****                     imoTrim1Value = (uint8) CY_SFLASH_IMO_TRIM_REG(freq - CY_SYS_CLK_IMO_MIN_FREQ_M
1072:Generated_Source\PSoC4/CyLib.c ****                 }
1073:Generated_Source\PSoC4/CyLib.c ****             #else
1074:Generated_Source\PSoC4/CyLib.c ****                 imoTrim1Value = (uint8) CY_SFLASH_IMO_TRIM_REG(freq - CY_SYS_CLK_IMO_MIN_FREQ_MHZ);
1075:Generated_Source\PSoC4/CyLib.c ****             #endif  /* (CY_IP_IMO_TRIMMABLE_BY_USB) */
1076:Generated_Source\PSoC4/CyLib.c ****             CY_SYS_CLK_IMO_TRIM1_REG = (uint32) imoTrim1Value;
1077:Generated_Source\PSoC4/CyLib.c **** 
1078:Generated_Source\PSoC4/CyLib.c ****             /* Zero out fine trim */
1079:Generated_Source\PSoC4/CyLib.c ****             CY_SYS_CLK_IMO_TRIM2_REG = CY_SYS_CLK_IMO_TRIM2_REG & ((uint32) ~CY_SYS_CLK_IMO_TRIM2_F
1080:Generated_Source\PSoC4/CyLib.c **** 
1081:Generated_Source\PSoC4/CyLib.c ****             /* Apply TC trim */
1082:Generated_Source\PSoC4/CyLib.c ****             CY_SYS_CLK_IMO_TRIM3_REG = (CY_SYS_CLK_IMO_TRIM3_REG & ((uint32) ~CY_SYS_CLK_IMO_TRIM3_
1083:Generated_Source\PSoC4/CyLib.c ****                 (CY_SFLASH_IMO_TCTRIM_REG(freq - CY_SYS_CLK_IMO_MIN_FREQ_MHZ) & CY_SYS_CLK_IMO_TRIM
1084:Generated_Source\PSoC4/CyLib.c **** 
1085:Generated_Source\PSoC4/CyLib.c ****             CyDelayCycles(CY_SYS_CLK_IMO_TRIM_DELAY_CYCLES);
1086:Generated_Source\PSoC4/CyLib.c **** 
1087:Generated_Source\PSoC4/CyLib.c ****             if (freq > CY_SYS_CLK_IMO_MIN_FREQ_MHZ)
1088:Generated_Source\PSoC4/CyLib.c ****             {
1089:Generated_Source\PSoC4/CyLib.c ****                 /* Select nearby intermediate frequency */
1090:Generated_Source\PSoC4/CyLib.c ****                 CY_SYS_CLK_IMO_SELECT_REG = (CY_SYS_CLK_IMO_SELECT_REG & ((uint32) ~CY_SYS_CLK_IMO_
1091:Generated_Source\PSoC4/CyLib.c ****                     (((freq - 4u - CY_SYS_CLK_IMO_MIN_FREQ_MHZ) >> 2u) & CY_SYS_CLK_IMO_SELECT_FREQ
1092:Generated_Source\PSoC4/CyLib.c **** 
1093:Generated_Source\PSoC4/CyLib.c ****                 CyDelayCycles(CY_SYS_CLK_IMO_TRIM_DELAY_CYCLES);
1094:Generated_Source\PSoC4/CyLib.c **** 
1095:Generated_Source\PSoC4/CyLib.c ****                 /* Make small step to final frequency */
1096:Generated_Source\PSoC4/CyLib.c ****                 /* Select nearby intermediate frequency */
1097:Generated_Source\PSoC4/CyLib.c ****                 CY_SYS_CLK_IMO_SELECT_REG = (CY_SYS_CLK_IMO_SELECT_REG & ((uint32) ~CY_SYS_CLK_IMO_
1098:Generated_Source\PSoC4/CyLib.c ****                     (((freq - CY_SYS_CLK_IMO_MIN_FREQ_MHZ) >> 2u) & CY_SYS_CLK_IMO_SELECT_FREQ_MASK
1099:Generated_Source\PSoC4/CyLib.c ****             }
1100:Generated_Source\PSoC4/CyLib.c **** 
1101:Generated_Source\PSoC4/CyLib.c ****             #if (CY_IP_IMO_TRIMMABLE_BY_WCO)
1102:Generated_Source\PSoC4/CyLib.c ****                 if (1u == wcoLock)
1103:Generated_Source\PSoC4/CyLib.c ****                 {
1104:Generated_Source\PSoC4/CyLib.c ****                     CySysClkImoEnableWcoLock();
1105:Generated_Source\PSoC4/CyLib.c ****                 }
1106:Generated_Source\PSoC4/CyLib.c ****             #endif  /* (CY_IP_IMO_TRIMMABLE_BY_WCO) */
1107:Generated_Source\PSoC4/CyLib.c **** 
1108:Generated_Source\PSoC4/CyLib.c **** 
1109:Generated_Source\PSoC4/CyLib.c ****             #if (CY_IP_IMO_TRIMMABLE_BY_USB)
ARM GAS  C:\Users\RYANCA~1\AppData\Local\Temp\ccZAR4Lf.s 			page 28


1110:Generated_Source\PSoC4/CyLib.c ****                 if (1u == usbLock)
1111:Generated_Source\PSoC4/CyLib.c ****                 {
1112:Generated_Source\PSoC4/CyLib.c ****                     CySysClkImoEnableUsbLock();
1113:Generated_Source\PSoC4/CyLib.c ****                 }
1114:Generated_Source\PSoC4/CyLib.c ****             #endif  /* (CY_IP_IMO_TRIMMABLE_BY_USB) */
1115:Generated_Source\PSoC4/CyLib.c **** 
1116:Generated_Source\PSoC4/CyLib.c ****             CyExitCriticalSection(interruptState);
1117:Generated_Source\PSoC4/CyLib.c ****         }
1118:Generated_Source\PSoC4/CyLib.c ****         else
1119:Generated_Source\PSoC4/CyLib.c ****         {
1120:Generated_Source\PSoC4/CyLib.c ****             /* Halt CPU in debug mode if new frequency is invalid */
1121:Generated_Source\PSoC4/CyLib.c ****             CYASSERT(0u != 0u);
1122:Generated_Source\PSoC4/CyLib.c ****         }
1123:Generated_Source\PSoC4/CyLib.c ****     }
1124:Generated_Source\PSoC4/CyLib.c **** 
1125:Generated_Source\PSoC4/CyLib.c **** #endif /* (CY_IP_SRSSV2) */
1126:Generated_Source\PSoC4/CyLib.c **** 
1127:Generated_Source\PSoC4/CyLib.c **** 
1128:Generated_Source\PSoC4/CyLib.c **** #if(CY_IP_SRSSLT)
1129:Generated_Source\PSoC4/CyLib.c ****     /*******************************************************************************
1130:Generated_Source\PSoC4/CyLib.c ****     * Function Name: CySysClkWriteHfclkDiv
1131:Generated_Source\PSoC4/CyLib.c ****     ****************************************************************************//**
1132:Generated_Source\PSoC4/CyLib.c ****     *
1133:Generated_Source\PSoC4/CyLib.c ****     * Selects the pre-scaler divider value for HFCLK from IMO.
1134:Generated_Source\PSoC4/CyLib.c ****     *
1135:Generated_Source\PSoC4/CyLib.c ****     * The HFCLK predivider allows the device to divide the HFCLK selection mux
1136:Generated_Source\PSoC4/CyLib.c ****     * input before use as HFCLK. The predivider is capable of dividing the HFCLK by
1137:Generated_Source\PSoC4/CyLib.c ****     * powers of 2 between 1 and 8.
1138:Generated_Source\PSoC4/CyLib.c ****     *
1139:Generated_Source\PSoC4/CyLib.c ****     * PSoC 4000: The SYSCLK has the speed of 16 MHz, so HFCLK and SYSCLK dividers
1140:Generated_Source\PSoC4/CyLib.c ****     * should be selected in a way, not to exceed 16 MHz for SYSCLK.
1141:Generated_Source\PSoC4/CyLib.c ****     *
1142:Generated_Source\PSoC4/CyLib.c ****     * If the SYSCLK clock frequency increases during the device operation, call
1143:Generated_Source\PSoC4/CyLib.c ****     * \ref CySysFlashSetWaitCycles() with the appropriate parameter to adjust the
1144:Generated_Source\PSoC4/CyLib.c ****     * number of clock cycles the cache will wait before sampling data comes back
1145:Generated_Source\PSoC4/CyLib.c ****     * from Flash. If the SYSCLK clock frequency decreases, you can call
1146:Generated_Source\PSoC4/CyLib.c ****     * \ref CySysFlashSetWaitCycles() to improve the CPU performance. See
1147:Generated_Source\PSoC4/CyLib.c ****     * \ref CySysFlashSetWaitCycles() description for more information.
1148:Generated_Source\PSoC4/CyLib.c ****     *
1149:Generated_Source\PSoC4/CyLib.c ****     * \param \ref CY_SYS_CLK_HFCLK_DIV_NODIV    Transparent mode (w/o dividing)
1150:Generated_Source\PSoC4/CyLib.c ****     * \param \ref CY_SYS_CLK_HFCLK_DIV_2        Divide selected clock source by 2
1151:Generated_Source\PSoC4/CyLib.c ****     * \param \ref CY_SYS_CLK_HFCLK_DIV_4        Divide selected clock source by 4
1152:Generated_Source\PSoC4/CyLib.c ****     * \param \ref CY_SYS_CLK_HFCLK_DIV_8        Divide selected clock source by 8
1153:Generated_Source\PSoC4/CyLib.c ****     *
1154:Generated_Source\PSoC4/CyLib.c ****     *******************************************************************************/
1155:Generated_Source\PSoC4/CyLib.c ****     void CySysClkWriteHfclkDiv(uint32 divider)
1156:Generated_Source\PSoC4/CyLib.c ****     {
1157:Generated_Source\PSoC4/CyLib.c ****         uint8  interruptState;
1158:Generated_Source\PSoC4/CyLib.c **** 
1159:Generated_Source\PSoC4/CyLib.c ****         interruptState = CyEnterCriticalSection();
1160:Generated_Source\PSoC4/CyLib.c **** 
1161:Generated_Source\PSoC4/CyLib.c ****         CY_SYS_CLK_SELECT_REG = ((CY_SYS_CLK_SELECT_REG & ((uint32) (~(CY_SYS_CLK_SELECT_HFCLK_DIV_
1162:Generated_Source\PSoC4/CyLib.c ****                                         CY_SYS_CLK_SELECT_HFCLK_DIV_SHIFT)))) |
1163:Generated_Source\PSoC4/CyLib.c ****                     ((uint32)((divider & CY_SYS_CLK_SELECT_HFCLK_DIV_MASK) << CY_SYS_CLK_SELECT_HFC
1164:Generated_Source\PSoC4/CyLib.c **** 
1165:Generated_Source\PSoC4/CyLib.c ****         CyExitCriticalSection(interruptState);
1166:Generated_Source\PSoC4/CyLib.c ****     }
ARM GAS  C:\Users\RYANCA~1\AppData\Local\Temp\ccZAR4Lf.s 			page 29


1167:Generated_Source\PSoC4/CyLib.c **** #endif /* (CY_IP_SRSSLT) */
1168:Generated_Source\PSoC4/CyLib.c **** 
1169:Generated_Source\PSoC4/CyLib.c **** 
1170:Generated_Source\PSoC4/CyLib.c **** #if (CY_IP_ECO)
1171:Generated_Source\PSoC4/CyLib.c **** 
1172:Generated_Source\PSoC4/CyLib.c ****     /*******************************************************************************
1173:Generated_Source\PSoC4/CyLib.c ****     * Function Name: CySysClkEcoStart
1174:Generated_Source\PSoC4/CyLib.c ****     ****************************************************************************//**
1175:Generated_Source\PSoC4/CyLib.c ****     *
1176:Generated_Source\PSoC4/CyLib.c ****     * Starts the External Crystal Oscillator (ECO). Refer to the device datasheet
1177:Generated_Source\PSoC4/CyLib.c ****     * for the ECO startup time.
1178:Generated_Source\PSoC4/CyLib.c ****     *
1179:Generated_Source\PSoC4/CyLib.c ****     * The timeout interval is measured based on the system frequency defined by
1180:Generated_Source\PSoC4/CyLib.c ****     * PSoC Creator at build time. If System clock frequency is changed in
1181:Generated_Source\PSoC4/CyLib.c ****     * runtime, the \ref CyDelayFreq() with the appropriate parameter should be
1182:Generated_Source\PSoC4/CyLib.c ****     * called.
1183:Generated_Source\PSoC4/CyLib.c ****     *
1184:Generated_Source\PSoC4/CyLib.c ****     * PSoC 4100 BLE / PSoC 4200 BLE: The WCO must be enabled prior to enabling ECO.
1185:Generated_Source\PSoC4/CyLib.c ****     *
1186:Generated_Source\PSoC4/CyLib.c ****     * \param timeoutUs Timeout in microseconds.
1187:Generated_Source\PSoC4/CyLib.c ****     *
1188:Generated_Source\PSoC4/CyLib.c ****     * If zero is specified, the function does not wait for timeout and returns
1189:Generated_Source\PSoC4/CyLib.c ****     * CYRET_SUCCESS. If non-zero is specified, the function waits for the timeout.
1190:Generated_Source\PSoC4/CyLib.c ****     *
1191:Generated_Source\PSoC4/CyLib.c ****     * \return \ref CYRET_SUCCESS Completed successfully. The ECO is oscillating and
1192:Generated_Source\PSoC4/CyLib.c ****     * amplitude reached 60% and it does not mean 24 MHz crystal is within 50 ppm.
1193:Generated_Source\PSoC4/CyLib.c ****     *
1194:Generated_Source\PSoC4/CyLib.c ****     * \return \ref CYRET_TIMEOUT Timeout occurred. If the crystal is not oscillating
1195:Generated_Source\PSoC4/CyLib.c ****     * or amplitude didn't reach 60% after specified amount of time, CYRET_TIMEOUT
1196:Generated_Source\PSoC4/CyLib.c ****     * is returned.
1197:Generated_Source\PSoC4/CyLib.c ****     *
1198:Generated_Source\PSoC4/CyLib.c ****     * \return \ref CYRET_BAD_PARAM One or more invalid parameters.
1199:Generated_Source\PSoC4/CyLib.c ****     *
1200:Generated_Source\PSoC4/CyLib.c ****     *******************************************************************************/
1201:Generated_Source\PSoC4/CyLib.c ****     cystatus CySysClkEcoStart(uint32 timeoutUs)
1202:Generated_Source\PSoC4/CyLib.c ****     {
1203:Generated_Source\PSoC4/CyLib.c ****         cystatus returnStatus = CYRET_SUCCESS;
1204:Generated_Source\PSoC4/CyLib.c **** 
1205:Generated_Source\PSoC4/CyLib.c ****         #if (CY_IP_ECO_BLESS)
1206:Generated_Source\PSoC4/CyLib.c ****             /* Enable the RF oscillator band gap */
1207:Generated_Source\PSoC4/CyLib.c ****             CY_SYS_XTAL_BLESS_RF_CONFIG_REG |= CY_SYS_XTAL_BLESS_RF_CONFIG_RF_ENABLE;
1208:Generated_Source\PSoC4/CyLib.c **** 
1209:Generated_Source\PSoC4/CyLib.c ****             /* Update trimming register */
1210:Generated_Source\PSoC4/CyLib.c ****             CY_SYS_XTAL_BLERD_BB_XO_REG = CY_SYS_XTAL_BLERD_BB_XO_TRIM;
1211:Generated_Source\PSoC4/CyLib.c **** 
1212:Generated_Source\PSoC4/CyLib.c ****             /* Enable the Crystal */
1213:Generated_Source\PSoC4/CyLib.c ****             CY_SYS_XTAL_BLERD_DBUS_REG |= CY_SYS_XTAL_BLERD_DBUS_XTAL_ENABLE;
1214:Generated_Source\PSoC4/CyLib.c **** 
1215:Generated_Source\PSoC4/CyLib.c ****         #elif (CY_IP_ECO_BLESSV3)
1216:Generated_Source\PSoC4/CyLib.c ****             uint32 regConfig;
1217:Generated_Source\PSoC4/CyLib.c ****             uint32 intrRegMaskStore = 0u;
1218:Generated_Source\PSoC4/CyLib.c **** 
1219:Generated_Source\PSoC4/CyLib.c ****             if (0u != (CY_SYS_BLESS_MT_CFG_REG & (CY_SYS_BLESS_MT_CFG_ENABLE_BLERD <<  CYFLD_BLE_BL
1220:Generated_Source\PSoC4/CyLib.c ****             {
1221:Generated_Source\PSoC4/CyLib.c ****                 CY_SYS_BLESS_MT_CFG_REG |= (CY_SYS_BLESS_MT_CFG_DPSLP_ECO_ON  <<  CYFLD_BLE_BLESS_D
1222:Generated_Source\PSoC4/CyLib.c ****             }
1223:Generated_Source\PSoC4/CyLib.c ****             else
ARM GAS  C:\Users\RYANCA~1\AppData\Local\Temp\ccZAR4Lf.s 			page 30


1224:Generated_Source\PSoC4/CyLib.c ****             {
1225:Generated_Source\PSoC4/CyLib.c ****                 /* Init BLE core */
1226:Generated_Source\PSoC4/CyLib.c ****                 CY_SYS_BLESS_MT_DELAY_CFG_REG = CY_SYS_BLESS_MT_DELAY_CFG_INIT;
1227:Generated_Source\PSoC4/CyLib.c ****                 CY_SYS_BLESS_MT_DELAY_CFG2_REG = CY_SYS_BLESS_MT_DELAY_CFG2_INIT;
1228:Generated_Source\PSoC4/CyLib.c ****                 CY_SYS_BLESS_MT_DELAY_CFG3_REG = CY_SYS_BLESS_MT_DELAY_CFG3_INIT;
1229:Generated_Source\PSoC4/CyLib.c **** 
1230:Generated_Source\PSoC4/CyLib.c ****                 /* RCB init */
1231:Generated_Source\PSoC4/CyLib.c ****                 regConfig = CY_SYS_RCB_CTRL_REG;
1232:Generated_Source\PSoC4/CyLib.c ****                 regConfig &= CY_SYS_RCB_CTRL_CLEAR;
1233:Generated_Source\PSoC4/CyLib.c ****                 regConfig |= CY_SYS_RCB_CTRL_INIT;
1234:Generated_Source\PSoC4/CyLib.c ****                 CY_SYS_RCB_CTRL_REG = regConfig;
1235:Generated_Source\PSoC4/CyLib.c **** 
1236:Generated_Source\PSoC4/CyLib.c ****                 intrRegMaskStore = CY_SYS_BLESS_INTR_MASK_REG;
1237:Generated_Source\PSoC4/CyLib.c ****                 if(0u != (CY_SYS_BLESS_BLERD_ACTIVE_INTR_MASK & intrRegMaskStore))
1238:Generated_Source\PSoC4/CyLib.c ****                 {
1239:Generated_Source\PSoC4/CyLib.c ****                     CY_SYS_BLESS_INTR_MASK_REG &= ~CY_SYS_BLESS_BLERD_ACTIVE_INTR_MASK;
1240:Generated_Source\PSoC4/CyLib.c ****                 }
1241:Generated_Source\PSoC4/CyLib.c **** 
1242:Generated_Source\PSoC4/CyLib.c ****                 /* Enable BLE core */
1243:Generated_Source\PSoC4/CyLib.c ****                 regConfig = CY_SYS_BLESS_MT_CFG_REG;
1244:Generated_Source\PSoC4/CyLib.c ****                 regConfig &= CY_SYS_BLESS_MT_CFG_CLEAR;
1245:Generated_Source\PSoC4/CyLib.c ****                 regConfig |= CY_SYS_BLESS_MT_CFG_INIT;
1246:Generated_Source\PSoC4/CyLib.c ****                 CY_SYS_BLESS_MT_CFG_REG = regConfig;
1247:Generated_Source\PSoC4/CyLib.c **** 
1248:Generated_Source\PSoC4/CyLib.c ****                 while(0u == ((CY_SYS_BLESS_BLERD_ACTIVE_INTR_STAT & CY_SYS_BLESS_INTR_STAT_REG)))
1249:Generated_Source\PSoC4/CyLib.c ****                 {
1250:Generated_Source\PSoC4/CyLib.c ****                     /* Wait until BLERD55 moves to active state */
1251:Generated_Source\PSoC4/CyLib.c ****                 }
1252:Generated_Source\PSoC4/CyLib.c **** 
1253:Generated_Source\PSoC4/CyLib.c ****                 if(0u != (CY_SYS_BLESS_BLERD_ACTIVE_INTR_MASK & intrRegMaskStore))
1254:Generated_Source\PSoC4/CyLib.c ****                 {
1255:Generated_Source\PSoC4/CyLib.c ****                     CY_SYS_BLESS_INTR_MASK_REG |= CY_SYS_BLESS_BLERD_ACTIVE_INTR_MASK;
1256:Generated_Source\PSoC4/CyLib.c ****                 }
1257:Generated_Source\PSoC4/CyLib.c **** 
1258:Generated_Source\PSoC4/CyLib.c ****                 /* Send write commands to RBUS */
1259:Generated_Source\PSoC4/CyLib.c ****                 CY_SYS_RCB_TX_FIFO_WR_REG = CY_SYS_RCB_RBUS_FREQ_NRST_SET;
1260:Generated_Source\PSoC4/CyLib.c ****                 CY_SYS_RCB_TX_FIFO_WR_REG = CY_SYS_RCB_RBUS_DIG_CLK_SET;
1261:Generated_Source\PSoC4/CyLib.c **** 
1262:Generated_Source\PSoC4/CyLib.c ****                 #if (CY_SYS_BLE_CLK_ECO_FREQ_32MHZ == CYDEV_ECO_CLK_MHZ)
1263:Generated_Source\PSoC4/CyLib.c ****                     CY_SYS_RCB_TX_FIFO_WR_REG = CY_SYS_RCB_RBUS_FREQ_XTAL_DIV_SET;
1264:Generated_Source\PSoC4/CyLib.c ****                     CY_SYS_RCB_TX_FIFO_WR_REG = (CY_SYS_RCB_RBUS_RF_DCXO_CFG_SET | CY_SYS_RCB_RBUS_
1265:Generated_Source\PSoC4/CyLib.c ****                 #else
1266:Generated_Source\PSoC4/CyLib.c ****                     CY_SYS_RCB_TX_FIFO_WR_REG = CY_SYS_RCB_RBUS_FREQ_XTAL_NODIV_SET;
1267:Generated_Source\PSoC4/CyLib.c ****                 #endif
1268:Generated_Source\PSoC4/CyLib.c **** 
1269:Generated_Source\PSoC4/CyLib.c ****                 intrRegMaskStore = CY_SYS_BLESS_INTR_MASK_REG;
1270:Generated_Source\PSoC4/CyLib.c ****                 if(0u != (CY_SYS_RCB_INTR_RCB_DONE & intrRegMaskStore))
1271:Generated_Source\PSoC4/CyLib.c ****                 {
1272:Generated_Source\PSoC4/CyLib.c ****                     CY_SYS_BLESS_INTR_MASK_REG &= ~(CY_SYS_RCB_INTR_RCB_DONE | CY_SYS_RCB_INTR_RCB_
1273:Generated_Source\PSoC4/CyLib.c ****                 }
1274:Generated_Source\PSoC4/CyLib.c **** 
1275:Generated_Source\PSoC4/CyLib.c ****                 /* Send read commands to RBUS */
1276:Generated_Source\PSoC4/CyLib.c ****                 CY_SYS_RCB_TX_FIFO_WR_REG = (CY_SYS_RCB_RBUS_RD_CMD |
1277:Generated_Source\PSoC4/CyLib.c ****                                             (CY_SYS_RCB_RBUS_RF_DCXO_CFG_SET & ~CY_SYS_RCB_RBUS_VAL
1278:Generated_Source\PSoC4/CyLib.c **** 
1279:Generated_Source\PSoC4/CyLib.c ****                 while (0u == (CY_SYS_RCB_INTR_RCB_RX_FIFO_NOT_EMPTY & CY_SYS_RCB_INTR_REG))
1280:Generated_Source\PSoC4/CyLib.c ****                 {
ARM GAS  C:\Users\RYANCA~1\AppData\Local\Temp\ccZAR4Lf.s 			page 31


1281:Generated_Source\PSoC4/CyLib.c ****                     /* Wait until RX_FIFO_NOT_EMPTY state */
1282:Generated_Source\PSoC4/CyLib.c ****                 }
1283:Generated_Source\PSoC4/CyLib.c **** 
1284:Generated_Source\PSoC4/CyLib.c ****                 CY_SYS_RCB_INTR_REG |= CY_SYS_RCB_INTR_RCB_DONE;
1285:Generated_Source\PSoC4/CyLib.c **** 
1286:Generated_Source\PSoC4/CyLib.c ****                 regConfig = CY_SYS_RCB_RX_FIFO_RD_REG & CY_SYS_RCB_RBUS_TRIM_MASK;
1287:Generated_Source\PSoC4/CyLib.c **** 
1288:Generated_Source\PSoC4/CyLib.c ****                 /* Send write commands to RBUS */
1289:Generated_Source\PSoC4/CyLib.c ****                 CY_SYS_RCB_TX_FIFO_WR_REG = (CY_SYS_RCB_RBUS_RF_DCXO_CFG_SET | regConfig | CY_SYS_R
1290:Generated_Source\PSoC4/CyLib.c **** 
1291:Generated_Source\PSoC4/CyLib.c ****                 while (0u == (CY_SYS_RCB_INTR_RCB_DONE & CY_SYS_RCB_INTR_REG))
1292:Generated_Source\PSoC4/CyLib.c ****                 {
1293:Generated_Source\PSoC4/CyLib.c ****                     /* Wait until RCB_DONE state */
1294:Generated_Source\PSoC4/CyLib.c ****                 }
1295:Generated_Source\PSoC4/CyLib.c **** 
1296:Generated_Source\PSoC4/CyLib.c ****                 /* Clear Interrupt */
1297:Generated_Source\PSoC4/CyLib.c ****                 CY_SYS_RCB_INTR_REG = CY_SYS_RCB_INTR_CLEAR;
1298:Generated_Source\PSoC4/CyLib.c **** 
1299:Generated_Source\PSoC4/CyLib.c ****                 if(0u != ((CY_SYS_RCB_INTR_RCB_DONE | CY_SYS_RCB_INTR_RCB_RX_FIFO_NOT_EMPTY) & intr
1300:Generated_Source\PSoC4/CyLib.c ****                 {
1301:Generated_Source\PSoC4/CyLib.c ****                     CY_SYS_BLESS_INTR_MASK_REG |= intrRegMaskStore;
1302:Generated_Source\PSoC4/CyLib.c ****                 }
1303:Generated_Source\PSoC4/CyLib.c **** 
1304:Generated_Source\PSoC4/CyLib.c ****             }
1305:Generated_Source\PSoC4/CyLib.c ****         #else /* CY_IP_ECO_SRSSV2 || CY_IP_ECO_SRSSLT */
1306:Generated_Source\PSoC4/CyLib.c ****             CY_SYS_CLK_ECO_CONFIG_REG |= CY_SYS_CLK_ECO_CONFIG_ENABLE;
1307:Generated_Source\PSoC4/CyLib.c ****             CyDelayUs(CY_SYS_CLK_ECO_CONFIG_CLK_EN_TIMEOUT_US);
1308:Generated_Source\PSoC4/CyLib.c ****             #if (CY_IP_ECOV2_SRSSLT)
1309:Generated_Source\PSoC4/CyLib.c ****                 CySysClkPllClearPendingInterrupt(CY_SYS_PLL_INTR_WD_ERR);
1310:Generated_Source\PSoC4/CyLib.c ****             #endif /* (CY_IP_ECOV2_SRSSLT) */
1311:Generated_Source\PSoC4/CyLib.c ****             CY_SYS_CLK_ECO_CONFIG_REG |= CY_SYS_CLK_ECO_CONFIG_CLK_EN;
1312:Generated_Source\PSoC4/CyLib.c ****         #endif /* (CY_IP_ECO_BLESS) */
1313:Generated_Source\PSoC4/CyLib.c **** 
1314:Generated_Source\PSoC4/CyLib.c ****         if(timeoutUs > 0u)
1315:Generated_Source\PSoC4/CyLib.c ****         {
1316:Generated_Source\PSoC4/CyLib.c ****             returnStatus = CYRET_TIMEOUT;
1317:Generated_Source\PSoC4/CyLib.c **** 
1318:Generated_Source\PSoC4/CyLib.c ****             for( ; timeoutUs > 0u; timeoutUs--)
1319:Generated_Source\PSoC4/CyLib.c ****             {
1320:Generated_Source\PSoC4/CyLib.c ****                 CyDelayUs(1u);
1321:Generated_Source\PSoC4/CyLib.c **** 
1322:Generated_Source\PSoC4/CyLib.c ****                 if(0u != CySysClkEcoReadStatus())
1323:Generated_Source\PSoC4/CyLib.c ****                 {
1324:Generated_Source\PSoC4/CyLib.c ****                     returnStatus = CYRET_SUCCESS;
1325:Generated_Source\PSoC4/CyLib.c ****                     break;
1326:Generated_Source\PSoC4/CyLib.c ****                 }
1327:Generated_Source\PSoC4/CyLib.c ****             }
1328:Generated_Source\PSoC4/CyLib.c **** 
1329:Generated_Source\PSoC4/CyLib.c ****         }
1330:Generated_Source\PSoC4/CyLib.c **** 
1331:Generated_Source\PSoC4/CyLib.c ****         return(returnStatus);
1332:Generated_Source\PSoC4/CyLib.c ****     }
1333:Generated_Source\PSoC4/CyLib.c **** 
1334:Generated_Source\PSoC4/CyLib.c **** 
1335:Generated_Source\PSoC4/CyLib.c ****     /*******************************************************************************
1336:Generated_Source\PSoC4/CyLib.c ****     * Function Name: CySysClkEcoStop
1337:Generated_Source\PSoC4/CyLib.c ****     ****************************************************************************//**
ARM GAS  C:\Users\RYANCA~1\AppData\Local\Temp\ccZAR4Lf.s 			page 32


1338:Generated_Source\PSoC4/CyLib.c ****     *
1339:Generated_Source\PSoC4/CyLib.c ****     * Stops the megahertz crystal.
1340:Generated_Source\PSoC4/CyLib.c ****     *
1341:Generated_Source\PSoC4/CyLib.c ****     * If ECO is disabled when it is sourcing HFCLK, the CPU will halt. In addition,
1342:Generated_Source\PSoC4/CyLib.c ****     * for PSoC 4100 BLE / PSoC 4200 BLE devices, the BLE sub-system will stop
1343:Generated_Source\PSoC4/CyLib.c ****     * functioning.
1344:Generated_Source\PSoC4/CyLib.c ****     *
1345:Generated_Source\PSoC4/CyLib.c ****     *******************************************************************************/
1346:Generated_Source\PSoC4/CyLib.c ****     void CySysClkEcoStop(void)
1347:Generated_Source\PSoC4/CyLib.c ****     {
1348:Generated_Source\PSoC4/CyLib.c ****         #if (CY_IP_WCO_BLESS)
1349:Generated_Source\PSoC4/CyLib.c ****             /* Disable the RF oscillator band gap */
1350:Generated_Source\PSoC4/CyLib.c ****             CY_SYS_XTAL_BLESS_RF_CONFIG_REG &= (uint32) ~CY_SYS_XTAL_BLESS_RF_CONFIG_RF_ENABLE;
1351:Generated_Source\PSoC4/CyLib.c **** 
1352:Generated_Source\PSoC4/CyLib.c ****             /* Disable the Crystal */
1353:Generated_Source\PSoC4/CyLib.c ****             CY_SYS_XTAL_BLERD_DBUS_REG &= (uint32) ~CY_SYS_XTAL_BLERD_DBUS_XTAL_ENABLE;
1354:Generated_Source\PSoC4/CyLib.c ****         #elif (CY_IP_ECO_BLESSV3)
1355:Generated_Source\PSoC4/CyLib.c ****             CY_SYS_BLESS_MT_CFG_REG &= ~(CY_SYS_BLESS_MT_CFG_DPSLP_ECO_ON  <<  CYFLD_BLE_BLESS_DPSL
1356:Generated_Source\PSoC4/CyLib.c ****         #else
1357:Generated_Source\PSoC4/CyLib.c ****             CY_SYS_CLK_ECO_CONFIG_REG &= (uint32) ~(CY_SYS_CLK_ECO_CONFIG_ENABLE | CY_SYS_CLK_ECO_C
1358:Generated_Source\PSoC4/CyLib.c ****         #endif /* (CY_IP_WCO_BLESS) */
1359:Generated_Source\PSoC4/CyLib.c ****     }
1360:Generated_Source\PSoC4/CyLib.c **** 
1361:Generated_Source\PSoC4/CyLib.c **** 
1362:Generated_Source\PSoC4/CyLib.c ****     /*******************************************************************************
1363:Generated_Source\PSoC4/CyLib.c ****     * Function Name: CySysClkEcoReadStatus
1364:Generated_Source\PSoC4/CyLib.c ****     ****************************************************************************//**
1365:Generated_Source\PSoC4/CyLib.c ****     *
1366:Generated_Source\PSoC4/CyLib.c ****     * Reads the status bit for the megahertz crystal.
1367:Generated_Source\PSoC4/CyLib.c ****     *
1368:Generated_Source\PSoC4/CyLib.c ****     * For PSoC 4100 BLE / PSoC 4200 BLE devices, the status bit is the
1369:Generated_Source\PSoC4/CyLib.c ****     * XO_AMP_DETECT bit in FSM register.
1370:Generated_Source\PSoC4/CyLib.c ****     *
1371:Generated_Source\PSoC4/CyLib.c ****     * For PSoC 4200L / 4100S / 4500 with ECO devices, the error status bit is
1372:Generated_Source\PSoC4/CyLib.c ****     * the WATCHDOG_ERROR bit in ECO_STATUS register.
1373:Generated_Source\PSoC4/CyLib.c ****     *
1374:Generated_Source\PSoC4/CyLib.c ****     * \return PSoC 4100 BLE/PSoC 4200 BLE: Non-zero indicates that ECO output
1375:Generated_Source\PSoC4/CyLib.c ****     * reached 50 ppm and is oscillating in valid range.
1376:Generated_Source\PSoC4/CyLib.c ****     *
1377:Generated_Source\PSoC4/CyLib.c ****     * \return PSoC 4200L / 4100S / 4500 with ECO: Non-zero indicates that ECO
1378:Generated_Source\PSoC4/CyLib.c ****     * is running.
1379:Generated_Source\PSoC4/CyLib.c ****     *
1380:Generated_Source\PSoC4/CyLib.c ****     *******************************************************************************/
1381:Generated_Source\PSoC4/CyLib.c ****     uint32 CySysClkEcoReadStatus(void)
1382:Generated_Source\PSoC4/CyLib.c ****     {
1383:Generated_Source\PSoC4/CyLib.c ****         uint32 returnValue;
1384:Generated_Source\PSoC4/CyLib.c **** 
1385:Generated_Source\PSoC4/CyLib.c ****         #if (CY_IP_WCO_BLESS)
1386:Generated_Source\PSoC4/CyLib.c ****             returnValue = CY_SYS_XTAL_BLERD_FSM_REG & CY_SYS_XTAL_BLERD_FSM_XO_AMP_DETECT;
1387:Generated_Source\PSoC4/CyLib.c ****         #elif (CY_IP_ECO_BLESSV3)
1388:Generated_Source\PSoC4/CyLib.c ****             returnValue = (CY_SYS_BLESS_MT_STATUS_REG & CY_SYS_BLESS_MT_STATUS_CURR_STATE_MASK) >> 
1389:Generated_Source\PSoC4/CyLib.c **** 
1390:Generated_Source\PSoC4/CyLib.c ****             returnValue =  ((CY_SYS_BLESS_MT_STATUS_BLERD_IDLE == returnValue) ||
1391:Generated_Source\PSoC4/CyLib.c ****                             (CY_SYS_BLESS_MT_STATUS_SWITCH_EN  == returnValue) ||
1392:Generated_Source\PSoC4/CyLib.c ****                             (CY_SYS_BLESS_MT_STATUS_ACTIVE  ==  returnValue) ||
1393:Generated_Source\PSoC4/CyLib.c ****                             (CY_SYS_BLESS_MT_STATUS_ISOLATE == returnValue));
1394:Generated_Source\PSoC4/CyLib.c ****         #else
ARM GAS  C:\Users\RYANCA~1\AppData\Local\Temp\ccZAR4Lf.s 			page 33


1395:Generated_Source\PSoC4/CyLib.c ****             returnValue = (0u != (CY_SYS_CLK_ECO_STATUS_REG & CY_SYS_CLK_ECO_STATUS_WATCHDOG_ERROR)
1396:Generated_Source\PSoC4/CyLib.c ****         #endif /* (CY_IP_WCO_BLESS) */
1397:Generated_Source\PSoC4/CyLib.c **** 
1398:Generated_Source\PSoC4/CyLib.c ****         return (returnValue);
1399:Generated_Source\PSoC4/CyLib.c ****     }
1400:Generated_Source\PSoC4/CyLib.c **** 
1401:Generated_Source\PSoC4/CyLib.c ****     #if (CY_IP_ECO_BLESS || CY_IP_ECO_BLESSV3)
1402:Generated_Source\PSoC4/CyLib.c ****         /*******************************************************************************
1403:Generated_Source\PSoC4/CyLib.c ****         * Function Name: CySysClkWriteEcoDiv
1404:Generated_Source\PSoC4/CyLib.c ****         ****************************************************************************//**
1405:Generated_Source\PSoC4/CyLib.c ****         *
1406:Generated_Source\PSoC4/CyLib.c ****         * Selects value for the ECO divider.
1407:Generated_Source\PSoC4/CyLib.c ****         *
1408:Generated_Source\PSoC4/CyLib.c ****         * The ECO must not be the HFCLK clock source when this function is called.
1409:Generated_Source\PSoC4/CyLib.c ****         * The HFCLK source can be changed to the other clock source by call to the
1410:Generated_Source\PSoC4/CyLib.c ****         * CySysClkWriteHfclkDirect() function. If the ECO sources the HFCLK this
1411:Generated_Source\PSoC4/CyLib.c ****         * function will not have any effect if compiler in release mode, and halt the
1412:Generated_Source\PSoC4/CyLib.c ****         * CPU when compiler in debug mode.
1413:Generated_Source\PSoC4/CyLib.c ****         *
1414:Generated_Source\PSoC4/CyLib.c ****         * If the SYSCLK clock frequency increases during the device operation, call
1415:Generated_Source\PSoC4/CyLib.c ****         * CySysFlashSetWaitCycles() with the appropriate parameter to adjust the number
1416:Generated_Source\PSoC4/CyLib.c ****         * of clock cycles the cache will wait before sampling data comes back from
1417:Generated_Source\PSoC4/CyLib.c ****         * Flash. If the SYSCLK clock frequency decreases, you can call
1418:Generated_Source\PSoC4/CyLib.c ****         * CySysFlashSetWaitCycles() to improve the CPU performance. See
1419:Generated_Source\PSoC4/CyLib.c ****         * CySysFlashSetWaitCycles() description for more information.
1420:Generated_Source\PSoC4/CyLib.c ****         *
1421:Generated_Source\PSoC4/CyLib.c ****         * \param divider Power of 2 divider selection.
1422:Generated_Source\PSoC4/CyLib.c ****         * - \ref CY_SYS_CLK_ECO_DIV1
1423:Generated_Source\PSoC4/CyLib.c ****         * - \ref CY_SYS_CLK_ECO_DIV2
1424:Generated_Source\PSoC4/CyLib.c ****         * - \ref CY_SYS_CLK_ECO_DIV4
1425:Generated_Source\PSoC4/CyLib.c ****         * - \ref CY_SYS_CLK_ECO_DIV8
1426:Generated_Source\PSoC4/CyLib.c ****         *
1427:Generated_Source\PSoC4/CyLib.c ****         *******************************************************************************/
1428:Generated_Source\PSoC4/CyLib.c ****         void CySysClkWriteEcoDiv(uint32 divider)
1429:Generated_Source\PSoC4/CyLib.c ****         {
1430:Generated_Source\PSoC4/CyLib.c ****             uint8  interruptState;
1431:Generated_Source\PSoC4/CyLib.c **** 
1432:Generated_Source\PSoC4/CyLib.c ****             if (CY_SYS_CLK_HFCLK_ECO != (CY_SYS_CLK_SELECT_REG & CY_SYS_CLK_SELECT_DIRECT_SEL_MASK)
1433:Generated_Source\PSoC4/CyLib.c ****             {
1434:Generated_Source\PSoC4/CyLib.c ****                 interruptState = CyEnterCriticalSection();
1435:Generated_Source\PSoC4/CyLib.c **** 
1436:Generated_Source\PSoC4/CyLib.c ****                 CY_SYS_CLK_XTAL_CLK_DIV_CONFIG_REG =  (divider & CY_SYS_CLK_XTAL_CLK_DIV_MASK) |
1437:Generated_Source\PSoC4/CyLib.c ****                                                       (CY_SYS_CLK_XTAL_CLK_DIV_CONFIG_REG & ((uint3
1438:Generated_Source\PSoC4/CyLib.c **** 
1439:Generated_Source\PSoC4/CyLib.c ****                 CyExitCriticalSection(interruptState);
1440:Generated_Source\PSoC4/CyLib.c ****             }
1441:Generated_Source\PSoC4/CyLib.c ****             else
1442:Generated_Source\PSoC4/CyLib.c ****             {
1443:Generated_Source\PSoC4/CyLib.c ****                 /* Halt CPU in debug mode if ECO sources HFCLK */
1444:Generated_Source\PSoC4/CyLib.c ****                 CYASSERT(0u != 0u);
1445:Generated_Source\PSoC4/CyLib.c ****             }
1446:Generated_Source\PSoC4/CyLib.c ****         }
1447:Generated_Source\PSoC4/CyLib.c **** 
1448:Generated_Source\PSoC4/CyLib.c ****     #else
1449:Generated_Source\PSoC4/CyLib.c **** 
1450:Generated_Source\PSoC4/CyLib.c ****         /*******************************************************************************
1451:Generated_Source\PSoC4/CyLib.c ****         * Function Name: CySysClkConfigureEcoTrim
ARM GAS  C:\Users\RYANCA~1\AppData\Local\Temp\ccZAR4Lf.s 			page 34


1452:Generated_Source\PSoC4/CyLib.c ****         ****************************************************************************//**
1453:Generated_Source\PSoC4/CyLib.c ****         *
1454:Generated_Source\PSoC4/CyLib.c ****         * Selects trim setting values for ECO. This API is available only for PSoC
1455:Generated_Source\PSoC4/CyLib.c ****         * 4200L / 4100S /4500 with ECO devices only.
1456:Generated_Source\PSoC4/CyLib.c ****         *
1457:Generated_Source\PSoC4/CyLib.c ****         * The following parameters can be trimmed for ECO. The affected registers are
1458:Generated_Source\PSoC4/CyLib.c ****         * ECO_TRIM0 and ECO_TRIM1.
1459:Generated_Source\PSoC4/CyLib.c ****         *
1460:Generated_Source\PSoC4/CyLib.c ****         * Watchdog trim - This bit field sets the error threshold below the steady
1461:Generated_Source\PSoC4/CyLib.c ****         * state amplitude level.
1462:Generated_Source\PSoC4/CyLib.c ****         *
1463:Generated_Source\PSoC4/CyLib.c ****         * Amplitude trim - This bit field is to set the crystal drive level when
1464:Generated_Source\PSoC4/CyLib.c ****         * ECO_CONFIG.AGC_EN = 1. WARNING: use care when setting this field because
1465:Generated_Source\PSoC4/CyLib.c ****         * driving a crystal beyond its rated limit can permanently damage the crystal.
1466:Generated_Source\PSoC4/CyLib.c ****         *
1467:Generated_Source\PSoC4/CyLib.c ****         * Filter frequency trim - This bit field sets LPF frequency trim and affects
1468:Generated_Source\PSoC4/CyLib.c ****         * the 3rd harmonic content.
1469:Generated_Source\PSoC4/CyLib.c ****         *
1470:Generated_Source\PSoC4/CyLib.c ****         * Feedback resistor trim - This bit field sets the feedback resistor trim and
1471:Generated_Source\PSoC4/CyLib.c ****         * impacts the oscillation amplitude.
1472:Generated_Source\PSoC4/CyLib.c ****         *
1473:Generated_Source\PSoC4/CyLib.c ****         * Amplifier gain trim - This bit field sets the amplifier gain trim and affects
1474:Generated_Source\PSoC4/CyLib.c ****         * the startup time of the crystal.
1475:Generated_Source\PSoC4/CyLib.c ****         *
1476:Generated_Source\PSoC4/CyLib.c ****         * Use care when setting the amplitude trim field because driving a crystal
1477:Generated_Source\PSoC4/CyLib.c ****         * beyond its rated limit can permanently damage the crystal.
1478:Generated_Source\PSoC4/CyLib.c ****         *
1479:Generated_Source\PSoC4/CyLib.c ****         * \param wDTrim: Watchdog trim
1480:Generated_Source\PSoC4/CyLib.c ****         * - \ref CY_SYS_CLK_ECO_WDTRIM0      Error threshold is 0.05 V
1481:Generated_Source\PSoC4/CyLib.c ****         * - \ref CY_SYS_CLK_ECO_WDTRIM1      Error threshold is 0.10 V
1482:Generated_Source\PSoC4/CyLib.c ****         * - \ref CY_SYS_CLK_ECO_WDTRIM2      Error threshold is 0.15 V
1483:Generated_Source\PSoC4/CyLib.c ****         * - \ref CY_SYS_CLK_ECO_WDTRIM3      Error threshold is 0.20 V
1484:Generated_Source\PSoC4/CyLib.c ****         *
1485:Generated_Source\PSoC4/CyLib.c ****         * \param aTrim: Amplitude trim
1486:Generated_Source\PSoC4/CyLib.c ****         * - \ref CY_SYS_CLK_ECO_ATRIM0       Amplitude is 0.3 Vpp
1487:Generated_Source\PSoC4/CyLib.c ****         * - \ref CY_SYS_CLK_ECO_ATRIM1       Amplitude is 0.4 Vpp
1488:Generated_Source\PSoC4/CyLib.c ****         * - \ref CY_SYS_CLK_ECO_ATRIM2       Amplitude is 0.5 Vpp
1489:Generated_Source\PSoC4/CyLib.c ****         * - \ref CY_SYS_CLK_ECO_ATRIM3       Amplitude is 0.6 Vpp
1490:Generated_Source\PSoC4/CyLib.c ****         * - \ref CY_SYS_CLK_ECO_ATRIM4       Amplitude is 0.7 Vpp
1491:Generated_Source\PSoC4/CyLib.c ****         * - \ref CY_SYS_CLK_ECO_ATRIM5       Amplitude is 0.8 Vpp
1492:Generated_Source\PSoC4/CyLib.c ****         * - \ref CY_SYS_CLK_ECO_ATRIM6       Amplitude is 0.9 Vpp
1493:Generated_Source\PSoC4/CyLib.c ****         * - \ref CY_SYS_CLK_ECO_ATRIM7       Amplitude is 1.0 Vpp
1494:Generated_Source\PSoC4/CyLib.c ****         *
1495:Generated_Source\PSoC4/CyLib.c ****         * \param fTrim: Filter frequency trim
1496:Generated_Source\PSoC4/CyLib.c ****         * - \ref CY_SYS_CLK_ECO_FTRIM0       Crystal frequency > 30 MHz
1497:Generated_Source\PSoC4/CyLib.c ****         * - \ref CY_SYS_CLK_ECO_FTRIM1       24 MHz < Crystal frequency <= 30 MHz
1498:Generated_Source\PSoC4/CyLib.c ****         * - \ref CY_SYS_CLK_ECO_FTRIM2       17 MHz < Crystal frequency <= 24 MHz
1499:Generated_Source\PSoC4/CyLib.c ****         * - \ref CY_SYS_CLK_ECO_FTRIM3       Crystal frequency <= 17 MHz
1500:Generated_Source\PSoC4/CyLib.c ****         *
1501:Generated_Source\PSoC4/CyLib.c ****         * \param rTrim: Feedback resistor trim
1502:Generated_Source\PSoC4/CyLib.c ****         * - \ref CY_SYS_CLK_ECO_RTRIM0       Crystal frequency > 30 MHz
1503:Generated_Source\PSoC4/CyLib.c ****         * - \ref CY_SYS_CLK_ECO_RTRIM1       24 MHz < Crystal frequency <= 30 MHz
1504:Generated_Source\PSoC4/CyLib.c ****         * - \ref CY_SYS_CLK_ECO_RTRIM2       17 MHz < Crystal frequency <= 24 MHz
1505:Generated_Source\PSoC4/CyLib.c ****         * - \ref CY_SYS_CLK_ECO_RTRIM3       Crystal frequency <= 17 MHz
1506:Generated_Source\PSoC4/CyLib.c ****         *
1507:Generated_Source\PSoC4/CyLib.c ****         * \param gTrim: Amplifier gain trim. Calculate the minimum required gm
1508:Generated_Source\PSoC4/CyLib.c ****         * (trans-conductance value). Divide the calculated gm value by 4.5 to
ARM GAS  C:\Users\RYANCA~1\AppData\Local\Temp\ccZAR4Lf.s 			page 35


1509:Generated_Source\PSoC4/CyLib.c ****         * obtain an integer value 'result'. For more information please refer
1510:Generated_Source\PSoC4/CyLib.c ****         * to the device TRM.
1511:Generated_Source\PSoC4/CyLib.c ****         * - \ref CY_SYS_CLK_ECO_GTRIM0       If result = 1
1512:Generated_Source\PSoC4/CyLib.c ****         * - \ref CY_SYS_CLK_ECO_GTRIM1       If result = 0
1513:Generated_Source\PSoC4/CyLib.c ****         * - \ref CY_SYS_CLK_ECO_GTRIM2       If result = 2
1514:Generated_Source\PSoC4/CyLib.c ****         * - \ref CY_SYS_CLK_ECO_GTRIM2       If result = 3
1515:Generated_Source\PSoC4/CyLib.c ****         *
1516:Generated_Source\PSoC4/CyLib.c ****         *******************************************************************************/
1517:Generated_Source\PSoC4/CyLib.c ****         void CySysClkConfigureEcoTrim(uint32 wDTrim, uint32 aTrim, uint32 fTrim, uint32 rTrim, uint
1518:Generated_Source\PSoC4/CyLib.c ****         {
1519:Generated_Source\PSoC4/CyLib.c ****             uint8  interruptState;
1520:Generated_Source\PSoC4/CyLib.c ****             uint32 regTmp;
1521:Generated_Source\PSoC4/CyLib.c **** 
1522:Generated_Source\PSoC4/CyLib.c ****             interruptState = CyEnterCriticalSection();
1523:Generated_Source\PSoC4/CyLib.c **** 
1524:Generated_Source\PSoC4/CyLib.c ****             regTmp  = CY_SYS_CLK_ECO_TRIM0_REG & ~(CY_SYS_CLK_ECO_TRIM0_WDTRIM_MASK | CY_SYS_CLK_EC
1525:Generated_Source\PSoC4/CyLib.c ****             regTmp |= ((uint32) (wDTrim << CY_SYS_CLK_ECO_TRIM0_WDTRIM_SHIFT) & CY_SYS_CLK_ECO_TRIM
1526:Generated_Source\PSoC4/CyLib.c ****             regTmp |= ((uint32) (aTrim << CY_SYS_CLK_ECO_TRIM0_ATRIM_SHIFT) & CY_SYS_CLK_ECO_TRIM0_
1527:Generated_Source\PSoC4/CyLib.c ****             CY_SYS_CLK_ECO_TRIM0_REG = regTmp;
1528:Generated_Source\PSoC4/CyLib.c **** 
1529:Generated_Source\PSoC4/CyLib.c ****             regTmp  = CY_SYS_CLK_ECO_TRIM1_REG & ~(CY_SYS_CLK_ECO_TRIM1_FTRIM_MASK |
1530:Generated_Source\PSoC4/CyLib.c ****                                                    CY_SYS_CLK_ECO_TRIM1_RTRIM_MASK |
1531:Generated_Source\PSoC4/CyLib.c ****                                                    CY_SYS_CLK_ECO_TRIM1_GTRIM_MASK);
1532:Generated_Source\PSoC4/CyLib.c ****             regTmp |= ((uint32) (fTrim << CY_SYS_CLK_ECO_TRIM1_FTRIM_SHIFT) & CY_SYS_CLK_ECO_TRIM1_
1533:Generated_Source\PSoC4/CyLib.c ****             regTmp |= ((uint32) (rTrim << CY_SYS_CLK_ECO_TRIM1_RTRIM_SHIFT) & CY_SYS_CLK_ECO_TRIM1_
1534:Generated_Source\PSoC4/CyLib.c ****             regTmp |= ((uint32) (gTrim << CY_SYS_CLK_ECO_TRIM1_GTRIM_SHIFT) & CY_SYS_CLK_ECO_TRIM1_
1535:Generated_Source\PSoC4/CyLib.c **** 
1536:Generated_Source\PSoC4/CyLib.c ****             CY_SYS_CLK_ECO_TRIM1_REG = regTmp;
1537:Generated_Source\PSoC4/CyLib.c **** 
1538:Generated_Source\PSoC4/CyLib.c ****             CyExitCriticalSection(interruptState);
1539:Generated_Source\PSoC4/CyLib.c ****         }
1540:Generated_Source\PSoC4/CyLib.c **** 
1541:Generated_Source\PSoC4/CyLib.c **** 
1542:Generated_Source\PSoC4/CyLib.c ****         /*******************************************************************************
1543:Generated_Source\PSoC4/CyLib.c ****         * Function Name: CySysClkConfigureEcoDrive
1544:Generated_Source\PSoC4/CyLib.c ****         ****************************************************************************//**
1545:Generated_Source\PSoC4/CyLib.c ****         *
1546:Generated_Source\PSoC4/CyLib.c ****         * Selects trim setting values for ECO based on crystal parameters. Use care
1547:Generated_Source\PSoC4/CyLib.c ****         * when setting the driveLevel parameter because driving a crystal beyond its
1548:Generated_Source\PSoC4/CyLib.c ****         * rated limit can permanently damage the crystal.
1549:Generated_Source\PSoC4/CyLib.c ****         *
1550:Generated_Source\PSoC4/CyLib.c ****         * This API is available only for PSoC 4200L / 4100S / 4500 with ECO
1551:Generated_Source\PSoC4/CyLib.c ****         * devices only.
1552:Generated_Source\PSoC4/CyLib.c ****         *
1553:Generated_Source\PSoC4/CyLib.c ****         * \param freq Frequency of the crystal in kHz.
1554:Generated_Source\PSoC4/CyLib.c ****         * \param cLoad Crystal load capacitance in pF.
1555:Generated_Source\PSoC4/CyLib.c ****         * \param esr Equivalent series resistance of the crystal in ohm.
1556:Generated_Source\PSoC4/CyLib.c ****         *  maxAmplitude: maximum amplitude level in mV. Calculate as
1557:Generated_Source\PSoC4/CyLib.c ****         *  ((sqrt(driveLevel in uW / 2 / esr))/(3.14 * freq * cLoad)) * 10^9.
1558:Generated_Source\PSoC4/CyLib.c ****         *
1559:Generated_Source\PSoC4/CyLib.c ****         *  The Automatic Gain Control (AGC) is disabled when the specified maximum
1560:Generated_Source\PSoC4/CyLib.c ****         *  amplitude level equals or above 2. In this case the amplitude is not
1561:Generated_Source\PSoC4/CyLib.c ****         *  explicitly controlled and will grow until it saturates to the supply rail
1562:Generated_Source\PSoC4/CyLib.c ****         *  (1.8V nom). WARNING: use care when disabling AGC because driving a crystal
1563:Generated_Source\PSoC4/CyLib.c ****         *  beyond its rated limit can permanently damage the crystal.
1564:Generated_Source\PSoC4/CyLib.c ****         *
1565:Generated_Source\PSoC4/CyLib.c ****         * \return \ref CYRET_SUCCESS ECO configuration completed successfully.
ARM GAS  C:\Users\RYANCA~1\AppData\Local\Temp\ccZAR4Lf.s 			page 36


1566:Generated_Source\PSoC4/CyLib.c ****         * \return \ref CYRET_BAD_PARAM One or more invalid parameters.
1567:Generated_Source\PSoC4/CyLib.c ****         *
1568:Generated_Source\PSoC4/CyLib.c ****         *******************************************************************************/
1569:Generated_Source\PSoC4/CyLib.c ****         cystatus CySysClkConfigureEcoDrive(uint32 freq, uint32 cLoad, uint32 esr, uint32 maxAmplitu
1570:Generated_Source\PSoC4/CyLib.c ****         {
1571:Generated_Source\PSoC4/CyLib.c ****             cystatus returnStatus = CYRET_SUCCESS;
1572:Generated_Source\PSoC4/CyLib.c **** 
1573:Generated_Source\PSoC4/CyLib.c ****             uint32 wDTrim;
1574:Generated_Source\PSoC4/CyLib.c ****             uint32 aTrim;
1575:Generated_Source\PSoC4/CyLib.c ****             uint32 fTrim;
1576:Generated_Source\PSoC4/CyLib.c ****             uint32 rTrim;
1577:Generated_Source\PSoC4/CyLib.c ****             uint32 gTrim;
1578:Generated_Source\PSoC4/CyLib.c **** 
1579:Generated_Source\PSoC4/CyLib.c ****             uint32 gmMin;
1580:Generated_Source\PSoC4/CyLib.c **** 
1581:Generated_Source\PSoC4/CyLib.c **** 
1582:Generated_Source\PSoC4/CyLib.c ****             if ((maxAmplitude < CY_SYS_CLK_ECO_MAX_AMPL_MIN_mV) ||
1583:Generated_Source\PSoC4/CyLib.c ****                 (freq < CY_SYS_CLK_ECO_FREQ_KHZ_MIN) || (freq > CY_SYS_CLK_ECO_FREQ_KHZ_MAX))
1584:Generated_Source\PSoC4/CyLib.c ****             {
1585:Generated_Source\PSoC4/CyLib.c ****                 returnStatus = CYRET_BAD_PARAM;
1586:Generated_Source\PSoC4/CyLib.c ****             }
1587:Generated_Source\PSoC4/CyLib.c ****             else
1588:Generated_Source\PSoC4/CyLib.c ****             {
1589:Generated_Source\PSoC4/CyLib.c ****                 /* Calculate amplitude trim */
1590:Generated_Source\PSoC4/CyLib.c ****                 aTrim = (maxAmplitude < CY_SYS_CLK_ECO_TRIM_BOUNDARY) ? ((maxAmplitude/100u) - 4u) 
1591:Generated_Source\PSoC4/CyLib.c **** 
1592:Generated_Source\PSoC4/CyLib.c ****                 if (maxAmplitude < CY_SYS_CLK_ECO_AMPL_FOR_ATRIM0)
1593:Generated_Source\PSoC4/CyLib.c ****                 {
1594:Generated_Source\PSoC4/CyLib.c ****                     aTrim = CY_SYS_CLK_ECO_ATRIM0;
1595:Generated_Source\PSoC4/CyLib.c ****                 }
1596:Generated_Source\PSoC4/CyLib.c ****                 else if (maxAmplitude < CY_SYS_CLK_ECO_AMPL_FOR_ATRIM1)
1597:Generated_Source\PSoC4/CyLib.c ****                 {
1598:Generated_Source\PSoC4/CyLib.c ****                     aTrim = CY_SYS_CLK_ECO_ATRIM1;
1599:Generated_Source\PSoC4/CyLib.c ****                 }
1600:Generated_Source\PSoC4/CyLib.c ****                 else if (maxAmplitude < CY_SYS_CLK_ECO_AMPL_FOR_ATRIM2)
1601:Generated_Source\PSoC4/CyLib.c ****                 {
1602:Generated_Source\PSoC4/CyLib.c ****                     aTrim = CY_SYS_CLK_ECO_ATRIM2;
1603:Generated_Source\PSoC4/CyLib.c ****                 }
1604:Generated_Source\PSoC4/CyLib.c ****                 else if (maxAmplitude < CY_SYS_CLK_ECO_AMPL_FOR_ATRIM3)
1605:Generated_Source\PSoC4/CyLib.c ****                 {
1606:Generated_Source\PSoC4/CyLib.c ****                     aTrim = CY_SYS_CLK_ECO_ATRIM3;
1607:Generated_Source\PSoC4/CyLib.c ****                 }
1608:Generated_Source\PSoC4/CyLib.c ****                 else if (maxAmplitude < CY_SYS_CLK_ECO_AMPL_FOR_ATRIM4)
1609:Generated_Source\PSoC4/CyLib.c ****                 {
1610:Generated_Source\PSoC4/CyLib.c ****                     aTrim = CY_SYS_CLK_ECO_ATRIM4;
1611:Generated_Source\PSoC4/CyLib.c ****                 }
1612:Generated_Source\PSoC4/CyLib.c ****                 else if (maxAmplitude < CY_SYS_CLK_ECO_AMPL_FOR_ATRIM5)
1613:Generated_Source\PSoC4/CyLib.c ****                 {
1614:Generated_Source\PSoC4/CyLib.c ****                     aTrim = CY_SYS_CLK_ECO_ATRIM5;
1615:Generated_Source\PSoC4/CyLib.c ****                 }
1616:Generated_Source\PSoC4/CyLib.c ****                 else if (maxAmplitude < CY_SYS_CLK_ECO_AMPL_FOR_ATRIM6)
1617:Generated_Source\PSoC4/CyLib.c ****                 {
1618:Generated_Source\PSoC4/CyLib.c ****                     aTrim = CY_SYS_CLK_ECO_ATRIM6;
1619:Generated_Source\PSoC4/CyLib.c ****                 }
1620:Generated_Source\PSoC4/CyLib.c ****                 else
1621:Generated_Source\PSoC4/CyLib.c ****                 {
1622:Generated_Source\PSoC4/CyLib.c ****                     aTrim = CY_SYS_CLK_ECO_ATRIM7;
ARM GAS  C:\Users\RYANCA~1\AppData\Local\Temp\ccZAR4Lf.s 			page 37


1623:Generated_Source\PSoC4/CyLib.c ****                 }
1624:Generated_Source\PSoC4/CyLib.c **** 
1625:Generated_Source\PSoC4/CyLib.c ****                 /* Calculate Watchdog trim. */
1626:Generated_Source\PSoC4/CyLib.c ****                 wDTrim = (maxAmplitude < CY_SYS_CLK_ECO_TRIM_BOUNDARY) ? ((maxAmplitude/200u) - 2u)
1627:Generated_Source\PSoC4/CyLib.c **** 
1628:Generated_Source\PSoC4/CyLib.c ****                 /* Calculate amplifier gain trim. */
1629:Generated_Source\PSoC4/CyLib.c ****                 gmMin = (uint32) (((((CY_SYS_CLK_ECO_GMMIN_COEFFICIENT * freq * cLoad) / 1000u) * (
1630:Generated_Source\PSoC4/CyLib.c ****                 if (gmMin > 3u)
1631:Generated_Source\PSoC4/CyLib.c ****                 {
1632:Generated_Source\PSoC4/CyLib.c ****                     returnStatus = CYRET_BAD_PARAM;
1633:Generated_Source\PSoC4/CyLib.c ****                     gTrim = 0u;
1634:Generated_Source\PSoC4/CyLib.c ****                 }
1635:Generated_Source\PSoC4/CyLib.c ****                 else if (gmMin > 1u)
1636:Generated_Source\PSoC4/CyLib.c ****                 {
1637:Generated_Source\PSoC4/CyLib.c ****                     gTrim = gmMin;
1638:Generated_Source\PSoC4/CyLib.c ****                 }
1639:Generated_Source\PSoC4/CyLib.c ****                 else
1640:Generated_Source\PSoC4/CyLib.c ****                 {
1641:Generated_Source\PSoC4/CyLib.c ****                     gTrim = (gmMin == 1u) ? 0u : 1u;
1642:Generated_Source\PSoC4/CyLib.c ****                 }
1643:Generated_Source\PSoC4/CyLib.c **** 
1644:Generated_Source\PSoC4/CyLib.c ****                 /* Calculate feedback resistor trim */
1645:Generated_Source\PSoC4/CyLib.c ****                 if (freq > CY_SYS_CLK_ECO_FREQ_FOR_FTRIM0)
1646:Generated_Source\PSoC4/CyLib.c ****                 {
1647:Generated_Source\PSoC4/CyLib.c ****                     rTrim = CY_SYS_CLK_ECO_FTRIM0;
1648:Generated_Source\PSoC4/CyLib.c ****                 }
1649:Generated_Source\PSoC4/CyLib.c ****                 else if (freq > CY_SYS_CLK_ECO_FREQ_FOR_FTRIM1)
1650:Generated_Source\PSoC4/CyLib.c ****                 {
1651:Generated_Source\PSoC4/CyLib.c ****                     rTrim = CY_SYS_CLK_ECO_FTRIM1;
1652:Generated_Source\PSoC4/CyLib.c ****                 }
1653:Generated_Source\PSoC4/CyLib.c ****                 else if (freq > CY_SYS_CLK_ECO_FREQ_FOR_FTRIM2)
1654:Generated_Source\PSoC4/CyLib.c ****                 {
1655:Generated_Source\PSoC4/CyLib.c ****                     rTrim = CY_SYS_CLK_ECO_FTRIM2;
1656:Generated_Source\PSoC4/CyLib.c ****                 }
1657:Generated_Source\PSoC4/CyLib.c ****                 else
1658:Generated_Source\PSoC4/CyLib.c ****                 {
1659:Generated_Source\PSoC4/CyLib.c ****                     rTrim = CY_SYS_CLK_ECO_FTRIM3;
1660:Generated_Source\PSoC4/CyLib.c ****                 }
1661:Generated_Source\PSoC4/CyLib.c **** 
1662:Generated_Source\PSoC4/CyLib.c ****                 /* Calculate filter frequency trim */
1663:Generated_Source\PSoC4/CyLib.c ****                 fTrim = rTrim;
1664:Generated_Source\PSoC4/CyLib.c **** 
1665:Generated_Source\PSoC4/CyLib.c ****                 CySysClkConfigureEcoTrim(wDTrim, aTrim, fTrim, rTrim, gTrim);
1666:Generated_Source\PSoC4/CyLib.c **** 
1667:Generated_Source\PSoC4/CyLib.c ****                 /* Automatic Gain Control (AGC) enable */
1668:Generated_Source\PSoC4/CyLib.c ****                 if (maxAmplitude < 2u)
1669:Generated_Source\PSoC4/CyLib.c ****                 {
1670:Generated_Source\PSoC4/CyLib.c ****                     /* The oscillation amplitude is controlled to the level selected by amplitude t
1671:Generated_Source\PSoC4/CyLib.c ****                     CY_SYS_CLK_ECO_CONFIG_REG |= CY_SYS_CLK_ECO_CONFIG_AGC_EN;
1672:Generated_Source\PSoC4/CyLib.c ****                 }
1673:Generated_Source\PSoC4/CyLib.c ****                 else
1674:Generated_Source\PSoC4/CyLib.c ****                 {
1675:Generated_Source\PSoC4/CyLib.c ****                     /* The amplitude is not explicitly controlled and will grow until it saturates 
1676:Generated_Source\PSoC4/CyLib.c ****                     * supply rail (1.8V nom).
1677:Generated_Source\PSoC4/CyLib.c ****                     */
1678:Generated_Source\PSoC4/CyLib.c ****                     CY_SYS_CLK_ECO_CONFIG_REG &= (uint32) ~CY_SYS_CLK_ECO_CONFIG_AGC_EN;
1679:Generated_Source\PSoC4/CyLib.c ****                 }
ARM GAS  C:\Users\RYANCA~1\AppData\Local\Temp\ccZAR4Lf.s 			page 38


1680:Generated_Source\PSoC4/CyLib.c ****             }
1681:Generated_Source\PSoC4/CyLib.c **** 
1682:Generated_Source\PSoC4/CyLib.c ****             return (returnStatus);
1683:Generated_Source\PSoC4/CyLib.c ****         }
1684:Generated_Source\PSoC4/CyLib.c **** 
1685:Generated_Source\PSoC4/CyLib.c ****     #endif /* CY_IP_ECO_BLESS */
1686:Generated_Source\PSoC4/CyLib.c **** 
1687:Generated_Source\PSoC4/CyLib.c **** #endif /* (CY_IP_ECO) */
1688:Generated_Source\PSoC4/CyLib.c **** 
1689:Generated_Source\PSoC4/CyLib.c **** 
1690:Generated_Source\PSoC4/CyLib.c **** #if (CY_IP_PLL)
1691:Generated_Source\PSoC4/CyLib.c ****     /*******************************************************************************
1692:Generated_Source\PSoC4/CyLib.c ****     * Function Name: CySysClkPllStart
1693:Generated_Source\PSoC4/CyLib.c ****     ****************************************************************************//**
1694:Generated_Source\PSoC4/CyLib.c ****     *
1695:Generated_Source\PSoC4/CyLib.c ****     * Enables the PLL. Optionally waits for it to become stable. Waits at least
1696:Generated_Source\PSoC4/CyLib.c ****     * 250 us or until it is detected that the PLL is stable.
1697:Generated_Source\PSoC4/CyLib.c ****     *
1698:Generated_Source\PSoC4/CyLib.c ****     * Clears the unlock occurred status bit by calling CySysClkPllGetUnlockStatus(),
1699:Generated_Source\PSoC4/CyLib.c ****     * once the PLL is locked if the wait parameter is 1).
1700:Generated_Source\PSoC4/CyLib.c ****     *
1701:Generated_Source\PSoC4/CyLib.c ****     * This API is available only for PSoC 4200L / 4100S / 4500 with PLL devices.
1702:Generated_Source\PSoC4/CyLib.c ****     *
1703:Generated_Source\PSoC4/CyLib.c ****     * \param PLL:
1704:Generated_Source\PSoC4/CyLib.c ****     * 0   PLL#0
1705:Generated_Source\PSoC4/CyLib.c ****     * 1   PLL#1 (available only for PSoC 4200L)
1706:Generated_Source\PSoC4/CyLib.c ****     *
1707:Generated_Source\PSoC4/CyLib.c ****     * \param wait:
1708:Generated_Source\PSoC4/CyLib.c ****     * 0 - Return immediately after configuration.
1709:Generated_Source\PSoC4/CyLib.c ****     * 1 - Wait for PLL lock or timeout. This API shall use the CyDelayUs() to
1710:Generated_Source\PSoC4/CyLib.c ****     * implement the timeout feature.
1711:Generated_Source\PSoC4/CyLib.c ****     *
1712:Generated_Source\PSoC4/CyLib.c ****     * \return CYRET_SUCCESS Completed successfully.
1713:Generated_Source\PSoC4/CyLib.c ****     * \return CYRET_TIMEOUT The timeout occurred without detecting a stable clock.
1714:Generated_Source\PSoC4/CyLib.c ****     * If the input source of the clock is jittery, then the lock indication may
1715:Generated_Source\PSoC4/CyLib.c ****     * not occur. However, after the timeout has expired, the generated PLL clock can
1716:Generated_Source\PSoC4/CyLib.c ****     * still be used.
1717:Generated_Source\PSoC4/CyLib.c ****     * \return CYRET_BAD_PARAM - Either the PLL or wait parameter is invalid.
1718:Generated_Source\PSoC4/CyLib.c ****     *
1719:Generated_Source\PSoC4/CyLib.c ****     *******************************************************************************/
1720:Generated_Source\PSoC4/CyLib.c ****     cystatus CySysClkPllStart(uint32 pll, uint32 wait)
1721:Generated_Source\PSoC4/CyLib.c ****     {
1722:Generated_Source\PSoC4/CyLib.c ****         uint32 counts = CY_SYS_CLK_PLL_MAX_STARTUP_US;
1723:Generated_Source\PSoC4/CyLib.c ****         uint8  interruptState;
1724:Generated_Source\PSoC4/CyLib.c ****         cystatus returnStatus = CYRET_SUCCESS;
1725:Generated_Source\PSoC4/CyLib.c **** 
1726:Generated_Source\PSoC4/CyLib.c ****         if((pll < (uint32)CY_IP_PLL_NR) && (wait <= 1u))
1727:Generated_Source\PSoC4/CyLib.c ****         {
1728:Generated_Source\PSoC4/CyLib.c ****             interruptState = CyEnterCriticalSection();
1729:Generated_Source\PSoC4/CyLib.c **** 
1730:Generated_Source\PSoC4/CyLib.c ****             /* Isolate PLL outputs */
1731:Generated_Source\PSoC4/CyLib.c ****             CY_SYS_CLK_PLL_BASE.pll[pll].config &= (uint32) ~CY_SYS_CLK_PLL_CONFIG_ISOLATE;
1732:Generated_Source\PSoC4/CyLib.c **** 
1733:Generated_Source\PSoC4/CyLib.c ****             /* Enable PLL */
1734:Generated_Source\PSoC4/CyLib.c ****             CY_SYS_CLK_PLL_BASE.pll[pll].config |= CY_SYS_CLK_PLL_CONFIG_ENABLE;
1735:Generated_Source\PSoC4/CyLib.c **** 
1736:Generated_Source\PSoC4/CyLib.c ****             CyExitCriticalSection(interruptState);
ARM GAS  C:\Users\RYANCA~1\AppData\Local\Temp\ccZAR4Lf.s 			page 39


1737:Generated_Source\PSoC4/CyLib.c **** 
1738:Generated_Source\PSoC4/CyLib.c ****             /* De-isolate >= CY_SYS_CLK_PLL_MIN_STARTUP_US after PLL enabled */
1739:Generated_Source\PSoC4/CyLib.c ****             CyDelayUs(CY_SYS_CLK_PLL_MIN_STARTUP_US);
1740:Generated_Source\PSoC4/CyLib.c ****             interruptState = CyEnterCriticalSection();
1741:Generated_Source\PSoC4/CyLib.c ****             CY_SYS_CLK_PLL_BASE.pll[pll].config |= CY_SYS_CLK_PLL_CONFIG_ISOLATE;
1742:Generated_Source\PSoC4/CyLib.c ****             CyExitCriticalSection(interruptState);
1743:Generated_Source\PSoC4/CyLib.c **** 
1744:Generated_Source\PSoC4/CyLib.c ****             if(wait != 0u)
1745:Generated_Source\PSoC4/CyLib.c ****             {
1746:Generated_Source\PSoC4/CyLib.c ****                 returnStatus = CYRET_TIMEOUT;
1747:Generated_Source\PSoC4/CyLib.c **** 
1748:Generated_Source\PSoC4/CyLib.c ****                 while(0u != counts)
1749:Generated_Source\PSoC4/CyLib.c ****                 {
1750:Generated_Source\PSoC4/CyLib.c **** 
1751:Generated_Source\PSoC4/CyLib.c ****                     if(0u != CySysClkPllGetLockStatus(pll))
1752:Generated_Source\PSoC4/CyLib.c ****                     {
1753:Generated_Source\PSoC4/CyLib.c ****                         returnStatus = CYRET_SUCCESS;
1754:Generated_Source\PSoC4/CyLib.c ****                         (void) CySysClkPllGetUnlockStatus(pll);
1755:Generated_Source\PSoC4/CyLib.c ****                         break;
1756:Generated_Source\PSoC4/CyLib.c ****                     }
1757:Generated_Source\PSoC4/CyLib.c **** 
1758:Generated_Source\PSoC4/CyLib.c ****                     CyDelayUs(1u);
1759:Generated_Source\PSoC4/CyLib.c ****                     counts--;
1760:Generated_Source\PSoC4/CyLib.c ****                 }
1761:Generated_Source\PSoC4/CyLib.c ****             }
1762:Generated_Source\PSoC4/CyLib.c ****         }
1763:Generated_Source\PSoC4/CyLib.c ****         else
1764:Generated_Source\PSoC4/CyLib.c ****         {
1765:Generated_Source\PSoC4/CyLib.c ****             returnStatus = CYRET_BAD_PARAM;
1766:Generated_Source\PSoC4/CyLib.c ****         }
1767:Generated_Source\PSoC4/CyLib.c **** 
1768:Generated_Source\PSoC4/CyLib.c ****         return (returnStatus);
1769:Generated_Source\PSoC4/CyLib.c ****     }
1770:Generated_Source\PSoC4/CyLib.c **** 
1771:Generated_Source\PSoC4/CyLib.c **** 
1772:Generated_Source\PSoC4/CyLib.c ****     /*******************************************************************************
1773:Generated_Source\PSoC4/CyLib.c ****     * Function Name: CySysClkPllGetLockStatus
1774:Generated_Source\PSoC4/CyLib.c ****     ****************************************************************************//**
1775:Generated_Source\PSoC4/CyLib.c ****     *
1776:Generated_Source\PSoC4/CyLib.c ****     * Returns non-zero if the output of the specified PLL output is locked.
1777:Generated_Source\PSoC4/CyLib.c ****     *
1778:Generated_Source\PSoC4/CyLib.c ****     * This API is available only for PSoC 4200L / 4100S / 4500 with PLL devices.
1779:Generated_Source\PSoC4/CyLib.c ****     *
1780:Generated_Source\PSoC4/CyLib.c ****     * PLL:
1781:Generated_Source\PSoC4/CyLib.c ****     *  0   PLL#0
1782:Generated_Source\PSoC4/CyLib.c ****     *  1   PLL#1 (available only for PSoC 4200L)
1783:Generated_Source\PSoC4/CyLib.c ****     *
1784:Generated_Source\PSoC4/CyLib.c ****     * \return A non-zero value when the specified PLL is locked.
1785:Generated_Source\PSoC4/CyLib.c ****     *
1786:Generated_Source\PSoC4/CyLib.c ****     *******************************************************************************/
1787:Generated_Source\PSoC4/CyLib.c ****     uint32 CySysClkPllGetLockStatus(uint32 pll)
1788:Generated_Source\PSoC4/CyLib.c ****     {
1789:Generated_Source\PSoC4/CyLib.c ****         uint8  interruptState;
1790:Generated_Source\PSoC4/CyLib.c ****         uint32 returnStatus;
1791:Generated_Source\PSoC4/CyLib.c **** 
1792:Generated_Source\PSoC4/CyLib.c ****         CYASSERT(pll < (uint32)CY_IP_PLL_NR);
1793:Generated_Source\PSoC4/CyLib.c **** 
ARM GAS  C:\Users\RYANCA~1\AppData\Local\Temp\ccZAR4Lf.s 			page 40


1794:Generated_Source\PSoC4/CyLib.c ****         interruptState = CyEnterCriticalSection();
1795:Generated_Source\PSoC4/CyLib.c **** 
1796:Generated_Source\PSoC4/CyLib.c ****         /* PLL is locked if reported so for two consecutive read. */
1797:Generated_Source\PSoC4/CyLib.c ****         returnStatus = CY_SYS_CLK_PLL_BASE.pll[pll].status & CY_SYS_CLK_PLL_STATUS_LOCKED;
1798:Generated_Source\PSoC4/CyLib.c ****         if(0u != returnStatus)
1799:Generated_Source\PSoC4/CyLib.c ****         {
1800:Generated_Source\PSoC4/CyLib.c ****             returnStatus = CY_SYS_CLK_PLL_BASE.pll[pll].status & CY_SYS_CLK_PLL_STATUS_LOCKED;
1801:Generated_Source\PSoC4/CyLib.c ****         }
1802:Generated_Source\PSoC4/CyLib.c **** 
1803:Generated_Source\PSoC4/CyLib.c ****         CyExitCriticalSection(interruptState);
1804:Generated_Source\PSoC4/CyLib.c **** 
1805:Generated_Source\PSoC4/CyLib.c ****         return (returnStatus);
1806:Generated_Source\PSoC4/CyLib.c ****     }
1807:Generated_Source\PSoC4/CyLib.c **** 
1808:Generated_Source\PSoC4/CyLib.c ****     /*******************************************************************************
1809:Generated_Source\PSoC4/CyLib.c ****     * Function Name: CySysClkPllStop
1810:Generated_Source\PSoC4/CyLib.c ****     ****************************************************************************//**
1811:Generated_Source\PSoC4/CyLib.c ****     *
1812:Generated_Source\PSoC4/CyLib.c ****     * Disables the PLL.
1813:Generated_Source\PSoC4/CyLib.c ****     *
1814:Generated_Source\PSoC4/CyLib.c ****     * Ensures that either PLL is not the source of HFCLK before it is disabled,
1815:Generated_Source\PSoC4/CyLib.c ****     * otherwise, the CPU will halt.
1816:Generated_Source\PSoC4/CyLib.c ****     *
1817:Generated_Source\PSoC4/CyLib.c ****     * This API is available only for PSoC 4200L / 4100S / 4500 with PLL devices.
1818:Generated_Source\PSoC4/CyLib.c ****     *
1819:Generated_Source\PSoC4/CyLib.c ****     * PLL:
1820:Generated_Source\PSoC4/CyLib.c ****     *  0   PLL#0
1821:Generated_Source\PSoC4/CyLib.c ****     *  1   PLL#1 (available only for PSoC 4200L)
1822:Generated_Source\PSoC4/CyLib.c ****     *
1823:Generated_Source\PSoC4/CyLib.c ****     *******************************************************************************/
1824:Generated_Source\PSoC4/CyLib.c ****     void CySysClkPllStop(uint32 pll)
1825:Generated_Source\PSoC4/CyLib.c ****     {
1826:Generated_Source\PSoC4/CyLib.c ****         uint8  interruptState;
1827:Generated_Source\PSoC4/CyLib.c **** 
1828:Generated_Source\PSoC4/CyLib.c ****         if (pll < (uint32)CY_IP_PLL_NR)
1829:Generated_Source\PSoC4/CyLib.c ****         {
1830:Generated_Source\PSoC4/CyLib.c ****             interruptState = CyEnterCriticalSection();
1831:Generated_Source\PSoC4/CyLib.c ****             CY_SYS_CLK_PLL_BASE.pll[pll].config &= (uint32) ~(CY_SYS_CLK_PLL_CONFIG_ISOLATE | CY_SY
1832:Generated_Source\PSoC4/CyLib.c ****             CyExitCriticalSection(interruptState);
1833:Generated_Source\PSoC4/CyLib.c ****         }
1834:Generated_Source\PSoC4/CyLib.c ****     }
1835:Generated_Source\PSoC4/CyLib.c **** 
1836:Generated_Source\PSoC4/CyLib.c **** 
1837:Generated_Source\PSoC4/CyLib.c ****     /*******************************************************************************
1838:Generated_Source\PSoC4/CyLib.c ****     * Function Name: CySysClkPllSetPQ
1839:Generated_Source\PSoC4/CyLib.c ****     ****************************************************************************//**
1840:Generated_Source\PSoC4/CyLib.c ****     *
1841:Generated_Source\PSoC4/CyLib.c ****     * Sets feedback (P) and reference the (Q) divider value. This API also sets the
1842:Generated_Source\PSoC4/CyLib.c ****     * programmable charge pump current value. Note that the PLL has to be disabled
1843:Generated_Source\PSoC4/CyLib.c ****     * before calling this API. If this function is called while any PLL is sourcing,
1844:Generated_Source\PSoC4/CyLib.c ****     * the SYSCLK will return an error.
1845:Generated_Source\PSoC4/CyLib.c ****     *
1846:Generated_Source\PSoC4/CyLib.c ****     * The PLL must not be the system clock source when calling this function. The
1847:Generated_Source\PSoC4/CyLib.c ****     * PLL output will glitch during this function call.
1848:Generated_Source\PSoC4/CyLib.c ****     *
1849:Generated_Source\PSoC4/CyLib.c ****     * This API is available only for PSoC 4200L / 4100S / 4500 with PLL devices.
1850:Generated_Source\PSoC4/CyLib.c ****     *
ARM GAS  C:\Users\RYANCA~1\AppData\Local\Temp\ccZAR4Lf.s 			page 41


1851:Generated_Source\PSoC4/CyLib.c ****     * \param PLL:
1852:Generated_Source\PSoC4/CyLib.c ****     *  0   PLL#0
1853:Generated_Source\PSoC4/CyLib.c ****     *  1   PLL#1 (available only for PSoC 4200L)
1854:Generated_Source\PSoC4/CyLib.c ****     *
1855:Generated_Source\PSoC4/CyLib.c ****     * \param feedback The P divider. Range 4 - 259. Control bits for the feedback
1856:Generated_Source\PSoC4/CyLib.c ****     * divider.
1857:Generated_Source\PSoC4/CyLib.c ****     *
1858:Generated_Source\PSoC4/CyLib.c ****     * \param reference The Q divider. Range 1 - 64. Divide by the reference.
1859:Generated_Source\PSoC4/CyLib.c ****     *
1860:Generated_Source\PSoC4/CyLib.c ****     * \param current Charge the pump current in uA. The 2 uA for output frequencies
1861:Generated_Source\PSoC4/CyLib.c ****     * of 67 MHz or less, and 3 uA for higher output frequencies. The default
1862:Generated_Source\PSoC4/CyLib.c ****     * value is 2 uA.
1863:Generated_Source\PSoC4/CyLib.c ****     *
1864:Generated_Source\PSoC4/CyLib.c ****     * \return CYRET_SUCCESS Completed successfully.
1865:Generated_Source\PSoC4/CyLib.c ****     * \return CYRET_BAD_PARAM The parameters are out of range or the specified PLL
1866:Generated_Source\PSoC4/CyLib.c ****     * sources the system clock.
1867:Generated_Source\PSoC4/CyLib.c ****     *
1868:Generated_Source\PSoC4/CyLib.c ****     *******************************************************************************/
1869:Generated_Source\PSoC4/CyLib.c ****     cystatus CySysClkPllSetPQ(uint32 pll, uint32 feedback, uint32 reference, uint32 current)
1870:Generated_Source\PSoC4/CyLib.c ****     {
1871:Generated_Source\PSoC4/CyLib.c ****         uint32   regTmp;
1872:Generated_Source\PSoC4/CyLib.c ****         cystatus tmp;
1873:Generated_Source\PSoC4/CyLib.c ****         uint8    interruptState;
1874:Generated_Source\PSoC4/CyLib.c ****         cystatus returnStatus = CYRET_BAD_PARAM;
1875:Generated_Source\PSoC4/CyLib.c **** 
1876:Generated_Source\PSoC4/CyLib.c ****         interruptState = CyEnterCriticalSection();
1877:Generated_Source\PSoC4/CyLib.c **** 
1878:Generated_Source\PSoC4/CyLib.c ****         tmp = CySysClkPllConfigChangeAllowed(pll);
1879:Generated_Source\PSoC4/CyLib.c **** 
1880:Generated_Source\PSoC4/CyLib.c ****         if ((pll < (uint32)CY_IP_PLL_NR) &&
1881:Generated_Source\PSoC4/CyLib.c ****             (feedback  >= CY_SYS_CLK_PLL_CONFIG_FEEDBACK_DIV_MIN)  && (feedback  <= CY_SYS_CLK_PLL_
1882:Generated_Source\PSoC4/CyLib.c ****             (reference >= CY_SYS_CLK_PLL_CONFIG_REFERENCE_DIV_MIN) && (reference <= CY_SYS_CLK_PLL_
1883:Generated_Source\PSoC4/CyLib.c ****             (current   >= CY_SYS_CLK_PLL_CONFIG_ICP_SEL_MIN )      && (current   <= CY_SYS_CLK_PLL_
1884:Generated_Source\PSoC4/CyLib.c ****             (CYRET_SUCCESS == tmp))
1885:Generated_Source\PSoC4/CyLib.c ****         {
1886:Generated_Source\PSoC4/CyLib.c ****             /* Set new feedback, reference and current values */
1887:Generated_Source\PSoC4/CyLib.c ****             regTmp  = CY_SYS_CLK_PLL_BASE.pll[pll].config & (uint32) ~(CY_SYS_CLK_PLL_CONFIG_FEEDBA
1888:Generated_Source\PSoC4/CyLib.c ****                                                                        CY_SYS_CLK_PLL_CONFIG_REFERE
1889:Generated_Source\PSoC4/CyLib.c ****                                                                        CY_SYS_CLK_PLL_CONFIG_ICP_SE
1890:Generated_Source\PSoC4/CyLib.c **** 
1891:Generated_Source\PSoC4/CyLib.c ****             regTmp |= ((feedback << CY_SYS_CLK_PLL_CONFIG_FEEDBACK_DIV_SHIFT) & CY_SYS_CLK_PLL_CONF
1892:Generated_Source\PSoC4/CyLib.c ****             regTmp |= (((reference - 1u) << CY_SYS_CLK_PLL_CONFIG_REFERENCE_DIV_SHIFT) & CY_SYS_CLK
1893:Generated_Source\PSoC4/CyLib.c ****             regTmp |= ((current << CY_SYS_CLK_PLL_CONFIG_ICP_SEL_SHIFT) & CY_SYS_CLK_PLL_CONFIG_ICP
1894:Generated_Source\PSoC4/CyLib.c **** 
1895:Generated_Source\PSoC4/CyLib.c ****             CY_SYS_CLK_PLL_BASE.pll[pll].config = regTmp;
1896:Generated_Source\PSoC4/CyLib.c **** 
1897:Generated_Source\PSoC4/CyLib.c ****             returnStatus = CYRET_SUCCESS;
1898:Generated_Source\PSoC4/CyLib.c ****         }
1899:Generated_Source\PSoC4/CyLib.c **** 
1900:Generated_Source\PSoC4/CyLib.c ****         CyExitCriticalSection(interruptState);
1901:Generated_Source\PSoC4/CyLib.c **** 
1902:Generated_Source\PSoC4/CyLib.c ****         return (returnStatus);
1903:Generated_Source\PSoC4/CyLib.c ****     }
1904:Generated_Source\PSoC4/CyLib.c **** 
1905:Generated_Source\PSoC4/CyLib.c **** 
1906:Generated_Source\PSoC4/CyLib.c ****     /*******************************************************************************
1907:Generated_Source\PSoC4/CyLib.c ****     * Function Name: CySysClkPllSetBypassMode
ARM GAS  C:\Users\RYANCA~1\AppData\Local\Temp\ccZAR4Lf.s 			page 42


1908:Generated_Source\PSoC4/CyLib.c ****     ****************************************************************************//**
1909:Generated_Source\PSoC4/CyLib.c ****     *
1910:Generated_Source\PSoC4/CyLib.c ****     * Sets the bypass mode for the specified PLL.
1911:Generated_Source\PSoC4/CyLib.c ****     *
1912:Generated_Source\PSoC4/CyLib.c ****     * The PLL must not be the system clock source when calling this function.
1913:Generated_Source\PSoC4/CyLib.c ****     * The PLL output will glitch during this function call.
1914:Generated_Source\PSoC4/CyLib.c ****     *
1915:Generated_Source\PSoC4/CyLib.c ****     * When the PLL's reference input is higher than HFCLK frequency the device may
1916:Generated_Source\PSoC4/CyLib.c ****     * lock due to incorrect flash wait cycle configuration and bypass switches from
1917:Generated_Source\PSoC4/CyLib.c ****     * PLL output to the reference input. See description of
1918:Generated_Source\PSoC4/CyLib.c ****     * CySysFlashSetWaitCycles() for more information.
1919:Generated_Source\PSoC4/CyLib.c ****     *
1920:Generated_Source\PSoC4/CyLib.c ****     * This API is available only for PSoC 4200L / 4100S / 4500 swith PLL devices.
1921:Generated_Source\PSoC4/CyLib.c ****     *
1922:Generated_Source\PSoC4/CyLib.c ****     * \param PLL:
1923:Generated_Source\PSoC4/CyLib.c ****     *  0   PLL#0
1924:Generated_Source\PSoC4/CyLib.c ****     *  1   PLL#1 (available only for PSoC 4200L)
1925:Generated_Source\PSoC4/CyLib.c ****     *
1926:Generated_Source\PSoC4/CyLib.c ****     * \param bypass: The bypass mode.
1927:Generated_Source\PSoC4/CyLib.c ****     * CY_SYS_PLL_BYPASS_AUTO - Automatic usage of the lock indicator. When unlocked,
1928:Generated_Source\PSoC4/CyLib.c ****     * automatically selects PLL the reference input (bypass mode). When locked,
1929:Generated_Source\PSoC4/CyLib.c ****     * automatically selects the PLL output.
1930:Generated_Source\PSoC4/CyLib.c ****     *
1931:Generated_Source\PSoC4/CyLib.c ****     * CY_SYS_PLL_BYPASS_PLL_REF - Selects the PLL reference input (bypass mode).
1932:Generated_Source\PSoC4/CyLib.c ****     * Ignores the lock indicator.
1933:Generated_Source\PSoC4/CyLib.c ****     *
1934:Generated_Source\PSoC4/CyLib.c ****     * CY_SYS_PLL_BYPASS_PLL_OUT - Selects the PLL output.  Ignores the lock indicator.
1935:Generated_Source\PSoC4/CyLib.c ****     *
1936:Generated_Source\PSoC4/CyLib.c ****     *******************************************************************************/
1937:Generated_Source\PSoC4/CyLib.c ****     void CySysClkPllSetBypassMode(uint32 pll, uint32 bypass)
1938:Generated_Source\PSoC4/CyLib.c ****     {
1939:Generated_Source\PSoC4/CyLib.c ****         uint32 regTmp;
1940:Generated_Source\PSoC4/CyLib.c ****         uint8  interruptState;
1941:Generated_Source\PSoC4/CyLib.c **** 
1942:Generated_Source\PSoC4/CyLib.c ****         interruptState = CyEnterCriticalSection();
1943:Generated_Source\PSoC4/CyLib.c **** 
1944:Generated_Source\PSoC4/CyLib.c ****         if ((pll < (uint32)CY_IP_PLL_NR) && (bypass <= CY_SYS_PLL_BYPASS_PLL_OUT))
1945:Generated_Source\PSoC4/CyLib.c ****         {
1946:Generated_Source\PSoC4/CyLib.c ****             regTmp  = CY_SYS_CLK_PLL_BASE.pll[pll].config & (uint32) ~CY_SYS_CLK_PLL_CONFIG_BYPASS_
1947:Generated_Source\PSoC4/CyLib.c ****             regTmp |=  (uint32)(bypass << CY_SYS_CLK_PLL_CONFIG_BYPASS_SEL_SHIFT);
1948:Generated_Source\PSoC4/CyLib.c ****             CY_SYS_CLK_PLL_BASE.pll[pll].config = regTmp;
1949:Generated_Source\PSoC4/CyLib.c ****         }
1950:Generated_Source\PSoC4/CyLib.c **** 
1951:Generated_Source\PSoC4/CyLib.c ****         CyExitCriticalSection(interruptState);
1952:Generated_Source\PSoC4/CyLib.c ****     }
1953:Generated_Source\PSoC4/CyLib.c **** 
1954:Generated_Source\PSoC4/CyLib.c **** 
1955:Generated_Source\PSoC4/CyLib.c ****     /*******************************************************************************
1956:Generated_Source\PSoC4/CyLib.c ****     * Function Name: CySysClkPllGetBypassMode
1957:Generated_Source\PSoC4/CyLib.c ****     ****************************************************************************//**
1958:Generated_Source\PSoC4/CyLib.c ****     *
1959:Generated_Source\PSoC4/CyLib.c ****     *  Gets the bypass mode for the specified PLL.
1960:Generated_Source\PSoC4/CyLib.c ****     *  This API is available only for PSoC 4200L / 4100S / 4500 with PLL devices.
1961:Generated_Source\PSoC4/CyLib.c ****     *
1962:Generated_Source\PSoC4/CyLib.c ****     *  \return bypass: Bypass mode.
1963:Generated_Source\PSoC4/CyLib.c ****     *   The same as the parameter of the CySysClkPllSetBypassMode().
1964:Generated_Source\PSoC4/CyLib.c ****     *
ARM GAS  C:\Users\RYANCA~1\AppData\Local\Temp\ccZAR4Lf.s 			page 43


1965:Generated_Source\PSoC4/CyLib.c ****     *******************************************************************************/
1966:Generated_Source\PSoC4/CyLib.c ****     static uint32 CySysClkPllGetBypassMode(uint32 pll)
1967:Generated_Source\PSoC4/CyLib.c ****     {
1968:Generated_Source\PSoC4/CyLib.c ****         uint32 returnValue;
1969:Generated_Source\PSoC4/CyLib.c ****         uint8  interruptState;
1970:Generated_Source\PSoC4/CyLib.c **** 
1971:Generated_Source\PSoC4/CyLib.c ****         CYASSERT(pll < (uint32)CY_IP_PLL_NR);
1972:Generated_Source\PSoC4/CyLib.c **** 
1973:Generated_Source\PSoC4/CyLib.c ****         interruptState = CyEnterCriticalSection();
1974:Generated_Source\PSoC4/CyLib.c **** 
1975:Generated_Source\PSoC4/CyLib.c ****         returnValue = CY_SYS_CLK_PLL_BASE.pll[pll].config & CY_SYS_CLK_PLL_CONFIG_BYPASS_SEL_MASK;
1976:Generated_Source\PSoC4/CyLib.c ****         returnValue =  returnValue >> CY_SYS_CLK_PLL_CONFIG_BYPASS_SEL_SHIFT;
1977:Generated_Source\PSoC4/CyLib.c **** 
1978:Generated_Source\PSoC4/CyLib.c ****         CyExitCriticalSection(interruptState);
1979:Generated_Source\PSoC4/CyLib.c **** 
1980:Generated_Source\PSoC4/CyLib.c ****         return (returnValue);
1981:Generated_Source\PSoC4/CyLib.c ****     }
1982:Generated_Source\PSoC4/CyLib.c **** 
1983:Generated_Source\PSoC4/CyLib.c **** 
1984:Generated_Source\PSoC4/CyLib.c ****     /*******************************************************************************
1985:Generated_Source\PSoC4/CyLib.c ****     * Function Name: CySysClkPllConfigChangeAllowed
1986:Generated_Source\PSoC4/CyLib.c ****     ****************************************************************************//**
1987:Generated_Source\PSoC4/CyLib.c ****     *
1988:Generated_Source\PSoC4/CyLib.c ****     *  The function returns non-zero value if the specified PLL sources the System
1989:Generated_Source\PSoC4/CyLib.c ****     *  clock and the PLL is not in the bypass mode.
1990:Generated_Source\PSoC4/CyLib.c ****     *
1991:Generated_Source\PSoC4/CyLib.c ****     *  This API is available only for PSoC 4200L / 4100S / 4500 with PLL devices.
1992:Generated_Source\PSoC4/CyLib.c ****     *
1993:Generated_Source\PSoC4/CyLib.c ****     *  \param PLL:
1994:Generated_Source\PSoC4/CyLib.c ****     *   0   PLL#0
1995:Generated_Source\PSoC4/CyLib.c ****     *   1   PLL#1 (available only for PSoC 4200L)
1996:Generated_Source\PSoC4/CyLib.c ****     *
1997:Generated_Source\PSoC4/CyLib.c ****     * \return Non-zero value when the specified PLL sources the System clock and
1998:Generated_Source\PSoC4/CyLib.c ****     * the PLL is not in the bypass mode.
1999:Generated_Source\PSoC4/CyLib.c ****     *
2000:Generated_Source\PSoC4/CyLib.c ****     *******************************************************************************/
2001:Generated_Source\PSoC4/CyLib.c ****     static cystatus CySysClkPllConfigChangeAllowed(uint32 pll)
2002:Generated_Source\PSoC4/CyLib.c ****     {
2003:Generated_Source\PSoC4/CyLib.c ****         uint32   pllBypassMode;
2004:Generated_Source\PSoC4/CyLib.c ****         uint32   sysclkSource;
2005:Generated_Source\PSoC4/CyLib.c ****         cystatus returnValue = CYRET_INVALID_STATE;
2006:Generated_Source\PSoC4/CyLib.c **** 
2007:Generated_Source\PSoC4/CyLib.c ****         sysclkSource  = CySysClkGetSysclkSource();
2008:Generated_Source\PSoC4/CyLib.c ****         pllBypassMode = CySysClkPllGetBypassMode(pll);
2009:Generated_Source\PSoC4/CyLib.c **** 
2010:Generated_Source\PSoC4/CyLib.c ****         if ((CY_SYS_PLL_BYPASS_PLL_REF == pllBypassMode)             ||
2011:Generated_Source\PSoC4/CyLib.c ****             ((CY_SYS_CLK_HFCLK_PLL0 != sysclkSource) && (0u == pll))
2012:Generated_Source\PSoC4/CyLib.c ****         #if (CY_IP_SRSSV2)
2013:Generated_Source\PSoC4/CyLib.c ****             || ((CY_SYS_CLK_HFCLK_PLL1 != sysclkSource) && (1u == pll))
2014:Generated_Source\PSoC4/CyLib.c ****         #endif /* (CY_IP_SRSSV2) */
2015:Generated_Source\PSoC4/CyLib.c ****             )
2016:Generated_Source\PSoC4/CyLib.c ****         {
2017:Generated_Source\PSoC4/CyLib.c ****             returnValue = CYRET_SUCCESS;
2018:Generated_Source\PSoC4/CyLib.c ****         }
2019:Generated_Source\PSoC4/CyLib.c **** 
2020:Generated_Source\PSoC4/CyLib.c ****         return (returnValue);
2021:Generated_Source\PSoC4/CyLib.c ****     }
ARM GAS  C:\Users\RYANCA~1\AppData\Local\Temp\ccZAR4Lf.s 			page 44


2022:Generated_Source\PSoC4/CyLib.c **** 
2023:Generated_Source\PSoC4/CyLib.c **** 
2024:Generated_Source\PSoC4/CyLib.c ****     /*******************************************************************************
2025:Generated_Source\PSoC4/CyLib.c ****     * Function Name: CySysClkPllGetUnlockStatus
2026:Generated_Source\PSoC4/CyLib.c ****     ****************************************************************************//**
2027:Generated_Source\PSoC4/CyLib.c ****     *
2028:Generated_Source\PSoC4/CyLib.c ****     *  Returns a non-zero value if the specified PLL output was unlocked.
2029:Generated_Source\PSoC4/CyLib.c ****     *  The unlock status is an indicator that the PLL has lost a lock at least once
2030:Generated_Source\PSoC4/CyLib.c ****     *  during its operation. The unlock status is cleared once it is read using
2031:Generated_Source\PSoC4/CyLib.c ****     *  this API.
2032:Generated_Source\PSoC4/CyLib.c ****     *
2033:Generated_Source\PSoC4/CyLib.c ****     *  This API is available only for PSoC 4200L / 4100S / 4500 with PLL devices.
2034:Generated_Source\PSoC4/CyLib.c ****     *
2035:Generated_Source\PSoC4/CyLib.c ****     *  \param PLL:
2036:Generated_Source\PSoC4/CyLib.c ****     *   0   PLL#0
2037:Generated_Source\PSoC4/CyLib.c ****     *   1   PLL#1 (available only for PSoC 4200L)
2038:Generated_Source\PSoC4/CyLib.c ****     *
2039:Generated_Source\PSoC4/CyLib.c ****     * \return Non-zero value when the specified PLL was unlocked.
2040:Generated_Source\PSoC4/CyLib.c ****     *
2041:Generated_Source\PSoC4/CyLib.c ****     *******************************************************************************/
2042:Generated_Source\PSoC4/CyLib.c ****     uint32 CySysClkPllGetUnlockStatus(uint32 pll)
2043:Generated_Source\PSoC4/CyLib.c ****     {
2044:Generated_Source\PSoC4/CyLib.c ****         uint32 returnStatus = 0u;
2045:Generated_Source\PSoC4/CyLib.c ****         uint8  interruptState;
2046:Generated_Source\PSoC4/CyLib.c **** 
2047:Generated_Source\PSoC4/CyLib.c ****         interruptState = CyEnterCriticalSection();
2048:Generated_Source\PSoC4/CyLib.c **** 
2049:Generated_Source\PSoC4/CyLib.c ****         returnStatus = CY_SYS_CLK_PLL_BASE.pll[pll].test & CY_SYS_CLK_PLL_TEST_UNLOCK_OCCURRED_MASK
2050:Generated_Source\PSoC4/CyLib.c ****         CY_SYS_CLK_PLL_BASE.pll[pll].test |= CY_SYS_CLK_PLL_TEST_UNLOCK_OCCURRED_MASK;
2051:Generated_Source\PSoC4/CyLib.c **** 
2052:Generated_Source\PSoC4/CyLib.c ****         CyExitCriticalSection(interruptState);
2053:Generated_Source\PSoC4/CyLib.c **** 
2054:Generated_Source\PSoC4/CyLib.c ****         return (returnStatus);
2055:Generated_Source\PSoC4/CyLib.c ****     }
2056:Generated_Source\PSoC4/CyLib.c **** 
2057:Generated_Source\PSoC4/CyLib.c **** 
2058:Generated_Source\PSoC4/CyLib.c ****     /*******************************************************************************
2059:Generated_Source\PSoC4/CyLib.c ****     * Function Name: CySysClkPllSetFrequency
2060:Generated_Source\PSoC4/CyLib.c ****     ****************************************************************************//**
2061:Generated_Source\PSoC4/CyLib.c ****     *
2062:Generated_Source\PSoC4/CyLib.c ****     * Configures either PLL#0 or PLL#1 for the requested input/output frequencies.
2063:Generated_Source\PSoC4/CyLib.c ****     * The input frequency is the frequency of the source to the PLL. The source is
2064:Generated_Source\PSoC4/CyLib.c ****     * set using the CySysClkPllSetSource() function.
2065:Generated_Source\PSoC4/CyLib.c ****     *
2066:Generated_Source\PSoC4/CyLib.c ****     * The PLL must not be the system clock source when calling this function. The
2067:Generated_Source\PSoC4/CyLib.c ****     * PLL output will glitch during this function call.
2068:Generated_Source\PSoC4/CyLib.c ****     *
2069:Generated_Source\PSoC4/CyLib.c ****     * This API is available only for PSoC 4200L / 4100S / 4500 with PLL devices.
2070:Generated_Source\PSoC4/CyLib.c ****     *
2071:Generated_Source\PSoC4/CyLib.c ****     * \param pll:
2072:Generated_Source\PSoC4/CyLib.c ****     *  0   PLL#0
2073:Generated_Source\PSoC4/CyLib.c ****     *  1   PLL#1 (available only for PSoC 4200L)
2074:Generated_Source\PSoC4/CyLib.c ****     *
2075:Generated_Source\PSoC4/CyLib.c ****     * \param inputFreq The reference frequency in KHz. The valid range is from 1000 to 49152 KHz.
2076:Generated_Source\PSoC4/CyLib.c ****     *
2077:Generated_Source\PSoC4/CyLib.c ****     * \param pllFreq The target frequency in KHz. The valid range is from 22500 to 49152 KHz.
2078:Generated_Source\PSoC4/CyLib.c ****     *
ARM GAS  C:\Users\RYANCA~1\AppData\Local\Temp\ccZAR4Lf.s 			page 45


2079:Generated_Source\PSoC4/CyLib.c ****     * \param divider The output clock divider for the PLL:
2080:Generated_Source\PSoC4/CyLib.c ****     * CY_SYS_PLL_OUTPUT_DIVPASS    Pass Through
2081:Generated_Source\PSoC4/CyLib.c ****     * CY_SYS_PLL_OUTPUT_DIV2       Divide by 2
2082:Generated_Source\PSoC4/CyLib.c ****     * CY_SYS_PLL_OUTPUT_DIV4       Divide by 4
2083:Generated_Source\PSoC4/CyLib.c ****     * CY_SYS_PLL_OUTPUT_DIV8       Divide by 8
2084:Generated_Source\PSoC4/CyLib.c ****     *
2085:Generated_Source\PSoC4/CyLib.c ****     * \param freqTol The tolerance in ppm, 10 ppm is equal to 0.001%.
2086:Generated_Source\PSoC4/CyLib.c ****     *
2087:Generated_Source\PSoC4/CyLib.c ****     * \return CYRET_SUCCESS The PLL was successfully configured for the requested
2088:Generated_Source\PSoC4/CyLib.c ****     * frequency.
2089:Generated_Source\PSoC4/CyLib.c ****     *
2090:Generated_Source\PSoC4/CyLib.c ****     * \return CYRET_BAD_PARAM The PLL was not able to successfully configure for the
2091:Generated_Source\PSoC4/CyLib.c ****     * requested frequency.
2092:Generated_Source\PSoC4/CyLib.c ****     *
2093:Generated_Source\PSoC4/CyLib.c ****     *******************************************************************************/
2094:Generated_Source\PSoC4/CyLib.c ****     cystatus CySysClkPllSetFrequency(uint32 pll, uint32 inputFreq, uint32 pllFreq, uint32 divider, 
2095:Generated_Source\PSoC4/CyLib.c ****     {
2096:Generated_Source\PSoC4/CyLib.c ****         uint32 qMin;
2097:Generated_Source\PSoC4/CyLib.c ****         uint32 qMax;
2098:Generated_Source\PSoC4/CyLib.c **** 
2099:Generated_Source\PSoC4/CyLib.c ****         uint32 qVal = CY_SYS_CLK_PLL_INVALID;
2100:Generated_Source\PSoC4/CyLib.c ****         uint32 pVal = CY_SYS_CLK_PLL_INVALID;
2101:Generated_Source\PSoC4/CyLib.c **** 
2102:Generated_Source\PSoC4/CyLib.c ****         uint32 q;
2103:Generated_Source\PSoC4/CyLib.c ****         uint32 p;
2104:Generated_Source\PSoC4/CyLib.c **** 
2105:Generated_Source\PSoC4/CyLib.c ****         uint32 fvco;
2106:Generated_Source\PSoC4/CyLib.c ****         int32 ferr;
2107:Generated_Source\PSoC4/CyLib.c **** 
2108:Generated_Source\PSoC4/CyLib.c ****         cystatus tmp;
2109:Generated_Source\PSoC4/CyLib.c ****         cystatus returnStatus = CYRET_BAD_PARAM;
2110:Generated_Source\PSoC4/CyLib.c **** 
2111:Generated_Source\PSoC4/CyLib.c **** 
2112:Generated_Source\PSoC4/CyLib.c ****         tmp = CySysClkPllConfigChangeAllowed(pll);
2113:Generated_Source\PSoC4/CyLib.c **** 
2114:Generated_Source\PSoC4/CyLib.c ****         if ((pll < (uint32)CY_IP_PLL_NR) &&
2115:Generated_Source\PSoC4/CyLib.c ****             (inputFreq  >= CY_SYS_CLK_PLL_INPUT_FREQ_MIN )  && (inputFreq  <= CY_SYS_CLK_PLL_INPUT_
2116:Generated_Source\PSoC4/CyLib.c ****             (pllFreq >= CY_SYS_CLK_PLL_OUTPUT_FREQ_MIN ) && (pllFreq <= CY_SYS_CLK_PLL_OUTPUT_FREQ_
2117:Generated_Source\PSoC4/CyLib.c ****             (divider <= CY_SYS_PLL_OUTPUT_DIV8) &&
2118:Generated_Source\PSoC4/CyLib.c ****             (CYRET_SUCCESS == tmp))
2119:Generated_Source\PSoC4/CyLib.c ****         {
2120:Generated_Source\PSoC4/CyLib.c **** 
2121:Generated_Source\PSoC4/CyLib.c ****             /* Minimum feed forward loop divisor */
2122:Generated_Source\PSoC4/CyLib.c ****             qMin = (inputFreq + (CY_SYS_CLK_PLL_FPFDMAX - 1u)) / CY_SYS_CLK_PLL_FPFDMAX;
2123:Generated_Source\PSoC4/CyLib.c ****             qMin = (qMin < CY_SYS_CLK_PLL_QMINIP) ? CY_SYS_CLK_PLL_QMINIP : qMin;
2124:Generated_Source\PSoC4/CyLib.c **** 
2125:Generated_Source\PSoC4/CyLib.c ****             /* Maximum feed forward loop divisor */
2126:Generated_Source\PSoC4/CyLib.c ****             qMax = inputFreq / CY_SYS_CLK_PLL_FPFDMIN;
2127:Generated_Source\PSoC4/CyLib.c ****             qMax = (qMax > CY_SYS_CLK_PLL_QMAXIP) ? CY_SYS_CLK_PLL_QMAXIP : qMax;
2128:Generated_Source\PSoC4/CyLib.c **** 
2129:Generated_Source\PSoC4/CyLib.c ****             if (qMin <= qMax)
2130:Generated_Source\PSoC4/CyLib.c ****             {
2131:Generated_Source\PSoC4/CyLib.c ****                 for(q = qMin; q <= qMax; q++)
2132:Generated_Source\PSoC4/CyLib.c ****                 {
2133:Generated_Source\PSoC4/CyLib.c ****                     /* Solve for the feedback divisor value */
2134:Generated_Source\PSoC4/CyLib.c **** 
2135:Generated_Source\PSoC4/CyLib.c ****                     /* INT((pllFreq * q ) / inputFreq), where INT is normal rounding  */
ARM GAS  C:\Users\RYANCA~1\AppData\Local\Temp\ccZAR4Lf.s 			page 46


2136:Generated_Source\PSoC4/CyLib.c ****                     p = ((pllFreq * q) + (inputFreq / 2u)) / inputFreq;
2137:Generated_Source\PSoC4/CyLib.c **** 
2138:Generated_Source\PSoC4/CyLib.c ****                     /* Calculate the actual VCO frequency (FVCO) */
2139:Generated_Source\PSoC4/CyLib.c ****                     fvco = ((inputFreq * p) / q);
2140:Generated_Source\PSoC4/CyLib.c **** 
2141:Generated_Source\PSoC4/CyLib.c ****                     /* Calculate the frequency error (FERR) */
2142:Generated_Source\PSoC4/CyLib.c ****                     ferr = ((1000000 * ((int32) fvco - (int32) pllFreq))/ (int32) pllFreq);
2143:Generated_Source\PSoC4/CyLib.c **** 
2144:Generated_Source\PSoC4/CyLib.c ****                     /* Bound check the frequency error and decide next action */
2145:Generated_Source\PSoC4/CyLib.c ****                     if ((( -1 * (int32) freqTol) <= ferr) && (ferr <= (int32) freqTol))
2146:Generated_Source\PSoC4/CyLib.c ****                     {
2147:Generated_Source\PSoC4/CyLib.c ****                         qVal = q;
2148:Generated_Source\PSoC4/CyLib.c ****                         pVal = p;
2149:Generated_Source\PSoC4/CyLib.c ****                         break;
2150:Generated_Source\PSoC4/CyLib.c ****                     }
2151:Generated_Source\PSoC4/CyLib.c ****                 }
2152:Generated_Source\PSoC4/CyLib.c **** 
2153:Generated_Source\PSoC4/CyLib.c **** 
2154:Generated_Source\PSoC4/CyLib.c ****                 if ((pVal != CY_SYS_CLK_PLL_INVALID) && (qVal != CY_SYS_CLK_PLL_INVALID))
2155:Generated_Source\PSoC4/CyLib.c ****                 {
2156:Generated_Source\PSoC4/CyLib.c ****                     if (CySysClkPllSetPQ(pll, pVal, qVal, CY_SYS_CLK_PLL_CURRENT_DEFAULT) == CYRET_
2157:Generated_Source\PSoC4/CyLib.c ****                     {
2158:Generated_Source\PSoC4/CyLib.c ****                         returnStatus = CySysClkPllSetOutputDivider(pll, divider);
2159:Generated_Source\PSoC4/CyLib.c ****                     }
2160:Generated_Source\PSoC4/CyLib.c ****                 }
2161:Generated_Source\PSoC4/CyLib.c ****             }
2162:Generated_Source\PSoC4/CyLib.c **** 
2163:Generated_Source\PSoC4/CyLib.c ****         }
2164:Generated_Source\PSoC4/CyLib.c **** 
2165:Generated_Source\PSoC4/CyLib.c ****         return (returnStatus);
2166:Generated_Source\PSoC4/CyLib.c ****     }
2167:Generated_Source\PSoC4/CyLib.c **** 
2168:Generated_Source\PSoC4/CyLib.c ****     /*******************************************************************************
2169:Generated_Source\PSoC4/CyLib.c ****     * Function Name: CySysClkPllSetSource
2170:Generated_Source\PSoC4/CyLib.c ****     ****************************************************************************//**
2171:Generated_Source\PSoC4/CyLib.c ****     *
2172:Generated_Source\PSoC4/CyLib.c ****     *  Sets the input clock source to the PLL. The PLL must be disabled before
2173:Generated_Source\PSoC4/CyLib.c ****     *  calling this function.
2174:Generated_Source\PSoC4/CyLib.c ****     *
2175:Generated_Source\PSoC4/CyLib.c ****     *  This API is available only for PSoC 4200L / 4100S /4500 with PLL devices.
2176:Generated_Source\PSoC4/CyLib.c ****     *
2177:Generated_Source\PSoC4/CyLib.c ****     *  \param PLL:
2178:Generated_Source\PSoC4/CyLib.c ****     *  0   PLL#0
2179:Generated_Source\PSoC4/CyLib.c ****     *  1   PLL#1 (available only for PSoC 4200L)
2180:Generated_Source\PSoC4/CyLib.c ****     *
2181:Generated_Source\PSoC4/CyLib.c ****     * \param source:
2182:Generated_Source\PSoC4/CyLib.c ****     *  CY_SYS_PLL_SOURCE_IMO        IMO
2183:Generated_Source\PSoC4/CyLib.c ****     *  CY_SYS_PLL_SOURCE_EXTCLK     External Clock (available only for PSoC 4200L
2184:Generated_Source\PSoC4/CyLib.c ****     *  and PSoC 4500 with PLL devices)
2185:Generated_Source\PSoC4/CyLib.c ****     *  CY_SYS_PLL_SOURCE_ECO        ECO
2186:Generated_Source\PSoC4/CyLib.c ****     *  CY_SYS_PLL_SOURCE_DSI0       DSI_OUT[0] (available only for PSoC 4200L)
2187:Generated_Source\PSoC4/CyLib.c ****     *  CY_SYS_PLL_SOURCE_DSI1       DSI_OUT[1] (available only for PSoC 4200L)
2188:Generated_Source\PSoC4/CyLib.c ****     *  CY_SYS_PLL_SOURCE_DSI2       DSI_OUT[2] (available only for PSoC 4200L)
2189:Generated_Source\PSoC4/CyLib.c ****     *  CY_SYS_PLL_SOURCE_DSI3       DSI_OUT[3] (available only for PSoC 4200L)
2190:Generated_Source\PSoC4/CyLib.c ****     *
2191:Generated_Source\PSoC4/CyLib.c ****     *******************************************************************************/
2192:Generated_Source\PSoC4/CyLib.c ****     void CySysClkPllSetSource(uint32 pll, uint32 source)
ARM GAS  C:\Users\RYANCA~1\AppData\Local\Temp\ccZAR4Lf.s 			page 47


2193:Generated_Source\PSoC4/CyLib.c ****     {
2194:Generated_Source\PSoC4/CyLib.c ****         uint8  interruptState;
2195:Generated_Source\PSoC4/CyLib.c **** 
2196:Generated_Source\PSoC4/CyLib.c ****         #if (CY_IP_SRSSLT)
2197:Generated_Source\PSoC4/CyLib.c ****             uint8 i = 0u;
2198:Generated_Source\PSoC4/CyLib.c ****         #else
2199:Generated_Source\PSoC4/CyLib.c ****             uint32 regTmp;
2200:Generated_Source\PSoC4/CyLib.c ****         #endif /* (CY_IP_SRSSLT) */
2201:Generated_Source\PSoC4/CyLib.c **** 
2202:Generated_Source\PSoC4/CyLib.c ****         interruptState = CyEnterCriticalSection();
2203:Generated_Source\PSoC4/CyLib.c **** 
2204:Generated_Source\PSoC4/CyLib.c ****         if (pll < (uint32)CY_IP_PLL_NR)
2205:Generated_Source\PSoC4/CyLib.c ****         {
2206:Generated_Source\PSoC4/CyLib.c ****             #if(CY_IP_SRSSV2)
2207:Generated_Source\PSoC4/CyLib.c ****                 regTmp = CY_SYS_CLK_SELECT_REG & (uint32) ~CY_SYS_CLK_SELECT_PLL_MASK(pll);
2208:Generated_Source\PSoC4/CyLib.c ****                 regTmp |= ((source << CY_SYS_CLK_SELECT_PLL_SHIFT(pll)) & CY_SYS_CLK_SELECT_PLL_MAS
2209:Generated_Source\PSoC4/CyLib.c ****                 CY_SYS_CLK_SELECT_REG = regTmp;
2210:Generated_Source\PSoC4/CyLib.c ****             #else
2211:Generated_Source\PSoC4/CyLib.c ****                 CY_SET_REG32_FIELD(CYREG_EXCO_CLK_SELECT, CYFLD_EXCO_REF_SEL, source);
2212:Generated_Source\PSoC4/CyLib.c **** 
2213:Generated_Source\PSoC4/CyLib.c ****                 /* Check if ECO is enabled and running */
2214:Generated_Source\PSoC4/CyLib.c ****                 if ((0UL == (CY_SYS_CLK_ECO_CONFIG_REG & CY_SYS_CLK_ECO_CONFIG_ENABLE)) ||
2215:Generated_Source\PSoC4/CyLib.c ****                     (0UL != (CY_SYS_CLK_ECO_STATUS_REG & CY_SYS_CLK_ECO_STATUS_WATCHDOG_ERROR)))
2216:Generated_Source\PSoC4/CyLib.c ****                 {
2217:Generated_Source\PSoC4/CyLib.c ****                     /* Generate clock sequence to change clock source in CY_SYS_ECO_CLK_SELECT_REG 
2218:Generated_Source\PSoC4/CyLib.c ****                     CY_SYS_EXCO_PGM_CLK_REG |= CY_SYS_EXCO_PGM_CLK_ENABLE_MASK;
2219:Generated_Source\PSoC4/CyLib.c **** 
2220:Generated_Source\PSoC4/CyLib.c ****                     for(i = 0u; i < CY_SYS_EXCO_PGM_CLK_SEQ_GENERATOR; i++)
2221:Generated_Source\PSoC4/CyLib.c ****                     {
2222:Generated_Source\PSoC4/CyLib.c ****                         CY_SYS_EXCO_PGM_CLK_REG |= CY_SYS_EXCO_PGM_CLK_CLK_ECO_MASK;
2223:Generated_Source\PSoC4/CyLib.c ****                         CY_SYS_EXCO_PGM_CLK_REG &= ~CY_SYS_EXCO_PGM_CLK_CLK_ECO_MASK;
2224:Generated_Source\PSoC4/CyLib.c ****                     }
2225:Generated_Source\PSoC4/CyLib.c **** 
2226:Generated_Source\PSoC4/CyLib.c ****                     CY_SYS_EXCO_PGM_CLK_REG &= ~CY_SYS_EXCO_PGM_CLK_ENABLE_MASK;
2227:Generated_Source\PSoC4/CyLib.c ****                 }
2228:Generated_Source\PSoC4/CyLib.c **** 
2229:Generated_Source\PSoC4/CyLib.c ****             #endif /* (CY_IP_SRSSV2) */
2230:Generated_Source\PSoC4/CyLib.c ****         }
2231:Generated_Source\PSoC4/CyLib.c **** 
2232:Generated_Source\PSoC4/CyLib.c ****         CyExitCriticalSection(interruptState);
2233:Generated_Source\PSoC4/CyLib.c ****     }
2234:Generated_Source\PSoC4/CyLib.c **** 
2235:Generated_Source\PSoC4/CyLib.c **** 
2236:Generated_Source\PSoC4/CyLib.c ****     /*******************************************************************************
2237:Generated_Source\PSoC4/CyLib.c ****     * Function Name: CySysClkPllSetOutputDivider
2238:Generated_Source\PSoC4/CyLib.c ****     ****************************************************************************//**
2239:Generated_Source\PSoC4/CyLib.c ****     *
2240:Generated_Source\PSoC4/CyLib.c ****     *  Sets the output clock divider for the PLL.
2241:Generated_Source\PSoC4/CyLib.c ****     *
2242:Generated_Source\PSoC4/CyLib.c ****     *  The PLL must not be the System Clock source when calling this function. The
2243:Generated_Source\PSoC4/CyLib.c ****     *  PLL output will glitch during this function call.
2244:Generated_Source\PSoC4/CyLib.c ****     *
2245:Generated_Source\PSoC4/CyLib.c ****     *  This API is available only for PSoC 4200L / 4100S / 4500 with PLL devices.
2246:Generated_Source\PSoC4/CyLib.c ****     *
2247:Generated_Source\PSoC4/CyLib.c ****     *  \param PLL:
2248:Generated_Source\PSoC4/CyLib.c ****     *   0   PLL#0
2249:Generated_Source\PSoC4/CyLib.c ****     *   1   PLL#1 (available only for PSoC 4200L)
ARM GAS  C:\Users\RYANCA~1\AppData\Local\Temp\ccZAR4Lf.s 			page 48


2250:Generated_Source\PSoC4/CyLib.c ****     *
2251:Generated_Source\PSoC4/CyLib.c ****     * \param divider:
2252:Generated_Source\PSoC4/CyLib.c ****     *  CY_SYS_PLL_OUTPUT_DIVPASS    Pass through
2253:Generated_Source\PSoC4/CyLib.c ****     *  CY_SYS_PLL_OUTPUT_DIV2       Divide by 2
2254:Generated_Source\PSoC4/CyLib.c ****     *  CY_SYS_PLL_OUTPUT_DIV4       Divide by 4
2255:Generated_Source\PSoC4/CyLib.c ****     *  CY_SYS_PLL_OUTPUT_DIV8       Divide by 8
2256:Generated_Source\PSoC4/CyLib.c ****     *
2257:Generated_Source\PSoC4/CyLib.c ****     * \return \ref CYRET_SUCCESS    Completed successfully.
2258:Generated_Source\PSoC4/CyLib.c ****     * \return \ref CYRET_BAD_PARAM  The parameters are out of range or the
2259:Generated_Source\PSoC4/CyLib.c ****     * specified PLL sources the System clock.
2260:Generated_Source\PSoC4/CyLib.c ****     *
2261:Generated_Source\PSoC4/CyLib.c ****     *******************************************************************************/
2262:Generated_Source\PSoC4/CyLib.c ****     cystatus CySysClkPllSetOutputDivider(uint32 pll, uint32 divider)
2263:Generated_Source\PSoC4/CyLib.c ****     {
2264:Generated_Source\PSoC4/CyLib.c ****         uint32   tmpReg;
2265:Generated_Source\PSoC4/CyLib.c ****         uint8    interruptState;
2266:Generated_Source\PSoC4/CyLib.c ****         cystatus returnStatus = CYRET_BAD_PARAM;
2267:Generated_Source\PSoC4/CyLib.c ****         cystatus tmp;
2268:Generated_Source\PSoC4/CyLib.c **** 
2269:Generated_Source\PSoC4/CyLib.c **** 
2270:Generated_Source\PSoC4/CyLib.c ****         interruptState = CyEnterCriticalSection();
2271:Generated_Source\PSoC4/CyLib.c **** 
2272:Generated_Source\PSoC4/CyLib.c ****         tmp = CySysClkPllConfigChangeAllowed(pll);
2273:Generated_Source\PSoC4/CyLib.c **** 
2274:Generated_Source\PSoC4/CyLib.c ****         if ((pll < (uint32)CY_IP_PLL_NR) && (CYRET_SUCCESS == tmp) && (divider <= CY_SYS_PLL_OUTPUT
2275:Generated_Source\PSoC4/CyLib.c ****         {
2276:Generated_Source\PSoC4/CyLib.c ****             tmpReg  = CY_SYS_CLK_PLL_BASE.pll[pll].config & (uint32) ~(CY_SYS_CLK_PLL_CONFIG_OUTPUT
2277:Generated_Source\PSoC4/CyLib.c ****             tmpReg |= ((divider << CY_SYS_CLK_PLL_CONFIG_OUTPUT_DIV_SHIFT) & CY_SYS_CLK_PLL_CONFIG_
2278:Generated_Source\PSoC4/CyLib.c **** 
2279:Generated_Source\PSoC4/CyLib.c ****             CY_SYS_CLK_PLL_BASE.pll[pll].config = tmpReg;
2280:Generated_Source\PSoC4/CyLib.c **** 
2281:Generated_Source\PSoC4/CyLib.c ****             returnStatus = CYRET_SUCCESS;
2282:Generated_Source\PSoC4/CyLib.c ****         }
2283:Generated_Source\PSoC4/CyLib.c **** 
2284:Generated_Source\PSoC4/CyLib.c ****         CyExitCriticalSection(interruptState);
2285:Generated_Source\PSoC4/CyLib.c **** 
2286:Generated_Source\PSoC4/CyLib.c ****         return (returnStatus);
2287:Generated_Source\PSoC4/CyLib.c ****     }
2288:Generated_Source\PSoC4/CyLib.c **** 
2289:Generated_Source\PSoC4/CyLib.c **** 
2290:Generated_Source\PSoC4/CyLib.c ****     #if (CY_IP_ECOV2_SRSSLT)
2291:Generated_Source\PSoC4/CyLib.c ****         /*******************************************************************************
2292:Generated_Source\PSoC4/CyLib.c ****         * Function Name: CySysClkPllGetInterruptCauseMasked
2293:Generated_Source\PSoC4/CyLib.c ****         ****************************************************************************//**
2294:Generated_Source\PSoC4/CyLib.c ****         *
2295:Generated_Source\PSoC4/CyLib.c ****         *  Returns a non-zero value that reflects a bit-wise AND between interrupt
2296:Generated_Source\PSoC4/CyLib.c ****         *  request and mask registers. The API allows firmware to read the status of
2297:Generated_Source\PSoC4/CyLib.c ****         *  all mask enabled interrupt causes with a single load operation.
2298:Generated_Source\PSoC4/CyLib.c ****         *
2299:Generated_Source\PSoC4/CyLib.c ****         *  This API is available only for PSoC 4500 with PLL devices.
2300:Generated_Source\PSoC4/CyLib.c ****         *
2301:Generated_Source\PSoC4/CyLib.c ****         * \return A set bit indicates the source of the interrupt:
2302:Generated_Source\PSoC4/CyLib.c ****         *  *CY_SYS_PLL_INTR_PLL_LOCK
2303:Generated_Source\PSoC4/CyLib.c ****         *  *CY_SYS_PLL_INTR_WD_ERR
2304:Generated_Source\PSoC4/CyLib.c ****         *  *CY_SYS_PLL_INTR_CSV_CLK_SW
2305:Generated_Source\PSoC4/CyLib.c ****         *
2306:Generated_Source\PSoC4/CyLib.c ****         *******************************************************************************/
ARM GAS  C:\Users\RYANCA~1\AppData\Local\Temp\ccZAR4Lf.s 			page 49


2307:Generated_Source\PSoC4/CyLib.c ****         uint32 CySysClkPllGetInterruptCauseMasked(void)
2308:Generated_Source\PSoC4/CyLib.c ****         {
2309:Generated_Source\PSoC4/CyLib.c ****             return ((uint32)CY_GET_REG32(CYREG_EXCO_INTR_MASKED));
2310:Generated_Source\PSoC4/CyLib.c ****         }
2311:Generated_Source\PSoC4/CyLib.c **** 
2312:Generated_Source\PSoC4/CyLib.c **** 
2313:Generated_Source\PSoC4/CyLib.c ****         /*******************************************************************************
2314:Generated_Source\PSoC4/CyLib.c ****         * Function Name: CySysClkPllGetInterruptCause
2315:Generated_Source\PSoC4/CyLib.c ****         ****************************************************************************//**
2316:Generated_Source\PSoC4/CyLib.c ****         *
2317:Generated_Source\PSoC4/CyLib.c ****         *  Returns a non-zero value that reflects the interrupt request registers.
2318:Generated_Source\PSoC4/CyLib.c ****         *
2319:Generated_Source\PSoC4/CyLib.c ****         *  This API is available only for PSoC 4500 with PLL devices.
2320:Generated_Source\PSoC4/CyLib.c ****         *
2321:Generated_Source\PSoC4/CyLib.c ****         * \return A set bit indicates the source of the interrupt:
2322:Generated_Source\PSoC4/CyLib.c ****         *  *CY_SYS_PLL_INTR_PLL_LOCK
2323:Generated_Source\PSoC4/CyLib.c ****         *  *CY_SYS_PLL_INTR_WD_ERR
2324:Generated_Source\PSoC4/CyLib.c ****         *  *CY_SYS_PLL_INTR_CSV_CLK_SW
2325:Generated_Source\PSoC4/CyLib.c ****         *
2326:Generated_Source\PSoC4/CyLib.c ****         *******************************************************************************/
2327:Generated_Source\PSoC4/CyLib.c ****         uint32 CySysClkPllGetInterruptCause(void)
2328:Generated_Source\PSoC4/CyLib.c ****         {
2329:Generated_Source\PSoC4/CyLib.c ****             return ((uint32)CY_GET_REG32(CYREG_EXCO_INTR));
2330:Generated_Source\PSoC4/CyLib.c ****         }
2331:Generated_Source\PSoC4/CyLib.c **** 
2332:Generated_Source\PSoC4/CyLib.c **** 
2333:Generated_Source\PSoC4/CyLib.c ****         /*******************************************************************************
2334:Generated_Source\PSoC4/CyLib.c ****         * Function Name: CySysClkPllClearPendingInterrupt
2335:Generated_Source\PSoC4/CyLib.c ****         ****************************************************************************//**
2336:Generated_Source\PSoC4/CyLib.c ****         *
2337:Generated_Source\PSoC4/CyLib.c ****         *  Clears the pending interrupt.
2338:Generated_Source\PSoC4/CyLib.c ****         *
2339:Generated_Source\PSoC4/CyLib.c ****         *  This API is available only for PSoC 4500 with PLL devices.
2340:Generated_Source\PSoC4/CyLib.c ****         *
2341:Generated_Source\PSoC4/CyLib.c ****         * \param interrupt:
2342:Generated_Source\PSoC4/CyLib.c ****         *  CY_SYS_PLL_INTR_PLL_LOCK
2343:Generated_Source\PSoC4/CyLib.c ****         *  CY_SYS_PLL_INTR_WD_ERR
2344:Generated_Source\PSoC4/CyLib.c ****         *  CY_SYS_PLL_INTR_CSV_CLK_SW
2345:Generated_Source\PSoC4/CyLib.c ****         *  A logical OR of above can be used as input parameter.
2346:Generated_Source\PSoC4/CyLib.c ****         *
2347:Generated_Source\PSoC4/CyLib.c ****         *******************************************************************************/
2348:Generated_Source\PSoC4/CyLib.c ****         void CySysClkPllClearPendingInterrupt(uint32 interrupt)
2349:Generated_Source\PSoC4/CyLib.c ****         {
2350:Generated_Source\PSoC4/CyLib.c ****             CY_SET_REG32(CYREG_EXCO_INTR, interrupt);
2351:Generated_Source\PSoC4/CyLib.c ****         }
2352:Generated_Source\PSoC4/CyLib.c **** 
2353:Generated_Source\PSoC4/CyLib.c **** 
2354:Generated_Source\PSoC4/CyLib.c ****         /*******************************************************************************
2355:Generated_Source\PSoC4/CyLib.c ****         * Function Name: CySysClkPllSetInterruptMask
2356:Generated_Source\PSoC4/CyLib.c ****         ****************************************************************************//**
2357:Generated_Source\PSoC4/CyLib.c ****         *
2358:Generated_Source\PSoC4/CyLib.c ****         *  This API sets the interrupt mask bit for the corresponding interrupts.
2359:Generated_Source\PSoC4/CyLib.c ****         *
2360:Generated_Source\PSoC4/CyLib.c ****         *  This API is available only for PSoC 4500 with PLL devices.
2361:Generated_Source\PSoC4/CyLib.c ****         *
2362:Generated_Source\PSoC4/CyLib.c ****         * \param intrMask:
2363:Generated_Source\PSoC4/CyLib.c ****         *  CY_SYS_PLL_INTR_PLL_LOCK
ARM GAS  C:\Users\RYANCA~1\AppData\Local\Temp\ccZAR4Lf.s 			page 50


2364:Generated_Source\PSoC4/CyLib.c ****         *  CY_SYS_PLL_INTR_WD_ERR
2365:Generated_Source\PSoC4/CyLib.c ****         *  CY_SYS_PLL_INTR_CSV_CLK_SW
2366:Generated_Source\PSoC4/CyLib.c ****         *  A logical OR of above can be used as input parameter.
2367:Generated_Source\PSoC4/CyLib.c ****         *
2368:Generated_Source\PSoC4/CyLib.c ****         *******************************************************************************/
2369:Generated_Source\PSoC4/CyLib.c ****         void CySysClkPllSetInterruptMask(uint32 intrMask)
2370:Generated_Source\PSoC4/CyLib.c ****         {
2371:Generated_Source\PSoC4/CyLib.c ****             CY_SET_REG32(CYREG_EXCO_INTR_MASK, intrMask);
2372:Generated_Source\PSoC4/CyLib.c ****         }
2373:Generated_Source\PSoC4/CyLib.c **** 
2374:Generated_Source\PSoC4/CyLib.c **** 
2375:Generated_Source\PSoC4/CyLib.c ****         /*******************************************************************************
2376:Generated_Source\PSoC4/CyLib.c ****         * Function Name: CySysClkPllGetInterruptMask
2377:Generated_Source\PSoC4/CyLib.c ****         ****************************************************************************//**
2378:Generated_Source\PSoC4/CyLib.c ****         *
2379:Generated_Source\PSoC4/CyLib.c ****         *  This API returns the current interrupt mask register value.
2380:Generated_Source\PSoC4/CyLib.c ****         *
2381:Generated_Source\PSoC4/CyLib.c ****         *  This API is available only for PSoC 4500 with PLL devices.
2382:Generated_Source\PSoC4/CyLib.c ****         *
2383:Generated_Source\PSoC4/CyLib.c ****         * \return A set bit indicates the source of the interrupt:
2384:Generated_Source\PSoC4/CyLib.c ****         *  *CY_SYS_PLL_INTR_PLL_LOCK
2385:Generated_Source\PSoC4/CyLib.c ****         *  *CY_SYS_PLL_INTR_WD_ERR
2386:Generated_Source\PSoC4/CyLib.c ****         *  *CY_SYS_PLL_INTR_CSV_CLK_SW
2387:Generated_Source\PSoC4/CyLib.c ****         *
2388:Generated_Source\PSoC4/CyLib.c ****         *******************************************************************************/
2389:Generated_Source\PSoC4/CyLib.c ****         uint32 CySysClkPllGetInterruptMask(void)
2390:Generated_Source\PSoC4/CyLib.c ****         {
2391:Generated_Source\PSoC4/CyLib.c ****             return ((uint32)CY_GET_REG32(CYREG_EXCO_INTR_MASK));
2392:Generated_Source\PSoC4/CyLib.c ****         }
2393:Generated_Source\PSoC4/CyLib.c **** 
2394:Generated_Source\PSoC4/CyLib.c **** 
2395:Generated_Source\PSoC4/CyLib.c ****         /*******************************************************************************
2396:Generated_Source\PSoC4/CyLib.c ****         * Function Name: CySysClkPllSetInterrupt
2397:Generated_Source\PSoC4/CyLib.c ****         ****************************************************************************//**
2398:Generated_Source\PSoC4/CyLib.c ****         *
2399:Generated_Source\PSoC4/CyLib.c ****         *  This API asserts an interrupt. This can be used for firmware debugging.
2400:Generated_Source\PSoC4/CyLib.c ****         *
2401:Generated_Source\PSoC4/CyLib.c ****         *  This API is available only for PSoC 4500 with PLL devices.
2402:Generated_Source\PSoC4/CyLib.c ****         *
2403:Generated_Source\PSoC4/CyLib.c ****         * \param interrupt:
2404:Generated_Source\PSoC4/CyLib.c ****         *  CY_SYS_PLL_INTR_PLL_LOCK
2405:Generated_Source\PSoC4/CyLib.c ****         *  CY_SYS_PLL_INTR_WD_ERR
2406:Generated_Source\PSoC4/CyLib.c ****         *  CY_SYS_PLL_INTR_CSV_CLK_SW
2407:Generated_Source\PSoC4/CyLib.c ****         *  A logical OR of above can be used as input parameter.
2408:Generated_Source\PSoC4/CyLib.c ****         *
2409:Generated_Source\PSoC4/CyLib.c ****         *******************************************************************************/
2410:Generated_Source\PSoC4/CyLib.c ****         void CySysClkPllSetInterrupt(uint32 interrupt)
2411:Generated_Source\PSoC4/CyLib.c ****         {
2412:Generated_Source\PSoC4/CyLib.c ****             CY_SET_REG32(CYREG_EXCO_INTR_SET, interrupt);
2413:Generated_Source\PSoC4/CyLib.c ****         }
2414:Generated_Source\PSoC4/CyLib.c **** 
2415:Generated_Source\PSoC4/CyLib.c **** 
2416:Generated_Source\PSoC4/CyLib.c ****         /*******************************************************************************
2417:Generated_Source\PSoC4/CyLib.c ****         * Function Name: CySysClkPllCsvEnable
2418:Generated_Source\PSoC4/CyLib.c ****         ****************************************************************************//**
2419:Generated_Source\PSoC4/CyLib.c ****         *
2420:Generated_Source\PSoC4/CyLib.c ****         * This API enables clock supervision on PLL frequency lock and loss.
ARM GAS  C:\Users\RYANCA~1\AppData\Local\Temp\ccZAR4Lf.s 			page 51


2421:Generated_Source\PSoC4/CyLib.c ****         *
2422:Generated_Source\PSoC4/CyLib.c ****         * This API is available only for PSoC 4500 with PLL devices.
2423:Generated_Source\PSoC4/CyLib.c ****         *
2424:Generated_Source\PSoC4/CyLib.c ****         *******************************************************************************/
2425:Generated_Source\PSoC4/CyLib.c ****         void CySysClkPllCsvEnable(void)
2426:Generated_Source\PSoC4/CyLib.c ****         {
2427:Generated_Source\PSoC4/CyLib.c ****             CY_SET_REG32_FIELD(CYREG_EXCO_REF_CTL, CYFLD_EXCO_CSV_EN, 0x1uL);
2428:Generated_Source\PSoC4/CyLib.c ****         }
2429:Generated_Source\PSoC4/CyLib.c **** 
2430:Generated_Source\PSoC4/CyLib.c **** 
2431:Generated_Source\PSoC4/CyLib.c ****         /*******************************************************************************
2432:Generated_Source\PSoC4/CyLib.c ****         * Function Name: CySysClkPllCsvDisable
2433:Generated_Source\PSoC4/CyLib.c ****         ****************************************************************************//**
2434:Generated_Source\PSoC4/CyLib.c ****         *
2435:Generated_Source\PSoC4/CyLib.c ****         * This API disables clock supervision on PLL.
2436:Generated_Source\PSoC4/CyLib.c ****         *
2437:Generated_Source\PSoC4/CyLib.c ****         * This API is available only for PSoC 4500 with PLL devices.
2438:Generated_Source\PSoC4/CyLib.c ****         *
2439:Generated_Source\PSoC4/CyLib.c ****         *******************************************************************************/
2440:Generated_Source\PSoC4/CyLib.c ****         void CySysClkPllCsvDisable(void)
2441:Generated_Source\PSoC4/CyLib.c ****         {
2442:Generated_Source\PSoC4/CyLib.c ****             CY_CLEAR_REG32_FIELD(CYREG_EXCO_REF_CTL, CYFLD_EXCO_CSV_EN);
2443:Generated_Source\PSoC4/CyLib.c ****         }
2444:Generated_Source\PSoC4/CyLib.c **** 
2445:Generated_Source\PSoC4/CyLib.c **** 
2446:Generated_Source\PSoC4/CyLib.c ****         /*******************************************************************************
2447:Generated_Source\PSoC4/CyLib.c ****         * Function Name: CySysClkPllCsvSetSpvrCtl
2448:Generated_Source\PSoC4/CyLib.c ****         ****************************************************************************//**
2449:Generated_Source\PSoC4/CyLib.c ****         *
2450:Generated_Source\PSoC4/CyLib.c ****         *  This API enables sets the clock supervision parameters.
2451:Generated_Source\PSoC4/CyLib.c ****         *
2452:Generated_Source\PSoC4/CyLib.c ****         *  This API is available only for PSoC 4500 with PLL devices.
2453:Generated_Source\PSoC4/CyLib.c ****         *
2454:Generated_Source\PSoC4/CyLib.c ****         * \param startupDelay:
2455:Generated_Source\PSoC4/CyLib.c ****         *  startup delay time -1 in reference clock cycles after enable
2456:Generated_Source\PSoC4/CyLib.c ****         *  or deep sleep wake up from reference clock start to monitored clock start
2457:Generated_Source\PSoC4/CyLib.c ****         *
2458:Generated_Source\PSoC4/CyLib.c ****         * \param csvSwitch:
2459:Generated_Source\PSoC4/CyLib.c ****         * CY_SYS_PLL_CSV_INT_EN  Enable INTR.CSV_CLK_SW if a clock switch occurs to IMO
2460:Generated_Source\PSoC4/CyLib.c ****         * CY_SYS_PLL_CSV_TRIG_EN  Enable CSV to cause trigger if a clock switch occurs to IMO
2461:Generated_Source\PSoC4/CyLib.c ****         * CY_SYS_PLL_CSV_CLK_SW_EN  Enable CSV to cause clock switch IMO (enabled by default in 
2462:Generated_Source\PSoC4/CyLib.c ****         *
2463:Generated_Source\PSoC4/CyLib.c ****         *******************************************************************************/
2464:Generated_Source\PSoC4/CyLib.c ****         void CySysClkPllCsvSetSpvrCtl(uint32 startupDelay, uint32 csvSwitch)
2465:Generated_Source\PSoC4/CyLib.c ****         {
2466:Generated_Source\PSoC4/CyLib.c ****             uint32 tmpRegVal = CY_GET_REG32(CYREG_EXCO_REF_CTL);
2467:Generated_Source\PSoC4/CyLib.c **** 
2468:Generated_Source\PSoC4/CyLib.c ****             tmpRegVal &= ~(CY_SYS_PLL_STARTUP_MASK | CY_SYS_PLL_CSV_MASK);
2469:Generated_Source\PSoC4/CyLib.c ****             tmpRegVal |= (startupDelay | csvSwitch);
2470:Generated_Source\PSoC4/CyLib.c **** 
2471:Generated_Source\PSoC4/CyLib.c ****             CY_SET_REG32(CYREG_EXCO_REF_CTL, tmpRegVal);
2472:Generated_Source\PSoC4/CyLib.c ****         }
2473:Generated_Source\PSoC4/CyLib.c **** 
2474:Generated_Source\PSoC4/CyLib.c **** 
2475:Generated_Source\PSoC4/CyLib.c ****         /*******************************************************************************
2476:Generated_Source\PSoC4/CyLib.c ****         * Function Name: CySysClkPllCsvSetRefLimits
2477:Generated_Source\PSoC4/CyLib.c ****         ****************************************************************************//**
ARM GAS  C:\Users\RYANCA~1\AppData\Local\Temp\ccZAR4Lf.s 			page 52


2478:Generated_Source\PSoC4/CyLib.c ****         *
2479:Generated_Source\PSoC4/CyLib.c ****         *  This API sets the cycle time lower and upper limits.
2480:Generated_Source\PSoC4/CyLib.c ****         *
2481:Generated_Source\PSoC4/CyLib.c ****         *  This API is available only for PSoC 4500 with PLL devices.
2482:Generated_Source\PSoC4/CyLib.c ****         *
2483:Generated_Source\PSoC4/CyLib.c ****         * \param lower:
2484:Generated_Source\PSoC4/CyLib.c ****         *  Sets the lower limit -1, in reference clock cycles,
2485:Generated_Source\PSoC4/CyLib.c ****         *  before the next monitored clock event is allowed to happen.  If a monitored
2486:Generated_Source\PSoC4/CyLib.c ****         *  clock event happens before this limit is reached a CSV error is detected.
2487:Generated_Source\PSoC4/CyLib.c ****         *
2488:Generated_Source\PSoC4/CyLib.c ****         * \param upper:
2489:Generated_Source\PSoC4/CyLib.c ****         *  Sets the upper limit -1, in reference clock cycles, before (or same time)
2490:Generated_Source\PSoC4/CyLib.c ****         *  the next monitored clock event must happen.  If a monitored clock event
2491:Generated_Source\PSoC4/CyLib.c ****         *  does not happen before this limit is reached, or does not happen at all
2492:Generated_Source\PSoC4/CyLib.c ****         *  (clock loss), a CSV error is detected.
2493:Generated_Source\PSoC4/CyLib.c ****         *
2494:Generated_Source\PSoC4/CyLib.c ****         *******************************************************************************/
2495:Generated_Source\PSoC4/CyLib.c ****         void CySysClkPllCsvSetRefLimits(uint32 lower, uint32 upper)
2496:Generated_Source\PSoC4/CyLib.c ****         {
2497:Generated_Source\PSoC4/CyLib.c ****             uint32 tmpRegVal = CY_GET_REG32(CYREG_EXCO_REF_LIMIT);
2498:Generated_Source\PSoC4/CyLib.c **** 
2499:Generated_Source\PSoC4/CyLib.c ****             tmpRegVal &= ~(CY_SYS_PLL_REF_LIMIT_LOWER_MASK | CY_SYS_PLL_REF_LIMIT_UPPER_MASK);
2500:Generated_Source\PSoC4/CyLib.c ****             tmpRegVal |= (lower | ((uint32)(upper << CY_SYS_PLL_REF_LIMIT_UPPER_OFFSET)));
2501:Generated_Source\PSoC4/CyLib.c **** 
2502:Generated_Source\PSoC4/CyLib.c ****             CY_SET_REG32(CYREG_EXCO_REF_LIMIT, tmpRegVal);
2503:Generated_Source\PSoC4/CyLib.c ****         }
2504:Generated_Source\PSoC4/CyLib.c **** 
2505:Generated_Source\PSoC4/CyLib.c **** 
2506:Generated_Source\PSoC4/CyLib.c ****         /*******************************************************************************
2507:Generated_Source\PSoC4/CyLib.c ****         * Function Name: CySysClkPllCsvGetRefLimits
2508:Generated_Source\PSoC4/CyLib.c ****         ****************************************************************************//**
2509:Generated_Source\PSoC4/CyLib.c ****         *
2510:Generated_Source\PSoC4/CyLib.c ****         *  This API gets the cycle time lower and upper limits.
2511:Generated_Source\PSoC4/CyLib.c ****         *
2512:Generated_Source\PSoC4/CyLib.c ****         *  This API is available only for PSoC 4500 with PLL devices.
2513:Generated_Source\PSoC4/CyLib.c ****         *
2514:Generated_Source\PSoC4/CyLib.c ****         * \return
2515:Generated_Source\PSoC4/CyLib.c ****         *  *Bits 31:16  upper limit
2516:Generated_Source\PSoC4/CyLib.c ****         *  *Bits 15:0  lower limit
2517:Generated_Source\PSoC4/CyLib.c ****         *
2518:Generated_Source\PSoC4/CyLib.c ****         *******************************************************************************/
2519:Generated_Source\PSoC4/CyLib.c ****         uint32 CySysClkPllCsvGetRefLimits(void)
2520:Generated_Source\PSoC4/CyLib.c ****         {
2521:Generated_Source\PSoC4/CyLib.c ****             return ((uint32)CY_GET_REG32(CYREG_EXCO_REF_LIMIT));
2522:Generated_Source\PSoC4/CyLib.c ****         }
2523:Generated_Source\PSoC4/CyLib.c **** 
2524:Generated_Source\PSoC4/CyLib.c **** 
2525:Generated_Source\PSoC4/CyLib.c ****         /*******************************************************************************
2526:Generated_Source\PSoC4/CyLib.c ****         * Function Name: CySysClkPllCsvSetPeriod
2527:Generated_Source\PSoC4/CyLib.c ****         ****************************************************************************//**
2528:Generated_Source\PSoC4/CyLib.c ****         *
2529:Generated_Source\PSoC4/CyLib.c ****         *  This API sets the csv period time.
2530:Generated_Source\PSoC4/CyLib.c ****         *
2531:Generated_Source\PSoC4/CyLib.c ****         *  This API is available only for PSoC 4500 with PLL devices.
2532:Generated_Source\PSoC4/CyLib.c ****         *
2533:Generated_Source\PSoC4/CyLib.c ****         * \param period:
2534:Generated_Source\PSoC4/CyLib.c ****         *  Set the Period -1, in monitored clock cycles, before the next monitored
ARM GAS  C:\Users\RYANCA~1\AppData\Local\Temp\ccZAR4Lf.s 			page 53


2535:Generated_Source\PSoC4/CyLib.c ****         *  clock event happens.
2536:Generated_Source\PSoC4/CyLib.c ****         *  PERIOD <=  (UPPER+1) / FREQ_RATIO -1, with
2537:Generated_Source\PSoC4/CyLib.c ****         *  FREQ_RATIO = (Reference frequency / Monitored frequency).
2538:Generated_Source\PSoC4/CyLib.c ****         *  In case the clocks are asynchronous: PERIOD <=  UPPER / FREQ_RATIO -1
2539:Generated_Source\PSoC4/CyLib.c ****         *
2540:Generated_Source\PSoC4/CyLib.c ****         *******************************************************************************/
2541:Generated_Source\PSoC4/CyLib.c ****         void CySysClkPllCsvSetPeriod(uint32 period)
2542:Generated_Source\PSoC4/CyLib.c ****         {
2543:Generated_Source\PSoC4/CyLib.c ****             CY_SET_REG32_FIELD(CYREG_EXCO_MON_CTL, CYFLD_EXCO_PERIOD, period);
2544:Generated_Source\PSoC4/CyLib.c ****         }
2545:Generated_Source\PSoC4/CyLib.c **** 
2546:Generated_Source\PSoC4/CyLib.c **** 
2547:Generated_Source\PSoC4/CyLib.c ****         /*******************************************************************************
2548:Generated_Source\PSoC4/CyLib.c ****         * Function Name: CySysClkPllCsvGetPeriod
2549:Generated_Source\PSoC4/CyLib.c ****         ****************************************************************************//**
2550:Generated_Source\PSoC4/CyLib.c ****         *
2551:Generated_Source\PSoC4/CyLib.c ****         *  This API returns the CSV period time.
2552:Generated_Source\PSoC4/CyLib.c ****         *
2553:Generated_Source\PSoC4/CyLib.c ****         *  This API is available only for PSoC 4500 with PLL devices.
2554:Generated_Source\PSoC4/CyLib.c ****         *
2555:Generated_Source\PSoC4/CyLib.c ****         * \return Period time
2556:Generated_Source\PSoC4/CyLib.c ****         *
2557:Generated_Source\PSoC4/CyLib.c ****         *******************************************************************************/
2558:Generated_Source\PSoC4/CyLib.c ****         uint32 CySysClkPllCsvGetPeriod(void)
2559:Generated_Source\PSoC4/CyLib.c ****         {
2560:Generated_Source\PSoC4/CyLib.c ****             return ((uint32)CY_GET_REG32_FIELD(CYREG_EXCO_MON_CTL, CYFLD_EXCO_PERIOD));
2561:Generated_Source\PSoC4/CyLib.c ****         }
2562:Generated_Source\PSoC4/CyLib.c **** 
2563:Generated_Source\PSoC4/CyLib.c **** 
2564:Generated_Source\PSoC4/CyLib.c ****         /*******************************************************************************
2565:Generated_Source\PSoC4/CyLib.c ****         * Function Name: CySysClkPllCsvEnableReset
2566:Generated_Source\PSoC4/CyLib.c ****         ****************************************************************************//**
2567:Generated_Source\PSoC4/CyLib.c ****         *
2568:Generated_Source\PSoC4/CyLib.c ****         *  This API enables the system reset feature when the clock supervisor switches
2569:Generated_Source\PSoC4/CyLib.c ****         *  the clock source to IMO. A programmable delay counter starts at delay count
2570:Generated_Source\PSoC4/CyLib.c ****         *  value (see CySysClkPllCsvReloadPgmDlyCounter API) and counts down.
2571:Generated_Source\PSoC4/CyLib.c ****         *
2572:Generated_Source\PSoC4/CyLib.c ****         *  The CSV block will assert system reset when the counter reaches zero unless
2573:Generated_Source\PSoC4/CyLib.c ****         *  firmware intervenes and reloads the counter using
2574:Generated_Source\PSoC4/CyLib.c ****         *  CySysClkPllCsvReloadPgmDlyCounter() API.
2575:Generated_Source\PSoC4/CyLib.c ****         *
2576:Generated_Source\PSoC4/CyLib.c ****         *  This API is available only for PSoC 4500 with PLL devices.
2577:Generated_Source\PSoC4/CyLib.c ****         *
2578:Generated_Source\PSoC4/CyLib.c ****         *  Side Effects and Restrictions:
2579:Generated_Source\PSoC4/CyLib.c ****         *  If a clock switch occurs, CSV block will reset the device when the delay
2580:Generated_Source\PSoC4/CyLib.c ****         *  counter reaches zero unless firmware reloads the counter using
2581:Generated_Source\PSoC4/CyLib.c ****         *  CySysClkPllCsvReloadPgmDlyCounter() API.
2582:Generated_Source\PSoC4/CyLib.c ****         *
2583:Generated_Source\PSoC4/CyLib.c ****         *******************************************************************************/
2584:Generated_Source\PSoC4/CyLib.c ****         void CySysClkPllCsvEnableReset(void)
2585:Generated_Source\PSoC4/CyLib.c ****         {
2586:Generated_Source\PSoC4/CyLib.c ****             CY_SET_REG32_FIELD(CYREG_EXCO_RSTDLY_CTL, CYFLD_EXCO_EN, 0x1uL);
2587:Generated_Source\PSoC4/CyLib.c ****         }
2588:Generated_Source\PSoC4/CyLib.c **** 
2589:Generated_Source\PSoC4/CyLib.c **** 
2590:Generated_Source\PSoC4/CyLib.c ****         /*******************************************************************************
2591:Generated_Source\PSoC4/CyLib.c ****         * Function Name: CySysClkPllCsvDisableReset
ARM GAS  C:\Users\RYANCA~1\AppData\Local\Temp\ccZAR4Lf.s 			page 54


2592:Generated_Source\PSoC4/CyLib.c ****         ****************************************************************************//**
2593:Generated_Source\PSoC4/CyLib.c ****         *
2594:Generated_Source\PSoC4/CyLib.c ****         *  This API disables the system reset feature when the clock supervisor
2595:Generated_Source\PSoC4/CyLib.c ****         *  switches the clock source to IMO.
2596:Generated_Source\PSoC4/CyLib.c ****         *
2597:Generated_Source\PSoC4/CyLib.c ****         *  This API is available only for PSoC 4500 with PLL devices.
2598:Generated_Source\PSoC4/CyLib.c ****         *
2599:Generated_Source\PSoC4/CyLib.c ****         *******************************************************************************/
2600:Generated_Source\PSoC4/CyLib.c ****         void CySysClkPllCsvDisableReset(void)
2601:Generated_Source\PSoC4/CyLib.c ****         {
2602:Generated_Source\PSoC4/CyLib.c ****             CY_CLEAR_REG32_FIELD(CYREG_EXCO_RSTDLY_CTL, CYFLD_EXCO_EN);
2603:Generated_Source\PSoC4/CyLib.c ****         }
2604:Generated_Source\PSoC4/CyLib.c **** 
2605:Generated_Source\PSoC4/CyLib.c **** 
2606:Generated_Source\PSoC4/CyLib.c ****         /*******************************************************************************
2607:Generated_Source\PSoC4/CyLib.c ****         * Function Name: CySysClkPllCsvReloadPgmDlyCounter
2608:Generated_Source\PSoC4/CyLib.c ****         ****************************************************************************//**
2609:Generated_Source\PSoC4/CyLib.c ****         *
2610:Generated_Source\PSoC4/CyLib.c ****         *  This API reloads the programmable delay counter with the delay count value.
2611:Generated_Source\PSoC4/CyLib.c ****         *
2612:Generated_Source\PSoC4/CyLib.c ****         *  This API is available only for PSoC 4500 with PLL devices.
2613:Generated_Source\PSoC4/CyLib.c ****         *
2614:Generated_Source\PSoC4/CyLib.c ****         * \param delayCount:
2615:Generated_Source\PSoC4/CyLib.c ****         *  Valid range 0-65535, device default value is 256.
2616:Generated_Source\PSoC4/CyLib.c ****         *  Sets the # of counts of IMO clock before system reset is asserted.
2617:Generated_Source\PSoC4/CyLib.c ****         *
2618:Generated_Source\PSoC4/CyLib.c ****         *
2619:Generated_Source\PSoC4/CyLib.c ****         *******************************************************************************/
2620:Generated_Source\PSoC4/CyLib.c ****         void CySysClkPllCsvReloadPgmDlyCounter(uint32 delayCount)
2621:Generated_Source\PSoC4/CyLib.c ****         {
2622:Generated_Source\PSoC4/CyLib.c ****             CY_SET_REG32_FIELD(CYREG_EXCO_RSTDLY, CYFLD_EXCO_DLYCOUNT, delayCount);
2623:Generated_Source\PSoC4/CyLib.c ****             CY_SET_REG32_FIELD(CYREG_EXCO_RSTDLY_CTL, CYFLD_EXCO_LOAD, 0x1uL);
2624:Generated_Source\PSoC4/CyLib.c ****         }
2625:Generated_Source\PSoC4/CyLib.c **** 
2626:Generated_Source\PSoC4/CyLib.c ****     #endif /* (CY_IP_ECOV2_SRSSLT) */
2627:Generated_Source\PSoC4/CyLib.c **** 
2628:Generated_Source\PSoC4/CyLib.c **** #endif /* (CY_IP_PLL) */
2629:Generated_Source\PSoC4/CyLib.c **** 
2630:Generated_Source\PSoC4/CyLib.c **** 
2631:Generated_Source\PSoC4/CyLib.c **** #if(CY_IP_SRSSV2)
2632:Generated_Source\PSoC4/CyLib.c **** 
2633:Generated_Source\PSoC4/CyLib.c ****     /*******************************************************************************
2634:Generated_Source\PSoC4/CyLib.c ****     * Function Name: CySysLvdEnable
2635:Generated_Source\PSoC4/CyLib.c ****     ****************************************************************************//**
2636:Generated_Source\PSoC4/CyLib.c ****     *
2637:Generated_Source\PSoC4/CyLib.c ****     *  Enables the output of the low-voltage monitor when Vddd is at or below the
2638:Generated_Source\PSoC4/CyLib.c ****     *  trip point, configures the device to generate an interrupt, and sets the
2639:Generated_Source\PSoC4/CyLib.c ****     *  voltage trip level.
2640:Generated_Source\PSoC4/CyLib.c ****     *
2641:Generated_Source\PSoC4/CyLib.c ****     *  \param threshold: Threshold selection for Low Voltage Detect circuit.
2642:Generated_Source\PSoC4/CyLib.c ****     *  Threshold variation is +/- 2.5% from these typical voltage choices.
2643:Generated_Source\PSoC4/CyLib.c ****     *         Define                     Voltage threshold
2644:Generated_Source\PSoC4/CyLib.c ****     *    CY_LVD_THRESHOLD_1_75_V       1.7500 V
2645:Generated_Source\PSoC4/CyLib.c ****     *    CY_LVD_THRESHOLD_1_80_V       1.8000 V
2646:Generated_Source\PSoC4/CyLib.c ****     *    CY_LVD_THRESHOLD_1_90_V       1.9000 V
2647:Generated_Source\PSoC4/CyLib.c ****     *    CY_LVD_THRESHOLD_2_00_V       2.0000 V
2648:Generated_Source\PSoC4/CyLib.c ****     *    CY_LVD_THRESHOLD_2_10_V       2.1000 V
ARM GAS  C:\Users\RYANCA~1\AppData\Local\Temp\ccZAR4Lf.s 			page 55


2649:Generated_Source\PSoC4/CyLib.c ****     *    CY_LVD_THRESHOLD_2_20_V       2.2000 V
2650:Generated_Source\PSoC4/CyLib.c ****     *    CY_LVD_THRESHOLD_2_30_V       2.3000 V
2651:Generated_Source\PSoC4/CyLib.c ****     *    CY_LVD_THRESHOLD_2_40_V       2.4000 V
2652:Generated_Source\PSoC4/CyLib.c ****     *    CY_LVD_THRESHOLD_2_50_V       2.5000 V
2653:Generated_Source\PSoC4/CyLib.c ****     *    CY_LVD_THRESHOLD_2_60_V       2.6000 V
2654:Generated_Source\PSoC4/CyLib.c ****     *    CY_LVD_THRESHOLD_2_70_V       2.7000 V
2655:Generated_Source\PSoC4/CyLib.c ****     *    CY_LVD_THRESHOLD_2_80_V       2.8000 V
2656:Generated_Source\PSoC4/CyLib.c ****     *    CY_LVD_THRESHOLD_2_90_V       2.9000 V
2657:Generated_Source\PSoC4/CyLib.c ****     *    CY_LVD_THRESHOLD_3_00_V       3.0000 V
2658:Generated_Source\PSoC4/CyLib.c ****     *    CY_LVD_THRESHOLD_3_20_V       3.2000 V
2659:Generated_Source\PSoC4/CyLib.c ****     *    CY_LVD_THRESHOLD_4_50_V       4.5000 V
2660:Generated_Source\PSoC4/CyLib.c ****     *
2661:Generated_Source\PSoC4/CyLib.c ****     *******************************************************************************/
2662:Generated_Source\PSoC4/CyLib.c ****     void CySysLvdEnable(uint32 threshold)
2663:Generated_Source\PSoC4/CyLib.c ****     {
2664:Generated_Source\PSoC4/CyLib.c ****         /* Prevent propagating a false interrupt */
2665:Generated_Source\PSoC4/CyLib.c ****         CY_LVD_PWR_INTR_MASK_REG   &= (uint32) ~CY_LVD_PROPAGATE_INT_TO_CPU;
2666:Generated_Source\PSoC4/CyLib.c **** 
2667:Generated_Source\PSoC4/CyLib.c ****         /* Set specified threshold */
2668:Generated_Source\PSoC4/CyLib.c ****         CY_LVD_PWR_VMON_CONFIG_REG = (CY_LVD_PWR_VMON_CONFIG_REG & ~CY_LVD_PWR_VMON_CONFIG_LVD_SEL_
2669:Generated_Source\PSoC4/CyLib.c ****                 ((threshold << CY_LVD_PWR_VMON_CONFIG_LVD_SEL_SHIFT) & CY_LVD_PWR_VMON_CONFIG_LVD_S
2670:Generated_Source\PSoC4/CyLib.c **** 
2671:Generated_Source\PSoC4/CyLib.c ****         /* Enable the LVD. This may cause a false LVD event. */
2672:Generated_Source\PSoC4/CyLib.c ****         CY_LVD_PWR_VMON_CONFIG_REG |= CY_LVD_PWR_VMON_CONFIG_LVD_EN;
2673:Generated_Source\PSoC4/CyLib.c **** 
2674:Generated_Source\PSoC4/CyLib.c ****         /* Wait for the circuit to stabilize */
2675:Generated_Source\PSoC4/CyLib.c ****         CyDelayUs(CY_LVD_STABILIZE_TIMEOUT_US);
2676:Generated_Source\PSoC4/CyLib.c **** 
2677:Generated_Source\PSoC4/CyLib.c ****         /* Clear the false event */
2678:Generated_Source\PSoC4/CyLib.c ****         CySysLvdClearInterrupt();
2679:Generated_Source\PSoC4/CyLib.c **** 
2680:Generated_Source\PSoC4/CyLib.c ****         /* Unmask the interrupt */
2681:Generated_Source\PSoC4/CyLib.c ****         CY_LVD_PWR_INTR_MASK_REG   |= CY_LVD_PROPAGATE_INT_TO_CPU;
2682:Generated_Source\PSoC4/CyLib.c ****     }
2683:Generated_Source\PSoC4/CyLib.c **** 
2684:Generated_Source\PSoC4/CyLib.c **** 
2685:Generated_Source\PSoC4/CyLib.c ****     /*******************************************************************************
2686:Generated_Source\PSoC4/CyLib.c ****     * Function Name: CySysLvdDisable
2687:Generated_Source\PSoC4/CyLib.c ****     ****************************************************************************//**
2688:Generated_Source\PSoC4/CyLib.c ****     *
2689:Generated_Source\PSoC4/CyLib.c ****     *  Disables the low voltage detection. A low voltage interrupt is disabled.
2690:Generated_Source\PSoC4/CyLib.c ****     *
2691:Generated_Source\PSoC4/CyLib.c ****     *******************************************************************************/
2692:Generated_Source\PSoC4/CyLib.c ****     void CySysLvdDisable(void)
2693:Generated_Source\PSoC4/CyLib.c ****     {
 408              		.loc 1 2693 0
 409              		.cfi_startproc
 410              		@ args = 0, pretend = 0, frame = 0
 411              		@ frame_needed = 0, uses_anonymous_args = 0
 412              		@ link register save eliminated.
2694:Generated_Source\PSoC4/CyLib.c ****         CY_LVD_PWR_INTR_MASK_REG   &= ~CY_LVD_PROPAGATE_INT_TO_CPU;
 413              		.loc 1 2694 0
 414 0000 0221     		movs	r1, #2
 415 0002 054A     		ldr	r2, .L34
2695:Generated_Source\PSoC4/CyLib.c ****         CY_LVD_PWR_VMON_CONFIG_REG &= ~CY_LVD_PWR_VMON_CONFIG_LVD_EN;
2696:Generated_Source\PSoC4/CyLib.c ****     }
 416              		.loc 1 2696 0
ARM GAS  C:\Users\RYANCA~1\AppData\Local\Temp\ccZAR4Lf.s 			page 56


 417              		@ sp needed
2694:Generated_Source\PSoC4/CyLib.c ****         CY_LVD_PWR_INTR_MASK_REG   &= ~CY_LVD_PROPAGATE_INT_TO_CPU;
 418              		.loc 1 2694 0
 419 0004 1368     		ldr	r3, [r2]
 420 0006 8B43     		bics	r3, r1
 421 0008 1360     		str	r3, [r2]
2695:Generated_Source\PSoC4/CyLib.c ****         CY_LVD_PWR_VMON_CONFIG_REG &= ~CY_LVD_PWR_VMON_CONFIG_LVD_EN;
 422              		.loc 1 2695 0
 423 000a 044A     		ldr	r2, .L34+4
 424 000c 0139     		subs	r1, r1, #1
 425 000e 1368     		ldr	r3, [r2]
 426 0010 8B43     		bics	r3, r1
 427 0012 1360     		str	r3, [r2]
 428              		.loc 1 2696 0
 429 0014 7047     		bx	lr
 430              	.L35:
 431 0016 C046     		.align	2
 432              	.L34:
 433 0018 08000B40 		.word	1074462728
 434 001c 18000B40 		.word	1074462744
 435              		.cfi_endproc
 436              	.LFE12:
 437              		.size	CySysLvdDisable, .-CySysLvdDisable
 438              		.section	.text.CySysLvdGetInterruptSource,"ax",%progbits
 439              		.align	1
 440              		.global	CySysLvdGetInterruptSource
 441              		.code	16
 442              		.thumb_func
 443              		.type	CySysLvdGetInterruptSource, %function
 444              	CySysLvdGetInterruptSource:
 445              	.LFB13:
2697:Generated_Source\PSoC4/CyLib.c **** 
2698:Generated_Source\PSoC4/CyLib.c **** 
2699:Generated_Source\PSoC4/CyLib.c ****     /*******************************************************************************
2700:Generated_Source\PSoC4/CyLib.c ****     * Function Name: CySysLvdGetInterruptSource
2701:Generated_Source\PSoC4/CyLib.c ****     ****************************************************************************//**
2702:Generated_Source\PSoC4/CyLib.c ****     *
2703:Generated_Source\PSoC4/CyLib.c ****     *  Gets the low voltage detection interrupt status (without clearing).
2704:Generated_Source\PSoC4/CyLib.c ****     *
2705:Generated_Source\PSoC4/CyLib.c ****     * \return
2706:Generated_Source\PSoC4/CyLib.c ****     *  Interrupt request value:
2707:Generated_Source\PSoC4/CyLib.c ****     *    CY_SYS_LVD_INT - Indicates an Low Voltage Detect interrupt
2708:Generated_Source\PSoC4/CyLib.c ****     *
2709:Generated_Source\PSoC4/CyLib.c ****     *******************************************************************************/
2710:Generated_Source\PSoC4/CyLib.c ****     uint32 CySysLvdGetInterruptSource(void)
2711:Generated_Source\PSoC4/CyLib.c ****     {
 446              		.loc 1 2711 0
 447              		.cfi_startproc
 448              		@ args = 0, pretend = 0, frame = 0
 449              		@ frame_needed = 0, uses_anonymous_args = 0
 450              		@ link register save eliminated.
2712:Generated_Source\PSoC4/CyLib.c ****         return (CY_LVD_PWR_INTR_REG & CY_SYS_LVD_INT);
 451              		.loc 1 2712 0
 452 0000 024B     		ldr	r3, .L37
2713:Generated_Source\PSoC4/CyLib.c ****     }
 453              		.loc 1 2713 0
 454              		@ sp needed
ARM GAS  C:\Users\RYANCA~1\AppData\Local\Temp\ccZAR4Lf.s 			page 57


2712:Generated_Source\PSoC4/CyLib.c ****         return (CY_LVD_PWR_INTR_REG & CY_SYS_LVD_INT);
 455              		.loc 1 2712 0
 456 0002 1868     		ldr	r0, [r3]
 457 0004 0223     		movs	r3, #2
 458 0006 1840     		ands	r0, r3
 459              		.loc 1 2713 0
 460 0008 7047     		bx	lr
 461              	.L38:
 462 000a C046     		.align	2
 463              	.L37:
 464 000c 04000B40 		.word	1074462724
 465              		.cfi_endproc
 466              	.LFE13:
 467              		.size	CySysLvdGetInterruptSource, .-CySysLvdGetInterruptSource
 468              		.section	.text.CySysLvdClearInterrupt,"ax",%progbits
 469              		.align	1
 470              		.global	CySysLvdClearInterrupt
 471              		.code	16
 472              		.thumb_func
 473              		.type	CySysLvdClearInterrupt, %function
 474              	CySysLvdClearInterrupt:
 475              	.LFB14:
2714:Generated_Source\PSoC4/CyLib.c **** 
2715:Generated_Source\PSoC4/CyLib.c **** 
2716:Generated_Source\PSoC4/CyLib.c ****     /*******************************************************************************
2717:Generated_Source\PSoC4/CyLib.c ****     * Function Name: CySysLvdClearInterrupt
2718:Generated_Source\PSoC4/CyLib.c ****     ****************************************************************************//**
2719:Generated_Source\PSoC4/CyLib.c ****     *
2720:Generated_Source\PSoC4/CyLib.c ****     *  Clears the low voltage detection interrupt status.
2721:Generated_Source\PSoC4/CyLib.c ****     *
2722:Generated_Source\PSoC4/CyLib.c ****     * \return
2723:Generated_Source\PSoC4/CyLib.c ****     *  None
2724:Generated_Source\PSoC4/CyLib.c ****     *
2725:Generated_Source\PSoC4/CyLib.c ****     *******************************************************************************/
2726:Generated_Source\PSoC4/CyLib.c ****     void CySysLvdClearInterrupt(void)
2727:Generated_Source\PSoC4/CyLib.c ****     {
 476              		.loc 1 2727 0
 477              		.cfi_startproc
 478              		@ args = 0, pretend = 0, frame = 0
 479              		@ frame_needed = 0, uses_anonymous_args = 0
 480              		@ link register save eliminated.
2728:Generated_Source\PSoC4/CyLib.c ****         CY_LVD_PWR_INTR_REG = CY_SYS_LVD_INT;
 481              		.loc 1 2728 0
 482 0000 0222     		movs	r2, #2
 483 0002 014B     		ldr	r3, .L40
2729:Generated_Source\PSoC4/CyLib.c ****     }
 484              		.loc 1 2729 0
 485              		@ sp needed
2728:Generated_Source\PSoC4/CyLib.c ****         CY_LVD_PWR_INTR_REG = CY_SYS_LVD_INT;
 486              		.loc 1 2728 0
 487 0004 1A60     		str	r2, [r3]
 488              		.loc 1 2729 0
 489 0006 7047     		bx	lr
 490              	.L41:
 491              		.align	2
 492              	.L40:
 493 0008 04000B40 		.word	1074462724
ARM GAS  C:\Users\RYANCA~1\AppData\Local\Temp\ccZAR4Lf.s 			page 58


 494              		.cfi_endproc
 495              	.LFE14:
 496              		.size	CySysLvdClearInterrupt, .-CySysLvdClearInterrupt
 497              		.section	.text.CySysGetResetReason,"ax",%progbits
 498              		.align	1
 499              		.global	CySysGetResetReason
 500              		.code	16
 501              		.thumb_func
 502              		.type	CySysGetResetReason, %function
 503              	CySysGetResetReason:
 504              	.LFB15:
2730:Generated_Source\PSoC4/CyLib.c **** 
2731:Generated_Source\PSoC4/CyLib.c **** #endif /* (CY_IP_SRSSV2) */
2732:Generated_Source\PSoC4/CyLib.c **** 
2733:Generated_Source\PSoC4/CyLib.c **** 
2734:Generated_Source\PSoC4/CyLib.c **** /*******************************************************************************
2735:Generated_Source\PSoC4/CyLib.c **** * Function Name: CySysGetResetReason
2736:Generated_Source\PSoC4/CyLib.c **** ****************************************************************************//**
2737:Generated_Source\PSoC4/CyLib.c **** *
2738:Generated_Source\PSoC4/CyLib.c **** *  Reports the cause for the latest reset(s) that occurred in the system. All
2739:Generated_Source\PSoC4/CyLib.c **** *  the bits in the RES_CAUSE register assert when the corresponding reset cause
2740:Generated_Source\PSoC4/CyLib.c **** *  occurs and must be cleared by the firmware. These bits are cleared by the
2741:Generated_Source\PSoC4/CyLib.c **** *  hardware only during XRES, POR, or a detected brown-out.
2742:Generated_Source\PSoC4/CyLib.c **** *
2743:Generated_Source\PSoC4/CyLib.c **** *  \param reason: bits in the RES_CAUSE register to clear.
2744:Generated_Source\PSoC4/CyLib.c **** *   CY_SYS_RESET_WDT       - WDT caused a reset
2745:Generated_Source\PSoC4/CyLib.c **** *   CY_SYS_RESET_PROTFAULT - Occured protection violation that requires reset
2746:Generated_Source\PSoC4/CyLib.c **** *   CY_SYS_RESET_SW        - Cortex-M0 requested a system reset.
2747:Generated_Source\PSoC4/CyLib.c **** *
2748:Generated_Source\PSoC4/CyLib.c **** * \return
2749:Generated_Source\PSoC4/CyLib.c **** *  Status. Same enumerated bit values as used for the reason parameter.
2750:Generated_Source\PSoC4/CyLib.c **** *
2751:Generated_Source\PSoC4/CyLib.c **** *******************************************************************************/
2752:Generated_Source\PSoC4/CyLib.c **** uint32 CySysGetResetReason(uint32 reason)
2753:Generated_Source\PSoC4/CyLib.c **** {
 505              		.loc 1 2753 0
 506              		.cfi_startproc
