ARM GAS  C:\Users\RYANCA~1\AppData\Local\Temp\ccgP414A.s 			page 1


   1              		.syntax unified
   2              		.cpu cortex-m0
   3              		.fpu softvfp
   4              		.eabi_attribute 20, 1
   5              		.eabi_attribute 21, 1
   6              		.eabi_attribute 23, 3
   7              		.eabi_attribute 24, 1
   8              		.eabi_attribute 25, 1
   9              		.eabi_attribute 26, 1
  10              		.eabi_attribute 30, 4
  11              		.eabi_attribute 34, 0
  12              		.eabi_attribute 18, 4
  13              		.thumb
  14              		.syntax unified
  15              		.file	"ADC_GLV_V.c"
  16              		.text
  17              	.Ltext0:
  18              		.cfi_sections	.debug_frame
  19              		.section	.text.ADC_GLV_V_Init,"ax",%progbits
  20              		.align	1
  21              		.global	ADC_GLV_V_Init
  22              		.code	16
  23              		.thumb_func
  24              		.type	ADC_GLV_V_Init, %function
  25              	ADC_GLV_V_Init:
  26              	.LFB2:
  27              		.file 1 "Generated_Source\\PSoC4\\ADC_GLV_V.c"
   1:Generated_Source\PSoC4/ADC_GLV_V.c **** /*******************************************************************************
   2:Generated_Source\PSoC4/ADC_GLV_V.c **** * File Name: ADC_GLV_V.c
   3:Generated_Source\PSoC4/ADC_GLV_V.c **** * Version 2.50
   4:Generated_Source\PSoC4/ADC_GLV_V.c **** *
   5:Generated_Source\PSoC4/ADC_GLV_V.c **** * Description:
   6:Generated_Source\PSoC4/ADC_GLV_V.c **** *  This file provides the source code to the API for the Sequencing Successive
   7:Generated_Source\PSoC4/ADC_GLV_V.c **** *  Approximation ADC Component Component.
   8:Generated_Source\PSoC4/ADC_GLV_V.c **** *
   9:Generated_Source\PSoC4/ADC_GLV_V.c **** * Note:
  10:Generated_Source\PSoC4/ADC_GLV_V.c **** *
  11:Generated_Source\PSoC4/ADC_GLV_V.c **** ********************************************************************************
  12:Generated_Source\PSoC4/ADC_GLV_V.c **** * Copyright 2008-2017, Cypress Semiconductor Corporation.  All rights reserved.
  13:Generated_Source\PSoC4/ADC_GLV_V.c **** * You may use this file only in accordance with the license, terms, conditions,
  14:Generated_Source\PSoC4/ADC_GLV_V.c **** * disclaimers, and limitations in the end user license agreement accompanying
  15:Generated_Source\PSoC4/ADC_GLV_V.c **** * the software package with which this file was provided.
  16:Generated_Source\PSoC4/ADC_GLV_V.c **** *******************************************************************************/
  17:Generated_Source\PSoC4/ADC_GLV_V.c **** 
  18:Generated_Source\PSoC4/ADC_GLV_V.c **** #include "ADC_GLV_V.h"
  19:Generated_Source\PSoC4/ADC_GLV_V.c **** 
  20:Generated_Source\PSoC4/ADC_GLV_V.c **** 
  21:Generated_Source\PSoC4/ADC_GLV_V.c **** /***************************************
  22:Generated_Source\PSoC4/ADC_GLV_V.c **** * Global data allocation
  23:Generated_Source\PSoC4/ADC_GLV_V.c **** ***************************************/
  24:Generated_Source\PSoC4/ADC_GLV_V.c **** uint8 ADC_GLV_V_initVar = 0u;
  25:Generated_Source\PSoC4/ADC_GLV_V.c **** volatile int16 ADC_GLV_V_offset[ADC_GLV_V_TOTAL_CHANNELS_NUM];
  26:Generated_Source\PSoC4/ADC_GLV_V.c **** volatile int32 ADC_GLV_V_countsPer10Volt[ADC_GLV_V_TOTAL_CHANNELS_NUM];   /* Gain compensation */
  27:Generated_Source\PSoC4/ADC_GLV_V.c **** 
  28:Generated_Source\PSoC4/ADC_GLV_V.c **** 
  29:Generated_Source\PSoC4/ADC_GLV_V.c **** /***************************************
  30:Generated_Source\PSoC4/ADC_GLV_V.c **** * Local data allocation
ARM GAS  C:\Users\RYANCA~1\AppData\Local\Temp\ccgP414A.s 			page 2


  31:Generated_Source\PSoC4/ADC_GLV_V.c **** ***************************************/
  32:Generated_Source\PSoC4/ADC_GLV_V.c **** /* Channels configuration generated by customiser */
  33:Generated_Source\PSoC4/ADC_GLV_V.c **** static const uint32 CYCODE ADC_GLV_V_channelsConfig[] = { 0x00000000u, 0x00000000u };
  34:Generated_Source\PSoC4/ADC_GLV_V.c **** 
  35:Generated_Source\PSoC4/ADC_GLV_V.c **** 
  36:Generated_Source\PSoC4/ADC_GLV_V.c **** /*******************************************************************************
  37:Generated_Source\PSoC4/ADC_GLV_V.c **** * Function Name: ADC_GLV_V_Start
  38:Generated_Source\PSoC4/ADC_GLV_V.c **** ********************************************************************************
  39:Generated_Source\PSoC4/ADC_GLV_V.c **** *
  40:Generated_Source\PSoC4/ADC_GLV_V.c **** * Summary:
  41:Generated_Source\PSoC4/ADC_GLV_V.c **** *  Performs all required initialization for this component
  42:Generated_Source\PSoC4/ADC_GLV_V.c **** *  and enables the power. The power will be set to the appropriate
  43:Generated_Source\PSoC4/ADC_GLV_V.c **** *  power based on the clock frequency.
  44:Generated_Source\PSoC4/ADC_GLV_V.c **** *
  45:Generated_Source\PSoC4/ADC_GLV_V.c **** * Parameters:
  46:Generated_Source\PSoC4/ADC_GLV_V.c **** *  None.
  47:Generated_Source\PSoC4/ADC_GLV_V.c **** *
  48:Generated_Source\PSoC4/ADC_GLV_V.c **** * Return:
  49:Generated_Source\PSoC4/ADC_GLV_V.c **** *  None.
  50:Generated_Source\PSoC4/ADC_GLV_V.c **** *
  51:Generated_Source\PSoC4/ADC_GLV_V.c **** * Global variables:
  52:Generated_Source\PSoC4/ADC_GLV_V.c **** *  The ADC_GLV_V_initVar variable is used to indicate when/if initial
  53:Generated_Source\PSoC4/ADC_GLV_V.c **** *  configuration of this component has happened. The variable is initialized to
  54:Generated_Source\PSoC4/ADC_GLV_V.c **** *  zero and set to 1 the first time ADC_Start() is called. This allows for
  55:Generated_Source\PSoC4/ADC_GLV_V.c **** *  component Re-Start without re-initialization in all subsequent calls to the
  56:Generated_Source\PSoC4/ADC_GLV_V.c **** *  ADC_GLV_V_Start() routine.
  57:Generated_Source\PSoC4/ADC_GLV_V.c **** *  If re-initialization of the component is required the variable should be set
  58:Generated_Source\PSoC4/ADC_GLV_V.c **** *  to zero before call of ADC_GLV_V_Start() routine, or the user may call
  59:Generated_Source\PSoC4/ADC_GLV_V.c **** *  ADC_GLV_V_Init() and ADC_GLV_V_Enable() as done in the
  60:Generated_Source\PSoC4/ADC_GLV_V.c **** *  ADC_GLV_V_Start() routine.
  61:Generated_Source\PSoC4/ADC_GLV_V.c **** *
  62:Generated_Source\PSoC4/ADC_GLV_V.c **** *******************************************************************************/
  63:Generated_Source\PSoC4/ADC_GLV_V.c **** void ADC_GLV_V_Start(void)
  64:Generated_Source\PSoC4/ADC_GLV_V.c **** {
  65:Generated_Source\PSoC4/ADC_GLV_V.c ****     /* If not Initialized then initialize all required hardware and software */
  66:Generated_Source\PSoC4/ADC_GLV_V.c ****     if(ADC_GLV_V_initVar == 0u)
  67:Generated_Source\PSoC4/ADC_GLV_V.c ****     {
  68:Generated_Source\PSoC4/ADC_GLV_V.c ****         ADC_GLV_V_Init();
  69:Generated_Source\PSoC4/ADC_GLV_V.c ****         ADC_GLV_V_initVar = 1u;
  70:Generated_Source\PSoC4/ADC_GLV_V.c ****     }
  71:Generated_Source\PSoC4/ADC_GLV_V.c ****     ADC_GLV_V_Enable();
  72:Generated_Source\PSoC4/ADC_GLV_V.c **** }
  73:Generated_Source\PSoC4/ADC_GLV_V.c **** 
  74:Generated_Source\PSoC4/ADC_GLV_V.c **** 
  75:Generated_Source\PSoC4/ADC_GLV_V.c **** /*******************************************************************************
  76:Generated_Source\PSoC4/ADC_GLV_V.c **** * Function Name: ADC_GLV_V_Init
  77:Generated_Source\PSoC4/ADC_GLV_V.c **** ********************************************************************************
  78:Generated_Source\PSoC4/ADC_GLV_V.c **** *
  79:Generated_Source\PSoC4/ADC_GLV_V.c **** * Summary:
  80:Generated_Source\PSoC4/ADC_GLV_V.c **** *  Initialize component's parameters to the parameters set by user in the
  81:Generated_Source\PSoC4/ADC_GLV_V.c **** *  customizer of the component placed onto schematic. Usually called in
  82:Generated_Source\PSoC4/ADC_GLV_V.c **** *  ADC_GLV_V_Start().
  83:Generated_Source\PSoC4/ADC_GLV_V.c **** *
  84:Generated_Source\PSoC4/ADC_GLV_V.c **** * Parameters:
  85:Generated_Source\PSoC4/ADC_GLV_V.c **** *  None.
  86:Generated_Source\PSoC4/ADC_GLV_V.c **** *
  87:Generated_Source\PSoC4/ADC_GLV_V.c **** * Return:
ARM GAS  C:\Users\RYANCA~1\AppData\Local\Temp\ccgP414A.s 			page 3


  88:Generated_Source\PSoC4/ADC_GLV_V.c **** *  None.
  89:Generated_Source\PSoC4/ADC_GLV_V.c **** *
  90:Generated_Source\PSoC4/ADC_GLV_V.c **** * Global variables:
  91:Generated_Source\PSoC4/ADC_GLV_V.c **** *  The ADC_GLV_V_offset variable is initialized.
  92:Generated_Source\PSoC4/ADC_GLV_V.c **** *
  93:Generated_Source\PSoC4/ADC_GLV_V.c **** *******************************************************************************/
  94:Generated_Source\PSoC4/ADC_GLV_V.c **** void ADC_GLV_V_Init(void)
  95:Generated_Source\PSoC4/ADC_GLV_V.c **** {
  28              		.loc 1 95 0
  29              		.cfi_startproc
  30              		@ args = 0, pretend = 0, frame = 0
  31              		@ frame_needed = 0, uses_anonymous_args = 0
  32 0000 70B5     		push	{r4, r5, r6, lr}
  33              		.cfi_def_cfa_offset 16
  34              		.cfi_offset 4, -16
  35              		.cfi_offset 5, -12
  36              		.cfi_offset 6, -8
  37              		.cfi_offset 14, -4
  96:Generated_Source\PSoC4/ADC_GLV_V.c ****     uint32 chNum;
  97:Generated_Source\PSoC4/ADC_GLV_V.c ****     uint32 tmpRegVal;
  98:Generated_Source\PSoC4/ADC_GLV_V.c ****     int32 counts;
  99:Generated_Source\PSoC4/ADC_GLV_V.c **** 
 100:Generated_Source\PSoC4/ADC_GLV_V.c ****     #if(ADC_GLV_V_TOTAL_CHANNELS_NUM > 1u)
 101:Generated_Source\PSoC4/ADC_GLV_V.c ****         static const uint8 CYCODE ADC_GLV_V_InputsPlacement[] =
 102:Generated_Source\PSoC4/ADC_GLV_V.c ****         {
 103:Generated_Source\PSoC4/ADC_GLV_V.c ****             (uint8)(ADC_GLV_V_cy_psoc4_sarmux_8__CH_0_PORT << 4u) |
 104:Generated_Source\PSoC4/ADC_GLV_V.c ****             (uint8)ADC_GLV_V_cy_psoc4_sarmux_8__CH_0_PIN
 105:Generated_Source\PSoC4/ADC_GLV_V.c ****             ,(uint8)(ADC_GLV_V_cy_psoc4_sarmux_8__CH_1_PORT << 4u) |
 106:Generated_Source\PSoC4/ADC_GLV_V.c ****              (uint8)ADC_GLV_V_cy_psoc4_sarmux_8__CH_1_PIN
 107:Generated_Source\PSoC4/ADC_GLV_V.c ****             #if(ADC_GLV_V_TOTAL_CHANNELS_NUM > 2u)
 108:Generated_Source\PSoC4/ADC_GLV_V.c ****                 ,(uint8)(ADC_GLV_V_cy_psoc4_sarmux_8__CH_2_PORT << 4u) |
 109:Generated_Source\PSoC4/ADC_GLV_V.c ****                  (uint8)ADC_GLV_V_cy_psoc4_sarmux_8__CH_2_PIN
 110:Generated_Source\PSoC4/ADC_GLV_V.c ****             #endif /* End ADC_GLV_V_TOTAL_CHANNELS_NUM > 2u */
 111:Generated_Source\PSoC4/ADC_GLV_V.c ****             #if(ADC_GLV_V_TOTAL_CHANNELS_NUM > 3u)
 112:Generated_Source\PSoC4/ADC_GLV_V.c ****                 ,(uint8)(ADC_GLV_V_cy_psoc4_sarmux_8__CH_3_PORT << 4u) |
 113:Generated_Source\PSoC4/ADC_GLV_V.c ****                  (uint8)ADC_GLV_V_cy_psoc4_sarmux_8__CH_3_PIN
 114:Generated_Source\PSoC4/ADC_GLV_V.c ****             #endif /* End ADC_GLV_V_TOTAL_CHANNELS_NUM > 3u */
 115:Generated_Source\PSoC4/ADC_GLV_V.c ****             #if(ADC_GLV_V_TOTAL_CHANNELS_NUM > 4u)
 116:Generated_Source\PSoC4/ADC_GLV_V.c ****                 ,(uint8)(ADC_GLV_V_cy_psoc4_sarmux_8__CH_4_PORT << 4u) |
 117:Generated_Source\PSoC4/ADC_GLV_V.c ****                  (uint8)ADC_GLV_V_cy_psoc4_sarmux_8__CH_4_PIN
 118:Generated_Source\PSoC4/ADC_GLV_V.c ****             #endif /* End ADC_GLV_V_TOTAL_CHANNELS_NUM > 4u */
 119:Generated_Source\PSoC4/ADC_GLV_V.c ****             #if(ADC_GLV_V_TOTAL_CHANNELS_NUM > 5u)
 120:Generated_Source\PSoC4/ADC_GLV_V.c ****                 ,(uint8)(ADC_GLV_V_cy_psoc4_sarmux_8__CH_5_PORT << 4u) |
 121:Generated_Source\PSoC4/ADC_GLV_V.c ****                  (uint8)ADC_GLV_V_cy_psoc4_sarmux_8__CH_5_PIN
 122:Generated_Source\PSoC4/ADC_GLV_V.c ****             #endif /* End ADC_GLV_V_TOTAL_CHANNELS_NUM > 5u */
 123:Generated_Source\PSoC4/ADC_GLV_V.c ****             #if(ADC_GLV_V_TOTAL_CHANNELS_NUM > 6u)
 124:Generated_Source\PSoC4/ADC_GLV_V.c ****                 ,(uint8)(ADC_GLV_V_cy_psoc4_sarmux_8__CH_6_PORT << 4u) |
 125:Generated_Source\PSoC4/ADC_GLV_V.c ****                  (uint8)ADC_GLV_V_cy_psoc4_sarmux_8__CH_6_PIN
 126:Generated_Source\PSoC4/ADC_GLV_V.c ****             #endif /* End ADC_GLV_V_TOTAL_CHANNELS_NUM > 6u */
 127:Generated_Source\PSoC4/ADC_GLV_V.c ****             #if(ADC_GLV_V_TOTAL_CHANNELS_NUM > 7u)
 128:Generated_Source\PSoC4/ADC_GLV_V.c ****                 ,(uint8)(ADC_GLV_V_cy_psoc4_sarmux_8__CH_7_PORT << 4u) |
 129:Generated_Source\PSoC4/ADC_GLV_V.c ****                  (uint8)ADC_GLV_V_cy_psoc4_sarmux_8__CH_7_PIN
 130:Generated_Source\PSoC4/ADC_GLV_V.c ****             #endif /* End ADC_GLV_V_TOTAL_CHANNELS_NUM > 7u */
 131:Generated_Source\PSoC4/ADC_GLV_V.c ****             #if(ADC_GLV_V_TOTAL_CHANNELS_NUM > 8u)
 132:Generated_Source\PSoC4/ADC_GLV_V.c ****                 ,(uint8)(ADC_GLV_V_cy_psoc4_sarmux_8__CH_8_PORT << 4u) |
 133:Generated_Source\PSoC4/ADC_GLV_V.c ****                  (uint8)ADC_GLV_V_cy_psoc4_sarmux_8__CH_8_PIN
 134:Generated_Source\PSoC4/ADC_GLV_V.c ****             #endif /* End ADC_GLV_V_TOTAL_CHANNELS_NUM > 8u */
ARM GAS  C:\Users\RYANCA~1\AppData\Local\Temp\ccgP414A.s 			page 4


 135:Generated_Source\PSoC4/ADC_GLV_V.c ****             #if(ADC_GLV_V_TOTAL_CHANNELS_NUM > 9u)
 136:Generated_Source\PSoC4/ADC_GLV_V.c ****                 ,(uint8)(ADC_GLV_V_cy_psoc4_sarmux_8__CH_9_PORT << 4u) |
 137:Generated_Source\PSoC4/ADC_GLV_V.c ****                  (uint8)ADC_GLV_V_cy_psoc4_sarmux_8__CH_9_PIN
 138:Generated_Source\PSoC4/ADC_GLV_V.c ****             #endif /* End ADC_GLV_V_TOTAL_CHANNELS_NUM > 9u */
 139:Generated_Source\PSoC4/ADC_GLV_V.c ****             #if(ADC_GLV_V_TOTAL_CHANNELS_NUM > 10u)
 140:Generated_Source\PSoC4/ADC_GLV_V.c ****                 ,(uint8)(ADC_GLV_V_cy_psoc4_sarmux_8__CH_10_PORT << 4u) |
 141:Generated_Source\PSoC4/ADC_GLV_V.c ****                  (uint8)ADC_GLV_V_cy_psoc4_sarmux_8__CH_10_PIN
 142:Generated_Source\PSoC4/ADC_GLV_V.c ****             #endif /* End ADC_GLV_V_TOTAL_CHANNELS_NUM > 10u */
 143:Generated_Source\PSoC4/ADC_GLV_V.c ****             #if(ADC_GLV_V_TOTAL_CHANNELS_NUM > 11u)
 144:Generated_Source\PSoC4/ADC_GLV_V.c ****                 ,(uint8)(ADC_GLV_V_cy_psoc4_sarmux_8__CH_11_PORT << 4u) |
 145:Generated_Source\PSoC4/ADC_GLV_V.c ****                  (uint8)ADC_GLV_V_cy_psoc4_sarmux_8__CH_11_PIN
 146:Generated_Source\PSoC4/ADC_GLV_V.c ****             #endif /* End ADC_GLV_V_TOTAL_CHANNELS_NUM > 11u */
 147:Generated_Source\PSoC4/ADC_GLV_V.c ****             #if(ADC_GLV_V_TOTAL_CHANNELS_NUM > 12u)
 148:Generated_Source\PSoC4/ADC_GLV_V.c ****                 ,(uint8)(ADC_GLV_V_cy_psoc4_sarmux_8__CH_12_PORT << 4u) |
 149:Generated_Source\PSoC4/ADC_GLV_V.c ****                  (uint8)ADC_GLV_V_cy_psoc4_sarmux_8__CH_12_PIN
 150:Generated_Source\PSoC4/ADC_GLV_V.c ****             #endif /* End ADC_GLV_V_TOTAL_CHANNELS_NUM > 12u */
 151:Generated_Source\PSoC4/ADC_GLV_V.c ****             #if(ADC_GLV_V_TOTAL_CHANNELS_NUM > 13u)
 152:Generated_Source\PSoC4/ADC_GLV_V.c ****                 ,(uint8)(ADC_GLV_V_cy_psoc4_sarmux_8__CH_13_PORT << 4u) |
 153:Generated_Source\PSoC4/ADC_GLV_V.c ****                  (uint8)ADC_GLV_V_cy_psoc4_sarmux_8__CH_13_PIN
 154:Generated_Source\PSoC4/ADC_GLV_V.c ****             #endif /* End ADC_GLV_V_TOTAL_CHANNELS_NUM > 13u */
 155:Generated_Source\PSoC4/ADC_GLV_V.c ****             #if(ADC_GLV_V_TOTAL_CHANNELS_NUM > 14u)
 156:Generated_Source\PSoC4/ADC_GLV_V.c ****                 ,(uint8)(ADC_GLV_V_cy_psoc4_sarmux_8__CH_14_PORT << 4u) |
 157:Generated_Source\PSoC4/ADC_GLV_V.c ****                  (uint8)ADC_GLV_V_cy_psoc4_sarmux_8__CH_14_PIN
 158:Generated_Source\PSoC4/ADC_GLV_V.c ****             #endif /* End ADC_GLV_V_TOTAL_CHANNELS_NUM > 14u */
 159:Generated_Source\PSoC4/ADC_GLV_V.c ****             #if(ADC_GLV_V_TOTAL_CHANNELS_NUM > 15u)
 160:Generated_Source\PSoC4/ADC_GLV_V.c ****                 ,(uint8)(ADC_GLV_V_cy_psoc4_sarmux_8__CH_15_PORT << 4u) |
 161:Generated_Source\PSoC4/ADC_GLV_V.c ****                  (uint8)ADC_GLV_V_cy_psoc4_sarmux_8__CH_15_PIN
 162:Generated_Source\PSoC4/ADC_GLV_V.c ****             #endif /* End ADC_GLV_V_TOTAL_CHANNELS_NUM > 15u */
 163:Generated_Source\PSoC4/ADC_GLV_V.c ****             #if(ADC_GLV_V_TOTAL_CHANNELS_NUM > 16u)
 164:Generated_Source\PSoC4/ADC_GLV_V.c ****                 ,(uint8)(ADC_GLV_V_cy_psoc4_sarmux_8__CH_16_PORT << 4u) |
 165:Generated_Source\PSoC4/ADC_GLV_V.c ****                  (uint8)ADC_GLV_V_cy_psoc4_sarmux_8__CH_16_PIN
 166:Generated_Source\PSoC4/ADC_GLV_V.c ****             #endif /* End ADC_GLV_V_TOTAL_CHANNELS_NUM > 16u */
 167:Generated_Source\PSoC4/ADC_GLV_V.c ****         };
 168:Generated_Source\PSoC4/ADC_GLV_V.c ****     #endif /* End ADC_GLV_V_TOTAL_CHANNELS_NUM > 1u */
 169:Generated_Source\PSoC4/ADC_GLV_V.c **** 
 170:Generated_Source\PSoC4/ADC_GLV_V.c ****     #if(ADC_GLV_V_IRQ_REMOVE == 0u)
 171:Generated_Source\PSoC4/ADC_GLV_V.c ****         /* Start and set interrupt vector */
 172:Generated_Source\PSoC4/ADC_GLV_V.c ****         CyIntSetPriority(ADC_GLV_V_INTC_NUMBER, ADC_GLV_V_INTC_PRIOR_NUMBER);
  38              		.loc 1 172 0
  39 0002 0321     		movs	r1, #3
  40 0004 1020     		movs	r0, #16
  41 0006 FFF7FEFF 		bl	CyIntSetPriority
  42              	.LVL0:
 173:Generated_Source\PSoC4/ADC_GLV_V.c ****         (void)CyIntSetVector(ADC_GLV_V_INTC_NUMBER, &ADC_GLV_V_ISR);
  43              		.loc 1 173 0
  44 000a 2349     		ldr	r1, .L5
  45 000c 1020     		movs	r0, #16
  46 000e FFF7FEFF 		bl	CyIntSetVector
  47              	.LVL1:
 174:Generated_Source\PSoC4/ADC_GLV_V.c ****     #endif   /* End ADC_GLV_V_IRQ_REMOVE */
 175:Generated_Source\PSoC4/ADC_GLV_V.c **** 
 176:Generated_Source\PSoC4/ADC_GLV_V.c ****     /* Init SAR and MUX registers */
 177:Generated_Source\PSoC4/ADC_GLV_V.c ****     ADC_GLV_V_SAR_CHAN_EN_REG = ADC_GLV_V_DEFAULT_EN_CHANNELS;
  48              		.loc 1 177 0
  49 0012 0322     		movs	r2, #3
  50 0014 214B     		ldr	r3, .L5+4
  51 0016 1A60     		str	r2, [r3]
ARM GAS  C:\Users\RYANCA~1\AppData\Local\Temp\ccgP414A.s 			page 5


 178:Generated_Source\PSoC4/ADC_GLV_V.c ****     ADC_GLV_V_SAR_CTRL_REG |= ADC_GLV_V_DEFAULT_CTRL_REG_CFG | 
 179:Generated_Source\PSoC4/ADC_GLV_V.c ****         /* Enable the SAR internal pump when global pump is enabled */
 180:Generated_Source\PSoC4/ADC_GLV_V.c ****         (((ADC_GLV_V_PUMP_CTRL_REG & ADC_GLV_V_PUMP_CTRL_ENABLED) != 0u) ? 
  52              		.loc 1 180 0
  53 0018 214B     		ldr	r3, .L5+8
  54 001a 1B68     		ldr	r3, [r3]
 178:Generated_Source\PSoC4/ADC_GLV_V.c ****     ADC_GLV_V_SAR_CTRL_REG |= ADC_GLV_V_DEFAULT_CTRL_REG_CFG | 
  55              		.loc 1 178 0
  56 001c 002B     		cmp	r3, #0
  57 001e 01DB     		blt	.L3
  58 0020 2049     		ldr	r1, .L5+12
  59 0022 00E0     		b	.L2
  60              	.L3:
  61 0024 2049     		ldr	r1, .L5+16
  62              	.L2:
 178:Generated_Source\PSoC4/ADC_GLV_V.c ****     ADC_GLV_V_SAR_CTRL_REG |= ADC_GLV_V_DEFAULT_CTRL_REG_CFG | 
  63              		.loc 1 178 0 is_stmt 0 discriminator 4
  64 0026 214A     		ldr	r2, .L5+20
 181:Generated_Source\PSoC4/ADC_GLV_V.c ****         ADC_GLV_V_BOOSTPUMP_EN : 0u);
 182:Generated_Source\PSoC4/ADC_GLV_V.c ****     ADC_GLV_V_SAR_SAMPLE_CTRL_REG = ADC_GLV_V_DEFAULT_SAMPLE_CTRL_REG_CFG;
 183:Generated_Source\PSoC4/ADC_GLV_V.c ****     ADC_GLV_V_SAR_RANGE_THRES_REG = ADC_GLV_V_DEFAULT_RANGE_THRES_REG_CFG;
 184:Generated_Source\PSoC4/ADC_GLV_V.c ****     ADC_GLV_V_SAR_RANGE_COND_REG  = ADC_GLV_V_COMPARE_MODE;
 185:Generated_Source\PSoC4/ADC_GLV_V.c ****     ADC_GLV_V_SAR_SAMPLE_TIME01_REG = ADC_GLV_V_DEFAULT_SAMPLE_TIME01_REG_CFG;
 186:Generated_Source\PSoC4/ADC_GLV_V.c ****     ADC_GLV_V_SAR_SAMPLE_TIME23_REG = ADC_GLV_V_DEFAULT_SAMPLE_TIME23_REG_CFG;
 187:Generated_Source\PSoC4/ADC_GLV_V.c ****     
 188:Generated_Source\PSoC4/ADC_GLV_V.c ****     /* Connect Vm to VSSA when even one channel is single-ended or multiple channels configured */
 189:Generated_Source\PSoC4/ADC_GLV_V.c ****     #if(ADC_GLV_V_DEFAULT_MUX_SWITCH0 != 0u)
 190:Generated_Source\PSoC4/ADC_GLV_V.c ****         ADC_GLV_V_MUX_SWITCH0_REG |= ADC_GLV_V_DEFAULT_MUX_SWITCH0;
  65              		.loc 1 190 0 is_stmt 1 discriminator 4
  66 0028 8020     		movs	r0, #128
 178:Generated_Source\PSoC4/ADC_GLV_V.c ****     ADC_GLV_V_SAR_CTRL_REG |= ADC_GLV_V_DEFAULT_CTRL_REG_CFG | 
  67              		.loc 1 178 0 discriminator 4
  68 002a 1368     		ldr	r3, [r2]
  69              		.loc 1 190 0 discriminator 4
  70 002c 4002     		lsls	r0, r0, #9
 178:Generated_Source\PSoC4/ADC_GLV_V.c ****     ADC_GLV_V_SAR_CTRL_REG |= ADC_GLV_V_DEFAULT_CTRL_REG_CFG | 
  71              		.loc 1 178 0 discriminator 4
  72 002e 0B43     		orrs	r3, r1
  73 0030 1360     		str	r3, [r2]
 182:Generated_Source\PSoC4/ADC_GLV_V.c ****     ADC_GLV_V_SAR_RANGE_THRES_REG = ADC_GLV_V_DEFAULT_RANGE_THRES_REG_CFG;
  74              		.loc 1 182 0 discriminator 4
  75 0032 1F4A     		ldr	r2, .L5+24
  76 0034 1F4B     		ldr	r3, .L5+28
 185:Generated_Source\PSoC4/ADC_GLV_V.c ****     ADC_GLV_V_SAR_SAMPLE_TIME23_REG = ADC_GLV_V_DEFAULT_SAMPLE_TIME23_REG_CFG;
  77              		.loc 1 185 0 discriminator 4
  78 0036 2049     		ldr	r1, .L5+32
 182:Generated_Source\PSoC4/ADC_GLV_V.c ****     ADC_GLV_V_SAR_RANGE_THRES_REG = ADC_GLV_V_DEFAULT_RANGE_THRES_REG_CFG;
  79              		.loc 1 182 0 discriminator 4
  80 0038 1A60     		str	r2, [r3]
 183:Generated_Source\PSoC4/ADC_GLV_V.c ****     ADC_GLV_V_SAR_RANGE_COND_REG  = ADC_GLV_V_COMPARE_MODE;
  81              		.loc 1 183 0 discriminator 4
  82 003a 204A     		ldr	r2, .L5+36
  83 003c 204B     		ldr	r3, .L5+40
 191:Generated_Source\PSoC4/ADC_GLV_V.c ****         /* Set MUX_HW_CTRL_VSSA in MUX_SWITCH_HW_CTRL when multiple channels enabled */
 192:Generated_Source\PSoC4/ADC_GLV_V.c ****         #if(ADC_GLV_V_TOTAL_CHANNELS_NUM > 1u)
 193:Generated_Source\PSoC4/ADC_GLV_V.c ****             ADC_GLV_V_MUX_SWITCH_HW_CTRL_REG |= ADC_GLV_V_DEFAULT_MUX_SWITCH0;
 194:Generated_Source\PSoC4/ADC_GLV_V.c ****         #endif /* ADC_GLV_V_TOTAL_CHANNELS_NUM > 1u */
ARM GAS  C:\Users\RYANCA~1\AppData\Local\Temp\ccgP414A.s 			page 6


 195:Generated_Source\PSoC4/ADC_GLV_V.c ****     #endif /*ADC_GLV_V_CHANNELS_MODE !=0 */
 196:Generated_Source\PSoC4/ADC_GLV_V.c **** 
 197:Generated_Source\PSoC4/ADC_GLV_V.c ****     ADC_GLV_V_SAR_SATURATE_INTR_MASK_REG = 0u;
 198:Generated_Source\PSoC4/ADC_GLV_V.c ****     ADC_GLV_V_SAR_RANGE_INTR_MASK_REG = 0u;
 199:Generated_Source\PSoC4/ADC_GLV_V.c ****     ADC_GLV_V_SAR_INTR_MASK_REG = ADC_GLV_V_SAR_INTR_MASK;
 200:Generated_Source\PSoC4/ADC_GLV_V.c **** 
 201:Generated_Source\PSoC4/ADC_GLV_V.c ****     #if(ADC_GLV_V_CY_SAR_IP_VER == ADC_GLV_V_CY_SAR_IP_VER0)
 202:Generated_Source\PSoC4/ADC_GLV_V.c ****         ADC_GLV_V_ANA_TRIM_REG = ADC_GLV_V_TRIM_COEF;
 203:Generated_Source\PSoC4/ADC_GLV_V.c ****     #endif /* (ADC_GLV_V_CY_SAR_IP_VER == ADC_GLV_V_CY_SAR_IP_VER0) */
 204:Generated_Source\PSoC4/ADC_GLV_V.c **** 
 205:Generated_Source\PSoC4/ADC_GLV_V.c ****     /* Read and modify default configuration based on characterization */
 206:Generated_Source\PSoC4/ADC_GLV_V.c ****     tmpRegVal = ADC_GLV_V_SAR_DFT_CTRL_REG;
 207:Generated_Source\PSoC4/ADC_GLV_V.c ****     tmpRegVal &= (uint32)~ADC_GLV_V_DCEN;
 208:Generated_Source\PSoC4/ADC_GLV_V.c ****     
 209:Generated_Source\PSoC4/ADC_GLV_V.c ****     #if(ADC_GLV_V_CY_SAR_IP_VER == ADC_GLV_V_CY_SAR_IP_VER0)
 210:Generated_Source\PSoC4/ADC_GLV_V.c ****         #if(ADC_GLV_V_NOMINAL_CLOCK_FREQ > (ADC_GLV_V_MAX_FREQUENCY / 2))
 211:Generated_Source\PSoC4/ADC_GLV_V.c ****             tmpRegVal |= ADC_GLV_V_SEL_CSEL_DFT_CHAR;
 212:Generated_Source\PSoC4/ADC_GLV_V.c ****         #else  /* clock speed < 9 Mhz */
 213:Generated_Source\PSoC4/ADC_GLV_V.c ****             tmpRegVal |= ADC_GLV_V_DLY_INC;
 214:Generated_Source\PSoC4/ADC_GLV_V.c ****         #endif /* clock speed > 9 Mhz */
 215:Generated_Source\PSoC4/ADC_GLV_V.c ****     #else
 216:Generated_Source\PSoC4/ADC_GLV_V.c ****         #if ((ADC_GLV_V_DEFAULT_VREF_SEL == ADC_GLV_V__INTERNAL1024) || \
 217:Generated_Source\PSoC4/ADC_GLV_V.c ****              (ADC_GLV_V_DEFAULT_VREF_SEL == ADC_GLV_V__INTERNALVREF))
 218:Generated_Source\PSoC4/ADC_GLV_V.c ****             tmpRegVal |= ADC_GLV_V_DLY_INC;
 219:Generated_Source\PSoC4/ADC_GLV_V.c ****         #else
 220:Generated_Source\PSoC4/ADC_GLV_V.c ****             tmpRegVal |= ADC_GLV_V_DCEN;
 221:Generated_Source\PSoC4/ADC_GLV_V.c ****             tmpRegVal &= (uint32)~ADC_GLV_V_DLY_INC;
 222:Generated_Source\PSoC4/ADC_GLV_V.c ****         #endif /* ((ADC_GLV_V_DEFAULT_VREF_SEL == ADC_GLV_V__INTERNAL1024) || \
 223:Generated_Source\PSoC4/ADC_GLV_V.c ****                    (ADC_GLV_V_DEFAULT_VREF_SEL == ADC_GLV_V__INTERNALVREF)) */
 224:Generated_Source\PSoC4/ADC_GLV_V.c ****     #endif /* (ADC_GLV_V_CY_SAR_IP_VER == ADC_GLV_V_CY_SAR_IP_VER0) */
 225:Generated_Source\PSoC4/ADC_GLV_V.c ****     
 226:Generated_Source\PSoC4/ADC_GLV_V.c ****     ADC_GLV_V_SAR_DFT_CTRL_REG = tmpRegVal;
 227:Generated_Source\PSoC4/ADC_GLV_V.c **** 
 228:Generated_Source\PSoC4/ADC_GLV_V.c ****     #if(ADC_GLV_V_MAX_RESOLUTION != ADC_GLV_V_RESOLUTION_12)
 229:Generated_Source\PSoC4/ADC_GLV_V.c ****         ADC_GLV_V_WOUNDING_REG = ADC_GLV_V_ALT_WOUNDING;
 230:Generated_Source\PSoC4/ADC_GLV_V.c ****     #endif /* ADC_GLV_V_MAX_RESOLUTION != ADC_GLV_V_RESOLUTION_12 */
 231:Generated_Source\PSoC4/ADC_GLV_V.c **** 
 232:Generated_Source\PSoC4/ADC_GLV_V.c ****     for(chNum = 0u; chNum < ADC_GLV_V_TOTAL_CHANNELS_NUM; chNum++)
 233:Generated_Source\PSoC4/ADC_GLV_V.c ****     {
 234:Generated_Source\PSoC4/ADC_GLV_V.c ****         tmpRegVal = (ADC_GLV_V_channelsConfig[chNum] & ADC_GLV_V_CHANNEL_CONFIG_MASK);
 235:Generated_Source\PSoC4/ADC_GLV_V.c ****         #if(ADC_GLV_V_TOTAL_CHANNELS_NUM > 1u)
 236:Generated_Source\PSoC4/ADC_GLV_V.c ****             tmpRegVal |= ADC_GLV_V_InputsPlacement[chNum];
 237:Generated_Source\PSoC4/ADC_GLV_V.c ****         #endif /* End ADC_GLV_V_TOTAL_CHANNELS_NUM > 1u */
 238:Generated_Source\PSoC4/ADC_GLV_V.c ****         
 239:Generated_Source\PSoC4/ADC_GLV_V.c ****         
 240:Generated_Source\PSoC4/ADC_GLV_V.c ****         /* When the part is limited to 10-bit then the SUB_RESOLUTION bit
 241:Generated_Source\PSoC4/ADC_GLV_V.c ****         *  will be ignored and the RESOLUTION bit selects between 10-bit
 242:Generated_Source\PSoC4/ADC_GLV_V.c ****         *  (0) and 8-bit (1) resolution.
 243:Generated_Source\PSoC4/ADC_GLV_V.c ****         */
 244:Generated_Source\PSoC4/ADC_GLV_V.c ****         #if((ADC_GLV_V_MAX_RESOLUTION != ADC_GLV_V_RESOLUTION_12) && \
 245:Generated_Source\PSoC4/ADC_GLV_V.c ****             (ADC_GLV_V_ALT_WOUNDING == ADC_GLV_V_WOUNDING_10BIT))
 246:Generated_Source\PSoC4/ADC_GLV_V.c ****             tmpRegVal &= (uint32)(~ADC_GLV_V_ALT_RESOLUTION_ON);
 247:Generated_Source\PSoC4/ADC_GLV_V.c ****         #endif /* ADC_GLV_V_MAX_RESOLUTION != ADC_GLV_V_RESOLUTION_12 */
 248:Generated_Source\PSoC4/ADC_GLV_V.c **** 
 249:Generated_Source\PSoC4/ADC_GLV_V.c ****         #if(ADC_GLV_V_INJ_CHANNEL_ENABLED)
 250:Generated_Source\PSoC4/ADC_GLV_V.c ****         if(chNum < ADC_GLV_V_SEQUENCED_CHANNELS_NUM)
 251:Generated_Source\PSoC4/ADC_GLV_V.c ****         #endif /* ADC_GLV_V_INJ_CHANNEL_ENABLED */
ARM GAS  C:\Users\RYANCA~1\AppData\Local\Temp\ccgP414A.s 			page 7


 252:Generated_Source\PSoC4/ADC_GLV_V.c ****         {
 253:Generated_Source\PSoC4/ADC_GLV_V.c ****             CY_SET_REG32((reg32 *)(ADC_GLV_V_SAR_CHAN_CONFIG_IND + (uint32)(chNum << 2)), tmpRegVal
  84              		.loc 1 253 0 discriminator 4
  85 003e 0725     		movs	r5, #7
 183:Generated_Source\PSoC4/ADC_GLV_V.c ****     ADC_GLV_V_SAR_RANGE_COND_REG  = ADC_GLV_V_COMPARE_MODE;
  86              		.loc 1 183 0 discriminator 4
  87 0040 1A60     		str	r2, [r3]
 184:Generated_Source\PSoC4/ADC_GLV_V.c ****     ADC_GLV_V_SAR_SAMPLE_TIME01_REG = ADC_GLV_V_DEFAULT_SAMPLE_TIME01_REG_CFG;
  88              		.loc 1 184 0 discriminator 4
  89 0042 0023     		movs	r3, #0
  90 0044 1F4A     		ldr	r2, .L5+44
  91              		.loc 1 253 0 discriminator 4
  92 0046 204C     		ldr	r4, .L5+48
 184:Generated_Source\PSoC4/ADC_GLV_V.c ****     ADC_GLV_V_SAR_SAMPLE_TIME01_REG = ADC_GLV_V_DEFAULT_SAMPLE_TIME01_REG_CFG;
  93              		.loc 1 184 0 discriminator 4
  94 0048 1360     		str	r3, [r2]
 185:Generated_Source\PSoC4/ADC_GLV_V.c ****     ADC_GLV_V_SAR_SAMPLE_TIME23_REG = ADC_GLV_V_DEFAULT_SAMPLE_TIME23_REG_CFG;
  95              		.loc 1 185 0 discriminator 4
  96 004a 204A     		ldr	r2, .L5+52
 254:Generated_Source\PSoC4/ADC_GLV_V.c **** 
 255:Generated_Source\PSoC4/ADC_GLV_V.c ****             if((ADC_GLV_V_channelsConfig[chNum] & ADC_GLV_V_IS_SATURATE_EN_MASK) != 0u)
 256:Generated_Source\PSoC4/ADC_GLV_V.c ****             {
 257:Generated_Source\PSoC4/ADC_GLV_V.c ****                 ADC_GLV_V_SAR_SATURATE_INTR_MASK_REG |= (uint16)((uint16)1 << chNum);
 258:Generated_Source\PSoC4/ADC_GLV_V.c ****             }
 259:Generated_Source\PSoC4/ADC_GLV_V.c **** 
 260:Generated_Source\PSoC4/ADC_GLV_V.c ****             if((ADC_GLV_V_channelsConfig[chNum] & ADC_GLV_V_IS_RANGE_CTRL_EN_MASK) != 0u)
 261:Generated_Source\PSoC4/ADC_GLV_V.c ****             {
 262:Generated_Source\PSoC4/ADC_GLV_V.c ****                 ADC_GLV_V_SAR_RANGE_INTR_MASK_REG |= (uint16)((uint16)1 << chNum);
 263:Generated_Source\PSoC4/ADC_GLV_V.c ****             }
 264:Generated_Source\PSoC4/ADC_GLV_V.c ****         }
 265:Generated_Source\PSoC4/ADC_GLV_V.c ****         #if(ADC_GLV_V_INJ_CHANNEL_ENABLED)
 266:Generated_Source\PSoC4/ADC_GLV_V.c ****             else
 267:Generated_Source\PSoC4/ADC_GLV_V.c ****             {
 268:Generated_Source\PSoC4/ADC_GLV_V.c ****                 CY_SET_REG32(ADC_GLV_V_SAR_INJ_CHAN_CONFIG_PTR, tmpRegVal | ADC_GLV_V_INJ_TAILGATIN
 269:Generated_Source\PSoC4/ADC_GLV_V.c **** 
 270:Generated_Source\PSoC4/ADC_GLV_V.c ****                 if((ADC_GLV_V_channelsConfig[chNum] & ADC_GLV_V_IS_SATURATE_EN_MASK) != 0u)
 271:Generated_Source\PSoC4/ADC_GLV_V.c ****                 {
 272:Generated_Source\PSoC4/ADC_GLV_V.c ****                     ADC_GLV_V_SAR_INTR_MASK_REG |= ADC_GLV_V_INJ_SATURATE_MASK;
 273:Generated_Source\PSoC4/ADC_GLV_V.c ****                 }
 274:Generated_Source\PSoC4/ADC_GLV_V.c **** 
 275:Generated_Source\PSoC4/ADC_GLV_V.c ****                 if((ADC_GLV_V_channelsConfig[chNum] & ADC_GLV_V_IS_RANGE_CTRL_EN_MASK) != 0u)
 276:Generated_Source\PSoC4/ADC_GLV_V.c ****                 {
 277:Generated_Source\PSoC4/ADC_GLV_V.c ****                     ADC_GLV_V_SAR_INTR_MASK_REG |= ADC_GLV_V_INJ_RANGE_MASK;
 278:Generated_Source\PSoC4/ADC_GLV_V.c ****                 }
 279:Generated_Source\PSoC4/ADC_GLV_V.c ****             }
 280:Generated_Source\PSoC4/ADC_GLV_V.c ****         #endif /* ADC_GLV_V_INJ_CHANNEL_ENABLED */
 281:Generated_Source\PSoC4/ADC_GLV_V.c **** 
 282:Generated_Source\PSoC4/ADC_GLV_V.c ****         if((ADC_GLV_V_channelsConfig[chNum] & ADC_GLV_V_ALT_RESOLUTION_ON) != 0u)
 283:Generated_Source\PSoC4/ADC_GLV_V.c ****         {
 284:Generated_Source\PSoC4/ADC_GLV_V.c ****                counts = (int32)ADC_GLV_V_DEFAULT_MAX_WRK_ALT;
 285:Generated_Source\PSoC4/ADC_GLV_V.c ****         }
 286:Generated_Source\PSoC4/ADC_GLV_V.c ****         else
 287:Generated_Source\PSoC4/ADC_GLV_V.c ****         {
 288:Generated_Source\PSoC4/ADC_GLV_V.c ****                counts = (int32)ADC_GLV_V_SAR_WRK_MAX_12BIT;
 289:Generated_Source\PSoC4/ADC_GLV_V.c ****         }
 290:Generated_Source\PSoC4/ADC_GLV_V.c **** 
 291:Generated_Source\PSoC4/ADC_GLV_V.c ****         if((ADC_GLV_V_channelsConfig[chNum] & ADC_GLV_V_DIFFERENTIAL_EN) == 0u)
ARM GAS  C:\Users\RYANCA~1\AppData\Local\Temp\ccgP414A.s 			page 8


 292:Generated_Source\PSoC4/ADC_GLV_V.c ****         {
 293:Generated_Source\PSoC4/ADC_GLV_V.c ****             #if((ADC_GLV_V_DEFAULT_SE_RESULT_FORMAT_SEL == ADC_GLV_V__FSIGNED) && \
 294:Generated_Source\PSoC4/ADC_GLV_V.c ****                 (ADC_GLV_V_DEFAULT_NEG_INPUT_SEL == ADC_GLV_V__VREF))
 295:Generated_Source\PSoC4/ADC_GLV_V.c ****                 /* Set offset to the minus half scale to convert results to unsigned format */
 296:Generated_Source\PSoC4/ADC_GLV_V.c ****                 ADC_GLV_V_offset[chNum] = (int16)(counts / -2);
 297:Generated_Source\PSoC4/ADC_GLV_V.c ****             #else
 298:Generated_Source\PSoC4/ADC_GLV_V.c ****                 ADC_GLV_V_offset[chNum] = 0;
 299:Generated_Source\PSoC4/ADC_GLV_V.c ****             #endif /* end DEFAULT_SE_RESULT_FORMAT_SEL == ADC_GLV_V__FSIGNED */
 300:Generated_Source\PSoC4/ADC_GLV_V.c ****         }
 301:Generated_Source\PSoC4/ADC_GLV_V.c ****         else    /* Differential channel */
 302:Generated_Source\PSoC4/ADC_GLV_V.c ****         {
 303:Generated_Source\PSoC4/ADC_GLV_V.c ****             #if(ADC_GLV_V_DEFAULT_DIFF_RESULT_FORMAT_SEL == ADC_GLV_V__FUNSIGNED)
 304:Generated_Source\PSoC4/ADC_GLV_V.c ****                 /* Set offset to the half scale to convert results to signed format */
 305:Generated_Source\PSoC4/ADC_GLV_V.c ****                 ADC_GLV_V_offset[chNum] = (int16)(counts / 2);
 306:Generated_Source\PSoC4/ADC_GLV_V.c ****             #else
 307:Generated_Source\PSoC4/ADC_GLV_V.c ****                 ADC_GLV_V_offset[chNum] = 0;
 308:Generated_Source\PSoC4/ADC_GLV_V.c ****             #endif /* end ADC_GLV_V_DEFAULT_DIFF_RESULT_FORMAT_SEL == ADC_GLV_V__FUNSIGNED */
 309:Generated_Source\PSoC4/ADC_GLV_V.c ****         }
 310:Generated_Source\PSoC4/ADC_GLV_V.c ****         /* Calculate gain in counts per 10 volts with rounding */
 311:Generated_Source\PSoC4/ADC_GLV_V.c ****         ADC_GLV_V_countsPer10Volt[chNum] = (int16)(((counts * ADC_GLV_V_10MV_COUNTS) +
 312:Generated_Source\PSoC4/ADC_GLV_V.c ****                             ADC_GLV_V_DEFAULT_VREF_MV_VALUE) / (ADC_GLV_V_DEFAULT_VREF_MV_VALUE * 2
 313:Generated_Source\PSoC4/ADC_GLV_V.c ****     }
 314:Generated_Source\PSoC4/ADC_GLV_V.c **** }
  97              		.loc 1 314 0 discriminator 4
  98              		@ sp needed
 185:Generated_Source\PSoC4/ADC_GLV_V.c ****     ADC_GLV_V_SAR_SAMPLE_TIME23_REG = ADC_GLV_V_DEFAULT_SAMPLE_TIME23_REG_CFG;
  99              		.loc 1 185 0 discriminator 4
 100 004c 0A60     		str	r2, [r1]
 186:Generated_Source\PSoC4/ADC_GLV_V.c ****     
 101              		.loc 1 186 0 discriminator 4
 102 004e 2049     		ldr	r1, .L5+56
 103 0050 0A60     		str	r2, [r1]
 190:Generated_Source\PSoC4/ADC_GLV_V.c ****         /* Set MUX_HW_CTRL_VSSA in MUX_SWITCH_HW_CTRL when multiple channels enabled */
 104              		.loc 1 190 0 discriminator 4
 105 0052 204A     		ldr	r2, .L5+60
 106 0054 1168     		ldr	r1, [r2]
 107 0056 0143     		orrs	r1, r0
 108 0058 1160     		str	r1, [r2]
 193:Generated_Source\PSoC4/ADC_GLV_V.c ****         #endif /* ADC_GLV_V_TOTAL_CHANNELS_NUM > 1u */
 109              		.loc 1 193 0 discriminator 4
 110 005a 1F49     		ldr	r1, .L5+64
 111 005c 0A68     		ldr	r2, [r1]
 112 005e 0243     		orrs	r2, r0
 113 0060 0A60     		str	r2, [r1]
 199:Generated_Source\PSoC4/ADC_GLV_V.c **** 
 114              		.loc 1 199 0 discriminator 4
 115 0062 0121     		movs	r1, #1
 197:Generated_Source\PSoC4/ADC_GLV_V.c ****     ADC_GLV_V_SAR_RANGE_INTR_MASK_REG = 0u;
 116              		.loc 1 197 0 discriminator 4
 117 0064 1D4A     		ldr	r2, .L5+68
 118 0066 1360     		str	r3, [r2]
 198:Generated_Source\PSoC4/ADC_GLV_V.c ****     ADC_GLV_V_SAR_INTR_MASK_REG = ADC_GLV_V_SAR_INTR_MASK;
 119              		.loc 1 198 0 discriminator 4
 120 0068 1D4A     		ldr	r2, .L5+72
 121 006a 1360     		str	r3, [r2]
 199:Generated_Source\PSoC4/ADC_GLV_V.c **** 
 122              		.loc 1 199 0 discriminator 4
ARM GAS  C:\Users\RYANCA~1\AppData\Local\Temp\ccgP414A.s 			page 9


 123 006c 1D4A     		ldr	r2, .L5+76
 124 006e 1160     		str	r1, [r2]
 206:Generated_Source\PSoC4/ADC_GLV_V.c ****     tmpRegVal &= (uint32)~ADC_GLV_V_DCEN;
 125              		.loc 1 206 0 discriminator 4
 126 0070 1D49     		ldr	r1, .L5+80
 127 0072 1E4A     		ldr	r2, .L5+84
 128 0074 0868     		ldr	r0, [r1]
 129              	.LVL2:
 130 0076 0240     		ands	r2, r0
 221:Generated_Source\PSoC4/ADC_GLV_V.c ****         #endif /* ((ADC_GLV_V_DEFAULT_VREF_SEL == ADC_GLV_V__INTERNAL1024) || \
 131              		.loc 1 221 0 discriminator 4
 132 0078 8020     		movs	r0, #128
 133              	.LVL3:
 134 007a 8005     		lsls	r0, r0, #22
 135 007c 0243     		orrs	r2, r0
 136              	.LVL4:
 226:Generated_Source\PSoC4/ADC_GLV_V.c **** 
 137              		.loc 1 226 0 discriminator 4
 138 007e 0A60     		str	r2, [r1]
 139              	.LVL5:
 253:Generated_Source\PSoC4/ADC_GLV_V.c **** 
 140              		.loc 1 253 0 discriminator 4
 141 0080 0621     		movs	r1, #6
 142 0082 1B4A     		ldr	r2, .L5+88
 298:Generated_Source\PSoC4/ADC_GLV_V.c ****             #endif /* end DEFAULT_SE_RESULT_FORMAT_SEL == ADC_GLV_V__FSIGNED */
 143              		.loc 1 298 0 discriminator 4
 144 0084 1B48     		ldr	r0, .L5+92
 253:Generated_Source\PSoC4/ADC_GLV_V.c **** 
 145              		.loc 1 253 0 discriminator 4
 146 0086 1160     		str	r1, [r2]
 147              	.LVL6:
 311:Generated_Source\PSoC4/ADC_GLV_V.c ****                             ADC_GLV_V_DEFAULT_VREF_MV_VALUE) / (ADC_GLV_V_DEFAULT_VREF_MV_VALUE * 2
 148              		.loc 1 311 0 discriminator 4
 149 0088 1B4A     		ldr	r2, .L5+96
 150 008a 1C49     		ldr	r1, .L5+100
 298:Generated_Source\PSoC4/ADC_GLV_V.c ****             #endif /* end DEFAULT_SE_RESULT_FORMAT_SEL == ADC_GLV_V__FSIGNED */
 151              		.loc 1 298 0 discriminator 4
 152 008c 0380     		strh	r3, [r0]
 311:Generated_Source\PSoC4/ADC_GLV_V.c ****                             ADC_GLV_V_DEFAULT_VREF_MV_VALUE) / (ADC_GLV_V_DEFAULT_VREF_MV_VALUE * 2
 153              		.loc 1 311 0 discriminator 4
 154 008e 1160     		str	r1, [r2]
 155              	.LVL7:
 253:Generated_Source\PSoC4/ADC_GLV_V.c **** 
 156              		.loc 1 253 0 discriminator 4
 157 0090 2560     		str	r5, [r4]
 298:Generated_Source\PSoC4/ADC_GLV_V.c ****             #endif /* end DEFAULT_SE_RESULT_FORMAT_SEL == ADC_GLV_V__FSIGNED */
 158              		.loc 1 298 0 discriminator 4
 159 0092 4380     		strh	r3, [r0, #2]
 311:Generated_Source\PSoC4/ADC_GLV_V.c ****                             ADC_GLV_V_DEFAULT_VREF_MV_VALUE) / (ADC_GLV_V_DEFAULT_VREF_MV_VALUE * 2
 160              		.loc 1 311 0 discriminator 4
 161 0094 5160     		str	r1, [r2, #4]
 162              	.LVL8:
 163              		.loc 1 314 0 discriminator 4
 164 0096 70BD     		pop	{r4, r5, r6, pc}
 165              	.L6:
 166              		.align	2
 167              	.L5:
ARM GAS  C:\Users\RYANCA~1\AppData\Local\Temp\ccgP414A.s 			page 10


 168 0098 00000000 		.word	ADC_GLV_V_ISR
 169 009c 20003A40 		.word	1077542944
 170 00a0 80033A40 		.word	1077543808
 171 00a4 70200010 		.word	268443760
 172 00a8 70201010 		.word	269492336
 173 00ac 00003A40 		.word	1077542912
 174 00b0 8C000080 		.word	-2147483508
 175 00b4 04003A40 		.word	1077542916
 176 00b8 10003A40 		.word	1077542928
 177 00bc 0000FF07 		.word	134152192
 178 00c0 18003A40 		.word	1077542936
 179 00c4 1C003A40 		.word	1077542940
 180 00c8 84003A40 		.word	1077543044
 181 00cc 02000200 		.word	131074
 182 00d0 14003A40 		.word	1077542932
 183 00d4 00033A40 		.word	1077543680
 184 00d8 40033A40 		.word	1077543744
 185 00dc 28023A40 		.word	1077543464
 186 00e0 38023A40 		.word	1077543480
 187 00e4 18023A40 		.word	1077543448
 188 00e8 30003A40 		.word	1077542960
 189 00ec FEFFFFDF 		.word	-536870914
 190 00f0 80003A40 		.word	1077543040
 191 00f4 00000000 		.word	ADC_GLV_V_offset
 192 00f8 00000000 		.word	ADC_GLV_V_countsPer10Volt
 193 00fc 3E180000 		.word	6206
 194              		.cfi_endproc
 195              	.LFE2:
 196              		.size	ADC_GLV_V_Init, .-ADC_GLV_V_Init
 197              		.section	.text.ADC_GLV_V_Enable,"ax",%progbits
 198              		.align	1
 199              		.global	ADC_GLV_V_Enable
 200              		.code	16
 201              		.thumb_func
 202              		.type	ADC_GLV_V_Enable, %function
 203              	ADC_GLV_V_Enable:
 204              	.LFB3:
 315:Generated_Source\PSoC4/ADC_GLV_V.c **** 
 316:Generated_Source\PSoC4/ADC_GLV_V.c **** /*******************************************************************************
 317:Generated_Source\PSoC4/ADC_GLV_V.c **** * Function Name: ADC_SAR_1_Enable
 318:Generated_Source\PSoC4/ADC_GLV_V.c **** ********************************************************************************
 319:Generated_Source\PSoC4/ADC_GLV_V.c **** *
 320:Generated_Source\PSoC4/ADC_GLV_V.c **** * Summary:
 321:Generated_Source\PSoC4/ADC_GLV_V.c **** *  Enables the clock and analog power for SAR ADC.
 322:Generated_Source\PSoC4/ADC_GLV_V.c **** *
 323:Generated_Source\PSoC4/ADC_GLV_V.c **** * Parameters:
 324:Generated_Source\PSoC4/ADC_GLV_V.c **** *  None.
 325:Generated_Source\PSoC4/ADC_GLV_V.c **** *
 326:Generated_Source\PSoC4/ADC_GLV_V.c **** * Return:
 327:Generated_Source\PSoC4/ADC_GLV_V.c **** *  None.
 328:Generated_Source\PSoC4/ADC_GLV_V.c **** *
 329:Generated_Source\PSoC4/ADC_GLV_V.c **** *******************************************************************************/
 330:Generated_Source\PSoC4/ADC_GLV_V.c **** void ADC_GLV_V_Enable(void)
 331:Generated_Source\PSoC4/ADC_GLV_V.c **** {
 205              		.loc 1 331 0
 206              		.cfi_startproc
 207              		@ args = 0, pretend = 0, frame = 0
ARM GAS  C:\Users\RYANCA~1\AppData\Local\Temp\ccgP414A.s 			page 11


 208              		@ frame_needed = 0, uses_anonymous_args = 0
 332:Generated_Source\PSoC4/ADC_GLV_V.c ****     if (0u == (ADC_GLV_V_SAR_CTRL_REG & ADC_GLV_V_ENABLE))
 209              		.loc 1 332 0
 210 0000 084B     		ldr	r3, .L12
 331:Generated_Source\PSoC4/ADC_GLV_V.c ****     if (0u == (ADC_GLV_V_SAR_CTRL_REG & ADC_GLV_V_ENABLE))
 211              		.loc 1 331 0
 212 0002 10B5     		push	{r4, lr}
 213              		.cfi_def_cfa_offset 8
 214              		.cfi_offset 4, -8
 215              		.cfi_offset 14, -4
 216              		.loc 1 332 0
 217 0004 1A68     		ldr	r2, [r3]
 218 0006 002A     		cmp	r2, #0
 219 0008 0BDB     		blt	.L7
 220              	.LBB4:
 221              	.LBB5:
 333:Generated_Source\PSoC4/ADC_GLV_V.c ****     {
 334:Generated_Source\PSoC4/ADC_GLV_V.c ****         #if(ADC_GLV_V_CY_SAR_IP_VER != ADC_GLV_V_CY_SAR_IP_VER0)
 335:Generated_Source\PSoC4/ADC_GLV_V.c **** 
 336:Generated_Source\PSoC4/ADC_GLV_V.c ****             while (0u != (ADC_GLV_V_SAR_STATUS_REG & ADC_GLV_V_STATUS_BUSY))
 222              		.loc 1 336 0
 223 000a 0749     		ldr	r1, .L12+4
 224              	.L10:
 225 000c 0A68     		ldr	r2, [r1]
 226 000e 002A     		cmp	r2, #0
 227 0010 FCDB     		blt	.L10
 337:Generated_Source\PSoC4/ADC_GLV_V.c ****             {
 338:Generated_Source\PSoC4/ADC_GLV_V.c ****                 /* wait for SAR to go idle to avoid deadlock */
 339:Generated_Source\PSoC4/ADC_GLV_V.c ****             }
 340:Generated_Source\PSoC4/ADC_GLV_V.c ****         #endif /* (ADC_GLV_V_CY_SAR_IP_VER != ADC_GLV_V_CY_SAR_IP_VER0) */
 341:Generated_Source\PSoC4/ADC_GLV_V.c ****         
 342:Generated_Source\PSoC4/ADC_GLV_V.c ****         ADC_GLV_V_SAR_CTRL_REG |= ADC_GLV_V_ENABLE;
 228              		.loc 1 342 0
 229 0012 8021     		movs	r1, #128
 230 0014 1A68     		ldr	r2, [r3]
 231 0016 0906     		lsls	r1, r1, #24
 232 0018 0A43     		orrs	r2, r1
 233 001a 1A60     		str	r2, [r3]
 343:Generated_Source\PSoC4/ADC_GLV_V.c ****         
 344:Generated_Source\PSoC4/ADC_GLV_V.c ****         /* The block is ready to use 10 us after the enable signal is set high. */
 345:Generated_Source\PSoC4/ADC_GLV_V.c ****         CyDelayUs(ADC_GLV_V_10US_DELAY);         
 234              		.loc 1 345 0
 235 001c 0A20     		movs	r0, #10
 236 001e FFF7FEFF 		bl	CyDelayUs
 237              	.LVL9:
 238              	.L7:
 239              	.LBE5:
 240              	.LBE4:
 346:Generated_Source\PSoC4/ADC_GLV_V.c ****     }
 347:Generated_Source\PSoC4/ADC_GLV_V.c **** }
 241              		.loc 1 347 0
 242              		@ sp needed
 243 0022 10BD     		pop	{r4, pc}
 244              	.L13:
 245              		.align	2
 246              	.L12:
 247 0024 00003A40 		.word	1077542912
ARM GAS  C:\Users\RYANCA~1\AppData\Local\Temp\ccgP414A.s 			page 12


 248 0028 08023A40 		.word	1077543432
 249              		.cfi_endproc
 250              	.LFE3:
 251              		.size	ADC_GLV_V_Enable, .-ADC_GLV_V_Enable
 252              		.section	.text.ADC_GLV_V_Start,"ax",%progbits
 253              		.align	1
 254              		.global	ADC_GLV_V_Start
 255              		.code	16
 256              		.thumb_func
 257              		.type	ADC_GLV_V_Start, %function
 258              	ADC_GLV_V_Start:
 259              	.LFB1:
  64:Generated_Source\PSoC4/ADC_GLV_V.c ****     /* If not Initialized then initialize all required hardware and software */
 260              		.loc 1 64 0
 261              		.cfi_startproc
 262              		@ args = 0, pretend = 0, frame = 0
 263              		@ frame_needed = 0, uses_anonymous_args = 0
 264 0000 10B5     		push	{r4, lr}
 265              		.cfi_def_cfa_offset 8
 266              		.cfi_offset 4, -8
 267              		.cfi_offset 14, -4
  66:Generated_Source\PSoC4/ADC_GLV_V.c ****     {
 268              		.loc 1 66 0
 269 0002 054C     		ldr	r4, .L16
 270 0004 2378     		ldrb	r3, [r4]
 271 0006 002B     		cmp	r3, #0
 272 0008 03D1     		bne	.L15
  68:Generated_Source\PSoC4/ADC_GLV_V.c ****         ADC_GLV_V_initVar = 1u;
 273              		.loc 1 68 0
 274 000a FFF7FEFF 		bl	ADC_GLV_V_Init
 275              	.LVL10:
  69:Generated_Source\PSoC4/ADC_GLV_V.c ****     }
 276              		.loc 1 69 0
 277 000e 0123     		movs	r3, #1
 278 0010 2370     		strb	r3, [r4]
 279              	.L15:
  71:Generated_Source\PSoC4/ADC_GLV_V.c **** }
 280              		.loc 1 71 0
 281 0012 FFF7FEFF 		bl	ADC_GLV_V_Enable
 282              	.LVL11:
  72:Generated_Source\PSoC4/ADC_GLV_V.c **** 
 283              		.loc 1 72 0
 284              		@ sp needed
 285 0016 10BD     		pop	{r4, pc}
 286              	.L17:
 287              		.align	2
 288              	.L16:
 289 0018 00000000 		.word	.LANCHOR0
 290              		.cfi_endproc
 291              	.LFE1:
 292              		.size	ADC_GLV_V_Start, .-ADC_GLV_V_Start
 293              		.section	.text.ADC_GLV_V_Stop,"ax",%progbits
 294              		.align	1
 295              		.global	ADC_GLV_V_Stop
 296              		.code	16
 297              		.thumb_func
 298              		.type	ADC_GLV_V_Stop, %function
ARM GAS  C:\Users\RYANCA~1\AppData\Local\Temp\ccgP414A.s 			page 13


 299              	ADC_GLV_V_Stop:
 300              	.LFB4:
 348:Generated_Source\PSoC4/ADC_GLV_V.c **** 
 349:Generated_Source\PSoC4/ADC_GLV_V.c **** 
 350:Generated_Source\PSoC4/ADC_GLV_V.c **** /*******************************************************************************
 351:Generated_Source\PSoC4/ADC_GLV_V.c **** * Function Name: ADC_GLV_V_Stop
 352:Generated_Source\PSoC4/ADC_GLV_V.c **** ********************************************************************************
 353:Generated_Source\PSoC4/ADC_GLV_V.c **** *
 354:Generated_Source\PSoC4/ADC_GLV_V.c **** * Summary:
 355:Generated_Source\PSoC4/ADC_GLV_V.c **** *  This function stops ADC conversions and puts the ADC into its lowest power
 356:Generated_Source\PSoC4/ADC_GLV_V.c **** *  mode.
 357:Generated_Source\PSoC4/ADC_GLV_V.c **** *
 358:Generated_Source\PSoC4/ADC_GLV_V.c **** * Parameters:
 359:Generated_Source\PSoC4/ADC_GLV_V.c **** *  None.
 360:Generated_Source\PSoC4/ADC_GLV_V.c **** *
 361:Generated_Source\PSoC4/ADC_GLV_V.c **** * Return:
 362:Generated_Source\PSoC4/ADC_GLV_V.c **** *  None.
 363:Generated_Source\PSoC4/ADC_GLV_V.c **** *
 364:Generated_Source\PSoC4/ADC_GLV_V.c **** *******************************************************************************/
 365:Generated_Source\PSoC4/ADC_GLV_V.c **** void ADC_GLV_V_Stop(void)
 366:Generated_Source\PSoC4/ADC_GLV_V.c **** {
 301              		.loc 1 366 0
 302              		.cfi_startproc
 303              		@ args = 0, pretend = 0, frame = 0
 304              		@ frame_needed = 0, uses_anonymous_args = 0
 305              		@ link register save eliminated.
 367:Generated_Source\PSoC4/ADC_GLV_V.c ****     ADC_GLV_V_SAR_CTRL_REG &= (uint32)~ADC_GLV_V_ENABLE;
 306              		.loc 1 367 0
 307 0000 024A     		ldr	r2, .L19
 368:Generated_Source\PSoC4/ADC_GLV_V.c **** }
 308              		.loc 1 368 0
 309              		@ sp needed
 367:Generated_Source\PSoC4/ADC_GLV_V.c ****     ADC_GLV_V_SAR_CTRL_REG &= (uint32)~ADC_GLV_V_ENABLE;
 310              		.loc 1 367 0
 311 0002 1368     		ldr	r3, [r2]
 312 0004 5B00     		lsls	r3, r3, #1
 313 0006 5B08     		lsrs	r3, r3, #1
 314 0008 1360     		str	r3, [r2]
 315              		.loc 1 368 0
 316 000a 7047     		bx	lr
 317              	.L20:
 318              		.align	2
 319              	.L19:
 320 000c 00003A40 		.word	1077542912
 321              		.cfi_endproc
 322              	.LFE4:
 323              		.size	ADC_GLV_V_Stop, .-ADC_GLV_V_Stop
 324              		.section	.text.ADC_GLV_V_StartConvert,"ax",%progbits
 325              		.align	1
 326              		.global	ADC_GLV_V_StartConvert
 327              		.code	16
 328              		.thumb_func
 329              		.type	ADC_GLV_V_StartConvert, %function
 330              	ADC_GLV_V_StartConvert:
 331              	.LFB5:
 369:Generated_Source\PSoC4/ADC_GLV_V.c **** 
 370:Generated_Source\PSoC4/ADC_GLV_V.c **** 
ARM GAS  C:\Users\RYANCA~1\AppData\Local\Temp\ccgP414A.s 			page 14


 371:Generated_Source\PSoC4/ADC_GLV_V.c **** /*******************************************************************************
 372:Generated_Source\PSoC4/ADC_GLV_V.c **** * Function Name: ADC_GLV_V_StartConvert
 373:Generated_Source\PSoC4/ADC_GLV_V.c **** ********************************************************************************
 374:Generated_Source\PSoC4/ADC_GLV_V.c **** *
 375:Generated_Source\PSoC4/ADC_GLV_V.c **** * Summary:
 376:Generated_Source\PSoC4/ADC_GLV_V.c **** *  Description:
 377:Generated_Source\PSoC4/ADC_GLV_V.c **** *  For free running mode, this API starts the conversion process and it
 378:Generated_Source\PSoC4/ADC_GLV_V.c **** *  runs continuously.
 379:Generated_Source\PSoC4/ADC_GLV_V.c **** *
 380:Generated_Source\PSoC4/ADC_GLV_V.c **** *  In a triggered mode, this routine triggers every conversion by
 381:Generated_Source\PSoC4/ADC_GLV_V.c **** *  writing into the FW_TRIGGER bit in SAR_START_CTRL reg. In triggered mode,
 382:Generated_Source\PSoC4/ADC_GLV_V.c **** *  every conversion has to start by this API.
 383:Generated_Source\PSoC4/ADC_GLV_V.c **** *
 384:Generated_Source\PSoC4/ADC_GLV_V.c **** * Parameters:
 385:Generated_Source\PSoC4/ADC_GLV_V.c **** *  None.
 386:Generated_Source\PSoC4/ADC_GLV_V.c **** *
 387:Generated_Source\PSoC4/ADC_GLV_V.c **** * Return:
 388:Generated_Source\PSoC4/ADC_GLV_V.c **** *  None.
 389:Generated_Source\PSoC4/ADC_GLV_V.c **** *
 390:Generated_Source\PSoC4/ADC_GLV_V.c **** *******************************************************************************/
 391:Generated_Source\PSoC4/ADC_GLV_V.c **** void ADC_GLV_V_StartConvert(void)
 392:Generated_Source\PSoC4/ADC_GLV_V.c **** {
 332              		.loc 1 392 0
 333              		.cfi_startproc
 334              		@ args = 0, pretend = 0, frame = 0
 335              		@ frame_needed = 0, uses_anonymous_args = 0
 336              		@ link register save eliminated.
 393:Generated_Source\PSoC4/ADC_GLV_V.c ****     #if(ADC_GLV_V_DEFAULT_SAMPLE_MODE_SEL == ADC_GLV_V__FREERUNNING)
 394:Generated_Source\PSoC4/ADC_GLV_V.c ****         ADC_GLV_V_SAR_SAMPLE_CTRL_REG |= ADC_GLV_V_CONTINUOUS_EN;
 337              		.loc 1 394 0
 338 0000 8021     		movs	r1, #128
 339 0002 034A     		ldr	r2, .L22
 340 0004 4902     		lsls	r1, r1, #9
 341 0006 1368     		ldr	r3, [r2]
 395:Generated_Source\PSoC4/ADC_GLV_V.c ****     #else /* Firmware trigger */
 396:Generated_Source\PSoC4/ADC_GLV_V.c ****         ADC_GLV_V_SAR_START_CTRL_REG = ADC_GLV_V_FW_TRIGGER;
 397:Generated_Source\PSoC4/ADC_GLV_V.c ****     #endif /* End ADC_GLV_V_DEFAULT_SAMPLE_MODE == ADC_GLV_V__FREERUNNING */
 398:Generated_Source\PSoC4/ADC_GLV_V.c **** 
 399:Generated_Source\PSoC4/ADC_GLV_V.c **** }
 342              		.loc 1 399 0
 343              		@ sp needed
 394:Generated_Source\PSoC4/ADC_GLV_V.c ****     #else /* Firmware trigger */
 344              		.loc 1 394 0
 345 0008 0B43     		orrs	r3, r1
 346 000a 1360     		str	r3, [r2]
 347              		.loc 1 399 0
 348 000c 7047     		bx	lr
 349              	.L23:
 350 000e C046     		.align	2
 351              	.L22:
 352 0010 04003A40 		.word	1077542916
 353              		.cfi_endproc
 354              	.LFE5:
 355              		.size	ADC_GLV_V_StartConvert, .-ADC_GLV_V_StartConvert
 356              		.section	.text.ADC_GLV_V_StopConvert,"ax",%progbits
 357              		.align	1
 358              		.global	ADC_GLV_V_StopConvert
ARM GAS  C:\Users\RYANCA~1\AppData\Local\Temp\ccgP414A.s 			page 15


 359              		.code	16
 360              		.thumb_func
 361              		.type	ADC_GLV_V_StopConvert, %function
 362              	ADC_GLV_V_StopConvert:
 363              	.LFB6:
 400:Generated_Source\PSoC4/ADC_GLV_V.c **** 
 401:Generated_Source\PSoC4/ADC_GLV_V.c **** 
 402:Generated_Source\PSoC4/ADC_GLV_V.c **** /*******************************************************************************
 403:Generated_Source\PSoC4/ADC_GLV_V.c **** * Function Name: ADC_GLV_V_StopConvert
 404:Generated_Source\PSoC4/ADC_GLV_V.c **** ********************************************************************************
 405:Generated_Source\PSoC4/ADC_GLV_V.c **** *
 406:Generated_Source\PSoC4/ADC_GLV_V.c **** * Summary:
 407:Generated_Source\PSoC4/ADC_GLV_V.c **** *  Forces the ADC to stop all conversions.
 408:Generated_Source\PSoC4/ADC_GLV_V.c **** *
 409:Generated_Source\PSoC4/ADC_GLV_V.c **** * Parameters:
 410:Generated_Source\PSoC4/ADC_GLV_V.c **** *  None.
 411:Generated_Source\PSoC4/ADC_GLV_V.c **** *
 412:Generated_Source\PSoC4/ADC_GLV_V.c **** * Return:
 413:Generated_Source\PSoC4/ADC_GLV_V.c **** *  None.
 414:Generated_Source\PSoC4/ADC_GLV_V.c **** *
 415:Generated_Source\PSoC4/ADC_GLV_V.c **** *******************************************************************************/
 416:Generated_Source\PSoC4/ADC_GLV_V.c **** void ADC_GLV_V_StopConvert(void)
 417:Generated_Source\PSoC4/ADC_GLV_V.c **** {
 364              		.loc 1 417 0
 365              		.cfi_startproc
 366              		@ args = 0, pretend = 0, frame = 0
 367              		@ frame_needed = 0, uses_anonymous_args = 0
 368              		@ link register save eliminated.
 418:Generated_Source\PSoC4/ADC_GLV_V.c ****     #if(ADC_GLV_V_DEFAULT_SAMPLE_MODE_SEL == ADC_GLV_V__FREERUNNING)
 419:Generated_Source\PSoC4/ADC_GLV_V.c ****         ADC_GLV_V_SAR_SAMPLE_CTRL_REG &= (uint32)(~ADC_GLV_V_CONTINUOUS_EN);
 369              		.loc 1 419 0
 370 0000 024A     		ldr	r2, .L25
 371 0002 034B     		ldr	r3, .L25+4
 372 0004 1168     		ldr	r1, [r2]
 420:Generated_Source\PSoC4/ADC_GLV_V.c ****     #endif /* ADC_GLV_V_DEFAULT_SAMPLE_MODE == ADC_GLV_V__FREERUNNING */
 421:Generated_Source\PSoC4/ADC_GLV_V.c **** }
 373              		.loc 1 421 0
 374              		@ sp needed
 419:Generated_Source\PSoC4/ADC_GLV_V.c ****     #endif /* ADC_GLV_V_DEFAULT_SAMPLE_MODE == ADC_GLV_V__FREERUNNING */
 375              		.loc 1 419 0
 376 0006 0B40     		ands	r3, r1
 377 0008 1360     		str	r3, [r2]
 378              		.loc 1 421 0
 379 000a 7047     		bx	lr
 380              	.L26:
 381              		.align	2
 382              	.L25:
 383 000c 04003A40 		.word	1077542916
 384 0010 FFFFFEFF 		.word	-65537
 385              		.cfi_endproc
 386              	.LFE6:
 387              		.size	ADC_GLV_V_StopConvert, .-ADC_GLV_V_StopConvert
 388              		.section	.text.ADC_GLV_V_IsEndConversion,"ax",%progbits
 389              		.align	1
 390              		.global	ADC_GLV_V_IsEndConversion
 391              		.code	16
 392              		.thumb_func
ARM GAS  C:\Users\RYANCA~1\AppData\Local\Temp\ccgP414A.s 			page 16


 393              		.type	ADC_GLV_V_IsEndConversion, %function
 394              	ADC_GLV_V_IsEndConversion:
 395              	.LFB7:
 422:Generated_Source\PSoC4/ADC_GLV_V.c **** 
 423:Generated_Source\PSoC4/ADC_GLV_V.c **** 
 424:Generated_Source\PSoC4/ADC_GLV_V.c **** /*******************************************************************************
 425:Generated_Source\PSoC4/ADC_GLV_V.c **** * Function Name: ADC_GLV_V_IsEndConversion
 426:Generated_Source\PSoC4/ADC_GLV_V.c **** ********************************************************************************
 427:Generated_Source\PSoC4/ADC_GLV_V.c **** *
 428:Generated_Source\PSoC4/ADC_GLV_V.c **** * Summary:
 429:Generated_Source\PSoC4/ADC_GLV_V.c **** *  Description: Checks for ADC end of conversion for the case one
 430:Generated_Source\PSoC4/ADC_GLV_V.c **** *  channel and end of scan for the case of multiple channels. It acts
 431:Generated_Source\PSoC4/ADC_GLV_V.c **** *  as a software version of the EOC. This function provides the
 432:Generated_Source\PSoC4/ADC_GLV_V.c **** *  programmer with two options. In one mode this function
 433:Generated_Source\PSoC4/ADC_GLV_V.c **** *  immediately returns with the conversion status. In the other mode,
 434:Generated_Source\PSoC4/ADC_GLV_V.c **** *  the function does not return (blocking) until the conversion has
 435:Generated_Source\PSoC4/ADC_GLV_V.c **** *  completed.
 436:Generated_Source\PSoC4/ADC_GLV_V.c **** *
 437:Generated_Source\PSoC4/ADC_GLV_V.c **** * Parameters:
 438:Generated_Source\PSoC4/ADC_GLV_V.c **** *  ADC_RETURN_STATUS        -> Immediately returns conversion result status
 439:Generated_Source\PSoC4/ADC_GLV_V.c **** *  ADC_WAIT_FOR_RESULT      -> Does not return until ADC complete
 440:Generated_Source\PSoC4/ADC_GLV_V.c **** *  ADC_RETURN_STATUS_INJ    -> Immediately returns conversion result status
 441:Generated_Source\PSoC4/ADC_GLV_V.c **** *                              for injection channel
 442:Generated_Source\PSoC4/ADC_GLV_V.c **** *  ADC_WAIT_FOR_RESULT_INJ  -> Does not return until ADC completes injection
 443:Generated_Source\PSoC4/ADC_GLV_V.c **** *                              channel conversion
 444:Generated_Source\PSoC4/ADC_GLV_V.c **** *
 445:Generated_Source\PSoC4/ADC_GLV_V.c **** * Return:
 446:Generated_Source\PSoC4/ADC_GLV_V.c **** *  If a non-zero value is returned, the last conversion or scan has completed.
 447:Generated_Source\PSoC4/ADC_GLV_V.c **** *  If the returned value is zero, the ADC is still in the process of a scan.
 448:Generated_Source\PSoC4/ADC_GLV_V.c **** *
 449:Generated_Source\PSoC4/ADC_GLV_V.c **** *******************************************************************************/
 450:Generated_Source\PSoC4/ADC_GLV_V.c **** uint32 ADC_GLV_V_IsEndConversion(uint32 retMode)
 451:Generated_Source\PSoC4/ADC_GLV_V.c **** {
 396              		.loc 1 451 0
 397              		.cfi_startproc
 398              		@ args = 0, pretend = 0, frame = 0
 399              		@ frame_needed = 0, uses_anonymous_args = 0
 400              	.LVL12:
 401 0000 10B5     		push	{r4, lr}
 402              		.cfi_def_cfa_offset 8
 403              		.cfi_offset 4, -8
 404              		.cfi_offset 14, -4
 452:Generated_Source\PSoC4/ADC_GLV_V.c ****     uint32 status = 0u;
 405              		.loc 1 452 0
 406 0002 0023     		movs	r3, #0
 453:Generated_Source\PSoC4/ADC_GLV_V.c **** 
 454:Generated_Source\PSoC4/ADC_GLV_V.c ****     if((retMode & (ADC_GLV_V_RETURN_STATUS | ADC_GLV_V_WAIT_FOR_RESULT)) != 0u)
 407              		.loc 1 454 0
 408 0004 8207     		lsls	r2, r0, #30
 409 0006 0DD0     		beq	.L32
 455:Generated_Source\PSoC4/ADC_GLV_V.c ****     {
 456:Generated_Source\PSoC4/ADC_GLV_V.c ****         do
 457:Generated_Source\PSoC4/ADC_GLV_V.c ****         {
 458:Generated_Source\PSoC4/ADC_GLV_V.c ****             status = ADC_GLV_V_SAR_INTR_REG & ADC_GLV_V_EOS_MASK;
 410              		.loc 1 458 0 discriminator 2
 411 0008 0124     		movs	r4, #1
 459:Generated_Source\PSoC4/ADC_GLV_V.c ****         }while((status == 0u) && ((retMode & ADC_GLV_V_WAIT_FOR_RESULT) != 0u));
ARM GAS  C:\Users\RYANCA~1\AppData\Local\Temp\ccgP414A.s 			page 17


 412              		.loc 1 459 0 discriminator 2
 413 000a 0233     		adds	r3, r3, #2
 458:Generated_Source\PSoC4/ADC_GLV_V.c ****         }while((status == 0u) && ((retMode & ADC_GLV_V_WAIT_FOR_RESULT) != 0u));
 414              		.loc 1 458 0 discriminator 2
 415 000c 0649     		ldr	r1, .L36
 416              		.loc 1 459 0 discriminator 2
 417 000e 1840     		ands	r0, r3
 418              	.LVL13:
 419              	.L33:
 458:Generated_Source\PSoC4/ADC_GLV_V.c ****         }while((status == 0u) && ((retMode & ADC_GLV_V_WAIT_FOR_RESULT) != 0u));
 420              		.loc 1 458 0 discriminator 2
 421 0010 0B68     		ldr	r3, [r1]
 422 0012 0122     		movs	r2, #1
 423 0014 2340     		ands	r3, r4
 424              	.LVL14:
 425              		.loc 1 459 0 discriminator 2
 426 0016 02D1     		bne	.L29
 427              		.loc 1 459 0 is_stmt 0 discriminator 1
 428 0018 0028     		cmp	r0, #0
 429 001a F9D1     		bne	.L33
 430 001c 02E0     		b	.L32
 431              	.L29:
 460:Generated_Source\PSoC4/ADC_GLV_V.c **** 
 461:Generated_Source\PSoC4/ADC_GLV_V.c ****         if(status != 0u)
 462:Generated_Source\PSoC4/ADC_GLV_V.c ****         {
 463:Generated_Source\PSoC4/ADC_GLV_V.c ****             /* Clear EOS bit */
 464:Generated_Source\PSoC4/ADC_GLV_V.c ****             ADC_GLV_V_SAR_INTR_REG = ADC_GLV_V_EOS_MASK;
 432              		.loc 1 464 0 is_stmt 1
 433 001e 024B     		ldr	r3, .L36
 434              	.LVL15:
 435 0020 1A60     		str	r2, [r3]
 436 0022 1300     		movs	r3, r2
 437              	.LVL16:
 438              	.L32:
 465:Generated_Source\PSoC4/ADC_GLV_V.c ****         }
 466:Generated_Source\PSoC4/ADC_GLV_V.c ****     }
 467:Generated_Source\PSoC4/ADC_GLV_V.c **** 
 468:Generated_Source\PSoC4/ADC_GLV_V.c ****     #if(ADC_GLV_V_INJ_CHANNEL_ENABLED)
 469:Generated_Source\PSoC4/ADC_GLV_V.c ****         if((retMode & (ADC_GLV_V_RETURN_STATUS_INJ | ADC_GLV_V_WAIT_FOR_RESULT_INJ)) != 0u)
 470:Generated_Source\PSoC4/ADC_GLV_V.c ****         {
 471:Generated_Source\PSoC4/ADC_GLV_V.c ****             do
 472:Generated_Source\PSoC4/ADC_GLV_V.c ****             {
 473:Generated_Source\PSoC4/ADC_GLV_V.c ****                 status |= ADC_GLV_V_SAR_INTR_REG & ADC_GLV_V_INJ_EOC_MASK;
 474:Generated_Source\PSoC4/ADC_GLV_V.c ****             }while(((status & ADC_GLV_V_INJ_EOC_MASK) == 0u) &&
 475:Generated_Source\PSoC4/ADC_GLV_V.c ****                    ((retMode & ADC_GLV_V_WAIT_FOR_RESULT_INJ) != 0u));
 476:Generated_Source\PSoC4/ADC_GLV_V.c **** 
 477:Generated_Source\PSoC4/ADC_GLV_V.c ****             if((status & ADC_GLV_V_INJ_EOC_MASK) != 0u)
 478:Generated_Source\PSoC4/ADC_GLV_V.c ****             {
 479:Generated_Source\PSoC4/ADC_GLV_V.c ****                 /* Clear Injection EOS bit */
 480:Generated_Source\PSoC4/ADC_GLV_V.c ****                 ADC_GLV_V_SAR_INTR_REG = ADC_GLV_V_INJ_EOC_MASK;
 481:Generated_Source\PSoC4/ADC_GLV_V.c ****             }
 482:Generated_Source\PSoC4/ADC_GLV_V.c ****         }
 483:Generated_Source\PSoC4/ADC_GLV_V.c ****     #endif /* ADC_GLV_V_INJ_CHANNEL_ENABLED */
 484:Generated_Source\PSoC4/ADC_GLV_V.c **** 
 485:Generated_Source\PSoC4/ADC_GLV_V.c ****     return (status);
 486:Generated_Source\PSoC4/ADC_GLV_V.c **** }
 439              		.loc 1 486 0
ARM GAS  C:\Users\RYANCA~1\AppData\Local\Temp\ccgP414A.s 			page 18


 440 0024 1800     		movs	r0, r3
 441              		@ sp needed
 442 0026 10BD     		pop	{r4, pc}
 443              	.L37:
 444              		.align	2
 445              	.L36:
 446 0028 10023A40 		.word	1077543440
 447              		.cfi_endproc
 448              	.LFE7:
 449              		.size	ADC_GLV_V_IsEndConversion, .-ADC_GLV_V_IsEndConversion
 450              		.section	.text.ADC_GLV_V_GetResult16,"ax",%progbits
 451              		.align	1
 452              		.global	ADC_GLV_V_GetResult16
 453              		.code	16
 454              		.thumb_func
 455              		.type	ADC_GLV_V_GetResult16, %function
 456              	ADC_GLV_V_GetResult16:
 457              	.LFB8:
 487:Generated_Source\PSoC4/ADC_GLV_V.c **** 
 488:Generated_Source\PSoC4/ADC_GLV_V.c **** 
 489:Generated_Source\PSoC4/ADC_GLV_V.c **** /*******************************************************************************
 490:Generated_Source\PSoC4/ADC_GLV_V.c **** * Function Name: ADC_GLV_V_GetResult16
 491:Generated_Source\PSoC4/ADC_GLV_V.c **** ********************************************************************************
 492:Generated_Source\PSoC4/ADC_GLV_V.c **** *
 493:Generated_Source\PSoC4/ADC_GLV_V.c **** * Summary:
 494:Generated_Source\PSoC4/ADC_GLV_V.c **** *  Gets the data available in the SAR DATA register.
 495:Generated_Source\PSoC4/ADC_GLV_V.c **** *
 496:Generated_Source\PSoC4/ADC_GLV_V.c **** * Parameters:
 497:Generated_Source\PSoC4/ADC_GLV_V.c **** *  chan: The ADC channel in which to return the result. The first channel
 498:Generated_Source\PSoC4/ADC_GLV_V.c **** *  is 0 and the injection channel if enabled is the number of valid channels.
 499:Generated_Source\PSoC4/ADC_GLV_V.c **** *
 500:Generated_Source\PSoC4/ADC_GLV_V.c **** * Return:
 501:Generated_Source\PSoC4/ADC_GLV_V.c **** *  Returns converted data as a signed 16-bit integer
 502:Generated_Source\PSoC4/ADC_GLV_V.c **** *
 503:Generated_Source\PSoC4/ADC_GLV_V.c **** *******************************************************************************/
 504:Generated_Source\PSoC4/ADC_GLV_V.c **** int16 ADC_GLV_V_GetResult16(uint32 chan)
 505:Generated_Source\PSoC4/ADC_GLV_V.c **** {
 458              		.loc 1 505 0
 459              		.cfi_startproc
 460              		@ args = 0, pretend = 0, frame = 0
 461              		@ frame_needed = 0, uses_anonymous_args = 0
 462              	.LVL17:
 463 0000 10B5     		push	{r4, lr}
 464              		.cfi_def_cfa_offset 8
 465              		.cfi_offset 4, -8
 466              		.cfi_offset 14, -4
 506:Generated_Source\PSoC4/ADC_GLV_V.c ****     uint32 result;
 507:Generated_Source\PSoC4/ADC_GLV_V.c **** 
 508:Generated_Source\PSoC4/ADC_GLV_V.c ****     /* Halt CPU in debug mode if channel is out of valid range */
 509:Generated_Source\PSoC4/ADC_GLV_V.c ****     CYASSERT(chan < ADC_GLV_V_TOTAL_CHANNELS_NUM);
 467              		.loc 1 509 0
 468 0002 0128     		cmp	r0, #1
 469 0004 04D9     		bls	.L39
 470              		.loc 1 509 0 is_stmt 0 discriminator 1
 471 0006 0020     		movs	r0, #0
 472              	.LVL18:
 473 0008 FFF7FEFF 		bl	CyHalt
ARM GAS  C:\Users\RYANCA~1\AppData\Local\Temp\ccgP414A.s 			page 19


 474              	.LVL19:
 510:Generated_Source\PSoC4/ADC_GLV_V.c **** 
 511:Generated_Source\PSoC4/ADC_GLV_V.c ****     if(chan < ADC_GLV_V_SEQUENCED_CHANNELS_NUM)
 512:Generated_Source\PSoC4/ADC_GLV_V.c ****     {
 513:Generated_Source\PSoC4/ADC_GLV_V.c ****         result = CY_GET_REG32((reg32 *)(ADC_GLV_V_SAR_CHAN_RESULT_IND + (uint32)(chan << 2u))) &
 514:Generated_Source\PSoC4/ADC_GLV_V.c ****                 ADC_GLV_V_RESULT_MASK;
 515:Generated_Source\PSoC4/ADC_GLV_V.c ****     }
 516:Generated_Source\PSoC4/ADC_GLV_V.c ****     else
 517:Generated_Source\PSoC4/ADC_GLV_V.c ****     {
 518:Generated_Source\PSoC4/ADC_GLV_V.c ****         #if(ADC_GLV_V_INJ_CHANNEL_ENABLED)
 519:Generated_Source\PSoC4/ADC_GLV_V.c ****             result = ADC_GLV_V_SAR_INJ_RESULT_REG & ADC_GLV_V_RESULT_MASK;
 520:Generated_Source\PSoC4/ADC_GLV_V.c ****         #else
 521:Generated_Source\PSoC4/ADC_GLV_V.c ****             result = 0u;
 475              		.loc 1 521 0 is_stmt 1 discriminator 1
 476 000c 0020     		movs	r0, #0
 477 000e 04E0     		b	.L40
 478              	.LVL20:
 479              	.L39:
 513:Generated_Source\PSoC4/ADC_GLV_V.c ****                 ADC_GLV_V_RESULT_MASK;
 480              		.loc 1 513 0
 481 0010 034B     		ldr	r3, .L42
 482 0012 8000     		lsls	r0, r0, #2
 483              	.LVL21:
 484 0014 C018     		adds	r0, r0, r3
 485 0016 0068     		ldr	r0, [r0]
 486 0018 80B2     		uxth	r0, r0
 487              	.LVL22:
 488              	.L40:
 522:Generated_Source\PSoC4/ADC_GLV_V.c ****         #endif /* ADC_GLV_V_INJ_CHANNEL_ENABLED */
 523:Generated_Source\PSoC4/ADC_GLV_V.c ****     }
 524:Generated_Source\PSoC4/ADC_GLV_V.c **** 
 525:Generated_Source\PSoC4/ADC_GLV_V.c ****     return ( (int16)result );
 489              		.loc 1 525 0
 490 001a 00B2     		sxth	r0, r0
 491              	.LVL23:
 526:Generated_Source\PSoC4/ADC_GLV_V.c **** }
 492              		.loc 1 526 0
 493              		@ sp needed
 494 001c 10BD     		pop	{r4, pc}
 495              	.L43:
 496 001e C046     		.align	2
 497              	.L42:
 498 0020 80013A40 		.word	1077543296
 499              		.cfi_endproc
 500              	.LFE8:
 501              		.size	ADC_GLV_V_GetResult16, .-ADC_GLV_V_GetResult16
 502              		.section	.text.ADC_GLV_V_SetChanMask,"ax",%progbits
 503              		.align	1
 504              		.global	ADC_GLV_V_SetChanMask
 505              		.code	16
 506              		.thumb_func
 507              		.type	ADC_GLV_V_SetChanMask, %function
 508              	ADC_GLV_V_SetChanMask:
 509              	.LFB9:
 527:Generated_Source\PSoC4/ADC_GLV_V.c **** 
 528:Generated_Source\PSoC4/ADC_GLV_V.c **** 
 529:Generated_Source\PSoC4/ADC_GLV_V.c **** /*******************************************************************************
ARM GAS  C:\Users\RYANCA~1\AppData\Local\Temp\ccgP414A.s 			page 20


 530:Generated_Source\PSoC4/ADC_GLV_V.c **** * Function Name: ADC_GLV_V_SetChanMask
 531:Generated_Source\PSoC4/ADC_GLV_V.c **** ********************************************************************************
 532:Generated_Source\PSoC4/ADC_GLV_V.c **** *
 533:Generated_Source\PSoC4/ADC_GLV_V.c **** * Summary:
 534:Generated_Source\PSoC4/ADC_GLV_V.c **** *  Sets the channel enable mask.
 535:Generated_Source\PSoC4/ADC_GLV_V.c **** *
 536:Generated_Source\PSoC4/ADC_GLV_V.c **** * Parameters:
 537:Generated_Source\PSoC4/ADC_GLV_V.c **** *  mask: Sets which channels that will be
 538:Generated_Source\PSoC4/ADC_GLV_V.c **** *  scanned. Setting bits for channels that do not exist will have no
 539:Generated_Source\PSoC4/ADC_GLV_V.c **** *  effect. For example, if only 6 channels were enabled, setting a
 540:Generated_Source\PSoC4/ADC_GLV_V.c **** *  mask of 0x0103 would only enable the last two channels (0 and 1).
 541:Generated_Source\PSoC4/ADC_GLV_V.c **** *  This API will not enable the injection channel.
 542:Generated_Source\PSoC4/ADC_GLV_V.c **** *  Examples: If the component is setup to sequence through 8
 543:Generated_Source\PSoC4/ADC_GLV_V.c **** *  channels, a mask of 0x000F would enable channels 0, 1, 2, and 3.
 544:Generated_Source\PSoC4/ADC_GLV_V.c **** *
 545:Generated_Source\PSoC4/ADC_GLV_V.c **** * Return:
 546:Generated_Source\PSoC4/ADC_GLV_V.c **** *  None.
 547:Generated_Source\PSoC4/ADC_GLV_V.c **** *
 548:Generated_Source\PSoC4/ADC_GLV_V.c **** *******************************************************************************/
 549:Generated_Source\PSoC4/ADC_GLV_V.c **** void ADC_GLV_V_SetChanMask(uint32 mask)
 550:Generated_Source\PSoC4/ADC_GLV_V.c **** {
 510              		.loc 1 550 0
 511              		.cfi_startproc
 512              		@ args = 0, pretend = 0, frame = 0
 513              		@ frame_needed = 0, uses_anonymous_args = 0
 514              		@ link register save eliminated.
 515              	.LVL24:
 551:Generated_Source\PSoC4/ADC_GLV_V.c ****     ADC_GLV_V_SAR_CHAN_EN_REG = mask & ADC_GLV_V_MAX_CHANNELS_EN_MASK;
 516              		.loc 1 551 0
 517 0000 0323     		movs	r3, #3
 518 0002 1840     		ands	r0, r3
 519              	.LVL25:
 520 0004 014B     		ldr	r3, .L45
 552:Generated_Source\PSoC4/ADC_GLV_V.c **** }
 521              		.loc 1 552 0
 522              		@ sp needed
 551:Generated_Source\PSoC4/ADC_GLV_V.c ****     ADC_GLV_V_SAR_CHAN_EN_REG = mask & ADC_GLV_V_MAX_CHANNELS_EN_MASK;
 523              		.loc 1 551 0
 524 0006 1860     		str	r0, [r3]
 525              		.loc 1 552 0
 526 0008 7047     		bx	lr
 527              	.L46:
 528 000a C046     		.align	2
 529              	.L45:
 530 000c 20003A40 		.word	1077542944
 531              		.cfi_endproc
 532              	.LFE9:
 533              		.size	ADC_GLV_V_SetChanMask, .-ADC_GLV_V_SetChanMask
 534              		.section	.text.ADC_GLV_V_SetLowLimit,"ax",%progbits
 535              		.align	1
 536              		.global	ADC_GLV_V_SetLowLimit
 537              		.code	16
 538              		.thumb_func
 539              		.type	ADC_GLV_V_SetLowLimit, %function
 540              	ADC_GLV_V_SetLowLimit:
 541              	.LFB10:
 553:Generated_Source\PSoC4/ADC_GLV_V.c **** 
ARM GAS  C:\Users\RYANCA~1\AppData\Local\Temp\ccgP414A.s 			page 21


 554:Generated_Source\PSoC4/ADC_GLV_V.c **** #if(ADC_GLV_V_INJ_CHANNEL_ENABLED)
 555:Generated_Source\PSoC4/ADC_GLV_V.c **** 
 556:Generated_Source\PSoC4/ADC_GLV_V.c **** 
 557:Generated_Source\PSoC4/ADC_GLV_V.c ****     /*******************************************************************************
 558:Generated_Source\PSoC4/ADC_GLV_V.c ****     * Function Name: ADC_GLV_V_EnableInjection
 559:Generated_Source\PSoC4/ADC_GLV_V.c ****     ********************************************************************************
 560:Generated_Source\PSoC4/ADC_GLV_V.c ****     *
 561:Generated_Source\PSoC4/ADC_GLV_V.c ****     * Summary:
 562:Generated_Source\PSoC4/ADC_GLV_V.c ****     *  Enables the injection channel for the next scan only.
 563:Generated_Source\PSoC4/ADC_GLV_V.c ****     *
 564:Generated_Source\PSoC4/ADC_GLV_V.c ****     * Parameters:
 565:Generated_Source\PSoC4/ADC_GLV_V.c ****     *  None.
 566:Generated_Source\PSoC4/ADC_GLV_V.c ****     *
 567:Generated_Source\PSoC4/ADC_GLV_V.c ****     * Return:
 568:Generated_Source\PSoC4/ADC_GLV_V.c ****     *  None.
 569:Generated_Source\PSoC4/ADC_GLV_V.c ****     *
 570:Generated_Source\PSoC4/ADC_GLV_V.c ****     *******************************************************************************/
 571:Generated_Source\PSoC4/ADC_GLV_V.c ****     void ADC_GLV_V_EnableInjection(void)
 572:Generated_Source\PSoC4/ADC_GLV_V.c ****     {
 573:Generated_Source\PSoC4/ADC_GLV_V.c ****         ADC_GLV_V_SAR_INJ_CHAN_CONFIG_REG |= ADC_GLV_V_INJ_CHAN_EN;
 574:Generated_Source\PSoC4/ADC_GLV_V.c ****     }
 575:Generated_Source\PSoC4/ADC_GLV_V.c **** 
 576:Generated_Source\PSoC4/ADC_GLV_V.c **** #endif /* ADC_GLV_V_INJ_CHANNEL_ENABLED */
 577:Generated_Source\PSoC4/ADC_GLV_V.c **** 
 578:Generated_Source\PSoC4/ADC_GLV_V.c **** 
 579:Generated_Source\PSoC4/ADC_GLV_V.c **** /*******************************************************************************
 580:Generated_Source\PSoC4/ADC_GLV_V.c **** * Function Name: ADC_GLV_V_SetLowLimit
 581:Generated_Source\PSoC4/ADC_GLV_V.c **** ********************************************************************************
 582:Generated_Source\PSoC4/ADC_GLV_V.c **** *
 583:Generated_Source\PSoC4/ADC_GLV_V.c **** * Summary:
 584:Generated_Source\PSoC4/ADC_GLV_V.c **** *  Sets the low limit parameter for a limit condition.
 585:Generated_Source\PSoC4/ADC_GLV_V.c **** *
 586:Generated_Source\PSoC4/ADC_GLV_V.c **** * Parameters:
 587:Generated_Source\PSoC4/ADC_GLV_V.c **** *  lowLimit: The low limit for a limit condition.
 588:Generated_Source\PSoC4/ADC_GLV_V.c **** *
 589:Generated_Source\PSoC4/ADC_GLV_V.c **** * Return:
 590:Generated_Source\PSoC4/ADC_GLV_V.c **** *  None.
 591:Generated_Source\PSoC4/ADC_GLV_V.c **** *
 592:Generated_Source\PSoC4/ADC_GLV_V.c **** *******************************************************************************/
 593:Generated_Source\PSoC4/ADC_GLV_V.c **** void ADC_GLV_V_SetLowLimit(uint32 lowLimit)
 594:Generated_Source\PSoC4/ADC_GLV_V.c **** {
 542              		.loc 1 594 0
 543              		.cfi_startproc
 544              		@ args = 0, pretend = 0, frame = 0
 545              		@ frame_needed = 0, uses_anonymous_args = 0
 546              		@ link register save eliminated.
 547              	.LVL26:
 595:Generated_Source\PSoC4/ADC_GLV_V.c ****     ADC_GLV_V_SAR_RANGE_THRES_REG &= (uint32)(~ADC_GLV_V_RANGE_LOW_MASK);
 548              		.loc 1 595 0
 549 0000 044A     		ldr	r2, .L48
 596:Generated_Source\PSoC4/ADC_GLV_V.c ****     ADC_GLV_V_SAR_RANGE_THRES_REG |= lowLimit & ADC_GLV_V_RANGE_LOW_MASK;
 550              		.loc 1 596 0
 551 0002 80B2     		uxth	r0, r0
 552              	.LVL27:
 595:Generated_Source\PSoC4/ADC_GLV_V.c ****     ADC_GLV_V_SAR_RANGE_THRES_REG &= (uint32)(~ADC_GLV_V_RANGE_LOW_MASK);
 553              		.loc 1 595 0
 554 0004 1368     		ldr	r3, [r2]
ARM GAS  C:\Users\RYANCA~1\AppData\Local\Temp\ccgP414A.s 			page 22


 597:Generated_Source\PSoC4/ADC_GLV_V.c **** }
 555              		.loc 1 597 0
 556              		@ sp needed
 595:Generated_Source\PSoC4/ADC_GLV_V.c ****     ADC_GLV_V_SAR_RANGE_THRES_REG &= (uint32)(~ADC_GLV_V_RANGE_LOW_MASK);
 557              		.loc 1 595 0
 558 0006 1B0C     		lsrs	r3, r3, #16
 559 0008 1B04     		lsls	r3, r3, #16
 560 000a 1360     		str	r3, [r2]
 596:Generated_Source\PSoC4/ADC_GLV_V.c ****     ADC_GLV_V_SAR_RANGE_THRES_REG |= lowLimit & ADC_GLV_V_RANGE_LOW_MASK;
 561              		.loc 1 596 0
 562 000c 1368     		ldr	r3, [r2]
 563 000e 1843     		orrs	r0, r3
 564 0010 1060     		str	r0, [r2]
 565              		.loc 1 597 0
 566 0012 7047     		bx	lr
 567              	.L49:
 568              		.align	2
 569              	.L48:
 570 0014 18003A40 		.word	1077542936
 571              		.cfi_endproc
 572              	.LFE10:
 573              		.size	ADC_GLV_V_SetLowLimit, .-ADC_GLV_V_SetLowLimit
 574              		.section	.text.ADC_GLV_V_SetHighLimit,"ax",%progbits
 575              		.align	1
 576              		.global	ADC_GLV_V_SetHighLimit
 577              		.code	16
 578              		.thumb_func
 579              		.type	ADC_GLV_V_SetHighLimit, %function
 580              	ADC_GLV_V_SetHighLimit:
 581              	.LFB11:
 598:Generated_Source\PSoC4/ADC_GLV_V.c **** 
 599:Generated_Source\PSoC4/ADC_GLV_V.c **** 
 600:Generated_Source\PSoC4/ADC_GLV_V.c **** /*******************************************************************************
 601:Generated_Source\PSoC4/ADC_GLV_V.c **** * Function Name: ADC_GLV_V_SetHighLimit
 602:Generated_Source\PSoC4/ADC_GLV_V.c **** ********************************************************************************
 603:Generated_Source\PSoC4/ADC_GLV_V.c **** *
 604:Generated_Source\PSoC4/ADC_GLV_V.c **** * Summary:
 605:Generated_Source\PSoC4/ADC_GLV_V.c **** *  Sets the low limit parameter for a limit condition.
 606:Generated_Source\PSoC4/ADC_GLV_V.c **** *
 607:Generated_Source\PSoC4/ADC_GLV_V.c **** * Parameters:
 608:Generated_Source\PSoC4/ADC_GLV_V.c **** *  highLimit: The high limit for a limit condition.
 609:Generated_Source\PSoC4/ADC_GLV_V.c **** *
 610:Generated_Source\PSoC4/ADC_GLV_V.c **** * Return:
 611:Generated_Source\PSoC4/ADC_GLV_V.c **** *  None.
 612:Generated_Source\PSoC4/ADC_GLV_V.c **** *
 613:Generated_Source\PSoC4/ADC_GLV_V.c **** *******************************************************************************/
 614:Generated_Source\PSoC4/ADC_GLV_V.c **** void ADC_GLV_V_SetHighLimit(uint32 highLimit)
 615:Generated_Source\PSoC4/ADC_GLV_V.c **** {
 582              		.loc 1 615 0
 583              		.cfi_startproc
 584              		@ args = 0, pretend = 0, frame = 0
 585              		@ frame_needed = 0, uses_anonymous_args = 0
 586              		@ link register save eliminated.
 587              	.LVL28:
 616:Generated_Source\PSoC4/ADC_GLV_V.c ****     ADC_GLV_V_SAR_RANGE_THRES_REG &= (uint32)(~ADC_GLV_V_RANGE_HIGH_MASK);
 588              		.loc 1 616 0
 589 0000 044B     		ldr	r3, .L51
ARM GAS  C:\Users\RYANCA~1\AppData\Local\Temp\ccgP414A.s 			page 23


 617:Generated_Source\PSoC4/ADC_GLV_V.c ****     ADC_GLV_V_SAR_RANGE_THRES_REG |= (uint32)(highLimit << ADC_GLV_V_RANGE_HIGH_OFFSET);
 590              		.loc 1 617 0
 591 0002 0004     		lsls	r0, r0, #16
 592              	.LVL29:
 616:Generated_Source\PSoC4/ADC_GLV_V.c ****     ADC_GLV_V_SAR_RANGE_THRES_REG &= (uint32)(~ADC_GLV_V_RANGE_HIGH_MASK);
 593              		.loc 1 616 0
 594 0004 1A68     		ldr	r2, [r3]
 618:Generated_Source\PSoC4/ADC_GLV_V.c **** }
 595              		.loc 1 618 0
 596              		@ sp needed
 616:Generated_Source\PSoC4/ADC_GLV_V.c ****     ADC_GLV_V_SAR_RANGE_THRES_REG &= (uint32)(~ADC_GLV_V_RANGE_HIGH_MASK);
 597              		.loc 1 616 0
 598 0006 92B2     		uxth	r2, r2
 599 0008 1A60     		str	r2, [r3]
 617:Generated_Source\PSoC4/ADC_GLV_V.c ****     ADC_GLV_V_SAR_RANGE_THRES_REG |= (uint32)(highLimit << ADC_GLV_V_RANGE_HIGH_OFFSET);
 600              		.loc 1 617 0
 601 000a 1A68     		ldr	r2, [r3]
 602 000c 1043     		orrs	r0, r2
 603 000e 1860     		str	r0, [r3]
 604              		.loc 1 618 0
 605 0010 7047     		bx	lr
 606              	.L52:
 607 0012 C046     		.align	2
 608              	.L51:
 609 0014 18003A40 		.word	1077542936
 610              		.cfi_endproc
 611              	.LFE11:
 612              		.size	ADC_GLV_V_SetHighLimit, .-ADC_GLV_V_SetHighLimit
 613              		.section	.text.ADC_GLV_V_SetLimitMask,"ax",%progbits
 614              		.align	1
 615              		.global	ADC_GLV_V_SetLimitMask
 616              		.code	16
 617              		.thumb_func
 618              		.type	ADC_GLV_V_SetLimitMask, %function
 619              	ADC_GLV_V_SetLimitMask:
 620              	.LFB12:
 619:Generated_Source\PSoC4/ADC_GLV_V.c **** 
 620:Generated_Source\PSoC4/ADC_GLV_V.c **** 
 621:Generated_Source\PSoC4/ADC_GLV_V.c **** /*******************************************************************************
 622:Generated_Source\PSoC4/ADC_GLV_V.c **** * Function Name: ADC_GLV_V_SetLimitMask
 623:Generated_Source\PSoC4/ADC_GLV_V.c **** ********************************************************************************
 624:Generated_Source\PSoC4/ADC_GLV_V.c **** *
 625:Generated_Source\PSoC4/ADC_GLV_V.c **** * Summary:
 626:Generated_Source\PSoC4/ADC_GLV_V.c **** *  Sets the channel limit condition mask.
 627:Generated_Source\PSoC4/ADC_GLV_V.c **** *
 628:Generated_Source\PSoC4/ADC_GLV_V.c **** * Parameters:
 629:Generated_Source\PSoC4/ADC_GLV_V.c **** *  mask: Sets which channels that may cause a
 630:Generated_Source\PSoC4/ADC_GLV_V.c **** *  limit condition interrupt. Setting bits for channels that do not exist
 631:Generated_Source\PSoC4/ADC_GLV_V.c **** *  will have no effect. For example, if only 6 channels were enabled,
 632:Generated_Source\PSoC4/ADC_GLV_V.c **** *  setting a mask of 0x0103 would only enable the last two channels (0 and 1).
 633:Generated_Source\PSoC4/ADC_GLV_V.c **** *
 634:Generated_Source\PSoC4/ADC_GLV_V.c **** * Return:
 635:Generated_Source\PSoC4/ADC_GLV_V.c **** *  None.
 636:Generated_Source\PSoC4/ADC_GLV_V.c **** *
 637:Generated_Source\PSoC4/ADC_GLV_V.c **** *******************************************************************************/
 638:Generated_Source\PSoC4/ADC_GLV_V.c **** void ADC_GLV_V_SetLimitMask(uint32 mask)
 639:Generated_Source\PSoC4/ADC_GLV_V.c **** {
ARM GAS  C:\Users\RYANCA~1\AppData\Local\Temp\ccgP414A.s 			page 24


 621              		.loc 1 639 0
 622              		.cfi_startproc
 623              		@ args = 0, pretend = 0, frame = 0
 624              		@ frame_needed = 0, uses_anonymous_args = 0
 625              		@ link register save eliminated.
 626              	.LVL30:
 640:Generated_Source\PSoC4/ADC_GLV_V.c ****     ADC_GLV_V_SAR_RANGE_INTR_MASK_REG = mask & ADC_GLV_V_MAX_CHANNELS_EN_MASK;
 627              		.loc 1 640 0
 628 0000 0323     		movs	r3, #3
 629 0002 1840     		ands	r0, r3
 630              	.LVL31:
 631 0004 014B     		ldr	r3, .L54
 641:Generated_Source\PSoC4/ADC_GLV_V.c **** }
 632              		.loc 1 641 0
 633              		@ sp needed
 640:Generated_Source\PSoC4/ADC_GLV_V.c ****     ADC_GLV_V_SAR_RANGE_INTR_MASK_REG = mask & ADC_GLV_V_MAX_CHANNELS_EN_MASK;
 634              		.loc 1 640 0
 635 0006 1860     		str	r0, [r3]
 636              		.loc 1 641 0
 637 0008 7047     		bx	lr
 638              	.L55:
 639 000a C046     		.align	2
 640              	.L54:
 641 000c 38023A40 		.word	1077543480
 642              		.cfi_endproc
 643              	.LFE12:
 644              		.size	ADC_GLV_V_SetLimitMask, .-ADC_GLV_V_SetLimitMask
 645              		.section	.text.ADC_GLV_V_SetSatMask,"ax",%progbits
 646              		.align	1
 647              		.global	ADC_GLV_V_SetSatMask
 648              		.code	16
 649              		.thumb_func
 650              		.type	ADC_GLV_V_SetSatMask, %function
 651              	ADC_GLV_V_SetSatMask:
 652              	.LFB13:
 642:Generated_Source\PSoC4/ADC_GLV_V.c **** 
 643:Generated_Source\PSoC4/ADC_GLV_V.c **** 
 644:Generated_Source\PSoC4/ADC_GLV_V.c **** /*******************************************************************************
 645:Generated_Source\PSoC4/ADC_GLV_V.c **** * Function Name: ADC_GLV_V_SetSatMask
 646:Generated_Source\PSoC4/ADC_GLV_V.c **** ********************************************************************************
 647:Generated_Source\PSoC4/ADC_GLV_V.c **** *
 648:Generated_Source\PSoC4/ADC_GLV_V.c **** * Summary:
 649:Generated_Source\PSoC4/ADC_GLV_V.c **** *  Sets the channel saturation event mask.
 650:Generated_Source\PSoC4/ADC_GLV_V.c **** *
 651:Generated_Source\PSoC4/ADC_GLV_V.c **** * Parameters:
 652:Generated_Source\PSoC4/ADC_GLV_V.c **** *  mask: Sets which channels that may cause a
 653:Generated_Source\PSoC4/ADC_GLV_V.c **** *  saturation event interrupt. Setting bits for channels that do not exist
 654:Generated_Source\PSoC4/ADC_GLV_V.c **** *  will have no effect. For example, if only 8 channels were enabled,
 655:Generated_Source\PSoC4/ADC_GLV_V.c **** *  setting a mask of 0x01C0 would only enable two channels (6 and 7).
 656:Generated_Source\PSoC4/ADC_GLV_V.c **** *
 657:Generated_Source\PSoC4/ADC_GLV_V.c **** * Return:
 658:Generated_Source\PSoC4/ADC_GLV_V.c **** *  None.
 659:Generated_Source\PSoC4/ADC_GLV_V.c **** *
 660:Generated_Source\PSoC4/ADC_GLV_V.c **** *******************************************************************************/
 661:Generated_Source\PSoC4/ADC_GLV_V.c **** void ADC_GLV_V_SetSatMask(uint32 mask)
 662:Generated_Source\PSoC4/ADC_GLV_V.c **** {
 653              		.loc 1 662 0
ARM GAS  C:\Users\RYANCA~1\AppData\Local\Temp\ccgP414A.s 			page 25


 654              		.cfi_startproc
 655              		@ args = 0, pretend = 0, frame = 0
 656              		@ frame_needed = 0, uses_anonymous_args = 0
 657              		@ link register save eliminated.
 658              	.LVL32:
 663:Generated_Source\PSoC4/ADC_GLV_V.c ****     ADC_GLV_V_SAR_SATURATE_INTR_MASK_REG = mask & ADC_GLV_V_MAX_CHANNELS_EN_MASK;
 659              		.loc 1 663 0
 660 0000 0323     		movs	r3, #3
 661 0002 1840     		ands	r0, r3
 662              	.LVL33:
 663 0004 014B     		ldr	r3, .L57
 664:Generated_Source\PSoC4/ADC_GLV_V.c **** }
 664              		.loc 1 664 0
 665              		@ sp needed
 663:Generated_Source\PSoC4/ADC_GLV_V.c ****     ADC_GLV_V_SAR_SATURATE_INTR_MASK_REG = mask & ADC_GLV_V_MAX_CHANNELS_EN_MASK;
 666              		.loc 1 663 0
 667 0006 1860     		str	r0, [r3]
 668              		.loc 1 664 0
 669 0008 7047     		bx	lr
 670              	.L58:
 671 000a C046     		.align	2
 672              	.L57:
 673 000c 28023A40 		.word	1077543464
 674              		.cfi_endproc
 675              	.LFE13:
 676              		.size	ADC_GLV_V_SetSatMask, .-ADC_GLV_V_SetSatMask
 677              		.section	.text.ADC_GLV_V_SetOffset,"ax",%progbits
 678              		.align	1
 679              		.global	ADC_GLV_V_SetOffset
 680              		.code	16
 681              		.thumb_func
 682              		.type	ADC_GLV_V_SetOffset, %function
 683              	ADC_GLV_V_SetOffset:
 684              	.LFB14:
 665:Generated_Source\PSoC4/ADC_GLV_V.c **** 
 666:Generated_Source\PSoC4/ADC_GLV_V.c **** 
 667:Generated_Source\PSoC4/ADC_GLV_V.c **** /*******************************************************************************
 668:Generated_Source\PSoC4/ADC_GLV_V.c **** * Function Name: ADC_GLV_V_SetOffset
 669:Generated_Source\PSoC4/ADC_GLV_V.c **** ********************************************************************************
 670:Generated_Source\PSoC4/ADC_GLV_V.c **** *
 671:Generated_Source\PSoC4/ADC_GLV_V.c **** * Summary:
 672:Generated_Source\PSoC4/ADC_GLV_V.c **** *   Description: Sets the ADC offset which is used by the functions
 673:Generated_Source\PSoC4/ADC_GLV_V.c **** *   ADC_CountsTo_uVolts, ADC_CountsTo_mVolts and ADC_CountsTo_Volts
 674:Generated_Source\PSoC4/ADC_GLV_V.c **** *   to substract the offset from the given reading
 675:Generated_Source\PSoC4/ADC_GLV_V.c **** *   before calculating the voltage conversion.
 676:Generated_Source\PSoC4/ADC_GLV_V.c **** *
 677:Generated_Source\PSoC4/ADC_GLV_V.c **** * Parameters:
 678:Generated_Source\PSoC4/ADC_GLV_V.c **** *  chan: ADC channel number.
 679:Generated_Source\PSoC4/ADC_GLV_V.c **** *  offset: This value is a measured value when the
 680:Generated_Source\PSoC4/ADC_GLV_V.c **** *          inputs are shorted or connected to the same input voltage.
 681:Generated_Source\PSoC4/ADC_GLV_V.c **** *
 682:Generated_Source\PSoC4/ADC_GLV_V.c **** * Return:
 683:Generated_Source\PSoC4/ADC_GLV_V.c **** *  None.
 684:Generated_Source\PSoC4/ADC_GLV_V.c **** *
 685:Generated_Source\PSoC4/ADC_GLV_V.c **** * Global variables:
 686:Generated_Source\PSoC4/ADC_GLV_V.c **** *  ADC_GLV_V_Offset:  Modified to set the user provided offset.
 687:Generated_Source\PSoC4/ADC_GLV_V.c **** *
ARM GAS  C:\Users\RYANCA~1\AppData\Local\Temp\ccgP414A.s 			page 26


 688:Generated_Source\PSoC4/ADC_GLV_V.c **** *******************************************************************************/
 689:Generated_Source\PSoC4/ADC_GLV_V.c **** void ADC_GLV_V_SetOffset(uint32 chan, int16 offset)
 690:Generated_Source\PSoC4/ADC_GLV_V.c **** {
 685              		.loc 1 690 0
 686              		.cfi_startproc
 687              		@ args = 0, pretend = 0, frame = 0
 688              		@ frame_needed = 0, uses_anonymous_args = 0
 689              	.LVL34:
 690 0000 70B5     		push	{r4, r5, r6, lr}
 691              		.cfi_def_cfa_offset 16
 692              		.cfi_offset 4, -16
 693              		.cfi_offset 5, -12
 694              		.cfi_offset 6, -8
 695              		.cfi_offset 14, -4
 696              		.loc 1 690 0
 697 0002 0400     		movs	r4, r0
 698 0004 0D00     		movs	r5, r1
 691:Generated_Source\PSoC4/ADC_GLV_V.c ****     /* Halt CPU in debug mode if channel is out of valid range */
 692:Generated_Source\PSoC4/ADC_GLV_V.c ****     CYASSERT(chan < ADC_GLV_V_TOTAL_CHANNELS_NUM);
 699              		.loc 1 692 0
 700 0006 0128     		cmp	r0, #1
 701 0008 02D9     		bls	.L60
 702              		.loc 1 692 0 is_stmt 0 discriminator 1
 703 000a 0020     		movs	r0, #0
 704              	.LVL35:
 705 000c FFF7FEFF 		bl	CyHalt
 706              	.LVL36:
 707              	.L60:
 693:Generated_Source\PSoC4/ADC_GLV_V.c **** 
 694:Generated_Source\PSoC4/ADC_GLV_V.c ****     ADC_GLV_V_offset[chan] = offset;
 708              		.loc 1 694 0 is_stmt 1
 709 0010 014B     		ldr	r3, .L61
 710 0012 6400     		lsls	r4, r4, #1
 711              	.LVL37:
 712 0014 E552     		strh	r5, [r4, r3]
 695:Generated_Source\PSoC4/ADC_GLV_V.c **** }
 713              		.loc 1 695 0
 714              		@ sp needed
 715 0016 70BD     		pop	{r4, r5, r6, pc}
 716              	.L62:
 717              		.align	2
 718              	.L61:
 719 0018 00000000 		.word	ADC_GLV_V_offset
 720              		.cfi_endproc
 721              	.LFE14:
 722              		.size	ADC_GLV_V_SetOffset, .-ADC_GLV_V_SetOffset
 723              		.section	.text.ADC_GLV_V_SetGain,"ax",%progbits
 724              		.align	1
 725              		.global	ADC_GLV_V_SetGain
 726              		.code	16
 727              		.thumb_func
 728              		.type	ADC_GLV_V_SetGain, %function
 729              	ADC_GLV_V_SetGain:
 730              	.LFB15:
 696:Generated_Source\PSoC4/ADC_GLV_V.c **** 
 697:Generated_Source\PSoC4/ADC_GLV_V.c **** 
 698:Generated_Source\PSoC4/ADC_GLV_V.c **** /*******************************************************************************
ARM GAS  C:\Users\RYANCA~1\AppData\Local\Temp\ccgP414A.s 			page 27


 699:Generated_Source\PSoC4/ADC_GLV_V.c **** * Function Name: ADC_GLV_V_SetGain
 700:Generated_Source\PSoC4/ADC_GLV_V.c **** ********************************************************************************
 701:Generated_Source\PSoC4/ADC_GLV_V.c **** *
 702:Generated_Source\PSoC4/ADC_GLV_V.c **** * Summary:
 703:Generated_Source\PSoC4/ADC_GLV_V.c **** *  Description: Sets the ADC gain in counts per 10 volt for the voltage
 704:Generated_Source\PSoC4/ADC_GLV_V.c **** *  conversion functions below. This value is set by default by the
 705:Generated_Source\PSoC4/ADC_GLV_V.c **** *  reference and input range settings. It should only be used to further
 706:Generated_Source\PSoC4/ADC_GLV_V.c **** *  calibrate the ADC with a known input or if an external reference is
 707:Generated_Source\PSoC4/ADC_GLV_V.c **** *  used. Affects the ADC_CountsTo_uVolts, ADC_CountsTo_mVolts
 708:Generated_Source\PSoC4/ADC_GLV_V.c **** *  and ADC_CountsTo_Volts functions by supplying the correct
 709:Generated_Source\PSoC4/ADC_GLV_V.c **** *  conversion between ADC counts and voltage.
 710:Generated_Source\PSoC4/ADC_GLV_V.c **** *
 711:Generated_Source\PSoC4/ADC_GLV_V.c **** * Parameters:
 712:Generated_Source\PSoC4/ADC_GLV_V.c **** *  chan: ADC channel number.
 713:Generated_Source\PSoC4/ADC_GLV_V.c **** *  adcGain: ADC gain in counts per 10 volts.
 714:Generated_Source\PSoC4/ADC_GLV_V.c **** *
 715:Generated_Source\PSoC4/ADC_GLV_V.c **** * Return:
 716:Generated_Source\PSoC4/ADC_GLV_V.c **** *  None.
 717:Generated_Source\PSoC4/ADC_GLV_V.c **** *
 718:Generated_Source\PSoC4/ADC_GLV_V.c **** * Global variables:
 719:Generated_Source\PSoC4/ADC_GLV_V.c **** *  ADC_GLV_V_CountsPer10Volt:  modified to set the ADC gain in counts
 720:Generated_Source\PSoC4/ADC_GLV_V.c **** *   per 10 volt.
 721:Generated_Source\PSoC4/ADC_GLV_V.c **** *
 722:Generated_Source\PSoC4/ADC_GLV_V.c **** *******************************************************************************/
 723:Generated_Source\PSoC4/ADC_GLV_V.c **** void ADC_GLV_V_SetGain(uint32 chan, int32 adcGain)
 724:Generated_Source\PSoC4/ADC_GLV_V.c **** {
 731              		.loc 1 724 0
 732              		.cfi_startproc
 733              		@ args = 0, pretend = 0, frame = 0
 734              		@ frame_needed = 0, uses_anonymous_args = 0
 735              	.LVL38:
 736 0000 70B5     		push	{r4, r5, r6, lr}
 737              		.cfi_def_cfa_offset 16
 738              		.cfi_offset 4, -16
 739              		.cfi_offset 5, -12
 740              		.cfi_offset 6, -8
 741              		.cfi_offset 14, -4
 742              		.loc 1 724 0
 743 0002 0400     		movs	r4, r0
 744 0004 0D00     		movs	r5, r1
 725:Generated_Source\PSoC4/ADC_GLV_V.c ****     /* Halt CPU in debug mode if channel is out of valid range */
 726:Generated_Source\PSoC4/ADC_GLV_V.c ****     CYASSERT(chan < ADC_GLV_V_TOTAL_CHANNELS_NUM);
 745              		.loc 1 726 0
 746 0006 0128     		cmp	r0, #1
 747 0008 02D9     		bls	.L64
 748              		.loc 1 726 0 is_stmt 0 discriminator 1
 749 000a 0020     		movs	r0, #0
 750              	.LVL39:
 751 000c FFF7FEFF 		bl	CyHalt
 752              	.LVL40:
 753              	.L64:
 727:Generated_Source\PSoC4/ADC_GLV_V.c **** 
 728:Generated_Source\PSoC4/ADC_GLV_V.c ****     ADC_GLV_V_countsPer10Volt[chan] = adcGain;
 754              		.loc 1 728 0 is_stmt 1
 755 0010 014B     		ldr	r3, .L65
 756 0012 A400     		lsls	r4, r4, #2
 757              	.LVL41:
ARM GAS  C:\Users\RYANCA~1\AppData\Local\Temp\ccgP414A.s 			page 28


 758 0014 E550     		str	r5, [r4, r3]
 729:Generated_Source\PSoC4/ADC_GLV_V.c **** }
 759              		.loc 1 729 0
 760              		@ sp needed
 761              	.LVL42:
 762 0016 70BD     		pop	{r4, r5, r6, pc}
 763              	.L66:
 764              		.align	2
 765              	.L65:
 766 0018 00000000 		.word	ADC_GLV_V_countsPer10Volt
 767              		.cfi_endproc
 768              	.LFE15:
 769              		.size	ADC_GLV_V_SetGain, .-ADC_GLV_V_SetGain
 770              		.global	__aeabi_idiv
 771              		.section	.text.ADC_GLV_V_CountsTo_mVolts,"ax",%progbits
 772              		.align	1
 773              		.global	ADC_GLV_V_CountsTo_mVolts
 774              		.code	16
 775              		.thumb_func
 776              		.type	ADC_GLV_V_CountsTo_mVolts, %function
 777              	ADC_GLV_V_CountsTo_mVolts:
 778              	.LFB16:
 730:Generated_Source\PSoC4/ADC_GLV_V.c **** 
 731:Generated_Source\PSoC4/ADC_GLV_V.c **** 
 732:Generated_Source\PSoC4/ADC_GLV_V.c **** #if(ADC_GLV_V_DEFAULT_JUSTIFICATION_SEL == ADC_GLV_V__RIGHT)
 733:Generated_Source\PSoC4/ADC_GLV_V.c **** 
 734:Generated_Source\PSoC4/ADC_GLV_V.c **** 
 735:Generated_Source\PSoC4/ADC_GLV_V.c ****     /*******************************************************************************
 736:Generated_Source\PSoC4/ADC_GLV_V.c ****     * Function Name: ADC_GLV_V_CountsTo_mVolts
 737:Generated_Source\PSoC4/ADC_GLV_V.c ****     ********************************************************************************
 738:Generated_Source\PSoC4/ADC_GLV_V.c ****     *
 739:Generated_Source\PSoC4/ADC_GLV_V.c ****     * Summary:
 740:Generated_Source\PSoC4/ADC_GLV_V.c ****     *  This function converts ADC counts to mVolts
 741:Generated_Source\PSoC4/ADC_GLV_V.c ****     *  This function is not available when left data format justification selected.
 742:Generated_Source\PSoC4/ADC_GLV_V.c ****     *
 743:Generated_Source\PSoC4/ADC_GLV_V.c ****     * Parameters:
 744:Generated_Source\PSoC4/ADC_GLV_V.c ****     *  chan: The ADC channel number.
 745:Generated_Source\PSoC4/ADC_GLV_V.c ****     *  adcCounts: Result from the ADC conversion
 746:Generated_Source\PSoC4/ADC_GLV_V.c ****     *
 747:Generated_Source\PSoC4/ADC_GLV_V.c ****     * Return:
 748:Generated_Source\PSoC4/ADC_GLV_V.c ****     *  Results in mVolts
 749:Generated_Source\PSoC4/ADC_GLV_V.c ****     *
 750:Generated_Source\PSoC4/ADC_GLV_V.c ****     * Global variables:
 751:Generated_Source\PSoC4/ADC_GLV_V.c ****     *  ADC_GLV_V_countsPer10Volt:  used to convert ADC counts to mVolts.
 752:Generated_Source\PSoC4/ADC_GLV_V.c ****     *  ADC_GLV_V_Offset:  Used as the offset while converting ADC counts
 753:Generated_Source\PSoC4/ADC_GLV_V.c ****     *   to mVolts.
 754:Generated_Source\PSoC4/ADC_GLV_V.c ****     *
 755:Generated_Source\PSoC4/ADC_GLV_V.c ****     *******************************************************************************/
 756:Generated_Source\PSoC4/ADC_GLV_V.c ****     int16 ADC_GLV_V_CountsTo_mVolts(uint32 chan, int16 adcCounts)
 757:Generated_Source\PSoC4/ADC_GLV_V.c ****     {
 779              		.loc 1 757 0
 780              		.cfi_startproc
 781              		@ args = 0, pretend = 0, frame = 0
 782              		@ frame_needed = 0, uses_anonymous_args = 0
 783              	.LVL43:
 784 0000 70B5     		push	{r4, r5, r6, lr}
 785              		.cfi_def_cfa_offset 16
ARM GAS  C:\Users\RYANCA~1\AppData\Local\Temp\ccgP414A.s 			page 29


 786              		.cfi_offset 4, -16
 787              		.cfi_offset 5, -12
 788              		.cfi_offset 6, -8
 789              		.cfi_offset 14, -4
 790              		.loc 1 757 0
 791 0002 0400     		movs	r4, r0
 792 0004 0D00     		movs	r5, r1
 758:Generated_Source\PSoC4/ADC_GLV_V.c ****         int16 mVolts;
 759:Generated_Source\PSoC4/ADC_GLV_V.c **** 
 760:Generated_Source\PSoC4/ADC_GLV_V.c ****         /* Halt CPU in debug mode if channel is out of valid range */
 761:Generated_Source\PSoC4/ADC_GLV_V.c ****         CYASSERT(chan < ADC_GLV_V_TOTAL_CHANNELS_NUM);
 793              		.loc 1 761 0
 794 0006 0128     		cmp	r0, #1
 795 0008 02D9     		bls	.L68
 796              		.loc 1 761 0 is_stmt 0 discriminator 1
 797 000a 0020     		movs	r0, #0
 798              	.LVL44:
 799 000c FFF7FEFF 		bl	CyHalt
 800              	.LVL45:
 801              	.L68:
 762:Generated_Source\PSoC4/ADC_GLV_V.c **** 
 763:Generated_Source\PSoC4/ADC_GLV_V.c ****         /* Divide the adcCount when accumulate averaging mode selected */
 764:Generated_Source\PSoC4/ADC_GLV_V.c ****         #if(ADC_GLV_V_DEFAULT_AVG_MODE == ADC_GLV_V__ACCUMULATE)
 765:Generated_Source\PSoC4/ADC_GLV_V.c ****             if((ADC_GLV_V_channelsConfig[chan] & ADC_GLV_V_AVERAGING_EN) != 0u)
 766:Generated_Source\PSoC4/ADC_GLV_V.c ****             {
 767:Generated_Source\PSoC4/ADC_GLV_V.c ****                 adcCounts /= ADC_GLV_V_DEFAULT_AVG_SAMPLES_DIV;
 768:Generated_Source\PSoC4/ADC_GLV_V.c ****             }
 769:Generated_Source\PSoC4/ADC_GLV_V.c ****         #endif /* ADC_GLV_V_DEFAULT_AVG_MODE == ADC_GLV_V__ACCUMULATE */
 770:Generated_Source\PSoC4/ADC_GLV_V.c **** 
 771:Generated_Source\PSoC4/ADC_GLV_V.c ****         /* Subtract ADC offset */
 772:Generated_Source\PSoC4/ADC_GLV_V.c ****         adcCounts -= ADC_GLV_V_offset[chan];
 802              		.loc 1 772 0 is_stmt 1
 803 0010 0B4B     		ldr	r3, .L71
 804 0012 6200     		lsls	r2, r4, #1
 805 0014 D15A     		ldrh	r1, [r2, r3]
 806 0016 A400     		lsls	r4, r4, #2
 807              	.LVL46:
 808 0018 691A     		subs	r1, r5, r1
 809 001a 0A4D     		ldr	r5, .L71+4
 773:Generated_Source\PSoC4/ADC_GLV_V.c **** 
 774:Generated_Source\PSoC4/ADC_GLV_V.c ****         mVolts = (int16)((((int32)adcCounts * ADC_GLV_V_10MV_COUNTS) + ( (adcCounts > 0) ?
 810              		.loc 1 774 0
 811 001c 0A48     		ldr	r0, .L71+8
 775:Generated_Source\PSoC4/ADC_GLV_V.c ****                  (ADC_GLV_V_countsPer10Volt[chan] / 2) : (-(ADC_GLV_V_countsPer10Volt[chan] / 2)) )
 812              		.loc 1 775 0
 813 001e 2A59     		ldr	r2, [r5, r4]
 772:Generated_Source\PSoC4/ADC_GLV_V.c **** 
 814              		.loc 1 772 0
 815 0020 09B2     		sxth	r1, r1
 816              	.LVL47:
 817              		.loc 1 775 0
 818 0022 D30F     		lsrs	r3, r2, #31
 819 0024 9A18     		adds	r2, r3, r2
 774:Generated_Source\PSoC4/ADC_GLV_V.c ****                  (ADC_GLV_V_countsPer10Volt[chan] / 2) : (-(ADC_GLV_V_countsPer10Volt[chan] / 2)) )
 820              		.loc 1 774 0
 821 0026 4843     		muls	r0, r1
 822              		.loc 1 775 0
ARM GAS  C:\Users\RYANCA~1\AppData\Local\Temp\ccgP414A.s 			page 30


 823 0028 5310     		asrs	r3, r2, #1
 824 002a 0029     		cmp	r1, #0
 825 002c 01DC     		bgt	.L70
 826              		.loc 1 775 0 is_stmt 0 discriminator 2
 827 002e 5210     		asrs	r2, r2, #1
 828 0030 5342     		rsbs	r3, r2, #0
 829              	.L70:
 776:Generated_Source\PSoC4/ADC_GLV_V.c ****                  / ADC_GLV_V_countsPer10Volt[chan]);
 830              		.loc 1 776 0 is_stmt 1
 831 0032 2959     		ldr	r1, [r5, r4]
 832              	.LVL48:
 777:Generated_Source\PSoC4/ADC_GLV_V.c **** 
 778:Generated_Source\PSoC4/ADC_GLV_V.c ****         return( mVolts );
 833              		.loc 1 778 0
 834 0034 1818     		adds	r0, r3, r0
 835              	.LVL49:
 836 0036 FFF7FEFF 		bl	__aeabi_idiv
 837              	.LVL50:
 779:Generated_Source\PSoC4/ADC_GLV_V.c ****     }
 838              		.loc 1 779 0
 839              		@ sp needed
 778:Generated_Source\PSoC4/ADC_GLV_V.c ****     }
 840              		.loc 1 778 0
 841 003a 00B2     		sxth	r0, r0
 842              		.loc 1 779 0
 843 003c 70BD     		pop	{r4, r5, r6, pc}
 844              	.L72:
 845 003e C046     		.align	2
 846              	.L71:
 847 0040 00000000 		.word	ADC_GLV_V_offset
 848 0044 00000000 		.word	ADC_GLV_V_countsPer10Volt
 849 0048 10270000 		.word	10000
 850              		.cfi_endproc
 851              	.LFE16:
 852              		.size	ADC_GLV_V_CountsTo_mVolts, .-ADC_GLV_V_CountsTo_mVolts
 853              		.global	__aeabi_lmul
 854              		.global	__aeabi_ldivmod
 855              		.section	.text.ADC_GLV_V_CountsTo_uVolts,"ax",%progbits
 856              		.align	1
 857              		.global	ADC_GLV_V_CountsTo_uVolts
 858              		.code	16
 859              		.thumb_func
 860              		.type	ADC_GLV_V_CountsTo_uVolts, %function
 861              	ADC_GLV_V_CountsTo_uVolts:
 862              	.LFB17:
 780:Generated_Source\PSoC4/ADC_GLV_V.c **** 
 781:Generated_Source\PSoC4/ADC_GLV_V.c **** 
 782:Generated_Source\PSoC4/ADC_GLV_V.c ****     /*******************************************************************************
 783:Generated_Source\PSoC4/ADC_GLV_V.c ****     * Function Name: ADC_GLV_V_CountsTo_uVolts
 784:Generated_Source\PSoC4/ADC_GLV_V.c ****     ********************************************************************************
 785:Generated_Source\PSoC4/ADC_GLV_V.c ****     *
 786:Generated_Source\PSoC4/ADC_GLV_V.c ****     * Summary:
 787:Generated_Source\PSoC4/ADC_GLV_V.c ****     *  This function converts ADC counts to micro Volts
 788:Generated_Source\PSoC4/ADC_GLV_V.c ****     *  This function is not available when left data format justification selected.
 789:Generated_Source\PSoC4/ADC_GLV_V.c ****     *
 790:Generated_Source\PSoC4/ADC_GLV_V.c ****     * Parameters:
 791:Generated_Source\PSoC4/ADC_GLV_V.c ****     *  chan: The ADC channel number.
ARM GAS  C:\Users\RYANCA~1\AppData\Local\Temp\ccgP414A.s 			page 31


 792:Generated_Source\PSoC4/ADC_GLV_V.c ****     *  adcCounts: Result from the ADC conversion
 793:Generated_Source\PSoC4/ADC_GLV_V.c ****     *
 794:Generated_Source\PSoC4/ADC_GLV_V.c ****     * Return:
 795:Generated_Source\PSoC4/ADC_GLV_V.c ****     *  Results in uVolts
 796:Generated_Source\PSoC4/ADC_GLV_V.c ****     *
 797:Generated_Source\PSoC4/ADC_GLV_V.c ****     * Global variables:
 798:Generated_Source\PSoC4/ADC_GLV_V.c ****     *  ADC_GLV_V_countsPer10Volt:  used to convert ADC counts to uVolts.
 799:Generated_Source\PSoC4/ADC_GLV_V.c ****     *  ADC_GLV_V_Offset:  Used as the offset while converting ADC counts
 800:Generated_Source\PSoC4/ADC_GLV_V.c ****     *   to mVolts.
 801:Generated_Source\PSoC4/ADC_GLV_V.c ****     *
 802:Generated_Source\PSoC4/ADC_GLV_V.c ****     * Theory:
 803:Generated_Source\PSoC4/ADC_GLV_V.c ****     *  Care must be taken to not exceed the maximum value for a 31 bit signed
 804:Generated_Source\PSoC4/ADC_GLV_V.c ****     *  number in the conversion to uVolts and at the same time not loose
 805:Generated_Source\PSoC4/ADC_GLV_V.c ****     *  resolution.
 806:Generated_Source\PSoC4/ADC_GLV_V.c ****     *  To convert adcCounts to microVolts it is required to be multiplied
 807:Generated_Source\PSoC4/ADC_GLV_V.c ****     *  on 10 million and later divide on gain in counts per 10V.
 808:Generated_Source\PSoC4/ADC_GLV_V.c ****     *
 809:Generated_Source\PSoC4/ADC_GLV_V.c ****     *******************************************************************************/
 810:Generated_Source\PSoC4/ADC_GLV_V.c ****     int32 ADC_GLV_V_CountsTo_uVolts(uint32 chan, int16 adcCounts)
 811:Generated_Source\PSoC4/ADC_GLV_V.c ****     {
 863              		.loc 1 811 0
 864              		.cfi_startproc
 865              		@ args = 0, pretend = 0, frame = 0
 866              		@ frame_needed = 0, uses_anonymous_args = 0
 867              	.LVL51:
 868 0000 70B5     		push	{r4, r5, r6, lr}
 869              		.cfi_def_cfa_offset 16
 870              		.cfi_offset 4, -16
 871              		.cfi_offset 5, -12
 872              		.cfi_offset 6, -8
 873              		.cfi_offset 14, -4
 874              		.loc 1 811 0
 875 0002 0500     		movs	r5, r0
 876 0004 0C00     		movs	r4, r1
 812:Generated_Source\PSoC4/ADC_GLV_V.c ****         int64 uVolts;
 813:Generated_Source\PSoC4/ADC_GLV_V.c **** 
 814:Generated_Source\PSoC4/ADC_GLV_V.c ****         /* Halt CPU in debug mode if channel is out of valid range */
 815:Generated_Source\PSoC4/ADC_GLV_V.c ****         CYASSERT(chan < ADC_GLV_V_TOTAL_CHANNELS_NUM);
 877              		.loc 1 815 0
 878 0006 0128     		cmp	r0, #1
 879 0008 02D9     		bls	.L74
 880              		.loc 1 815 0 is_stmt 0 discriminator 1
 881 000a 0020     		movs	r0, #0
 882              	.LVL52:
 883 000c FFF7FEFF 		bl	CyHalt
 884              	.LVL53:
 885              	.L74:
 816:Generated_Source\PSoC4/ADC_GLV_V.c **** 
 817:Generated_Source\PSoC4/ADC_GLV_V.c ****         /* Divide the adcCount when accumulate averaging mode selected */
 818:Generated_Source\PSoC4/ADC_GLV_V.c ****         #if(ADC_GLV_V_DEFAULT_AVG_MODE == ADC_GLV_V__ACCUMULATE)
 819:Generated_Source\PSoC4/ADC_GLV_V.c ****             if((ADC_GLV_V_channelsConfig[chan] & ADC_GLV_V_AVERAGING_EN) != 0u)
 820:Generated_Source\PSoC4/ADC_GLV_V.c ****             {
 821:Generated_Source\PSoC4/ADC_GLV_V.c ****                 adcCounts /= ADC_GLV_V_DEFAULT_AVG_SAMPLES_DIV;
 822:Generated_Source\PSoC4/ADC_GLV_V.c ****             }
 823:Generated_Source\PSoC4/ADC_GLV_V.c ****         #endif /* ADC_GLV_V_DEFAULT_AVG_MODE == ADC_GLV_V__ACCUMULATE */
 824:Generated_Source\PSoC4/ADC_GLV_V.c **** 
 825:Generated_Source\PSoC4/ADC_GLV_V.c ****         /* Subtract ADC offset */
ARM GAS  C:\Users\RYANCA~1\AppData\Local\Temp\ccgP414A.s 			page 32


 826:Generated_Source\PSoC4/ADC_GLV_V.c ****         adcCounts -= ADC_GLV_V_offset[chan];
 886              		.loc 1 826 0 is_stmt 1
 887 0010 084B     		ldr	r3, .L75
 888 0012 6A00     		lsls	r2, r5, #1
 889 0014 D05A     		ldrh	r0, [r2, r3]
 827:Generated_Source\PSoC4/ADC_GLV_V.c **** 
 828:Generated_Source\PSoC4/ADC_GLV_V.c ****         uVolts = ((int64)adcCounts * ADC_GLV_V_10UV_COUNTS) / ADC_GLV_V_countsPer10Volt[chan];
 890              		.loc 1 828 0
 891 0016 084B     		ldr	r3, .L75+4
 826:Generated_Source\PSoC4/ADC_GLV_V.c **** 
 892              		.loc 1 826 0
 893 0018 241A     		subs	r4, r4, r0
 894              	.LVL54:
 895              		.loc 1 828 0
 896 001a AD00     		lsls	r5, r5, #2
 897              	.LVL55:
 898 001c ED58     		ldr	r5, [r5, r3]
 899              	.LVL56:
 829:Generated_Source\PSoC4/ADC_GLV_V.c **** 
 830:Generated_Source\PSoC4/ADC_GLV_V.c ****         return( (int32)uVolts );
 900              		.loc 1 830 0
 901 001e 20B2     		sxth	r0, r4
 902 0020 064A     		ldr	r2, .L75+8
 903 0022 0023     		movs	r3, #0
 904 0024 C117     		asrs	r1, r0, #31
 905 0026 FFF7FEFF 		bl	__aeabi_lmul
 906              	.LVL57:
 907 002a EB17     		asrs	r3, r5, #31
 908 002c 2A00     		movs	r2, r5
 909 002e FFF7FEFF 		bl	__aeabi_ldivmod
 910              	.LVL58:
 831:Generated_Source\PSoC4/ADC_GLV_V.c ****     }
 911              		.loc 1 831 0
 912              		@ sp needed
 913              	.LVL59:
 914 0032 70BD     		pop	{r4, r5, r6, pc}
 915              	.L76:
 916              		.align	2
 917              	.L75:
 918 0034 00000000 		.word	ADC_GLV_V_offset
 919 0038 00000000 		.word	ADC_GLV_V_countsPer10Volt
 920 003c 80969800 		.word	10000000
 921              		.cfi_endproc
 922              	.LFE17:
 923              		.size	ADC_GLV_V_CountsTo_uVolts, .-ADC_GLV_V_CountsTo_uVolts
 924              		.global	__aeabi_i2f
 925              		.global	__aeabi_fmul
 926              		.global	__aeabi_fdiv
 927              		.section	.text.ADC_GLV_V_CountsTo_Volts,"ax",%progbits
 928              		.align	1
 929              		.global	ADC_GLV_V_CountsTo_Volts
 930              		.code	16
 931              		.thumb_func
 932              		.type	ADC_GLV_V_CountsTo_Volts, %function
 933              	ADC_GLV_V_CountsTo_Volts:
 934              	.LFB18:
 832:Generated_Source\PSoC4/ADC_GLV_V.c **** 
ARM GAS  C:\Users\RYANCA~1\AppData\Local\Temp\ccgP414A.s 			page 33


 833:Generated_Source\PSoC4/ADC_GLV_V.c **** 
 834:Generated_Source\PSoC4/ADC_GLV_V.c ****     /*******************************************************************************
 835:Generated_Source\PSoC4/ADC_GLV_V.c ****     * Function Name: ADC_GLV_V_CountsTo_Volts
 836:Generated_Source\PSoC4/ADC_GLV_V.c ****     ********************************************************************************
 837:Generated_Source\PSoC4/ADC_GLV_V.c ****     *
 838:Generated_Source\PSoC4/ADC_GLV_V.c ****     * Summary:
 839:Generated_Source\PSoC4/ADC_GLV_V.c ****     *  Converts the ADC output to Volts as a floating point number.
 840:Generated_Source\PSoC4/ADC_GLV_V.c ****     *  This function is not available when left data format justification selected.
 841:Generated_Source\PSoC4/ADC_GLV_V.c ****     *
 842:Generated_Source\PSoC4/ADC_GLV_V.c ****     * Parameters:
 843:Generated_Source\PSoC4/ADC_GLV_V.c ****     *  chan: The ADC channel number.
 844:Generated_Source\PSoC4/ADC_GLV_V.c ****     *  Result from the ADC conversion
 845:Generated_Source\PSoC4/ADC_GLV_V.c ****     *
 846:Generated_Source\PSoC4/ADC_GLV_V.c ****     * Return:
 847:Generated_Source\PSoC4/ADC_GLV_V.c ****     *  Results in Volts
 848:Generated_Source\PSoC4/ADC_GLV_V.c ****     *
 849:Generated_Source\PSoC4/ADC_GLV_V.c ****     * Global variables:
 850:Generated_Source\PSoC4/ADC_GLV_V.c ****     *  ADC_GLV_V_countsPer10Volt:  used to convert ADC counts to Volts.
 851:Generated_Source\PSoC4/ADC_GLV_V.c ****     *  ADC_GLV_V_Offset:  Used as the offset while converting ADC counts
 852:Generated_Source\PSoC4/ADC_GLV_V.c ****     *   to mVolts.
 853:Generated_Source\PSoC4/ADC_GLV_V.c ****     *
 854:Generated_Source\PSoC4/ADC_GLV_V.c ****     *******************************************************************************/
 855:Generated_Source\PSoC4/ADC_GLV_V.c ****     float32 ADC_GLV_V_CountsTo_Volts(uint32 chan, int16 adcCounts)
 856:Generated_Source\PSoC4/ADC_GLV_V.c ****     {
 935              		.loc 1 856 0
 936              		.cfi_startproc
 937              		@ args = 0, pretend = 0, frame = 0
 938              		@ frame_needed = 0, uses_anonymous_args = 0
 939              	.LVL60:
 940 0000 70B5     		push	{r4, r5, r6, lr}
 941              		.cfi_def_cfa_offset 16
 942              		.cfi_offset 4, -16
 943              		.cfi_offset 5, -12
 944              		.cfi_offset 6, -8
 945              		.cfi_offset 14, -4
 946              		.loc 1 856 0
 947 0002 0500     		movs	r5, r0
 948 0004 0C00     		movs	r4, r1
 857:Generated_Source\PSoC4/ADC_GLV_V.c ****         float32 volts;
 858:Generated_Source\PSoC4/ADC_GLV_V.c **** 
 859:Generated_Source\PSoC4/ADC_GLV_V.c ****         /* Halt CPU in debug mode if channel is out of valid range */
 860:Generated_Source\PSoC4/ADC_GLV_V.c ****         CYASSERT(chan < ADC_GLV_V_TOTAL_CHANNELS_NUM);
 949              		.loc 1 860 0
 950 0006 0128     		cmp	r0, #1
 951 0008 02D9     		bls	.L78
 952              		.loc 1 860 0 is_stmt 0 discriminator 1
 953 000a 0020     		movs	r0, #0
 954              	.LVL61:
 955 000c FFF7FEFF 		bl	CyHalt
 956              	.LVL62:
 957              	.L78:
 861:Generated_Source\PSoC4/ADC_GLV_V.c **** 
 862:Generated_Source\PSoC4/ADC_GLV_V.c ****         /* Divide the adcCount when accumulate averaging mode selected */
 863:Generated_Source\PSoC4/ADC_GLV_V.c ****         #if(ADC_GLV_V_DEFAULT_AVG_MODE == ADC_GLV_V__ACCUMULATE)
 864:Generated_Source\PSoC4/ADC_GLV_V.c ****             if((ADC_GLV_V_channelsConfig[chan] & ADC_GLV_V_AVERAGING_EN) != 0u)
 865:Generated_Source\PSoC4/ADC_GLV_V.c ****             {
 866:Generated_Source\PSoC4/ADC_GLV_V.c ****                 adcCounts /= ADC_GLV_V_DEFAULT_AVG_SAMPLES_DIV;
ARM GAS  C:\Users\RYANCA~1\AppData\Local\Temp\ccgP414A.s 			page 34


 867:Generated_Source\PSoC4/ADC_GLV_V.c ****             }
 868:Generated_Source\PSoC4/ADC_GLV_V.c ****         #endif /* ADC_GLV_V_DEFAULT_AVG_MODE == ADC_GLV_V__ACCUMULATE */
 869:Generated_Source\PSoC4/ADC_GLV_V.c **** 
 870:Generated_Source\PSoC4/ADC_GLV_V.c ****         /* Subtract ADC offset */
 871:Generated_Source\PSoC4/ADC_GLV_V.c ****         adcCounts -= ADC_GLV_V_offset[chan];
 958              		.loc 1 871 0 is_stmt 1
 959 0010 0A4B     		ldr	r3, .L79
 960 0012 6A00     		lsls	r2, r5, #1
 961 0014 D05A     		ldrh	r0, [r2, r3]
 872:Generated_Source\PSoC4/ADC_GLV_V.c **** 
 873:Generated_Source\PSoC4/ADC_GLV_V.c ****         volts = ((float32)adcCounts * ADC_GLV_V_10V_COUNTS) / (float32)ADC_GLV_V_countsPer10Volt[ch
 962              		.loc 1 873 0
 963 0016 0A4B     		ldr	r3, .L79+4
 871:Generated_Source\PSoC4/ADC_GLV_V.c **** 
 964              		.loc 1 871 0
 965 0018 241A     		subs	r4, r4, r0
 966              	.LVL63:
 874:Generated_Source\PSoC4/ADC_GLV_V.c **** 
 875:Generated_Source\PSoC4/ADC_GLV_V.c ****         return( volts );
 967              		.loc 1 875 0
 968 001a 20B2     		sxth	r0, r4
 873:Generated_Source\PSoC4/ADC_GLV_V.c **** 
 969              		.loc 1 873 0
 970 001c AD00     		lsls	r5, r5, #2
 971              	.LVL64:
 972 001e ED58     		ldr	r5, [r5, r3]
 973              	.LVL65:
 974              		.loc 1 875 0
 975 0020 FFF7FEFF 		bl	__aeabi_i2f
 976              	.LVL66:
 977 0024 0749     		ldr	r1, .L79+8
 978 0026 FFF7FEFF 		bl	__aeabi_fmul
 979              	.LVL67:
 980 002a 041C     		adds	r4, r0, #0
 981              	.LVL68:
 982 002c 2800     		movs	r0, r5
 983 002e FFF7FEFF 		bl	__aeabi_i2f
 984              	.LVL69:
 985 0032 011C     		adds	r1, r0, #0
 986 0034 201C     		adds	r0, r4, #0
 987 0036 FFF7FEFF 		bl	__aeabi_fdiv
 988              	.LVL70:
 876:Generated_Source\PSoC4/ADC_GLV_V.c ****     }
 989              		.loc 1 876 0
 990              		@ sp needed
 991 003a 70BD     		pop	{r4, r5, r6, pc}
 992              	.L80:
 993              		.align	2
 994              	.L79:
 995 003c 00000000 		.word	ADC_GLV_V_offset
 996 0040 00000000 		.word	ADC_GLV_V_countsPer10Volt
 997 0044 00002041 		.word	1092616192
 998              		.cfi_endproc
 999              	.LFE18:
 1000              		.size	ADC_GLV_V_CountsTo_Volts, .-ADC_GLV_V_CountsTo_Volts
 1001              		.comm	ADC_GLV_V_countsPer10Volt,8,4
 1002              		.comm	ADC_GLV_V_offset,4,2
ARM GAS  C:\Users\RYANCA~1\AppData\Local\Temp\ccgP414A.s 			page 35


 1003              		.global	ADC_GLV_V_initVar
 1004              		.bss
 1005              		.set	.LANCHOR0,. + 0
 1006              		.type	ADC_GLV_V_initVar, %object
 1007              		.size	ADC_GLV_V_initVar, 1
 1008              	ADC_GLV_V_initVar:
 1009 0000 00       		.space	1
 1010              		.text
 1011              	.Letext0:
 1012              		.file 2 "Generated_Source\\PSoC4\\cytypes.h"
 1013              		.file 3 "Generated_Source\\PSoC4\\CyLib.h"