ARM GAS  C:\Users\RYANCA~1\AppData\Local\Temp\ccoOIbRj.s 			page 1


   1              		.syntax unified
   2              		.cpu cortex-m0
   3              		.fpu softvfp
   4              		.eabi_attribute 20, 1
   5              		.eabi_attribute 21, 1
   6              		.eabi_attribute 23, 3
   7              		.eabi_attribute 24, 1
   8              		.eabi_attribute 25, 1
   9              		.eabi_attribute 26, 1
  10              		.eabi_attribute 30, 4
  11              		.eabi_attribute 34, 0
  12              		.eabi_attribute 18, 4
  13              		.thumb
  14              		.syntax unified
  15              		.file	"can_manga.c"
  16              		.text
  17              	.Ltext0:
  18              		.cfi_sections	.debug_frame
  19              		.section	.text.getCapacitorVoltage,"ax",%progbits
  20              		.align	1
  21              		.global	getCapacitorVoltage
  22              		.code	16
  23              		.thumb_func
  24              		.type	getCapacitorVoltage, %function
  25              	getCapacitorVoltage:
  26              	.LFB35:
  27              		.file 1 "can_manga.c"
   1:can_manga.c   **** /* ========================================
   2:can_manga.c   ****  * Can API for FRUCD
   3:can_manga.c   ****  * Schuyler Alschuler 2016 - 2017
   4:can_manga.c   ****  * ========================================
   5:can_manga.c   **** */
   6:can_manga.c   **** 
   7:can_manga.c   **** /*******************************************
   8:can_manga.c   ****  * Used to interface dashboard with CAN bus
   9:can_manga.c   ****  * some functinality can be found in CAN_TX_RX_func.c
  10:can_manga.c   ****  * which is a generated source file
  11:can_manga.c   ****  * see the can component of the top design for specific mailboxes
  12:can_manga.c   ****  ******************************************/
  13:can_manga.c   **** 
  14:can_manga.c   **** #include "CAN.h"
  15:can_manga.c   **** #include "can_manga.h"
  16:can_manga.c   **** #include "cytypes.h"
  17:can_manga.c   **** //#include "data.h"
  18:can_manga.c   **** #include "frucd_display.h"
  19:can_manga.c   **** // indicator LEDs
  20:can_manga.c   **** #include "BMS_LED.h"
  21:can_manga.c   **** #include "IMD_LED.h"
  22:can_manga.c   **** 
  23:can_manga.c   **** extern volatile vcu_state state;
  24:can_manga.c   **** extern volatile uint32_t pedalOK;
  25:can_manga.c   **** extern volatile uint8_t PACK_TEMP;
  26:can_manga.c   **** extern volatile uint8_t BSPD_CATCH;
  27:can_manga.c   **** extern volatile uint16_t CURRENT;
  28:can_manga.c   **** //extern volatile int ERROR_NODE;
  29:can_manga.c   **** //extern volatile int ERROR_IDX;
  30:can_manga.c   **** extern volatile uint8_t soc;
ARM GAS  C:\Users\RYANCA~1\AppData\Local\Temp\ccoOIbRj.s 			page 2


  31:can_manga.c   **** extern volatile uint32_t voltage;
  32:can_manga.c   **** extern volatile BMS_STATUS bms_status;
  33:can_manga.c   **** extern volatile uint8_t shutdown_flags;
  34:can_manga.c   **** 
  35:can_manga.c   **** // info from MC and motor
  36:can_manga.c   **** extern volatile uint16_t mc_temp;
  37:can_manga.c   **** extern volatile uint16_t motor_temp;
  38:can_manga.c   **** 
  39:can_manga.c   **** volatile uint8_t CAPACITOR_VOLT = 0;
  40:can_manga.c   **** volatile uint8_t CURTIS_FAULT_CHECK = 0;
  41:can_manga.c   **** volatile uint8_t CURTIS_HEART_BEAT_CHECK = 0;
  42:can_manga.c   **** volatile uint8_t ACK_RX = 0;
  43:can_manga.c   **** volatile uint8_t ERROR_TOLERANCE = 0;
  44:can_manga.c   **** volatile uint8_t ABS_MOTOR_RPM = 0;
  45:can_manga.c   **** volatile uint8_t THROTTLE_HIGH = 0;
  46:can_manga.c   **** volatile uint8_t THROTTLE_LOW = 0;
  47:can_manga.c   **** 
  48:can_manga.c   **** //volatile uint8_t ESTOP; //Tehya test
  49:can_manga.c   **** 
  50:can_manga.c   **** 
  51:can_manga.c   **** uint8 current_bytes[4] = {0};
  52:can_manga.c   **** 
  53:can_manga.c   **** // returns voltage of capacitor from motor controller
  54:can_manga.c   **** uint8_t getCapacitorVoltage()
  55:can_manga.c   **** {
  28              		.loc 1 55 0
  29              		.cfi_startproc
  30              		@ args = 0, pretend = 0, frame = 0
  31              		@ frame_needed = 0, uses_anonymous_args = 0
  32              		@ link register save eliminated.
  56:can_manga.c   ****     return CAPACITOR_VOLT;
  33              		.loc 1 56 0
  34 0000 014B     		ldr	r3, .L2
  57:can_manga.c   **** }
  35              		.loc 1 57 0
  36              		@ sp needed
  56:can_manga.c   ****     return CAPACITOR_VOLT;
  37              		.loc 1 56 0
  38 0002 1878     		ldrb	r0, [r3]
  39 0004 C0B2     		uxtb	r0, r0
  40              		.loc 1 57 0
  41 0006 7047     		bx	lr
  42              	.L3:
  43              		.align	2
  44              	.L2:
  45 0008 00000000 		.word	.LANCHOR0
  46              		.cfi_endproc
  47              	.LFE35:
  48              		.size	getCapacitorVoltage, .-getCapacitorVoltage
  49              		.section	.text.getCurtisFaultCheck,"ax",%progbits
  50              		.align	1
  51              		.global	getCurtisFaultCheck
  52              		.code	16
  53              		.thumb_func
  54              		.type	getCurtisFaultCheck, %function
  55              	getCurtisFaultCheck:
  56              	.LFB36:
ARM GAS  C:\Users\RYANCA~1\AppData\Local\Temp\ccoOIbRj.s 			page 3


  58:can_manga.c   **** 
  59:can_manga.c   **** // returns true if there is a fault in motor controller
  60:can_manga.c   **** uint8_t getCurtisFaultCheck()
  61:can_manga.c   **** {
  57              		.loc 1 61 0
  58              		.cfi_startproc
  59              		@ args = 0, pretend = 0, frame = 0
  60              		@ frame_needed = 0, uses_anonymous_args = 0
  61              		@ link register save eliminated.
  62:can_manga.c   ****     return CURTIS_FAULT_CHECK;
  62              		.loc 1 62 0
  63 0000 014B     		ldr	r3, .L5
  63:can_manga.c   **** }
  64              		.loc 1 63 0
  65              		@ sp needed
  62:can_manga.c   ****     return CURTIS_FAULT_CHECK;
  66              		.loc 1 62 0
  67 0002 5878     		ldrb	r0, [r3, #1]
  68 0004 C0B2     		uxtb	r0, r0
  69              		.loc 1 63 0
  70 0006 7047     		bx	lr
  71              	.L6:
  72              		.align	2
  73              	.L5:
  74 0008 00000000 		.word	.LANCHOR0
  75              		.cfi_endproc
  76              	.LFE36:
  77              		.size	getCurtisFaultCheck, .-getCurtisFaultCheck
  78              		.section	.text.getCurtisHeartBeatCheck,"ax",%progbits
  79              		.align	1
  80              		.global	getCurtisHeartBeatCheck
  81              		.code	16
  82              		.thumb_func
  83              		.type	getCurtisHeartBeatCheck, %function
  84              	getCurtisHeartBeatCheck:
  85              	.LFB37:
  64:can_manga.c   **** 
  65:can_manga.c   **** // returns true if motor controller node is still active
  66:can_manga.c   **** // if node is in active check the fault code using 1314
  67:can_manga.c   **** uint8_t getCurtisHeartBeatCheck()
  68:can_manga.c   **** {
  86              		.loc 1 68 0
  87              		.cfi_startproc
  88              		@ args = 0, pretend = 0, frame = 0
  89              		@ frame_needed = 0, uses_anonymous_args = 0
  90              		@ link register save eliminated.
  69:can_manga.c   ****     return CURTIS_HEART_BEAT_CHECK;
  91              		.loc 1 69 0
  92 0000 014B     		ldr	r3, .L8
  70:can_manga.c   **** }
  93              		.loc 1 70 0
  94              		@ sp needed
  69:can_manga.c   ****     return CURTIS_HEART_BEAT_CHECK;
  95              		.loc 1 69 0
  96 0002 9878     		ldrb	r0, [r3, #2]
  97 0004 C0B2     		uxtb	r0, r0
  98              		.loc 1 70 0
ARM GAS  C:\Users\RYANCA~1\AppData\Local\Temp\ccoOIbRj.s 			page 4


  99 0006 7047     		bx	lr
 100              	.L9:
 101              		.align	2
 102              	.L8:
 103 0008 00000000 		.word	.LANCHOR0
 104              		.cfi_endproc
 105              	.LFE37:
 106              		.size	getCurtisHeartBeatCheck, .-getCurtisHeartBeatCheck
 107              		.section	.text.getAckRx,"ax",%progbits
 108              		.align	1
 109              		.global	getAckRx
 110              		.code	16
 111              		.thumb_func
 112              		.type	getAckRx, %function
 113              	getAckRx:
 114              	.LFB38:
  71:can_manga.c   **** 
  72:can_manga.c   **** // returns 1 always... not sure whats up in the motor controller
  73:can_manga.c   **** uint8_t getAckRx()
  74:can_manga.c   **** {
 115              		.loc 1 74 0
 116              		.cfi_startproc
 117              		@ args = 0, pretend = 0, frame = 0
 118              		@ frame_needed = 0, uses_anonymous_args = 0
 119              		@ link register save eliminated.
  75:can_manga.c   ****     return ACK_RX;
 120              		.loc 1 75 0
 121 0000 014B     		ldr	r3, .L11
  76:can_manga.c   **** }
 122              		.loc 1 76 0
 123              		@ sp needed
  75:can_manga.c   ****     return ACK_RX;
 124              		.loc 1 75 0
 125 0002 D878     		ldrb	r0, [r3, #3]
 126 0004 C0B2     		uxtb	r0, r0
 127              		.loc 1 76 0
 128 0006 7047     		bx	lr
 129              	.L12:
 130              		.align	2
 131              	.L11:
 132 0008 00000000 		.word	.LANCHOR0
 133              		.cfi_endproc
 134              	.LFE38:
 135              		.size	getAckRx, .-getAckRx
 136              		.section	.text.getErrorTolerance,"ax",%progbits
 137              		.align	1
 138              		.global	getErrorTolerance
 139              		.code	16
 140              		.thumb_func
 141              		.type	getErrorTolerance, %function
 142              	getErrorTolerance:
 143              	.LFB39:
  77:can_manga.c   **** 
  78:can_manga.c   **** // true if break depressed more than 10%
  79:can_manga.c   **** // this value typically used for drive request
  80:can_manga.c   **** uint8_t getErrorTolerance()
  81:can_manga.c   **** {
ARM GAS  C:\Users\RYANCA~1\AppData\Local\Temp\ccoOIbRj.s 			page 5


 144              		.loc 1 81 0
 145              		.cfi_startproc
 146              		@ args = 0, pretend = 0, frame = 0
 147              		@ frame_needed = 0, uses_anonymous_args = 0
 148              		@ link register save eliminated.
  82:can_manga.c   ****     return ERROR_TOLERANCE;
 149              		.loc 1 82 0
 150 0000 014B     		ldr	r3, .L14
  83:can_manga.c   **** }
 151              		.loc 1 83 0
 152              		@ sp needed
  82:can_manga.c   ****     return ERROR_TOLERANCE;
 153              		.loc 1 82 0
 154 0002 1879     		ldrb	r0, [r3, #4]
 155 0004 C0B2     		uxtb	r0, r0
 156              		.loc 1 83 0
 157 0006 7047     		bx	lr
 158              	.L15:
 159              		.align	2
 160              	.L14:
 161 0008 00000000 		.word	.LANCHOR0
 162              		.cfi_endproc
 163              	.LFE39:
 164              		.size	getErrorTolerance, .-getErrorTolerance
 165              		.section	.text.getABSMotorRPM,"ax",%progbits
 166              		.align	1
 167              		.global	getABSMotorRPM
 168              		.code	16
 169              		.thumb_func
 170              		.type	getABSMotorRPM, %function
 171              	getABSMotorRPM:
 172              	.LFB40:
  84:can_manga.c   **** 
  85:can_manga.c   **** // from motor controller
  86:can_manga.c   **** // look this one up in 1239E manual, im not super sure
  87:can_manga.c   **** uint8_t getABSMotorRPM()
  88:can_manga.c   **** {
 173              		.loc 1 88 0
 174              		.cfi_startproc
 175              		@ args = 0, pretend = 0, frame = 0
 176              		@ frame_needed = 0, uses_anonymous_args = 0
 177              		@ link register save eliminated.
  89:can_manga.c   ****     return ABS_MOTOR_RPM;
 178              		.loc 1 89 0
 179 0000 014B     		ldr	r3, .L17
  90:can_manga.c   **** }
 180              		.loc 1 90 0
 181              		@ sp needed
  89:can_manga.c   ****     return ABS_MOTOR_RPM;
 182              		.loc 1 89 0
 183 0002 5879     		ldrb	r0, [r3, #5]
 184 0004 C0B2     		uxtb	r0, r0
 185              		.loc 1 90 0
 186 0006 7047     		bx	lr
 187              	.L18:
 188              		.align	2
 189              	.L17:
ARM GAS  C:\Users\RYANCA~1\AppData\Local\Temp\ccoOIbRj.s 			page 6


 190 0008 00000000 		.word	.LANCHOR0
 191              		.cfi_endproc
 192              	.LFE40:
 193              		.size	getABSMotorRPM, .-getABSMotorRPM
 194              		.section	.text.getEStop,"ax",%progbits
 195              		.align	1
 196              		.global	getEStop
 197              		.code	16
 198              		.thumb_func
 199              		.type	getEStop, %function
 200              	getEStop:
 201              	.LFB41:
  91:can_manga.c   **** 
  92:can_manga.c   **** //Tehya test
  93:can_manga.c   **** //will be a 1 if the estop was pressed (I'm making it a special case because I want to test rn)
  94:can_manga.c   **** uint8_t getEStop()
  95:can_manga.c   **** {
 202              		.loc 1 95 0
 203              		.cfi_startproc
 204              		@ args = 0, pretend = 0, frame = 0
 205              		@ frame_needed = 0, uses_anonymous_args = 0
 206              		@ link register save eliminated.
  96:can_manga.c   ****     return ESTOP;
  97:can_manga.c   **** }
 207              		.loc 1 97 0
 208 0000 0720     		movs	r0, #7
 209              		@ sp needed
 210 0002 7047     		bx	lr
 211              		.cfi_endproc
 212              	.LFE41:
 213              		.size	getEStop, .-getEStop
 214              		.section	.text.can_test_send,"ax",%progbits
 215              		.align	1
 216              		.global	can_test_send
 217              		.code	16
 218              		.thumb_func
 219              		.type	can_test_send, %function
 220              	can_test_send:
 221              	.LFB42:
  98:can_manga.c   **** 
  99:can_manga.c   **** // called from CAN_TX_RX_func.c in the generic RX func
 100:can_manga.c   **** /*/ tldr: part of an interrupt service routine
 101:can_manga.c   **** void can_receive(uint8_t *msg, int ID)
 102:can_manga.c   **** {
 103:can_manga.c   ****     uint8 InterruptState = CyEnterCriticalSection();
 104:can_manga.c   ****     
 105:can_manga.c   ****     switch (ID) 
 106:can_manga.c   ****     {
 107:can_manga.c   ****         case VEHICLE_STATE:
 108:can_manga.c   ****             state = msg[CAN_DATA_BYTE_1];
 109:can_manga.c   ****             break;
 110:can_manga.c   ****         case MC_PDO_SEND:
 111:can_manga.c   ****             CAPACITOR_VOLT = msg[CAN_DATA_BYTE_1];
 112:can_manga.c   ****             ABS_MOTOR_RPM = msg[CAN_DATA_BYTE_3];
 113:can_manga.c   ****             mc_temp = msg[CAN_DATA_BYTE_7] << 8;
 114:can_manga.c   ****             mc_temp += msg[CAN_DATA_BYTE_8];
 115:can_manga.c   ****             break;
ARM GAS  C:\Users\RYANCA~1\AppData\Local\Temp\ccoOIbRj.s 			page 7


 116:can_manga.c   ****         case MC_PDO_ACK:
 117:can_manga.c   ****             ACK_RX = msg[CAN_DATA_BYTE_1];
 118:can_manga.c   ****             motor_temp = msg[CAN_DATA_BYTE_5] << 8;
 119:can_manga.c   ****             motor_temp |= msg[CAN_DATA_BYTE_6];
 120:can_manga.c   ****             break;
 121:can_manga.c   ****         case 0xA6:  // errors sent from MC node
 122:can_manga.c   ****             CURTIS_FAULT_CHECK = 0x1;
 123:can_manga.c   ****             break;
 124:can_manga.c   ****         case 0x726:     // from motor controller to confirm that node is still active
 125:can_manga.c   ****             CURTIS_HEART_BEAT_CHECK = 0x1;
 126:can_manga.c   ****             break;
 127:can_manga.c   ****         case BMS_VOLTAGES:
 128:can_manga.c   ****             voltage = msg[CAN_DATA_BYTE_5] << 24;
 129:can_manga.c   ****             voltage |= msg[CAN_DATA_BYTE_6] << 16;
 130:can_manga.c   ****             voltage |= msg[CAN_DATA_BYTE_7] << 8;
 131:can_manga.c   ****             voltage |= msg[CAN_DATA_BYTE_8];
 132:can_manga.c   ****             break;
 133:can_manga.c   ****         case BMS_STATUS_MSG:
 134:can_manga.c   ****             soc = msg[CAN_DATA_BYTE_2];
 135:can_manga.c   ****             bms_status = msg[CAN_DATA_BYTE_3] << 8;    // bms error flags
 136:can_manga.c   ****             bms_status |= msg[CAN_DATA_BYTE_4];        // bms error flags
 137:can_manga.c   ****             break;
 138:can_manga.c   ****         case BMS_TEMPERATURES:
 139:can_manga.c   ****             PACK_TEMP = msg[CAN_DATA_BYTE_8];
 140:can_manga.c   ****             break;
 141:can_manga.c   ****         case PEI_CURRENT:
 142:can_manga.c   ****             CURRENT = msg[CAN_DATA_BYTE_1] << 8;
 143:can_manga.c   ****             CURRENT |= msg[CAN_DATA_BYTE_2];
 144:can_manga.c   ****             shutdown_flags = msg[CAN_DATA_BYTE_3];
 145:can_manga.c   ****             break;
 146:can_manga.c   ****         case 0x366: //Tehya test
 147:can_manga.c   ****             //ESTOP = msg[CAN_DATA_BYTE_1];
 148:can_manga.c   ****             break;
 149:can_manga.c   ****     }
 150:can_manga.c   ****     
 151:can_manga.c   ****     CyExitCriticalSection(InterruptState);
 152:can_manga.c   **** }*/
 153:can_manga.c   **** 
 154:can_manga.c   **** void can_test_send()
 155:can_manga.c   **** {
 222              		.loc 1 155 0
 223              		.cfi_startproc
 224              		@ args = 0, pretend = 0, frame = 16
 225              		@ frame_needed = 0, uses_anonymous_args = 0
 226 0000 1FB5     		push	{r0, r1, r2, r3, r4, lr}
 227              		.cfi_def_cfa_offset 24
 228              		.cfi_offset 0, -24
 229              		.cfi_offset 1, -20
 230              		.cfi_offset 2, -16
 231              		.cfi_offset 3, -12
 232              		.cfi_offset 4, -8
 233              		.cfi_offset 14, -4
 156:can_manga.c   ****     //CAN_1_DATA_BYTES_MSG msg;
 157:can_manga.c   ****     CAN_TX_MSG HeartB;
 158:can_manga.c   ****     
 159:can_manga.c   ****     HeartB.id = 0x300;
 234              		.loc 1 159 0
ARM GAS  C:\Users\RYANCA~1\AppData\Local\Temp\ccoOIbRj.s 			page 8


 235 0002 C023     		movs	r3, #192
 236 0004 9B00     		lsls	r3, r3, #2
 237 0006 0093     		str	r3, [sp]
 160:can_manga.c   ****     HeartB.rtr = 0;
 238              		.loc 1 160 0
 239 0008 0022     		movs	r2, #0
 240 000a 6B46     		mov	r3, sp
 161:can_manga.c   ****     HeartB.ide = 0;
 162:can_manga.c   ****     HeartB.dlc = 1;
 241              		.loc 1 162 0
 242 000c 6946     		mov	r1, sp
 161:can_manga.c   ****     HeartB.ide = 0;
 243              		.loc 1 161 0
 244 000e 5A71     		strb	r2, [r3, #5]
 160:can_manga.c   ****     HeartB.rtr = 0;
 245              		.loc 1 160 0
 246 0010 1A71     		strb	r2, [r3, #4]
 247              		.loc 1 162 0
 248 0012 0123     		movs	r3, #1
 163:can_manga.c   ****     
 164:can_manga.c   ****     HeartB.irq = 0;
 249              		.loc 1 164 0
 250 0014 CA71     		strb	r2, [r1, #7]
 165:can_manga.c   ****     
 166:can_manga.c   ****     HeartB.msg->byte[0] = (uint8) 1;
 251              		.loc 1 166 0
 252 0016 039A     		ldr	r2, [sp, #12]
 162:can_manga.c   ****     
 253              		.loc 1 162 0
 254 0018 8B71     		strb	r3, [r1, #6]
 167:can_manga.c   ****     HeartB.msg->byte[1] = (uint8) 1;
 168:can_manga.c   ****     HeartB.msg->byte[2] = (uint8) 1;
 169:can_manga.c   ****     HeartB.msg->byte[3] = (uint8) 1;
 170:can_manga.c   ****     HeartB.msg->byte[4] = (uint8) 1;
 171:can_manga.c   ****     HeartB.msg->byte[5] = (uint8) 1;
 172:can_manga.c   ****     HeartB.msg->byte[6] = (uint8) 1;
 173:can_manga.c   ****     HeartB.msg->byte[7] = (uint8) 1;
 255              		.loc 1 173 0
 256 001a D371     		strb	r3, [r2, #7]
 166:can_manga.c   ****     HeartB.msg->byte[1] = (uint8) 1;
 257              		.loc 1 166 0
 258 001c 1370     		strb	r3, [r2]
 167:can_manga.c   ****     HeartB.msg->byte[1] = (uint8) 1;
 259              		.loc 1 167 0
 260 001e 5370     		strb	r3, [r2, #1]
 168:can_manga.c   ****     HeartB.msg->byte[3] = (uint8) 1;
 261              		.loc 1 168 0
 262 0020 9370     		strb	r3, [r2, #2]
 169:can_manga.c   ****     HeartB.msg->byte[4] = (uint8) 1;
 263              		.loc 1 169 0
 264 0022 D370     		strb	r3, [r2, #3]
 170:can_manga.c   ****     HeartB.msg->byte[5] = (uint8) 1;
 265              		.loc 1 170 0
 266 0024 1371     		strb	r3, [r2, #4]
 171:can_manga.c   ****     HeartB.msg->byte[6] = (uint8) 1;
 267              		.loc 1 171 0
 268 0026 5371     		strb	r3, [r2, #5]
ARM GAS  C:\Users\RYANCA~1\AppData\Local\Temp\ccoOIbRj.s 			page 9


 172:can_manga.c   ****     HeartB.msg->byte[7] = (uint8) 1;
 269              		.loc 1 172 0
 270 0028 9371     		strb	r3, [r2, #6]
 174:can_manga.c   ****     
 175:can_manga.c   ****     CAN_SendMsg(&HeartB);
 271              		.loc 1 175 0
 272 002a 6846     		mov	r0, sp
 273 002c FFF7FEFF 		bl	CAN_SendMsg
 274              	.LVL0:
 176:can_manga.c   **** }
 275              		.loc 1 176 0
 276 0030 05B0     		add	sp, sp, #20
 277              		@ sp needed
 278 0032 00BD     		pop	{pc}
 279              		.cfi_endproc
 280              	.LFE42:
 281              		.size	can_test_send, .-can_test_send
 282              		.section	.text.can_send,"ax",%progbits
 283              		.align	1
 284              		.global	can_send
 285              		.code	16
 286              		.thumb_func
 287              		.type	can_send, %function
 288              	can_send:
 289              	.LFB43:
 177:can_manga.c   **** 
 178:can_manga.c   **** void can_send(uint8_t data[8], uint32_t ID)
 179:can_manga.c   **** {
 290              		.loc 1 179 0
 291              		.cfi_startproc
 292              		@ args = 0, pretend = 0, frame = 24
 293              		@ frame_needed = 0, uses_anonymous_args = 0
 294              	.LVL1:
 295 0000 10B5     		push	{r4, lr}
 296              		.cfi_def_cfa_offset 8
 297              		.cfi_offset 4, -8
 298              		.cfi_offset 14, -4
 299 0002 86B0     		sub	sp, sp, #24
 300              		.cfi_def_cfa_offset 32
 180:can_manga.c   ****     uint8_t i;
 181:can_manga.c   **** 	CAN_TX_MSG message;
 182:can_manga.c   **** 	CAN_DATA_BYTES_MSG payload;
 183:can_manga.c   **** 	message.id = ID; 
 301              		.loc 1 183 0
 302 0004 0291     		str	r1, [sp, #8]
 184:can_manga.c   **** 	message.rtr = 0;
 185:can_manga.c   **** 	message.ide = 0;
 186:can_manga.c   **** 	message.dlc = 0x08;
 303              		.loc 1 186 0
 304 0006 0821     		movs	r1, #8
 305              	.LVL2:
 183:can_manga.c   **** 	message.rtr = 0;
 306              		.loc 1 183 0
 307 0008 02AA     		add	r2, sp, #8
 308              	.LVL3:
 184:can_manga.c   **** 	message.rtr = 0;
 309              		.loc 1 184 0
ARM GAS  C:\Users\RYANCA~1\AppData\Local\Temp\ccoOIbRj.s 			page 10


 310 000a 0023     		movs	r3, #0
 311              		.loc 1 186 0
 312 000c 9171     		strb	r1, [r2, #6]
 187:can_manga.c   **** 	message.irq = 0;
 188:can_manga.c   **** 	message.msg = &payload;
 313              		.loc 1 188 0
 314 000e 6946     		mov	r1, sp
 184:can_manga.c   **** 	message.ide = 0;
 315              		.loc 1 184 0
 316 0010 1371     		strb	r3, [r2, #4]
 185:can_manga.c   **** 	message.dlc = 0x08;
 317              		.loc 1 185 0
 318 0012 5371     		strb	r3, [r2, #5]
 187:can_manga.c   **** 	message.irq = 0;
 319              		.loc 1 187 0
 320 0014 D371     		strb	r3, [r2, #7]
 321              		.loc 1 188 0
 322 0016 D160     		str	r1, [r2, #12]
 323              	.LVL4:
 324              	.L22:
 189:can_manga.c   **** 	for(i=0;i<8;i++)
 190:can_manga.c   **** 		payload.byte[i] = data[i];
 325              		.loc 1 190 0 discriminator 3
 326 0018 6C46     		mov	r4, sp
 327 001a C15C     		ldrb	r1, [r0, r3]
 328 001c E154     		strb	r1, [r4, r3]
 329              	.LVL5:
 330 001e 0133     		adds	r3, r3, #1
 331              	.LVL6:
 189:can_manga.c   **** 	for(i=0;i<8;i++)
 332              		.loc 1 189 0 discriminator 3
 333 0020 082B     		cmp	r3, #8
 334 0022 F9D1     		bne	.L22
 191:can_manga.c   **** 	CAN_SendMsg(&message); 
 335              		.loc 1 191 0
 336 0024 1000     		movs	r0, r2
 337              	.LVL7:
 338 0026 FFF7FEFF 		bl	CAN_SendMsg
 339              	.LVL8:
 192:can_manga.c   **** }
 340              		.loc 1 192 0
 341 002a 06B0     		add	sp, sp, #24
 342              		@ sp needed
 343 002c 10BD     		pop	{r4, pc}
 344              		.cfi_endproc
 345              	.LFE43:
 346              		.size	can_send, .-can_send
 347              		.section	.text.can_send_switches,"ax",%progbits
 348              		.align	1
 349              		.global	can_send_switches
 350              		.code	16
 351              		.thumb_func
 352              		.type	can_send_switches, %function
 353              	can_send_switches:
 354              	.LFB44:
 193:can_manga.c   **** 
 194:can_manga.c   **** void can_send_switches(
ARM GAS  C:\Users\RYANCA~1\AppData\Local\Temp\ccoOIbRj.s 			page 11


 195:can_manga.c   ****     uint8_t sw_status)
 196:can_manga.c   **** {
 355              		.loc 1 196 0
 356              		.cfi_startproc
 357              		@ args = 0, pretend = 0, frame = 0
 358              		@ frame_needed = 0, uses_anonymous_args = 0
 359              	.LVL9:
 197:can_manga.c   ****         CAN_TX_DATA_BYTE1( 0u, sw_status); 
 360              		.loc 1 197 0
 361 0000 054A     		ldr	r2, .L26
 196:can_manga.c   ****         CAN_TX_DATA_BYTE1( 0u, sw_status); 
 362              		.loc 1 196 0
 363 0002 10B5     		push	{r4, lr}
 364              		.cfi_def_cfa_offset 8
 365              		.cfi_offset 4, -8
 366              		.cfi_offset 14, -4
 367              		.loc 1 197 0
 368 0004 1368     		ldr	r3, [r2]
 369 0006 0006     		lsls	r0, r0, #24
 370              	.LVL10:
 371 0008 1B02     		lsls	r3, r3, #8
 372 000a 1B0A     		lsrs	r3, r3, #8
 373 000c 1843     		orrs	r0, r3
 374 000e 1060     		str	r0, [r2]
 198:can_manga.c   ****         CAN_SendMsgDRIVER_SWITCHES(); 
 375              		.loc 1 198 0
 376 0010 FFF7FEFF 		bl	CAN_SendMsgDRIVER_SWITCHES
 377              	.LVL11:
 199:can_manga.c   ****     
 200:can_manga.c   ****         /*
 201:can_manga.c   ****         uint8_t data[8];
 202:can_manga.c   ****         
 203:can_manga.c   ****         data[0] = sw_status;
 204:can_manga.c   ****         data[1] = 0;
 205:can_manga.c   ****         
 206:can_manga.c   ****         data[2] = 0;
 207:can_manga.c   ****         data[3] = 0;
 208:can_manga.c   ****         
 209:can_manga.c   ****         data[4] = 0;
 210:can_manga.c   ****         data[5] = 0;
 211:can_manga.c   ****         data[6] = 0;
 212:can_manga.c   ****         data[7] = 0;
 213:can_manga.c   **** 
 214:can_manga.c   ****         can_send(data, DRIVER_SWITCHES);
 215:can_manga.c   **** */
 216:can_manga.c   ****         
 217:can_manga.c   **** } // can_send_status()
 378              		.loc 1 217 0
 379              		@ sp needed
 380 0014 10BD     		pop	{r4, pc}
 381              	.L27:
 382 0016 C046     		.align	2
 383              	.L26:
 384 0018 28002F40 		.word	1076822056
 385              		.cfi_endproc
 386              	.LFE44:
 387              		.size	can_send_switches, .-can_send_switches
ARM GAS  C:\Users\RYANCA~1\AppData\Local\Temp\ccoOIbRj.s 			page 12


 388              		.section	.text.can_send_cmd,"ax",%progbits
 389              		.align	1
 390              		.global	can_send_cmd
 391              		.code	16
 392              		.thumb_func
 393              		.type	can_send_cmd, %function
 394              	can_send_cmd:
 395              	.LFB45:
 218:can_manga.c   **** 
 219:can_manga.c   **** void can_send_cmd(
 220:can_manga.c   ****     uint8_t SetInterlock,
 221:can_manga.c   ****     uint16_t VCL_Throttle_High,
 222:can_manga.c   ****     uint16_t VCL_Throttle_Low,
 223:can_manga.c   ****     uint8_t E_Stop_Check
 224:can_manga.c   **** )
 225:can_manga.c   **** {
 396              		.loc 1 225 0
 397              		.cfi_startproc
 398              		@ args = 0, pretend = 0, frame = 8
 399              		@ frame_needed = 0, uses_anonymous_args = 0
 400              	.LVL12:
 401 0000 13B5     		push	{r0, r1, r4, lr}
 402              		.cfi_def_cfa_offset 16
 403              		.cfi_offset 0, -16
 404              		.cfi_offset 1, -12
 405              		.cfi_offset 4, -8
 406              		.cfi_offset 14, -4
 226:can_manga.c   ****     //max and min voltage means the voltage of single cell
 227:can_manga.c   ****         
 228:can_manga.c   ****         uint8_t data[8];
 229:can_manga.c   ****         
 230:can_manga.c   ****         data[0] = SetInterlock;
 407              		.loc 1 230 0
 408 0002 6C46     		mov	r4, sp
 231:can_manga.c   ****         
 232:can_manga.c   ****         data[1] = VCL_Throttle_High;
 233:can_manga.c   ****         data[2] = VCL_Throttle_Low;
 409              		.loc 1 233 0
 410 0004 A270     		strb	r2, [r4, #2]
 234:can_manga.c   ****         
 235:can_manga.c   ****         data[3] = 0;
 411              		.loc 1 235 0
 412 0006 0022     		movs	r2, #0
 413              	.LVL13:
 230:can_manga.c   ****         
 414              		.loc 1 230 0
 415 0008 2070     		strb	r0, [r4]
 232:can_manga.c   ****         data[2] = VCL_Throttle_Low;
 416              		.loc 1 232 0
 417 000a 6170     		strb	r1, [r4, #1]
 418 000c 6846     		mov	r0, sp
 419              	.LVL14:
 236:can_manga.c   ****         data[4] = E_Stop_Check;
 237:can_manga.c   ****         
 238:can_manga.c   ****         data[5] = 0;
 239:can_manga.c   ****         data[6] = 0;
 240:can_manga.c   ****         data[7] = 0;
ARM GAS  C:\Users\RYANCA~1\AppData\Local\Temp\ccoOIbRj.s 			page 13


 241:can_manga.c   **** 
 242:can_manga.c   ****         can_send(data, 0x766);
 420              		.loc 1 242 0
 421 000e 0649     		ldr	r1, .L29
 422              	.LVL15:
 235:can_manga.c   ****         data[4] = E_Stop_Check;
 423              		.loc 1 235 0
 424 0010 E270     		strb	r2, [r4, #3]
 236:can_manga.c   ****         data[4] = E_Stop_Check;
 425              		.loc 1 236 0
 426 0012 2371     		strb	r3, [r4, #4]
 238:can_manga.c   ****         data[6] = 0;
 427              		.loc 1 238 0
 428 0014 6271     		strb	r2, [r4, #5]
 239:can_manga.c   ****         data[7] = 0;
 429              		.loc 1 239 0
 430 0016 A271     		strb	r2, [r4, #6]
 240:can_manga.c   **** 
 431              		.loc 1 240 0
 432 0018 E271     		strb	r2, [r4, #7]
 433              		.loc 1 242 0
 434 001a FFF7FEFF 		bl	can_send
 435              	.LVL16:
 243:can_manga.c   ****         CyDelay(1); // Wtf is this shit?
 436              		.loc 1 243 0
 437 001e 0120     		movs	r0, #1
 438 0020 FFF7FEFF 		bl	CyDelay
 439              	.LVL17:
 244:can_manga.c   **** 
 245:can_manga.c   **** } // can_send_cmd()
 440              		.loc 1 245 0
 441              		@ sp needed
 442 0024 13BD     		pop	{r0, r1, r4, pc}
 443              	.L30:
 444 0026 C046     		.align	2
 445              	.L29:
 446 0028 66070000 		.word	1894
 447              		.cfi_endproc
 448              	.LFE45:
 449              		.size	can_send_cmd, .-can_send_cmd
 450              		.section	.text.can_send_charge,"ax",%progbits
 451              		.align	1
 452              		.global	can_send_charge
 453              		.code	16
 454              		.thumb_func
 455              		.type	can_send_charge, %function
 456              	can_send_charge:
 457              	.LFB46:
 246:can_manga.c   **** 
 247:can_manga.c   **** void can_send_charge(uint8_t charge, uint8_t save_soc) {
 458              		.loc 1 247 0
 459              		.cfi_startproc
 460              		@ args = 0, pretend = 0, frame = 8
 461              		@ frame_needed = 0, uses_anonymous_args = 0
 462              	.LVL18:
 463 0000 37B5     		push	{r0, r1, r2, r4, r5, lr}
 464              		.cfi_def_cfa_offset 24
ARM GAS  C:\Users\RYANCA~1\AppData\Local\Temp\ccoOIbRj.s 			page 14


 465              		.cfi_offset 0, -24
 466              		.cfi_offset 1, -20
 467              		.cfi_offset 2, -16
 468              		.cfi_offset 4, -12
 469              		.cfi_offset 5, -8
 470              		.cfi_offset 14, -4
 471              		.loc 1 247 0
 472 0002 0500     		movs	r5, r0
 473 0004 0C00     		movs	r4, r1
 248:can_manga.c   ****     uint8_t data[8] = {0};
 474              		.loc 1 248 0
 475 0006 0822     		movs	r2, #8
 476 0008 0021     		movs	r1, #0
 477              	.LVL19:
 478 000a 6846     		mov	r0, sp
 479              	.LVL20:
 480 000c FFF7FEFF 		bl	memset
 481              	.LVL21:
 249:can_manga.c   ****     data[0] = charge;
 482              		.loc 1 249 0
 483 0010 6B46     		mov	r3, sp
 250:can_manga.c   ****     data[1] = save_soc;
 251:can_manga.c   ****     
 252:can_manga.c   ****     can_send(data, 0x389);
 484              		.loc 1 252 0
 485 0012 0349     		ldr	r1, .L32
 486 0014 6846     		mov	r0, sp
 249:can_manga.c   ****     data[0] = charge;
 487              		.loc 1 249 0
 488 0016 1D70     		strb	r5, [r3]
 250:can_manga.c   ****     data[1] = save_soc;
 489              		.loc 1 250 0
 490 0018 5C70     		strb	r4, [r3, #1]
 253:can_manga.c   **** }...
 491              		.loc 1 253 0
 492              		@ sp needed
 252:can_manga.c   ****     can_send(data, 0x389);
 493              		.loc 1 252 0
 494 001a FFF7FEFF 		bl	can_send
 495              	.LVL22:
 496              		.loc 1 253 0
 497 001e 37BD     		pop	{r0, r1, r2, r4, r5, pc}
 498              	.L33:
 499              		.align	2
 500              	.L32:
 501 0020 89030000 		.word	905
 502              		.cfi_endproc
 503              	.LFE46:
 504              		.size	can_send_charge, .-can_send_charge
 505              		.global	current_bytes
 506              		.global	THROTTLE_LOW
 507              		.global	THROTTLE_HIGH
 508              		.global	ABS_MOTOR_RPM
 509              		.global	ERROR_TOLERANCE
 510              		.global	ACK_RX
 511              		.global	CURTIS_HEART_BEAT_CHECK
 512              		.global	CURTIS_FAULT_CHECK
ARM GAS  C:\Users\RYANCA~1\AppData\Local\Temp\ccoOIbRj.s 			page 15


 513              		.global	CAPACITOR_VOLT
 514              		.comm	last_motor_temp_color,4,4
 515              		.comm	last_mc_temp_color,4,4
 516              		.comm	last_glv_v_color,4,4
 517              		.comm	last_state_color,4,4
 518              		.comm	last_max_pack_temp_color,4,4
 519              		.comm	last_SOC_color,4,4
 520              		.comm	gui1963,120,4
 521              		.bss
 522              		.set	.LANCHOR0,. + 0
 523              		.type	CAPACITOR_VOLT, %object
 524              		.size	CAPACITOR_VOLT, 1
 525              	CAPACITOR_VOLT:
 526 0000 00       		.space	1
 527              		.type	CURTIS_FAULT_CHECK, %object
 528              		.size	CURTIS_FAULT_CHECK, 1
 529              	CURTIS_FAULT_CHECK:
 530 0001 00       		.space	1
 531              		.type	CURTIS_HEART_BEAT_CHECK, %object
 532              		.size	CURTIS_HEART_BEAT_CHECK, 1
 533              	CURTIS_HEART_BEAT_CHECK:
 534 0002 00       		.space	1
 535              		.type	ACK_RX, %object
 536              		.size	ACK_RX, 1
 537              	ACK_RX:
 538 0003 00       		.space	1
 539              		.type	ERROR_TOLERANCE, %object
 540              		.size	ERROR_TOLERANCE, 1
 541              	ERROR_TOLERANCE:
 542 0004 00       		.space	1
 543              		.type	ABS_MOTOR_RPM, %object
 544              		.size	ABS_MOTOR_RPM, 1
 545              	ABS_MOTOR_RPM:
 546 0005 00       		.space	1
 547              		.type	current_bytes, %object
 548              		.size	current_bytes, 4
 549              	current_bytes:
 550 0006 00000000 		.space	4
 551              		.type	THROTTLE_LOW, %object
 552              		.size	THROTTLE_LOW, 1
 553              	THROTTLE_LOW:
 554 000a 00       		.space	1
 555              		.type	THROTTLE_HIGH, %object
 556              		.size	THROTTLE_HIGH, 1
 557              	THROTTLE_HIGH:
 558 000b 00       		.space	1
 559              		.text
 560              	.Letext0:
 561              		.file 2 "c:\\program files (x86)\\cypress\\psoc creator\\4.4\\psoc creator\\import\\gnu\\arm\\5.4.
 562              		.file 3 "c:\\program files (x86)\\cypress\\psoc creator\\4.4\\psoc creator\\import\\gnu\\arm\\5.4.
 563              		.file 4 "Generated_Source\\PSoC4/cytypes.h"
 564              		.file 5 "Generated_Source\\PSoC4/CAN.h"
 565              		.file 6 "ugui_config.h"
 566              		.file 7 "data.h"
 567              		.file 8 "ugui.h"
 568              		.file 9 "ugui_SSD1963.h"
 569              		.file 10 "frucd_display.h"
ARM GAS  C:\Users\RYANCA~1\AppData\Local\Temp\ccoOIbRj.s 			page 16


 570              		.file 11 "Generated_Source\\PSoC4/CyLib.h"