ARM GAS  C:\Users\RYANCA~1\AppData\Local\Temp\ccQoZK0a.s 			page 1


   1              		.syntax unified
   2              		.cpu cortex-m0
   3              		.fpu softvfp
   4              		.eabi_attribute 20, 1
   5              		.eabi_attribute 21, 1
   6              		.eabi_attribute 23, 3
   7              		.eabi_attribute 24, 1
   8              		.eabi_attribute 25, 1
   9              		.eabi_attribute 26, 1
  10              		.eabi_attribute 30, 4
  11              		.eabi_attribute 34, 0
  12              		.eabi_attribute 18, 4
  13              		.thumb
  14              		.syntax unified
  15              		.file	"CyDMA.c"
  16              		.text
  17              	.Ltext0:
  18              		.cfi_sections	.debug_frame
  19              		.section	.text.CyDmaInterrupt,"ax",%progbits
  20              		.align	1
  21              		.global	CyDmaInterrupt
  22              		.code	16
  23              		.thumb_func
  24              		.type	CyDmaInterrupt, %function
  25              	CyDmaInterrupt:
  26              	.LFB15:
  27              		.file 1 "Generated_Source\\PSoC4\\CyDMA.c"
   1:Generated_Source\PSoC4/CyDMA.c **** /*******************************************************************************
   2:Generated_Source\PSoC4/CyDMA.c **** * File Name: CyDMA.c
   3:Generated_Source\PSoC4/CyDMA.c **** * Version 1.10
   4:Generated_Source\PSoC4/CyDMA.c **** *
   5:Generated_Source\PSoC4/CyDMA.c **** * Description:
   6:Generated_Source\PSoC4/CyDMA.c **** *  This file contains all of the global DMA API functions.
   7:Generated_Source\PSoC4/CyDMA.c **** *
   8:Generated_Source\PSoC4/CyDMA.c **** ********************************************************************************
   9:Generated_Source\PSoC4/CyDMA.c **** * Copyright 2015, Cypress Semiconductor Corporation. All rights reserved.
  10:Generated_Source\PSoC4/CyDMA.c **** * You may use this file only in accordance with the license, terms, conditions,
  11:Generated_Source\PSoC4/CyDMA.c **** * disclaimers, and limitations in the end user license agreement accompanying
  12:Generated_Source\PSoC4/CyDMA.c **** * the software package with which this file was provided.
  13:Generated_Source\PSoC4/CyDMA.c **** *******************************************************************************/
  14:Generated_Source\PSoC4/CyDMA.c **** 
  15:Generated_Source\PSoC4/CyDMA.c **** #include "CyDMA.h"
  16:Generated_Source\PSoC4/CyDMA.c **** #include "CyLib.h"
  17:Generated_Source\PSoC4/CyDMA.c **** 
  18:Generated_Source\PSoC4/CyDMA.c **** /* Default callback function. It is invoked if the user callback function is
  19:Generated_Source\PSoC4/CyDMA.c **** * undefined.
  20:Generated_Source\PSoC4/CyDMA.c **** */
  21:Generated_Source\PSoC4/CyDMA.c **** static void CyDmaDefaultInterruptCallback(void);
  22:Generated_Source\PSoC4/CyDMA.c **** 
  23:Generated_Source\PSoC4/CyDMA.c **** /* Array of pointers to user defined callback functions to be called
  24:Generated_Source\PSoC4/CyDMA.c **** * from DMA interrupt.
  25:Generated_Source\PSoC4/CyDMA.c **** */
  26:Generated_Source\PSoC4/CyDMA.c **** static cydma_callback_t CyDmaInterruptCallback[CYDMA_CH_NR] = {
  27:Generated_Source\PSoC4/CyDMA.c ****     &CyDmaDefaultInterruptCallback, &CyDmaDefaultInterruptCallback,
  28:Generated_Source\PSoC4/CyDMA.c ****     &CyDmaDefaultInterruptCallback, &CyDmaDefaultInterruptCallback,
  29:Generated_Source\PSoC4/CyDMA.c ****     &CyDmaDefaultInterruptCallback, &CyDmaDefaultInterruptCallback,
  30:Generated_Source\PSoC4/CyDMA.c ****     &CyDmaDefaultInterruptCallback, &CyDmaDefaultInterruptCallback
ARM GAS  C:\Users\RYANCA~1\AppData\Local\Temp\ccQoZK0a.s 			page 2


  31:Generated_Source\PSoC4/CyDMA.c **** };
  32:Generated_Source\PSoC4/CyDMA.c **** 
  33:Generated_Source\PSoC4/CyDMA.c **** /* The live status of all DMA channels usage. Bit i is associated to channel i,
  34:Generated_Source\PSoC4/CyDMA.c **** * with i = 0..CYDMA_CH_NR-1. '0' - channel is free. '1' - channel is in use.
  35:Generated_Source\PSoC4/CyDMA.c **** * All the channels allocated for DMA instances placed on a schematic are in use
  36:Generated_Source\PSoC4/CyDMA.c **** * by default and cannot be freed. 
  37:Generated_Source\PSoC4/CyDMA.c **** * DMA_CHANNELS_USED__MASK is generated during the build time and is a bit field
  38:Generated_Source\PSoC4/CyDMA.c **** * corresponding to the DMA channels placed on a design schematic.
  39:Generated_Source\PSoC4/CyDMA.c **** */
  40:Generated_Source\PSoC4/CyDMA.c **** static uint32 CyDmaChannelUsedMask = DMA_CHANNELS_USED__MASK;
  41:Generated_Source\PSoC4/CyDMA.c **** 
  42:Generated_Source\PSoC4/CyDMA.c **** 
  43:Generated_Source\PSoC4/CyDMA.c **** /*******************************************************************************
  44:Generated_Source\PSoC4/CyDMA.c **** * Function Name: CyDmaEnable
  45:Generated_Source\PSoC4/CyDMA.c **** ********************************************************************************
  46:Generated_Source\PSoC4/CyDMA.c **** *
  47:Generated_Source\PSoC4/CyDMA.c **** * Summary:
  48:Generated_Source\PSoC4/CyDMA.c **** *  Sets the default ISR to be called by the DMA interrupt and enables the DMA
  49:Generated_Source\PSoC4/CyDMA.c **** *  transfer engine.
  50:Generated_Source\PSoC4/CyDMA.c **** *
  51:Generated_Source\PSoC4/CyDMA.c **** * Parameters:
  52:Generated_Source\PSoC4/CyDMA.c **** *  None.
  53:Generated_Source\PSoC4/CyDMA.c **** *                   
  54:Generated_Source\PSoC4/CyDMA.c **** * Return:
  55:Generated_Source\PSoC4/CyDMA.c **** *  None.
  56:Generated_Source\PSoC4/CyDMA.c **** *
  57:Generated_Source\PSoC4/CyDMA.c **** * Side effect:
  58:Generated_Source\PSoC4/CyDMA.c **** *  Does not affect the channel enable status. Overrides the interrupt vector
  59:Generated_Source\PSoC4/CyDMA.c **** *  set prior the first time CyDmaEnable() is called.
  60:Generated_Source\PSoC4/CyDMA.c **** *
  61:Generated_Source\PSoC4/CyDMA.c **** *******************************************************************************/
  62:Generated_Source\PSoC4/CyDMA.c **** void CyDmaEnable(void)
  63:Generated_Source\PSoC4/CyDMA.c **** {
  64:Generated_Source\PSoC4/CyDMA.c ****     static uint8 initIntrVector = 0u;
  65:Generated_Source\PSoC4/CyDMA.c **** 
  66:Generated_Source\PSoC4/CyDMA.c ****     if(0u == initIntrVector)
  67:Generated_Source\PSoC4/CyDMA.c ****     {
  68:Generated_Source\PSoC4/CyDMA.c ****         CyDmaSetInterruptVector(&CyDmaInterrupt);
  69:Generated_Source\PSoC4/CyDMA.c ****         CyIntSetPriority(CYDMA_INTR_NUMBER, CYDMA_INTR_PRIO);
  70:Generated_Source\PSoC4/CyDMA.c ****         initIntrVector = 1u;
  71:Generated_Source\PSoC4/CyDMA.c ****     }
  72:Generated_Source\PSoC4/CyDMA.c ****     CYDMA_CTL_REG = CYDMA_ENABLED;
  73:Generated_Source\PSoC4/CyDMA.c **** }
  74:Generated_Source\PSoC4/CyDMA.c **** 
  75:Generated_Source\PSoC4/CyDMA.c **** 
  76:Generated_Source\PSoC4/CyDMA.c **** /*******************************************************************************
  77:Generated_Source\PSoC4/CyDMA.c **** * Function Name: CyDmaDisable
  78:Generated_Source\PSoC4/CyDMA.c **** ********************************************************************************
  79:Generated_Source\PSoC4/CyDMA.c **** *
  80:Generated_Source\PSoC4/CyDMA.c **** * Summary:
  81:Generated_Source\PSoC4/CyDMA.c **** *  Disables the DMA transfer engine.
  82:Generated_Source\PSoC4/CyDMA.c **** *
  83:Generated_Source\PSoC4/CyDMA.c **** * Parameters:
  84:Generated_Source\PSoC4/CyDMA.c **** *  None.
  85:Generated_Source\PSoC4/CyDMA.c **** *                   
  86:Generated_Source\PSoC4/CyDMA.c **** * Return:
  87:Generated_Source\PSoC4/CyDMA.c **** *  None.
ARM GAS  C:\Users\RYANCA~1\AppData\Local\Temp\ccQoZK0a.s 			page 3


  88:Generated_Source\PSoC4/CyDMA.c **** *
  89:Generated_Source\PSoC4/CyDMA.c **** * Side effect:
  90:Generated_Source\PSoC4/CyDMA.c **** *  Does not affect the channel enable status.
  91:Generated_Source\PSoC4/CyDMA.c **** *
  92:Generated_Source\PSoC4/CyDMA.c **** *******************************************************************************/
  93:Generated_Source\PSoC4/CyDMA.c **** void CyDmaDisable(void)
  94:Generated_Source\PSoC4/CyDMA.c **** {
  95:Generated_Source\PSoC4/CyDMA.c ****     CYDMA_CTL_REG = (uint32)~CYDMA_ENABLED;
  96:Generated_Source\PSoC4/CyDMA.c **** }
  97:Generated_Source\PSoC4/CyDMA.c **** 
  98:Generated_Source\PSoC4/CyDMA.c **** 
  99:Generated_Source\PSoC4/CyDMA.c **** /*******************************************************************************
 100:Generated_Source\PSoC4/CyDMA.c **** * Function Name: CyDmaGetStatus
 101:Generated_Source\PSoC4/CyDMA.c **** ********************************************************************************
 102:Generated_Source\PSoC4/CyDMA.c **** *
 103:Generated_Source\PSoC4/CyDMA.c **** * Summary:
 104:Generated_Source\PSoC4/CyDMA.c **** *  Returns the status of the DMA transfer engine.
 105:Generated_Source\PSoC4/CyDMA.c **** *
 106:Generated_Source\PSoC4/CyDMA.c **** * Parameters:
 107:Generated_Source\PSoC4/CyDMA.c **** *  None.
 108:Generated_Source\PSoC4/CyDMA.c **** *                   
 109:Generated_Source\PSoC4/CyDMA.c **** * Return:
 110:Generated_Source\PSoC4/CyDMA.c **** *  The contents of the DMA status register. Refer to the status register bit
 111:Generated_Source\PSoC4/CyDMA.c **** *  definitions in CyDMA_P4.h or the API description in the DMA channel
 112:Generated_Source\PSoC4/CyDMA.c **** *  datasheet.
 113:Generated_Source\PSoC4/CyDMA.c **** *
 114:Generated_Source\PSoC4/CyDMA.c **** * Side effect:
 115:Generated_Source\PSoC4/CyDMA.c **** *  The series of function calls CyDmaGetActiveSrcAddress(),
 116:Generated_Source\PSoC4/CyDMA.c **** *  CyDmaGetActiveDstAddress(), CyDmaGetStatus() are not atomic, the DMA
 117:Generated_Source\PSoC4/CyDMA.c **** *  engine may have advanced after one or more of these function calls. Meaning
 118:Generated_Source\PSoC4/CyDMA.c **** *  the returns from these three functions may not be related to each other.
 119:Generated_Source\PSoC4/CyDMA.c **** *
 120:Generated_Source\PSoC4/CyDMA.c **** *******************************************************************************/
 121:Generated_Source\PSoC4/CyDMA.c **** uint32 CyDmaGetStatus(void)
 122:Generated_Source\PSoC4/CyDMA.c **** {
 123:Generated_Source\PSoC4/CyDMA.c ****     return (CYDMA_STATUS_REG);
 124:Generated_Source\PSoC4/CyDMA.c **** }
 125:Generated_Source\PSoC4/CyDMA.c **** 
 126:Generated_Source\PSoC4/CyDMA.c **** 
 127:Generated_Source\PSoC4/CyDMA.c **** /*******************************************************************************
 128:Generated_Source\PSoC4/CyDMA.c **** * Function Name: CyDmaGetActiveChannels
 129:Generated_Source\PSoC4/CyDMA.c **** ********************************************************************************
 130:Generated_Source\PSoC4/CyDMA.c **** *
 131:Generated_Source\PSoC4/CyDMA.c **** * Summary:
 132:Generated_Source\PSoC4/CyDMA.c **** *  Returns a bit field of all the DMA channels that are either active or
 133:Generated_Source\PSoC4/CyDMA.c **** *  pending.
 134:Generated_Source\PSoC4/CyDMA.c **** *
 135:Generated_Source\PSoC4/CyDMA.c **** * Parameters:
 136:Generated_Source\PSoC4/CyDMA.c **** *  None.
 137:Generated_Source\PSoC4/CyDMA.c **** *                   
 138:Generated_Source\PSoC4/CyDMA.c **** * Return:
 139:Generated_Source\PSoC4/CyDMA.c **** *  Bit field of active and pending channels. 
 140:Generated_Source\PSoC4/CyDMA.c **** *
 141:Generated_Source\PSoC4/CyDMA.c **** *******************************************************************************/
 142:Generated_Source\PSoC4/CyDMA.c **** uint32 CyDmaGetActiveChannels(void)
 143:Generated_Source\PSoC4/CyDMA.c **** {
 144:Generated_Source\PSoC4/CyDMA.c ****     return (CYDMA_STATUS_CH_ACT_REG);
ARM GAS  C:\Users\RYANCA~1\AppData\Local\Temp\ccQoZK0a.s 			page 4


 145:Generated_Source\PSoC4/CyDMA.c **** }
 146:Generated_Source\PSoC4/CyDMA.c **** 
 147:Generated_Source\PSoC4/CyDMA.c **** 
 148:Generated_Source\PSoC4/CyDMA.c **** /*******************************************************************************
 149:Generated_Source\PSoC4/CyDMA.c **** * Function Name: CyDmaGetActiveSrcAddress
 150:Generated_Source\PSoC4/CyDMA.c **** ********************************************************************************
 151:Generated_Source\PSoC4/CyDMA.c **** *
 152:Generated_Source\PSoC4/CyDMA.c **** * Summary:
 153:Generated_Source\PSoC4/CyDMA.c **** *  Returns the source address currently being used by the DMA transfer engine.
 154:Generated_Source\PSoC4/CyDMA.c **** *  This function can be used to debug the DMA, or observe where it is at in a
 155:Generated_Source\PSoC4/CyDMA.c **** *  transfer. It will not be used in normal DMA operation.
 156:Generated_Source\PSoC4/CyDMA.c **** *
 157:Generated_Source\PSoC4/CyDMA.c **** * Parameters:
 158:Generated_Source\PSoC4/CyDMA.c **** *  None.
 159:Generated_Source\PSoC4/CyDMA.c **** *                   
 160:Generated_Source\PSoC4/CyDMA.c **** * Return:
 161:Generated_Source\PSoC4/CyDMA.c **** *  Source address currently being used by the DMA transfer engine.
 162:Generated_Source\PSoC4/CyDMA.c **** *
 163:Generated_Source\PSoC4/CyDMA.c **** * Side effect:
 164:Generated_Source\PSoC4/CyDMA.c **** *  The series of function calls CyDmaGetActiveSrcAddress(),
 165:Generated_Source\PSoC4/CyDMA.c **** *  CyDmaGetActiveDstAddress(), CyDmaGetStatus() are not atomic, the DMA
 166:Generated_Source\PSoC4/CyDMA.c **** *  engine may have advanced after one or more of these function calls. Meaning
 167:Generated_Source\PSoC4/CyDMA.c **** *  the returns from these three functions may not be related to each other.
 168:Generated_Source\PSoC4/CyDMA.c **** *
 169:Generated_Source\PSoC4/CyDMA.c **** *******************************************************************************/
 170:Generated_Source\PSoC4/CyDMA.c **** void * CyDmaGetActiveSrcAddress(void)
 171:Generated_Source\PSoC4/CyDMA.c **** {
 172:Generated_Source\PSoC4/CyDMA.c ****     return ((void *)CYDMA_STATUS_SRC_ADDR_REG);
 173:Generated_Source\PSoC4/CyDMA.c **** }
 174:Generated_Source\PSoC4/CyDMA.c **** 
 175:Generated_Source\PSoC4/CyDMA.c **** 
 176:Generated_Source\PSoC4/CyDMA.c **** /*******************************************************************************
 177:Generated_Source\PSoC4/CyDMA.c **** * Function Name: CyDmaGetActiveDstAddress
 178:Generated_Source\PSoC4/CyDMA.c **** ********************************************************************************
 179:Generated_Source\PSoC4/CyDMA.c **** *
 180:Generated_Source\PSoC4/CyDMA.c **** * Summary:
 181:Generated_Source\PSoC4/CyDMA.c **** *  Returns the destination address currently being used by the DMA transfer
 182:Generated_Source\PSoC4/CyDMA.c **** *  engine. This function can be used to debug the DMA, or observe where it is at
 183:Generated_Source\PSoC4/CyDMA.c **** *  in a transfer. It will not be used in normal DMA operation.
 184:Generated_Source\PSoC4/CyDMA.c **** *
 185:Generated_Source\PSoC4/CyDMA.c **** * Parameters:
 186:Generated_Source\PSoC4/CyDMA.c **** *  None.
 187:Generated_Source\PSoC4/CyDMA.c **** *                   
 188:Generated_Source\PSoC4/CyDMA.c **** * Return:
 189:Generated_Source\PSoC4/CyDMA.c **** *  Destination address currently being used by the DMA transfer engine.
 190:Generated_Source\PSoC4/CyDMA.c **** *
 191:Generated_Source\PSoC4/CyDMA.c **** * Side effect:
 192:Generated_Source\PSoC4/CyDMA.c **** *  The series of function calls CyDmaGetActiveSrcAddress(),
 193:Generated_Source\PSoC4/CyDMA.c **** *  CyDmaGetActiveDstAddress(), CyDmaGetStatus() are not atomic, the DMA
 194:Generated_Source\PSoC4/CyDMA.c **** *  engine may have advanced after one or more of these function calls. Meaning
 195:Generated_Source\PSoC4/CyDMA.c **** *  the returns from these three functions may not be related to each other.
 196:Generated_Source\PSoC4/CyDMA.c **** *
 197:Generated_Source\PSoC4/CyDMA.c **** *******************************************************************************/
 198:Generated_Source\PSoC4/CyDMA.c **** void * CyDmaGetActiveDstAddress(void)
 199:Generated_Source\PSoC4/CyDMA.c **** {
 200:Generated_Source\PSoC4/CyDMA.c ****     return ((void *)CYDMA_STATUS_DST_ADDR_REG);
 201:Generated_Source\PSoC4/CyDMA.c **** }
ARM GAS  C:\Users\RYANCA~1\AppData\Local\Temp\ccQoZK0a.s 			page 5


 202:Generated_Source\PSoC4/CyDMA.c **** 
 203:Generated_Source\PSoC4/CyDMA.c **** 
 204:Generated_Source\PSoC4/CyDMA.c **** /*******************************************************************************
 205:Generated_Source\PSoC4/CyDMA.c **** * Function Name: CyDmaSetInterruptVector
 206:Generated_Source\PSoC4/CyDMA.c **** ********************************************************************************
 207:Generated_Source\PSoC4/CyDMA.c **** *
 208:Generated_Source\PSoC4/CyDMA.c **** * Summary:
 209:Generated_Source\PSoC4/CyDMA.c **** *  Sets the function that will be called by the DMA interrupt. Note, calling
 210:Generated_Source\PSoC4/CyDMA.c **** *  CyDmaEnable() for the first time overrides any effect this API could have.
 211:Generated_Source\PSoC4/CyDMA.c **** *  Call CyDmaSetInterruptVector() after calling CyDmaEnable() to change
 212:Generated_Source\PSoC4/CyDMA.c **** *  the default ISR.
 213:Generated_Source\PSoC4/CyDMA.c **** *
 214:Generated_Source\PSoC4/CyDMA.c **** * Parameters:
 215:Generated_Source\PSoC4/CyDMA.c **** *  interruptVector: Address of the function that will be called by the DMA
 216:Generated_Source\PSoC4/CyDMA.c **** *                   interrupt.
 217:Generated_Source\PSoC4/CyDMA.c **** * Return:
 218:Generated_Source\PSoC4/CyDMA.c **** *  None.
 219:Generated_Source\PSoC4/CyDMA.c **** *
 220:Generated_Source\PSoC4/CyDMA.c **** * Side effect:
 221:Generated_Source\PSoC4/CyDMA.c **** *  Other components that use DMA may register their callback functions to be
 222:Generated_Source\PSoC4/CyDMA.c **** *  called from the default DMA ISR. Therefore, changing the DMA ISR to a user
 223:Generated_Source\PSoC4/CyDMA.c **** *  defined ISR using this API may prevent these other components from
 224:Generated_Source\PSoC4/CyDMA.c **** *  functioning correctly.
 225:Generated_Source\PSoC4/CyDMA.c **** *
 226:Generated_Source\PSoC4/CyDMA.c **** *******************************************************************************/
 227:Generated_Source\PSoC4/CyDMA.c **** void CyDmaSetInterruptVector(cyisraddress interruptVector)
 228:Generated_Source\PSoC4/CyDMA.c **** {
 229:Generated_Source\PSoC4/CyDMA.c ****     (void)CyIntSetVector(CYDMA_INTR_NUMBER, interruptVector);
 230:Generated_Source\PSoC4/CyDMA.c **** }
 231:Generated_Source\PSoC4/CyDMA.c **** 
 232:Generated_Source\PSoC4/CyDMA.c **** 
 233:Generated_Source\PSoC4/CyDMA.c **** /*******************************************************************************
 234:Generated_Source\PSoC4/CyDMA.c **** * Function Name: CyDmaGetInterruptSource
 235:Generated_Source\PSoC4/CyDMA.c **** ********************************************************************************
 236:Generated_Source\PSoC4/CyDMA.c **** *
 237:Generated_Source\PSoC4/CyDMA.c **** * Summary:
 238:Generated_Source\PSoC4/CyDMA.c **** *  Returns the bit field of which channels generated an interrupt request.
 239:Generated_Source\PSoC4/CyDMA.c **** *
 240:Generated_Source\PSoC4/CyDMA.c **** * Parameters:
 241:Generated_Source\PSoC4/CyDMA.c **** *  None.
 242:Generated_Source\PSoC4/CyDMA.c **** *                   
 243:Generated_Source\PSoC4/CyDMA.c **** * Return:
 244:Generated_Source\PSoC4/CyDMA.c **** *  Bit filed of which channels generated an interrupt request.
 245:Generated_Source\PSoC4/CyDMA.c **** *
 246:Generated_Source\PSoC4/CyDMA.c **** *******************************************************************************/
 247:Generated_Source\PSoC4/CyDMA.c **** uint32 CyDmaGetInterruptSource(void)
 248:Generated_Source\PSoC4/CyDMA.c **** {
 249:Generated_Source\PSoC4/CyDMA.c ****     return (CYDMA_INTR_REG);
 250:Generated_Source\PSoC4/CyDMA.c **** }
 251:Generated_Source\PSoC4/CyDMA.c **** 
 252:Generated_Source\PSoC4/CyDMA.c **** 
 253:Generated_Source\PSoC4/CyDMA.c **** /*******************************************************************************
 254:Generated_Source\PSoC4/CyDMA.c **** * Function Name: CyDmaClearInterruptSource
 255:Generated_Source\PSoC4/CyDMA.c **** ********************************************************************************
 256:Generated_Source\PSoC4/CyDMA.c **** *
 257:Generated_Source\PSoC4/CyDMA.c **** * Summary:
 258:Generated_Source\PSoC4/CyDMA.c **** *  Clears the pending interrupts.
ARM GAS  C:\Users\RYANCA~1\AppData\Local\Temp\ccQoZK0a.s 			page 6


 259:Generated_Source\PSoC4/CyDMA.c **** *
 260:Generated_Source\PSoC4/CyDMA.c **** * Parameters:
 261:Generated_Source\PSoC4/CyDMA.c **** *  interruptMask: Bit field of interrupts to clear.
 262:Generated_Source\PSoC4/CyDMA.c **** *                   
 263:Generated_Source\PSoC4/CyDMA.c **** * Return:
 264:Generated_Source\PSoC4/CyDMA.c **** *  None.
 265:Generated_Source\PSoC4/CyDMA.c **** *
 266:Generated_Source\PSoC4/CyDMA.c **** *******************************************************************************/
 267:Generated_Source\PSoC4/CyDMA.c **** void CyDmaClearInterruptSource(uint32 interruptMask)
 268:Generated_Source\PSoC4/CyDMA.c **** {
 269:Generated_Source\PSoC4/CyDMA.c ****     CYDMA_INTR_REG = interruptMask;
 270:Generated_Source\PSoC4/CyDMA.c **** }
 271:Generated_Source\PSoC4/CyDMA.c **** 
 272:Generated_Source\PSoC4/CyDMA.c **** 
 273:Generated_Source\PSoC4/CyDMA.c **** /*******************************************************************************
 274:Generated_Source\PSoC4/CyDMA.c **** * Function Name: CyDmaSetInterruptSourceMask
 275:Generated_Source\PSoC4/CyDMA.c **** ********************************************************************************
 276:Generated_Source\PSoC4/CyDMA.c **** *
 277:Generated_Source\PSoC4/CyDMA.c **** * Summary:
 278:Generated_Source\PSoC4/CyDMA.c **** *  Sets mask for interrupt source.
 279:Generated_Source\PSoC4/CyDMA.c **** *
 280:Generated_Source\PSoC4/CyDMA.c **** * Parameters:
 281:Generated_Source\PSoC4/CyDMA.c **** *  interruptmask: Mask corresponding to interrupt bit field.
 282:Generated_Source\PSoC4/CyDMA.c **** *                   
 283:Generated_Source\PSoC4/CyDMA.c **** * Return:
 284:Generated_Source\PSoC4/CyDMA.c **** *  None.
 285:Generated_Source\PSoC4/CyDMA.c **** *
 286:Generated_Source\PSoC4/CyDMA.c **** *******************************************************************************/
 287:Generated_Source\PSoC4/CyDMA.c **** void CyDmaSetInterruptSourceMask(uint32 interruptMask)
 288:Generated_Source\PSoC4/CyDMA.c **** {
 289:Generated_Source\PSoC4/CyDMA.c ****     CYDMA_INTR_MASK_REG = interruptMask;
 290:Generated_Source\PSoC4/CyDMA.c **** }
 291:Generated_Source\PSoC4/CyDMA.c **** 
 292:Generated_Source\PSoC4/CyDMA.c **** 
 293:Generated_Source\PSoC4/CyDMA.c **** /*******************************************************************************
 294:Generated_Source\PSoC4/CyDMA.c **** * Function Name: CyDmaGetInterruptSourceMask
 295:Generated_Source\PSoC4/CyDMA.c **** ********************************************************************************
 296:Generated_Source\PSoC4/CyDMA.c **** *
 297:Generated_Source\PSoC4/CyDMA.c **** * Summary:
 298:Generated_Source\PSoC4/CyDMA.c **** *  Returns mask for interrupt source.
 299:Generated_Source\PSoC4/CyDMA.c **** *
 300:Generated_Source\PSoC4/CyDMA.c **** * Parameters:
 301:Generated_Source\PSoC4/CyDMA.c **** *  None.
 302:Generated_Source\PSoC4/CyDMA.c **** *                   
 303:Generated_Source\PSoC4/CyDMA.c **** * Return:
 304:Generated_Source\PSoC4/CyDMA.c **** *  Mask corresponding to interrupt bit field.
 305:Generated_Source\PSoC4/CyDMA.c **** *
 306:Generated_Source\PSoC4/CyDMA.c **** *******************************************************************************/
 307:Generated_Source\PSoC4/CyDMA.c **** uint32 CyDmaGetInterruptSourceMask(void)
 308:Generated_Source\PSoC4/CyDMA.c **** {
 309:Generated_Source\PSoC4/CyDMA.c ****     return (CYDMA_INTR_MASK_REG);
 310:Generated_Source\PSoC4/CyDMA.c **** }
 311:Generated_Source\PSoC4/CyDMA.c **** 
 312:Generated_Source\PSoC4/CyDMA.c **** 
 313:Generated_Source\PSoC4/CyDMA.c **** /*******************************************************************************
 314:Generated_Source\PSoC4/CyDMA.c **** * Function Name: CyDmaGetInterruptSourceMasked
 315:Generated_Source\PSoC4/CyDMA.c **** ********************************************************************************
ARM GAS  C:\Users\RYANCA~1\AppData\Local\Temp\ccQoZK0a.s 			page 7


 316:Generated_Source\PSoC4/CyDMA.c **** *
 317:Generated_Source\PSoC4/CyDMA.c **** * Summary:
 318:Generated_Source\PSoC4/CyDMA.c **** *  Returns the bitwise AND of the interrupt source and the interrupt mask.
 319:Generated_Source\PSoC4/CyDMA.c **** *
 320:Generated_Source\PSoC4/CyDMA.c **** * Parameters:
 321:Generated_Source\PSoC4/CyDMA.c **** *  None.
 322:Generated_Source\PSoC4/CyDMA.c **** *                   
 323:Generated_Source\PSoC4/CyDMA.c **** * Return:
 324:Generated_Source\PSoC4/CyDMA.c **** *  Bitwise AND of the interrupt source and the interrupt mask.
 325:Generated_Source\PSoC4/CyDMA.c **** *
 326:Generated_Source\PSoC4/CyDMA.c **** *******************************************************************************/
 327:Generated_Source\PSoC4/CyDMA.c **** uint32 CyDmaGetInterruptSourceMasked(void)
 328:Generated_Source\PSoC4/CyDMA.c **** {
 329:Generated_Source\PSoC4/CyDMA.c ****     return (CYDMA_INTR_MASKED_REG);
 330:Generated_Source\PSoC4/CyDMA.c **** }
 331:Generated_Source\PSoC4/CyDMA.c **** 
 332:Generated_Source\PSoC4/CyDMA.c **** 
 333:Generated_Source\PSoC4/CyDMA.c **** /*******************************************************************************
 334:Generated_Source\PSoC4/CyDMA.c **** * Function Name: CyDmaSetInterruptCallback
 335:Generated_Source\PSoC4/CyDMA.c **** ********************************************************************************
 336:Generated_Source\PSoC4/CyDMA.c **** *
 337:Generated_Source\PSoC4/CyDMA.c **** * Summary:
 338:Generated_Source\PSoC4/CyDMA.c **** *  Sets a user defined callback function to be called by the DMA interrupt. The
 339:Generated_Source\PSoC4/CyDMA.c **** *  function should contain code to process the interrupt request for the 
 340:Generated_Source\PSoC4/CyDMA.c **** *  associated DMA channel.
 341:Generated_Source\PSoC4/CyDMA.c **** *
 342:Generated_Source\PSoC4/CyDMA.c **** * Parameters:
 343:Generated_Source\PSoC4/CyDMA.c **** *  channel:  Channel used by this function.
 344:Generated_Source\PSoC4/CyDMA.c **** *  callback: Pointer to the user defined callback function.
 345:Generated_Source\PSoC4/CyDMA.c **** *
 346:Generated_Source\PSoC4/CyDMA.c **** * Return:
 347:Generated_Source\PSoC4/CyDMA.c **** *  Pointer to the function previously set for the specified channel. 
 348:Generated_Source\PSoC4/CyDMA.c **** *
 349:Generated_Source\PSoC4/CyDMA.c **** *******************************************************************************/
 350:Generated_Source\PSoC4/CyDMA.c **** cydma_callback_t CyDmaSetInterruptCallback(int32 channel, cydma_callback_t callback)
 351:Generated_Source\PSoC4/CyDMA.c **** {
 352:Generated_Source\PSoC4/CyDMA.c ****     cydma_callback_t prevCallback;
 353:Generated_Source\PSoC4/CyDMA.c **** 
 354:Generated_Source\PSoC4/CyDMA.c ****     CYASSERT((channel >= 0) && (channel < CYDMA_CH_NR));
 355:Generated_Source\PSoC4/CyDMA.c **** 
 356:Generated_Source\PSoC4/CyDMA.c ****     prevCallback = CyDmaInterruptCallback[channel];
 357:Generated_Source\PSoC4/CyDMA.c ****     CyDmaInterruptCallback[channel] = callback;
 358:Generated_Source\PSoC4/CyDMA.c ****     return (prevCallback);
 359:Generated_Source\PSoC4/CyDMA.c **** }
 360:Generated_Source\PSoC4/CyDMA.c **** 
 361:Generated_Source\PSoC4/CyDMA.c **** 
 362:Generated_Source\PSoC4/CyDMA.c **** /*******************************************************************************
 363:Generated_Source\PSoC4/CyDMA.c **** * Function Name: CyDmaGetInterruptCallback
 364:Generated_Source\PSoC4/CyDMA.c **** ********************************************************************************
 365:Generated_Source\PSoC4/CyDMA.c **** *
 366:Generated_Source\PSoC4/CyDMA.c **** * Summary:
 367:Generated_Source\PSoC4/CyDMA.c **** *  Returns the pointer to the interrupt callback function for the specified DMA
 368:Generated_Source\PSoC4/CyDMA.c **** *  channel.
 369:Generated_Source\PSoC4/CyDMA.c **** *
 370:Generated_Source\PSoC4/CyDMA.c **** * Parameters:
 371:Generated_Source\PSoC4/CyDMA.c **** *  channel: Channel used by this function.
 372:Generated_Source\PSoC4/CyDMA.c **** *
ARM GAS  C:\Users\RYANCA~1\AppData\Local\Temp\ccQoZK0a.s 			page 8


 373:Generated_Source\PSoC4/CyDMA.c **** * Return:
 374:Generated_Source\PSoC4/CyDMA.c **** *  Callback function pointer for the specified channel.
 375:Generated_Source\PSoC4/CyDMA.c **** *
 376:Generated_Source\PSoC4/CyDMA.c **** *******************************************************************************/
 377:Generated_Source\PSoC4/CyDMA.c **** cydma_callback_t CyDmaGetInterruptCallback(int32 channel)
 378:Generated_Source\PSoC4/CyDMA.c **** {
 379:Generated_Source\PSoC4/CyDMA.c ****     CYASSERT((channel >= 0) && (channel < CYDMA_CH_NR));
 380:Generated_Source\PSoC4/CyDMA.c ****     
 381:Generated_Source\PSoC4/CyDMA.c ****     return (CyDmaInterruptCallback[channel]);
 382:Generated_Source\PSoC4/CyDMA.c **** }
 383:Generated_Source\PSoC4/CyDMA.c **** 
 384:Generated_Source\PSoC4/CyDMA.c **** 
 385:Generated_Source\PSoC4/CyDMA.c **** /*******************************************************************************
 386:Generated_Source\PSoC4/CyDMA.c **** * Function Name: CyDmaInterrupt
 387:Generated_Source\PSoC4/CyDMA.c **** ********************************************************************************
 388:Generated_Source\PSoC4/CyDMA.c **** *
 389:Generated_Source\PSoC4/CyDMA.c **** * Summary:
 390:Generated_Source\PSoC4/CyDMA.c **** *  The default ISR for DMA interrupts. The handler checks which DMA channel has
 391:Generated_Source\PSoC4/CyDMA.c **** *  triggered the interrupt and calls the user defined callback function.
 392:Generated_Source\PSoC4/CyDMA.c **** *  The callback function is set using CyDmaSetInteruptCallback() API.
 393:Generated_Source\PSoC4/CyDMA.c **** *
 394:Generated_Source\PSoC4/CyDMA.c **** * Parameters:
 395:Generated_Source\PSoC4/CyDMA.c **** *  None.
 396:Generated_Source\PSoC4/CyDMA.c **** *
 397:Generated_Source\PSoC4/CyDMA.c **** * Return:
 398:Generated_Source\PSoC4/CyDMA.c **** *  None.
 399:Generated_Source\PSoC4/CyDMA.c **** *
 400:Generated_Source\PSoC4/CyDMA.c **** * Side Effects:
 401:Generated_Source\PSoC4/CyDMA.c **** *  This function clears the pending interrupts.
 402:Generated_Source\PSoC4/CyDMA.c **** *
 403:Generated_Source\PSoC4/CyDMA.c **** *******************************************************************************/
 404:Generated_Source\PSoC4/CyDMA.c **** CY_ISR(CyDmaInterrupt)
 405:Generated_Source\PSoC4/CyDMA.c **** {
  28              		.loc 1 405 0
  29              		.cfi_startproc
  30              		@ args = 0, pretend = 0, frame = 0
  31              		@ frame_needed = 0, uses_anonymous_args = 0
  32              	.LVL0:
  33 0000 70B5     		push	{r4, r5, r6, lr}
  34              		.cfi_def_cfa_offset 16
  35              		.cfi_offset 4, -16
  36              		.cfi_offset 5, -12
  37              		.cfi_offset 6, -8
  38              		.cfi_offset 14, -4
 406:Generated_Source\PSoC4/CyDMA.c ****     uint32 intr;
 407:Generated_Source\PSoC4/CyDMA.c ****     uint32 cbIdx = 0u;
 408:Generated_Source\PSoC4/CyDMA.c **** 
 409:Generated_Source\PSoC4/CyDMA.c ****     /* Get interrupt source. */
 410:Generated_Source\PSoC4/CyDMA.c ****     intr = CYDMA_INTR_MASKED_REG;
 411:Generated_Source\PSoC4/CyDMA.c **** 
 412:Generated_Source\PSoC4/CyDMA.c ****     /* Clear pending interrupts. */
 413:Generated_Source\PSoC4/CyDMA.c ****     CYDMA_INTR_REG = intr;
 414:Generated_Source\PSoC4/CyDMA.c **** 
 415:Generated_Source\PSoC4/CyDMA.c ****     /* Call user defined callback functions for triggered interrupt sources. */
 416:Generated_Source\PSoC4/CyDMA.c ****     while(0u != intr)
  39              		.loc 1 416 0
  40 0002 0025     		movs	r5, #0
ARM GAS  C:\Users\RYANCA~1\AppData\Local\Temp\ccQoZK0a.s 			page 9


 417:Generated_Source\PSoC4/CyDMA.c ****     {
 418:Generated_Source\PSoC4/CyDMA.c ****         if(0u != (intr & 0x1u))
  41              		.loc 1 418 0
  42 0004 0126     		movs	r6, #1
 410:Generated_Source\PSoC4/CyDMA.c **** 
  43              		.loc 1 410 0
  44 0006 074B     		ldr	r3, .L10
  45 0008 1C68     		ldr	r4, [r3]
  46              	.LVL1:
 413:Generated_Source\PSoC4/CyDMA.c **** 
  47              		.loc 1 413 0
  48 000a 074B     		ldr	r3, .L10+4
  49 000c 1C60     		str	r4, [r3]
  50              	.LVL2:
  51              	.L2:
 416:Generated_Source\PSoC4/CyDMA.c ****     {
  52              		.loc 1 416 0
  53 000e 002C     		cmp	r4, #0
  54 0010 07D0     		beq	.L9
  55              		.loc 1 418 0
  56 0012 3442     		tst	r4, r6
  57 0014 02D0     		beq	.L3
 419:Generated_Source\PSoC4/CyDMA.c ****         {
 420:Generated_Source\PSoC4/CyDMA.c ****             CyDmaInterruptCallback[cbIdx]();
  58              		.loc 1 420 0
  59 0016 054B     		ldr	r3, .L10+8
  60 0018 EB58     		ldr	r3, [r5, r3]
  61 001a 9847     		blx	r3
  62              	.LVL3:
  63              	.L3:
 421:Generated_Source\PSoC4/CyDMA.c ****         }
 422:Generated_Source\PSoC4/CyDMA.c ****         intr >>= 1;
  64              		.loc 1 422 0
  65 001c 6408     		lsrs	r4, r4, #1
  66              	.LVL4:
  67 001e 0435     		adds	r5, r5, #4
  68 0020 F5E7     		b	.L2
  69              	.L9:
 423:Generated_Source\PSoC4/CyDMA.c ****         ++cbIdx;
 424:Generated_Source\PSoC4/CyDMA.c ****     }
 425:Generated_Source\PSoC4/CyDMA.c **** }
  70              		.loc 1 425 0
  71              		@ sp needed
  72              	.LVL5:
  73 0022 70BD     		pop	{r4, r5, r6, pc}
  74              	.L11:
  75              		.align	2
  76              	.L10:
  77 0024 FC171040 		.word	1074796540
  78 0028 F0171040 		.word	1074796528
  79 002c 00000000 		.word	.LANCHOR0
  80              		.cfi_endproc
  81              	.LFE15:
  82              		.size	CyDmaInterrupt, .-CyDmaInterrupt
  83              		.section	.text.CyDmaDefaultInterruptCallback,"ax",%progbits
  84              		.align	1
  85              		.code	16
ARM GAS  C:\Users\RYANCA~1\AppData\Local\Temp\ccQoZK0a.s 			page 10


  86              		.thumb_func
  87              		.type	CyDmaDefaultInterruptCallback, %function
  88              	CyDmaDefaultInterruptCallback:
  89              	.LFB16:
 426:Generated_Source\PSoC4/CyDMA.c **** 
 427:Generated_Source\PSoC4/CyDMA.c **** 
 428:Generated_Source\PSoC4/CyDMA.c **** /*******************************************************************************
 429:Generated_Source\PSoC4/CyDMA.c **** * Function Name: CyDmaDefaultInterruptCallback
 430:Generated_Source\PSoC4/CyDMA.c **** ********************************************************************************
 431:Generated_Source\PSoC4/CyDMA.c **** *
 432:Generated_Source\PSoC4/CyDMA.c **** * Summary:
 433:Generated_Source\PSoC4/CyDMA.c **** *  This function is invoked when the user defined callback function is undefined
 434:Generated_Source\PSoC4/CyDMA.c **** *  for the interrupt source.
 435:Generated_Source\PSoC4/CyDMA.c **** *
 436:Generated_Source\PSoC4/CyDMA.c **** * Parameters:
 437:Generated_Source\PSoC4/CyDMA.c **** *  None.
 438:Generated_Source\PSoC4/CyDMA.c **** *
 439:Generated_Source\PSoC4/CyDMA.c **** * Return:
 440:Generated_Source\PSoC4/CyDMA.c **** *  None.
 441:Generated_Source\PSoC4/CyDMA.c **** *
 442:Generated_Source\PSoC4/CyDMA.c **** *******************************************************************************/
 443:Generated_Source\PSoC4/CyDMA.c **** static void CyDmaDefaultInterruptCallback(void)
 444:Generated_Source\PSoC4/CyDMA.c **** {
  90              		.loc 1 444 0
  91              		.cfi_startproc
  92              		@ args = 0, pretend = 0, frame = 0
  93              		@ frame_needed = 0, uses_anonymous_args = 0
  94 0000 10B5     		push	{r4, lr}
  95              		.cfi_def_cfa_offset 8
  96              		.cfi_offset 4, -8
  97              		.cfi_offset 14, -4
 445:Generated_Source\PSoC4/CyDMA.c ****     /* Halt CPU in debug mode. We get here because there is no user defined
 446:Generated_Source\PSoC4/CyDMA.c ****     * callback function for the interrupt source. You should either set a
 447:Generated_Source\PSoC4/CyDMA.c ****     * callback function or disable generating an interrupt from this
 448:Generated_Source\PSoC4/CyDMA.c ****     * interrupt source.
 449:Generated_Source\PSoC4/CyDMA.c ****     * To set a callback, use the CyDmaSetInterruptCallback() API function.
 450:Generated_Source\PSoC4/CyDMA.c ****     * To disable interrupt generation, write '0' to the corresponding bit
 451:Generated_Source\PSoC4/CyDMA.c ****     * in the interrupt mask by calling CyDmaSetInterruptSourceMask().
 452:Generated_Source\PSoC4/CyDMA.c ****     */
 453:Generated_Source\PSoC4/CyDMA.c ****     CYASSERT(0 != 0);
  98              		.loc 1 453 0
  99 0002 0020     		movs	r0, #0
 100 0004 FFF7FEFF 		bl	CyHalt
 101              	.LVL6:
 454:Generated_Source\PSoC4/CyDMA.c **** }
 102              		.loc 1 454 0
 103              		@ sp needed
 104 0008 10BD     		pop	{r4, pc}
 105              		.cfi_endproc
 106              	.LFE16:
 107              		.size	CyDmaDefaultInterruptCallback, .-CyDmaDefaultInterruptCallback
 108              		.section	.text.CyDmaDisable,"ax",%progbits
 109              		.align	1
 110              		.global	CyDmaDisable
 111              		.code	16
 112              		.thumb_func
 113              		.type	CyDmaDisable, %function
ARM GAS  C:\Users\RYANCA~1\AppData\Local\Temp\ccQoZK0a.s 			page 11


 114              	CyDmaDisable:
 115              	.LFB2:
  94:Generated_Source\PSoC4/CyDMA.c ****     CYDMA_CTL_REG = (uint32)~CYDMA_ENABLED;
 116              		.loc 1 94 0
 117              		.cfi_startproc
 118              		@ args = 0, pretend = 0, frame = 0
 119              		@ frame_needed = 0, uses_anonymous_args = 0
 120              		@ link register save eliminated.
  95:Generated_Source\PSoC4/CyDMA.c **** }
 121              		.loc 1 95 0
 122 0000 014A     		ldr	r2, .L14
 123 0002 024B     		ldr	r3, .L14+4
  96:Generated_Source\PSoC4/CyDMA.c **** 
 124              		.loc 1 96 0
 125              		@ sp needed
  95:Generated_Source\PSoC4/CyDMA.c **** }
 126              		.loc 1 95 0
 127 0004 1A60     		str	r2, [r3]
  96:Generated_Source\PSoC4/CyDMA.c **** 
 128              		.loc 1 96 0
 129 0006 7047     		bx	lr
 130              	.L15:
 131              		.align	2
 132              	.L14:
 133 0008 FFFFFF7F 		.word	2147483647
 134 000c 00101040 		.word	1074794496
 135              		.cfi_endproc
 136              	.LFE2:
 137              		.size	CyDmaDisable, .-CyDmaDisable
 138              		.section	.text.CyDmaGetStatus,"ax",%progbits
 139              		.align	1
 140              		.global	CyDmaGetStatus
 141              		.code	16
 142              		.thumb_func
 143              		.type	CyDmaGetStatus, %function
 144              	CyDmaGetStatus:
 145              	.LFB3:
 122:Generated_Source\PSoC4/CyDMA.c ****     return (CYDMA_STATUS_REG);
 146              		.loc 1 122 0
 147              		.cfi_startproc
 148              		@ args = 0, pretend = 0, frame = 0
 149              		@ frame_needed = 0, uses_anonymous_args = 0
 150              		@ link register save eliminated.
 123:Generated_Source\PSoC4/CyDMA.c **** }
 151              		.loc 1 123 0
 152 0000 014B     		ldr	r3, .L17
 124:Generated_Source\PSoC4/CyDMA.c **** 
 153              		.loc 1 124 0
 154              		@ sp needed
 123:Generated_Source\PSoC4/CyDMA.c **** }
 155              		.loc 1 123 0
 156 0002 1868     		ldr	r0, [r3]
 124:Generated_Source\PSoC4/CyDMA.c **** 
 157              		.loc 1 124 0
 158 0004 7047     		bx	lr
 159              	.L18:
 160 0006 C046     		.align	2
ARM GAS  C:\Users\RYANCA~1\AppData\Local\Temp\ccQoZK0a.s 			page 12


 161              	.L17:
 162 0008 10101040 		.word	1074794512
 163              		.cfi_endproc
 164              	.LFE3:
 165              		.size	CyDmaGetStatus, .-CyDmaGetStatus
 166              		.section	.text.CyDmaGetActiveChannels,"ax",%progbits
 167              		.align	1
 168              		.global	CyDmaGetActiveChannels
 169              		.code	16
 170              		.thumb_func
 171              		.type	CyDmaGetActiveChannels, %function
 172              	CyDmaGetActiveChannels:
 173              	.LFB4:
 143:Generated_Source\PSoC4/CyDMA.c ****     return (CYDMA_STATUS_CH_ACT_REG);
 174              		.loc 1 143 0
 175              		.cfi_startproc
 176              		@ args = 0, pretend = 0, frame = 0
 177              		@ frame_needed = 0, uses_anonymous_args = 0
 178              		@ link register save eliminated.
 144:Generated_Source\PSoC4/CyDMA.c **** }
 179              		.loc 1 144 0
 180 0000 014B     		ldr	r3, .L20
 145:Generated_Source\PSoC4/CyDMA.c **** 
 181              		.loc 1 145 0
 182              		@ sp needed
 144:Generated_Source\PSoC4/CyDMA.c **** }
 183              		.loc 1 144 0
 184 0002 1868     		ldr	r0, [r3]
 145:Generated_Source\PSoC4/CyDMA.c **** 
 185              		.loc 1 145 0
 186 0004 7047     		bx	lr
 187              	.L21:
 188 0006 C046     		.align	2
 189              	.L20:
 190 0008 1C101040 		.word	1074794524
 191              		.cfi_endproc
 192              	.LFE4:
 193              		.size	CyDmaGetActiveChannels, .-CyDmaGetActiveChannels
 194              		.section	.text.CyDmaGetActiveSrcAddress,"ax",%progbits
 195              		.align	1
 196              		.global	CyDmaGetActiveSrcAddress
 197              		.code	16
 198              		.thumb_func
 199              		.type	CyDmaGetActiveSrcAddress, %function
 200              	CyDmaGetActiveSrcAddress:
 201              	.LFB5:
 171:Generated_Source\PSoC4/CyDMA.c ****     return ((void *)CYDMA_STATUS_SRC_ADDR_REG);
 202              		.loc 1 171 0
 203              		.cfi_startproc
 204              		@ args = 0, pretend = 0, frame = 0
 205              		@ frame_needed = 0, uses_anonymous_args = 0
 206              		@ link register save eliminated.
 172:Generated_Source\PSoC4/CyDMA.c **** }
 207              		.loc 1 172 0
 208 0000 014B     		ldr	r3, .L23
 173:Generated_Source\PSoC4/CyDMA.c **** 
 209              		.loc 1 173 0
ARM GAS  C:\Users\RYANCA~1\AppData\Local\Temp\ccQoZK0a.s 			page 13


 210              		@ sp needed
 172:Generated_Source\PSoC4/CyDMA.c **** }
 211              		.loc 1 172 0
 212 0002 1868     		ldr	r0, [r3]
 173:Generated_Source\PSoC4/CyDMA.c **** 
 213              		.loc 1 173 0
 214 0004 7047     		bx	lr
 215              	.L24:
 216 0006 C046     		.align	2
 217              	.L23:
 218 0008 14101040 		.word	1074794516
 219              		.cfi_endproc
 220              	.LFE5:
 221              		.size	CyDmaGetActiveSrcAddress, .-CyDmaGetActiveSrcAddress
 222              		.section	.text.CyDmaGetActiveDstAddress,"ax",%progbits
 223              		.align	1
 224              		.global	CyDmaGetActiveDstAddress
 225              		.code	16
 226              		.thumb_func
 227              		.type	CyDmaGetActiveDstAddress, %function
 228              	CyDmaGetActiveDstAddress:
 229              	.LFB6:
 199:Generated_Source\PSoC4/CyDMA.c ****     return ((void *)CYDMA_STATUS_DST_ADDR_REG);
 230              		.loc 1 199 0
 231              		.cfi_startproc
 232              		@ args = 0, pretend = 0, frame = 0
 233              		@ frame_needed = 0, uses_anonymous_args = 0
 234              		@ link register save eliminated.
 200:Generated_Source\PSoC4/CyDMA.c **** }
 235              		.loc 1 200 0
 236 0000 014B     		ldr	r3, .L26
 201:Generated_Source\PSoC4/CyDMA.c **** 
 237              		.loc 1 201 0
 238              		@ sp needed
 200:Generated_Source\PSoC4/CyDMA.c **** }
 239              		.loc 1 200 0
 240 0002 1868     		ldr	r0, [r3]
 201:Generated_Source\PSoC4/CyDMA.c **** 
 241              		.loc 1 201 0
 242 0004 7047     		bx	lr
 243              	.L27:
 244 0006 C046     		.align	2
 245              	.L26:
 246 0008 18101040 		.word	1074794520
 247              		.cfi_endproc
 248              	.LFE6:
 249              		.size	CyDmaGetActiveDstAddress, .-CyDmaGetActiveDstAddress
 250              		.section	.text.CyDmaSetInterruptVector,"ax",%progbits
 251              		.align	1
 252              		.global	CyDmaSetInterruptVector
 253              		.code	16
 254              		.thumb_func
 255              		.type	CyDmaSetInterruptVector, %function
 256              	CyDmaSetInterruptVector:
 257              	.LFB7:
 228:Generated_Source\PSoC4/CyDMA.c ****     (void)CyIntSetVector(CYDMA_INTR_NUMBER, interruptVector);
 258              		.loc 1 228 0
ARM GAS  C:\Users\RYANCA~1\AppData\Local\Temp\ccQoZK0a.s 			page 14


 259              		.cfi_startproc
 260              		@ args = 0, pretend = 0, frame = 0
 261              		@ frame_needed = 0, uses_anonymous_args = 0
 262              	.LVL7:
 263 0000 10B5     		push	{r4, lr}
 264              		.cfi_def_cfa_offset 8
 265              		.cfi_offset 4, -8
 266              		.cfi_offset 14, -4
 228:Generated_Source\PSoC4/CyDMA.c ****     (void)CyIntSetVector(CYDMA_INTR_NUMBER, interruptVector);
 267              		.loc 1 228 0
 268 0002 0100     		movs	r1, r0
 229:Generated_Source\PSoC4/CyDMA.c **** }
 269              		.loc 1 229 0
 270 0004 0D20     		movs	r0, #13
 271              	.LVL8:
 272 0006 FFF7FEFF 		bl	CyIntSetVector
 273              	.LVL9:
 230:Generated_Source\PSoC4/CyDMA.c **** 
 274              		.loc 1 230 0
 275              		@ sp needed
 276 000a 10BD     		pop	{r4, pc}
 277              		.cfi_endproc
 278              	.LFE7:
 279              		.size	CyDmaSetInterruptVector, .-CyDmaSetInterruptVector
 280              		.section	.text.CyDmaEnable,"ax",%progbits
 281              		.align	1
 282              		.global	CyDmaEnable
 283              		.code	16
 284              		.thumb_func
 285              		.type	CyDmaEnable, %function
 286              	CyDmaEnable:
 287              	.LFB1:
  63:Generated_Source\PSoC4/CyDMA.c ****     static uint8 initIntrVector = 0u;
 288              		.loc 1 63 0
 289              		.cfi_startproc
 290              		@ args = 0, pretend = 0, frame = 0
 291              		@ frame_needed = 0, uses_anonymous_args = 0
 292 0000 10B5     		push	{r4, lr}
 293              		.cfi_def_cfa_offset 8
 294              		.cfi_offset 4, -8
 295              		.cfi_offset 14, -4
  66:Generated_Source\PSoC4/CyDMA.c ****     {
 296              		.loc 1 66 0
 297 0002 094C     		ldr	r4, .L31
 298 0004 2378     		ldrb	r3, [r4]
 299 0006 002B     		cmp	r3, #0
 300 0008 08D1     		bne	.L30
  68:Generated_Source\PSoC4/CyDMA.c ****         CyIntSetPriority(CYDMA_INTR_NUMBER, CYDMA_INTR_PRIO);
 301              		.loc 1 68 0
 302 000a 0848     		ldr	r0, .L31+4
 303 000c FFF7FEFF 		bl	CyDmaSetInterruptVector
 304              	.LVL10:
  69:Generated_Source\PSoC4/CyDMA.c ****         initIntrVector = 1u;
 305              		.loc 1 69 0
 306 0010 0321     		movs	r1, #3
 307 0012 0D20     		movs	r0, #13
 308 0014 FFF7FEFF 		bl	CyIntSetPriority
ARM GAS  C:\Users\RYANCA~1\AppData\Local\Temp\ccQoZK0a.s 			page 15


 309              	.LVL11:
  70:Generated_Source\PSoC4/CyDMA.c ****     }
 310              		.loc 1 70 0
 311 0018 0123     		movs	r3, #1
 312 001a 2370     		strb	r3, [r4]
 313              	.L30:
  72:Generated_Source\PSoC4/CyDMA.c **** }
 314              		.loc 1 72 0
 315 001c 8022     		movs	r2, #128
 316 001e 044B     		ldr	r3, .L31+8
 317 0020 1206     		lsls	r2, r2, #24
 318 0022 1A60     		str	r2, [r3]
  73:Generated_Source\PSoC4/CyDMA.c **** 
 319              		.loc 1 73 0
 320              		@ sp needed
 321 0024 10BD     		pop	{r4, pc}
 322              	.L32:
 323 0026 C046     		.align	2
 324              	.L31:
 325 0028 00000000 		.word	.LANCHOR1
 326 002c 00000000 		.word	CyDmaInterrupt
 327 0030 00101040 		.word	1074794496
 328              		.cfi_endproc
 329              	.LFE1:
 330              		.size	CyDmaEnable, .-CyDmaEnable
 331              		.section	.text.CyDmaGetInterruptSource,"ax",%progbits
 332              		.align	1
 333              		.global	CyDmaGetInterruptSource
 334              		.code	16
 335              		.thumb_func
 336              		.type	CyDmaGetInterruptSource, %function
 337              	CyDmaGetInterruptSource:
 338              	.LFB8:
 248:Generated_Source\PSoC4/CyDMA.c ****     return (CYDMA_INTR_REG);
 339              		.loc 1 248 0
 340              		.cfi_startproc
 341              		@ args = 0, pretend = 0, frame = 0
 342              		@ frame_needed = 0, uses_anonymous_args = 0
 343              		@ link register save eliminated.
 249:Generated_Source\PSoC4/CyDMA.c **** }
 344              		.loc 1 249 0
 345 0000 014B     		ldr	r3, .L34
 250:Generated_Source\PSoC4/CyDMA.c **** 
 346              		.loc 1 250 0
 347              		@ sp needed
 249:Generated_Source\PSoC4/CyDMA.c **** }
 348              		.loc 1 249 0
 349 0002 1868     		ldr	r0, [r3]
 250:Generated_Source\PSoC4/CyDMA.c **** 
 350              		.loc 1 250 0
 351 0004 7047     		bx	lr
 352              	.L35:
 353 0006 C046     		.align	2
 354              	.L34:
 355 0008 F0171040 		.word	1074796528
 356              		.cfi_endproc
 357              	.LFE8:
ARM GAS  C:\Users\RYANCA~1\AppData\Local\Temp\ccQoZK0a.s 			page 16


 358              		.size	CyDmaGetInterruptSource, .-CyDmaGetInterruptSource
 359              		.section	.text.CyDmaClearInterruptSource,"ax",%progbits
 360              		.align	1
 361              		.global	CyDmaClearInterruptSource
 362              		.code	16
 363              		.thumb_func
 364              		.type	CyDmaClearInterruptSource, %function
 365              	CyDmaClearInterruptSource:
 366              	.LFB9:
 268:Generated_Source\PSoC4/CyDMA.c ****     CYDMA_INTR_REG = interruptMask;
 367              		.loc 1 268 0
 368              		.cfi_startproc
 369              		@ args = 0, pretend = 0, frame = 0
 370              		@ frame_needed = 0, uses_anonymous_args = 0
 371              		@ link register save eliminated.
 372              	.LVL12:
 269:Generated_Source\PSoC4/CyDMA.c **** }
 373              		.loc 1 269 0
 374 0000 014B     		ldr	r3, .L37
 270:Generated_Source\PSoC4/CyDMA.c **** 
 375              		.loc 1 270 0
 376              		@ sp needed
 269:Generated_Source\PSoC4/CyDMA.c **** }
 377              		.loc 1 269 0
 378 0002 1860     		str	r0, [r3]
 270:Generated_Source\PSoC4/CyDMA.c **** 
 379              		.loc 1 270 0
 380 0004 7047     		bx	lr
 381              	.L38:
 382 0006 C046     		.align	2
 383              	.L37:
 384 0008 F0171040 		.word	1074796528
 385              		.cfi_endproc
 386              	.LFE9:
 387              		.size	CyDmaClearInterruptSource, .-CyDmaClearInterruptSource
 388              		.section	.text.CyDmaSetInterruptSourceMask,"ax",%progbits
 389              		.align	1
 390              		.global	CyDmaSetInterruptSourceMask
 391              		.code	16
 392              		.thumb_func
 393              		.type	CyDmaSetInterruptSourceMask, %function
 394              	CyDmaSetInterruptSourceMask:
 395              	.LFB10:
 288:Generated_Source\PSoC4/CyDMA.c ****     CYDMA_INTR_MASK_REG = interruptMask;
 396              		.loc 1 288 0
 397              		.cfi_startproc
 398              		@ args = 0, pretend = 0, frame = 0
 399              		@ frame_needed = 0, uses_anonymous_args = 0
 400              		@ link register save eliminated.
 401              	.LVL13:
 289:Generated_Source\PSoC4/CyDMA.c **** }
 402              		.loc 1 289 0
 403 0000 014B     		ldr	r3, .L40
 290:Generated_Source\PSoC4/CyDMA.c **** 
 404              		.loc 1 290 0
 405              		@ sp needed
 289:Generated_Source\PSoC4/CyDMA.c **** }
ARM GAS  C:\Users\RYANCA~1\AppData\Local\Temp\ccQoZK0a.s 			page 17


 406              		.loc 1 289 0
 407 0002 1860     		str	r0, [r3]
 290:Generated_Source\PSoC4/CyDMA.c **** 
 408              		.loc 1 290 0
 409 0004 7047     		bx	lr
 410              	.L41:
 411 0006 C046     		.align	2
 412              	.L40:
 413 0008 F8171040 		.word	1074796536
 414              		.cfi_endproc
 415              	.LFE10:
 416              		.size	CyDmaSetInterruptSourceMask, .-CyDmaSetInterruptSourceMask
 417              		.section	.text.CyDmaGetInterruptSourceMask,"ax",%progbits
 418              		.align	1
 419              		.global	CyDmaGetInterruptSourceMask
 420              		.code	16
 421              		.thumb_func
 422              		.type	CyDmaGetInterruptSourceMask, %function
 423              	CyDmaGetInterruptSourceMask:
 424              	.LFB11:
 308:Generated_Source\PSoC4/CyDMA.c ****     return (CYDMA_INTR_MASK_REG);
 425              		.loc 1 308 0
 426              		.cfi_startproc
 427              		@ args = 0, pretend = 0, frame = 0
 428              		@ frame_needed = 0, uses_anonymous_args = 0
 429              		@ link register save eliminated.
 309:Generated_Source\PSoC4/CyDMA.c **** }
 430              		.loc 1 309 0
 431 0000 014B     		ldr	r3, .L43
 310:Generated_Source\PSoC4/CyDMA.c **** 
 432              		.loc 1 310 0
 433              		@ sp needed
 309:Generated_Source\PSoC4/CyDMA.c **** }
 434              		.loc 1 309 0
 435 0002 1868     		ldr	r0, [r3]
 310:Generated_Source\PSoC4/CyDMA.c **** 
 436              		.loc 1 310 0
 437 0004 7047     		bx	lr
 438              	.L44:
 439 0006 C046     		.align	2
 440              	.L43:
 441 0008 F8171040 		.word	1074796536
 442              		.cfi_endproc
 443              	.LFE11:
 444              		.size	CyDmaGetInterruptSourceMask, .-CyDmaGetInterruptSourceMask
 445              		.section	.text.CyDmaGetInterruptSourceMasked,"ax",%progbits
 446              		.align	1
 447              		.global	CyDmaGetInterruptSourceMasked
 448              		.code	16
 449              		.thumb_func
 450              		.type	CyDmaGetInterruptSourceMasked, %function
 451              	CyDmaGetInterruptSourceMasked:
 452              	.LFB12:
 328:Generated_Source\PSoC4/CyDMA.c ****     return (CYDMA_INTR_MASKED_REG);
 453              		.loc 1 328 0
 454              		.cfi_startproc
 455              		@ args = 0, pretend = 0, frame = 0
ARM GAS  C:\Users\RYANCA~1\AppData\Local\Temp\ccQoZK0a.s 			page 18


 456              		@ frame_needed = 0, uses_anonymous_args = 0
 457              		@ link register save eliminated.
 329:Generated_Source\PSoC4/CyDMA.c **** }
 458              		.loc 1 329 0
 459 0000 014B     		ldr	r3, .L46
 330:Generated_Source\PSoC4/CyDMA.c **** 
 460              		.loc 1 330 0
 461              		@ sp needed
 329:Generated_Source\PSoC4/CyDMA.c **** }
 462              		.loc 1 329 0
 463 0002 1868     		ldr	r0, [r3]
 330:Generated_Source\PSoC4/CyDMA.c **** 
 464              		.loc 1 330 0
 465 0004 7047     		bx	lr
 466              	.L47:
 467 0006 C046     		.align	2
 468              	.L46:
 469 0008 FC171040 		.word	1074796540
 470              		.cfi_endproc
 471              	.LFE12:
 472              		.size	CyDmaGetInterruptSourceMasked, .-CyDmaGetInterruptSourceMasked
 473              		.section	.text.CyDmaSetInterruptCallback,"ax",%progbits
 474              		.align	1
 475              		.global	CyDmaSetInterruptCallback
 476              		.code	16
 477              		.thumb_func
 478              		.type	CyDmaSetInterruptCallback, %function
 479              	CyDmaSetInterruptCallback:
 480              	.LFB13:
 351:Generated_Source\PSoC4/CyDMA.c ****     cydma_callback_t prevCallback;
 481              		.loc 1 351 0
 482              		.cfi_startproc
 483              		@ args = 0, pretend = 0, frame = 0
 484              		@ frame_needed = 0, uses_anonymous_args = 0
 485              	.LVL14:
 486 0000 70B5     		push	{r4, r5, r6, lr}
 487              		.cfi_def_cfa_offset 16
 488              		.cfi_offset 4, -16
 489              		.cfi_offset 5, -12
 490              		.cfi_offset 6, -8
 491              		.cfi_offset 14, -4
 351:Generated_Source\PSoC4/CyDMA.c ****     cydma_callback_t prevCallback;
 492              		.loc 1 351 0
 493 0002 0400     		movs	r4, r0
 494 0004 0D00     		movs	r5, r1
 354:Generated_Source\PSoC4/CyDMA.c **** 
 495              		.loc 1 354 0
 496 0006 0728     		cmp	r0, #7
 497 0008 02D9     		bls	.L49
 354:Generated_Source\PSoC4/CyDMA.c **** 
 498              		.loc 1 354 0 is_stmt 0 discriminator 1
 499 000a 0020     		movs	r0, #0
 500              	.LVL15:
 501 000c FFF7FEFF 		bl	CyHalt
 502              	.LVL16:
 503              	.L49:
 356:Generated_Source\PSoC4/CyDMA.c ****     CyDmaInterruptCallback[channel] = callback;
ARM GAS  C:\Users\RYANCA~1\AppData\Local\Temp\ccQoZK0a.s 			page 19


 504              		.loc 1 356 0 is_stmt 1
 505 0010 024B     		ldr	r3, .L50
 506 0012 A400     		lsls	r4, r4, #2
 507              	.LVL17:
 508 0014 E058     		ldr	r0, [r4, r3]
 509              	.LVL18:
 359:Generated_Source\PSoC4/CyDMA.c **** 
 510              		.loc 1 359 0
 511              		@ sp needed
 357:Generated_Source\PSoC4/CyDMA.c ****     return (prevCallback);
 512              		.loc 1 357 0
 513 0016 E550     		str	r5, [r4, r3]
 514              	.LVL19:
 359:Generated_Source\PSoC4/CyDMA.c **** 
 515              		.loc 1 359 0
 516 0018 70BD     		pop	{r4, r5, r6, pc}
 517              	.L51:
 518 001a C046     		.align	2
 519              	.L50:
 520 001c 00000000 		.word	.LANCHOR0
 521              		.cfi_endproc
 522              	.LFE13:
 523              		.size	CyDmaSetInterruptCallback, .-CyDmaSetInterruptCallback
 524              		.section	.text.CyDmaGetInterruptCallback,"ax",%progbits
 525              		.align	1
 526              		.global	CyDmaGetInterruptCallback
 527              		.code	16
 528              		.thumb_func
 529              		.type	CyDmaGetInterruptCallback, %function
 530              	CyDmaGetInterruptCallback:
 531              	.LFB14:
 378:Generated_Source\PSoC4/CyDMA.c ****     CYASSERT((channel >= 0) && (channel < CYDMA_CH_NR));
 532              		.loc 1 378 0
 533              		.cfi_startproc
 534              		@ args = 0, pretend = 0, frame = 0
 535              		@ frame_needed = 0, uses_anonymous_args = 0
 536              	.LVL20:
 537 0000 10B5     		push	{r4, lr}
 538              		.cfi_def_cfa_offset 8
 539              		.cfi_offset 4, -8
 540              		.cfi_offset 14, -4
 378:Generated_Source\PSoC4/CyDMA.c ****     CYASSERT((channel >= 0) && (channel < CYDMA_CH_NR));
 541              		.loc 1 378 0
 542 0002 0400     		movs	r4, r0
 379:Generated_Source\PSoC4/CyDMA.c ****     
 543              		.loc 1 379 0
 544 0004 0728     		cmp	r0, #7
 545 0006 02D9     		bls	.L53
 379:Generated_Source\PSoC4/CyDMA.c ****     
 546              		.loc 1 379 0 is_stmt 0 discriminator 1
 547 0008 0020     		movs	r0, #0
 548              	.LVL21:
 549 000a FFF7FEFF 		bl	CyHalt
 550              	.LVL22:
 551              	.L53:
 381:Generated_Source\PSoC4/CyDMA.c **** }
 552              		.loc 1 381 0 is_stmt 1
ARM GAS  C:\Users\RYANCA~1\AppData\Local\Temp\ccQoZK0a.s 			page 20


 553 000e 024B     		ldr	r3, .L54
 554 0010 A400     		lsls	r4, r4, #2
 555              	.LVL23:
 556 0012 E058     		ldr	r0, [r4, r3]
 382:Generated_Source\PSoC4/CyDMA.c **** 
 557              		.loc 1 382 0
 558              		@ sp needed
 559 0014 10BD     		pop	{r4, pc}
 560              	.L55:
 561 0016 C046     		.align	2
 562              	.L54:
 563 0018 00000000 		.word	.LANCHOR0
 564              		.cfi_endproc
 565              	.LFE14:
 566              		.size	CyDmaGetInterruptCallback, .-CyDmaGetInterruptCallback
 567              		.section	.text.CyDmaChAlloc,"ax",%progbits
 568              		.align	1
 569              		.global	CyDmaChAlloc
 570              		.code	16
 571              		.thumb_func
 572              		.type	CyDmaChAlloc, %function
 573              	CyDmaChAlloc:
 574              	.LFB17:
 455:Generated_Source\PSoC4/CyDMA.c **** 
 456:Generated_Source\PSoC4/CyDMA.c **** 
 457:Generated_Source\PSoC4/CyDMA.c **** /*******************************************************************************
 458:Generated_Source\PSoC4/CyDMA.c **** * Function Name: CyDmaChAlloc
 459:Generated_Source\PSoC4/CyDMA.c **** ********************************************************************************
 460:Generated_Source\PSoC4/CyDMA.c **** *
 461:Generated_Source\PSoC4/CyDMA.c **** * Summary:
 462:Generated_Source\PSoC4/CyDMA.c **** *  Allocates a channel number to use with later DMA functions.
 463:Generated_Source\PSoC4/CyDMA.c **** *
 464:Generated_Source\PSoC4/CyDMA.c **** * Parameters:
 465:Generated_Source\PSoC4/CyDMA.c **** *  None.
 466:Generated_Source\PSoC4/CyDMA.c **** *                   
 467:Generated_Source\PSoC4/CyDMA.c **** * Return:
 468:Generated_Source\PSoC4/CyDMA.c **** *  The allocated channel number. Zero is a valid channel number.
 469:Generated_Source\PSoC4/CyDMA.c **** *  CYDMA_INVALID_CHANNEL is returned if there are no channels available.
 470:Generated_Source\PSoC4/CyDMA.c **** *
 471:Generated_Source\PSoC4/CyDMA.c **** *******************************************************************************/
 472:Generated_Source\PSoC4/CyDMA.c **** int32 CyDmaChAlloc(void)
 473:Generated_Source\PSoC4/CyDMA.c **** {
 575              		.loc 1 473 0
 576              		.cfi_startproc
 577              		@ args = 0, pretend = 0, frame = 0
 578              		@ frame_needed = 0, uses_anonymous_args = 0
 579              		@ link register save eliminated.
 580              	.LVL24:
 474:Generated_Source\PSoC4/CyDMA.c ****     int32  channel = CYDMA_CH_NR-1;
 475:Generated_Source\PSoC4/CyDMA.c ****     uint32 channelMask = (uint32)(1UL << (CYDMA_CH_NR-1));
 581              		.loc 1 475 0
 582 0000 8023     		movs	r3, #128
 474:Generated_Source\PSoC4/CyDMA.c ****     int32  channel = CYDMA_CH_NR-1;
 583              		.loc 1 474 0
 584 0002 0720     		movs	r0, #7
 476:Generated_Source\PSoC4/CyDMA.c ****     
 477:Generated_Source\PSoC4/CyDMA.c ****     while (channel >= 0)
ARM GAS  C:\Users\RYANCA~1\AppData\Local\Temp\ccQoZK0a.s 			page 21


 478:Generated_Source\PSoC4/CyDMA.c ****     {
 479:Generated_Source\PSoC4/CyDMA.c ****         if(0u == (CyDmaChannelUsedMask & channelMask))
 585              		.loc 1 479 0
 586 0004 054A     		ldr	r2, .L61
 587 0006 5168     		ldr	r1, [r2, #4]
 588              	.LVL25:
 589              	.L59:
 590 0008 0B42     		tst	r3, r1
 591 000a 02D1     		bne	.L57
 480:Generated_Source\PSoC4/CyDMA.c ****         {
 481:Generated_Source\PSoC4/CyDMA.c ****             /* Mark channel as used and exit loop. */ 
 482:Generated_Source\PSoC4/CyDMA.c ****             CyDmaChannelUsedMask |= channelMask;
 592              		.loc 1 482 0
 593 000c 0B43     		orrs	r3, r1
 594              	.LVL26:
 595 000e 5360     		str	r3, [r2, #4]
 483:Generated_Source\PSoC4/CyDMA.c ****             break;
 596              		.loc 1 483 0
 597 0010 02E0     		b	.L58
 598              	.LVL27:
 599              	.L57:
 484:Generated_Source\PSoC4/CyDMA.c ****         }
 485:Generated_Source\PSoC4/CyDMA.c ****         channelMask >>= 1;
 600              		.loc 1 485 0
 601 0012 5B08     		lsrs	r3, r3, #1
 602              	.LVL28:
 477:Generated_Source\PSoC4/CyDMA.c ****     {
 603              		.loc 1 477 0
 604 0014 0138     		subs	r0, r0, #1
 605 0016 F7D2     		bcs	.L59
 606              	.LVL29:
 607              	.L58:
 486:Generated_Source\PSoC4/CyDMA.c ****         --channel;
 487:Generated_Source\PSoC4/CyDMA.c ****     }
 488:Generated_Source\PSoC4/CyDMA.c ****     return (channel);
 489:Generated_Source\PSoC4/CyDMA.c **** }
 608              		.loc 1 489 0
 609              		@ sp needed
 610 0018 7047     		bx	lr
 611              	.L62:
 612 001a C046     		.align	2
 613              	.L61:
 614 001c 00000000 		.word	.LANCHOR1
 615              		.cfi_endproc
 616              	.LFE17:
 617              		.size	CyDmaChAlloc, .-CyDmaChAlloc
 618              		.section	.text.CyDmaChFree,"ax",%progbits
 619              		.align	1
 620              		.global	CyDmaChFree
 621              		.code	16
 622              		.thumb_func
 623              		.type	CyDmaChFree, %function
 624              	CyDmaChFree:
 625              	.LFB18:
 490:Generated_Source\PSoC4/CyDMA.c **** 
 491:Generated_Source\PSoC4/CyDMA.c **** 
 492:Generated_Source\PSoC4/CyDMA.c **** /*******************************************************************************
ARM GAS  C:\Users\RYANCA~1\AppData\Local\Temp\ccQoZK0a.s 			page 22


 493:Generated_Source\PSoC4/CyDMA.c **** * Function Name: CyDmaChFree
 494:Generated_Source\PSoC4/CyDMA.c **** ********************************************************************************
 495:Generated_Source\PSoC4/CyDMA.c **** *
 496:Generated_Source\PSoC4/CyDMA.c **** * Summary:
 497:Generated_Source\PSoC4/CyDMA.c **** *  Frees a channel handle allocated by CyDmaChAlloc(). Channels allocated for
 498:Generated_Source\PSoC4/CyDMA.c **** *  DMA instances placed on a schematic cannot be freed.
 499:Generated_Source\PSoC4/CyDMA.c **** *
 500:Generated_Source\PSoC4/CyDMA.c **** * Parameters:
 501:Generated_Source\PSoC4/CyDMA.c **** *  channel: The handle previously returned by CyDmaChAlloc().
 502:Generated_Source\PSoC4/CyDMA.c **** *                   
 503:Generated_Source\PSoC4/CyDMA.c **** * Return:
 504:Generated_Source\PSoC4/CyDMA.c **** *  CYRET_SUCCESS if successful.
 505:Generated_Source\PSoC4/CyDMA.c **** *  CYRET_BAD_PARAM if channel is invalid.
 506:Generated_Source\PSoC4/CyDMA.c **** *
 507:Generated_Source\PSoC4/CyDMA.c **** *******************************************************************************/
 508:Generated_Source\PSoC4/CyDMA.c **** cystatus CyDmaChFree(int32 channel)
 509:Generated_Source\PSoC4/CyDMA.c **** {
 626              		.loc 1 509 0
 627              		.cfi_startproc
 628              		@ args = 0, pretend = 0, frame = 0
 629              		@ frame_needed = 0, uses_anonymous_args = 0
 630              	.LVL30:
 631 0000 10B5     		push	{r4, lr}
 632              		.cfi_def_cfa_offset 8
 633              		.cfi_offset 4, -8
 634              		.cfi_offset 14, -4
 635              		.loc 1 509 0
 636 0002 0400     		movs	r4, r0
 510:Generated_Source\PSoC4/CyDMA.c ****     uint32   channelMask;
 511:Generated_Source\PSoC4/CyDMA.c ****     cystatus result = CYRET_BAD_PARAM;
 512:Generated_Source\PSoC4/CyDMA.c **** 
 513:Generated_Source\PSoC4/CyDMA.c ****     CYASSERT((channel >= 0) && (channel < CYDMA_CH_NR));
 637              		.loc 1 513 0
 638 0004 0728     		cmp	r0, #7
 639 0006 02D9     		bls	.L64
 640              		.loc 1 513 0 is_stmt 0 discriminator 1
 641 0008 0020     		movs	r0, #0
 642              	.LVL31:
 643 000a FFF7FEFF 		bl	CyHalt
 644              	.LVL32:
 645              	.L64:
 514:Generated_Source\PSoC4/CyDMA.c ****     
 515:Generated_Source\PSoC4/CyDMA.c ****     channelMask = (uint32)(1UL << channel);
 516:Generated_Source\PSoC4/CyDMA.c **** 
 517:Generated_Source\PSoC4/CyDMA.c ****     /* Check against attempt to free channel allocated for DMA instance
 518:Generated_Source\PSoC4/CyDMA.c ****     * placed on schematic.
 519:Generated_Source\PSoC4/CyDMA.c ****     */
 520:Generated_Source\PSoC4/CyDMA.c ****     if(0u == (channelMask & DMA_CHANNELS_USED__MASK))
 521:Generated_Source\PSoC4/CyDMA.c ****     {
 522:Generated_Source\PSoC4/CyDMA.c ****         CyDmaChannelUsedMask &= (uint32)~channelMask;
 646              		.loc 1 522 0 is_stmt 1
 647 000e 0123     		movs	r3, #1
 648 0010 A340     		lsls	r3, r3, r4
 649              	.LVL33:
 650 0012 034A     		ldr	r2, .L65
 523:Generated_Source\PSoC4/CyDMA.c ****         result = CYRET_SUCCESS;
 524:Generated_Source\PSoC4/CyDMA.c ****     }
ARM GAS  C:\Users\RYANCA~1\AppData\Local\Temp\ccQoZK0a.s 			page 23


 525:Generated_Source\PSoC4/CyDMA.c ****     
 526:Generated_Source\PSoC4/CyDMA.c ****     return (result);
 527:Generated_Source\PSoC4/CyDMA.c **** }
 651              		.loc 1 527 0
 652 0014 0020     		movs	r0, #0
 522:Generated_Source\PSoC4/CyDMA.c ****         result = CYRET_SUCCESS;
 653              		.loc 1 522 0
 654 0016 5168     		ldr	r1, [r2, #4]
 655              		.loc 1 527 0
 656              		@ sp needed
 522:Generated_Source\PSoC4/CyDMA.c ****         result = CYRET_SUCCESS;
 657              		.loc 1 522 0
 658 0018 9943     		bics	r1, r3
 659 001a 5160     		str	r1, [r2, #4]
 660              	.LVL34:
 661              	.LVL35:
 662              		.loc 1 527 0
 663 001c 10BD     		pop	{r4, pc}
 664              	.L66:
 665 001e C046     		.align	2
 666              	.L65:
 667 0020 00000000 		.word	.LANCHOR1
 668              		.cfi_endproc
 669              	.LFE18:
 670              		.size	CyDmaChFree, .-CyDmaChFree
 671              		.section	.text.CyDmaChEnable,"ax",%progbits
 672              		.align	1
 673              		.global	CyDmaChEnable
 674              		.code	16
 675              		.thumb_func
 676              		.type	CyDmaChEnable, %function
 677              	CyDmaChEnable:
 678              	.LFB19:
 528:Generated_Source\PSoC4/CyDMA.c **** 
 529:Generated_Source\PSoC4/CyDMA.c **** 
 530:Generated_Source\PSoC4/CyDMA.c **** /*******************************************************************************
 531:Generated_Source\PSoC4/CyDMA.c **** * Function Name: CyDmaChEnable
 532:Generated_Source\PSoC4/CyDMA.c **** ********************************************************************************
 533:Generated_Source\PSoC4/CyDMA.c **** *
 534:Generated_Source\PSoC4/CyDMA.c **** * Summary:
 535:Generated_Source\PSoC4/CyDMA.c **** *  Enables the DMA channel.
 536:Generated_Source\PSoC4/CyDMA.c **** *
 537:Generated_Source\PSoC4/CyDMA.c **** * Parameters:
 538:Generated_Source\PSoC4/CyDMA.c **** *  channel: Channel used by this function.
 539:Generated_Source\PSoC4/CyDMA.c **** *                   
 540:Generated_Source\PSoC4/CyDMA.c **** * Return:
 541:Generated_Source\PSoC4/CyDMA.c **** *  None.
 542:Generated_Source\PSoC4/CyDMA.c **** *
 543:Generated_Source\PSoC4/CyDMA.c **** * Side effect:
 544:Generated_Source\PSoC4/CyDMA.c **** *  If this function is called before CyDmaSetConfiguration(), and
 545:Generated_Source\PSoC4/CyDMA.c **** *  CyDmaSetSrcAddress() and CyDmaSetDstAddress(), the operation of
 546:Generated_Source\PSoC4/CyDMA.c **** *  the DMA is undefined and could result in system data corruption. 
 547:Generated_Source\PSoC4/CyDMA.c **** *
 548:Generated_Source\PSoC4/CyDMA.c **** *******************************************************************************/
 549:Generated_Source\PSoC4/CyDMA.c **** void CyDmaChEnable(int32 channel)
 550:Generated_Source\PSoC4/CyDMA.c **** {
 679              		.loc 1 550 0
ARM GAS  C:\Users\RYANCA~1\AppData\Local\Temp\ccQoZK0a.s 			page 24


 680              		.cfi_startproc
 681              		@ args = 0, pretend = 0, frame = 0
 682              		@ frame_needed = 0, uses_anonymous_args = 0
 683              	.LVL36:
 684 0000 10B5     		push	{r4, lr}
 685              		.cfi_def_cfa_offset 8
 686              		.cfi_offset 4, -8
 687              		.cfi_offset 14, -4
 688              		.loc 1 550 0
 689 0002 0400     		movs	r4, r0
 551:Generated_Source\PSoC4/CyDMA.c ****     CYASSERT((channel >= 0) && (channel < CYDMA_CH_NR));
 690              		.loc 1 551 0
 691 0004 0728     		cmp	r0, #7
 692 0006 02D9     		bls	.L68
 693              		.loc 1 551 0 is_stmt 0 discriminator 1
 694 0008 0020     		movs	r0, #0
 695              	.LVL37:
 696 000a FFF7FEFF 		bl	CyHalt
 697              	.LVL38:
 698              	.L68:
 552:Generated_Source\PSoC4/CyDMA.c **** 
 553:Generated_Source\PSoC4/CyDMA.c ****     CYDMA_CH_CTL_BASE.ctl[channel] |= CYDMA_ENABLED;
 699              		.loc 1 553 0 is_stmt 1
 700 000e 8022     		movs	r2, #128
 701 0010 034B     		ldr	r3, .L69
 702 0012 A400     		lsls	r4, r4, #2
 703              	.LVL39:
 704 0014 E418     		adds	r4, r4, r3
 705 0016 2368     		ldr	r3, [r4]
 706 0018 1206     		lsls	r2, r2, #24
 707 001a 1343     		orrs	r3, r2
 708 001c 2360     		str	r3, [r4]
 554:Generated_Source\PSoC4/CyDMA.c **** }
 709              		.loc 1 554 0
 710              		@ sp needed
 711 001e 10BD     		pop	{r4, pc}
 712              	.L70:
 713              		.align	2
 714              	.L69:
 715 0020 80101040 		.word	1074794624
 716              		.cfi_endproc
 717              	.LFE19:
 718              		.size	CyDmaChEnable, .-CyDmaChEnable
 719              		.section	.text.CyDmaChDisable,"ax",%progbits
 720              		.align	1
 721              		.global	CyDmaChDisable
 722              		.code	16
 723              		.thumb_func
 724              		.type	CyDmaChDisable, %function
 725              	CyDmaChDisable:
 726              	.LFB20:
 555:Generated_Source\PSoC4/CyDMA.c **** 
 556:Generated_Source\PSoC4/CyDMA.c **** 
 557:Generated_Source\PSoC4/CyDMA.c **** /*******************************************************************************
 558:Generated_Source\PSoC4/CyDMA.c **** * Function Name: CyDmaChDisable
 559:Generated_Source\PSoC4/CyDMA.c **** ********************************************************************************
 560:Generated_Source\PSoC4/CyDMA.c **** *
ARM GAS  C:\Users\RYANCA~1\AppData\Local\Temp\ccQoZK0a.s 			page 25


 561:Generated_Source\PSoC4/CyDMA.c **** * Summary:
 562:Generated_Source\PSoC4/CyDMA.c **** *  Disables the DMA channel.
 563:Generated_Source\PSoC4/CyDMA.c **** *
 564:Generated_Source\PSoC4/CyDMA.c **** * Parameters:
 565:Generated_Source\PSoC4/CyDMA.c **** *  channel: Channel used by this function.
 566:Generated_Source\PSoC4/CyDMA.c **** *                   
 567:Generated_Source\PSoC4/CyDMA.c **** * Return:
 568:Generated_Source\PSoC4/CyDMA.c **** *  None.
 569:Generated_Source\PSoC4/CyDMA.c **** *
 570:Generated_Source\PSoC4/CyDMA.c **** * Side effect:
 571:Generated_Source\PSoC4/CyDMA.c **** *  If this function is called during a DMA transfer the transfer is aborted. 
 572:Generated_Source\PSoC4/CyDMA.c **** *
 573:Generated_Source\PSoC4/CyDMA.c **** *******************************************************************************/
 574:Generated_Source\PSoC4/CyDMA.c **** void CyDmaChDisable(int32 channel)
 575:Generated_Source\PSoC4/CyDMA.c **** {
 727              		.loc 1 575 0
 728              		.cfi_startproc
 729              		@ args = 0, pretend = 0, frame = 0
 730              		@ frame_needed = 0, uses_anonymous_args = 0
 731              	.LVL40:
 732 0000 10B5     		push	{r4, lr}
 733              		.cfi_def_cfa_offset 8
 734              		.cfi_offset 4, -8
 735              		.cfi_offset 14, -4
 736              		.loc 1 575 0
 737 0002 0400     		movs	r4, r0
 576:Generated_Source\PSoC4/CyDMA.c ****     CYASSERT((channel >= 0) && (channel < CYDMA_CH_NR));
 738              		.loc 1 576 0
 739 0004 0728     		cmp	r0, #7
 740 0006 02D9     		bls	.L72
 741              		.loc 1 576 0 is_stmt 0 discriminator 1
 742 0008 0020     		movs	r0, #0
 743              	.LVL41:
 744 000a FFF7FEFF 		bl	CyHalt
 745              	.LVL42:
 746              	.L72:
 747 000e 044B     		ldr	r3, .L73
 748 0010 A400     		lsls	r4, r4, #2
 749              	.LVL43:
 750 0012 E418     		adds	r4, r4, r3
 577:Generated_Source\PSoC4/CyDMA.c **** 
 578:Generated_Source\PSoC4/CyDMA.c ****     CYDMA_CH_CTL_BASE.ctl[channel] &= (uint32)~CYDMA_ENABLED;
 751              		.loc 1 578 0 is_stmt 1
 752 0014 2368     		ldr	r3, [r4]
 579:Generated_Source\PSoC4/CyDMA.c **** }
 753              		.loc 1 579 0
 754              		@ sp needed
 578:Generated_Source\PSoC4/CyDMA.c **** }
 755              		.loc 1 578 0
 756 0016 5B00     		lsls	r3, r3, #1
 757 0018 5B08     		lsrs	r3, r3, #1
 758 001a 2360     		str	r3, [r4]
 759              		.loc 1 579 0
 760 001c 10BD     		pop	{r4, pc}
 761              	.L74:
 762 001e C046     		.align	2
 763              	.L73:
ARM GAS  C:\Users\RYANCA~1\AppData\Local\Temp\ccQoZK0a.s 			page 26


 764 0020 80101040 		.word	1074794624
 765              		.cfi_endproc
 766              	.LFE20:
 767              		.size	CyDmaChDisable, .-CyDmaChDisable
 768              		.section	.text.CyDmaTrigger,"ax",%progbits
 769              		.align	1
 770              		.global	CyDmaTrigger
 771              		.code	16
 772              		.thumb_func
 773              		.type	CyDmaTrigger, %function
 774              	CyDmaTrigger:
 775              	.LFB21:
 580:Generated_Source\PSoC4/CyDMA.c **** 
 581:Generated_Source\PSoC4/CyDMA.c **** 
 582:Generated_Source\PSoC4/CyDMA.c **** /*******************************************************************************
 583:Generated_Source\PSoC4/CyDMA.c **** * Function Name: CyDmaTrigger
 584:Generated_Source\PSoC4/CyDMA.c **** ********************************************************************************
 585:Generated_Source\PSoC4/CyDMA.c **** *
 586:Generated_Source\PSoC4/CyDMA.c **** * Summary:
 587:Generated_Source\PSoC4/CyDMA.c **** *  Triggers the DMA channel, this is useful only for software triggers. This is
 588:Generated_Source\PSoC4/CyDMA.c **** *  not needed when hardware triggers are used.
 589:Generated_Source\PSoC4/CyDMA.c **** *
 590:Generated_Source\PSoC4/CyDMA.c **** * Parameters:
 591:Generated_Source\PSoC4/CyDMA.c **** *  channel: Channel used by this function.
 592:Generated_Source\PSoC4/CyDMA.c **** *                   
 593:Generated_Source\PSoC4/CyDMA.c **** * Return:
 594:Generated_Source\PSoC4/CyDMA.c **** *  None. 
 595:Generated_Source\PSoC4/CyDMA.c **** *
 596:Generated_Source\PSoC4/CyDMA.c **** *******************************************************************************/
 597:Generated_Source\PSoC4/CyDMA.c **** void CyDmaTrigger(int32 channel)
 598:Generated_Source\PSoC4/CyDMA.c **** {
 776              		.loc 1 598 0
 777              		.cfi_startproc
 778              		@ args = 0, pretend = 0, frame = 0
 779              		@ frame_needed = 0, uses_anonymous_args = 0
 780              	.LVL44:
 781 0000 10B5     		push	{r4, lr}
 782              		.cfi_def_cfa_offset 8
 783              		.cfi_offset 4, -8
 784              		.cfi_offset 14, -4
 785              		.loc 1 598 0
 786 0002 0400     		movs	r4, r0
 599:Generated_Source\PSoC4/CyDMA.c ****     /* The LUT is device-dependent, thus it is generated during the build process. */
 600:Generated_Source\PSoC4/CyDMA.c ****     static const uint32 trCtlLut[] = {0xC0020000U};
 601:Generated_Source\PSoC4/CyDMA.c **** 
 602:Generated_Source\PSoC4/CyDMA.c ****     CYASSERT((channel >= 0) && (channel < CYDMA_CH_NR));
 787              		.loc 1 602 0
 788 0004 0728     		cmp	r0, #7
 789 0006 02D9     		bls	.L76
 790              		.loc 1 602 0 is_stmt 0 discriminator 1
 791 0008 0020     		movs	r0, #0
 792              	.LVL45:
 793 000a FFF7FEFF 		bl	CyHalt
 794              	.LVL46:
 795              	.L76:
 603:Generated_Source\PSoC4/CyDMA.c **** 
 604:Generated_Source\PSoC4/CyDMA.c ****     CYDMA_TR_CTL_REG = trCtlLut[(uint32)channel >> CYDMA_TR_GROUP_SHR] | ((uint32)channel & CYDMA_T
ARM GAS  C:\Users\RYANCA~1\AppData\Local\Temp\ccQoZK0a.s 			page 27


 796              		.loc 1 604 0 is_stmt 1
 797 000e 0720     		movs	r0, #7
 798 0010 024B     		ldr	r3, .L77
 799 0012 2040     		ands	r0, r4
 800 0014 1843     		orrs	r0, r3
 801 0016 024B     		ldr	r3, .L77+4
 605:Generated_Source\PSoC4/CyDMA.c **** }
 802              		.loc 1 605 0
 803              		@ sp needed
 604:Generated_Source\PSoC4/CyDMA.c **** }
 804              		.loc 1 604 0
 805 0018 1860     		str	r0, [r3]
 806              	.LVL47:
 807              		.loc 1 605 0
 808 001a 10BD     		pop	{r4, pc}
 809              	.L78:
 810              		.align	2
 811              	.L77:
 812 001c 000002C0 		.word	-1073610752
 813 0020 00060140 		.word	1073808896
 814              		.cfi_endproc
 815              	.LFE21:
 816              		.size	CyDmaTrigger, .-CyDmaTrigger
 817              		.section	.text.CyDmaSetPriority,"ax",%progbits
 818              		.align	1
 819              		.global	CyDmaSetPriority
 820              		.code	16
 821              		.thumb_func
 822              		.type	CyDmaSetPriority, %function
 823              	CyDmaSetPriority:
 824              	.LFB22:
 606:Generated_Source\PSoC4/CyDMA.c **** 
 607:Generated_Source\PSoC4/CyDMA.c **** 
 608:Generated_Source\PSoC4/CyDMA.c **** /*******************************************************************************
 609:Generated_Source\PSoC4/CyDMA.c **** * Function Name: CyDmaSetPriority
 610:Generated_Source\PSoC4/CyDMA.c **** ********************************************************************************
 611:Generated_Source\PSoC4/CyDMA.c **** *
 612:Generated_Source\PSoC4/CyDMA.c **** * Summary:
 613:Generated_Source\PSoC4/CyDMA.c **** *  Sets the priority for the channel.
 614:Generated_Source\PSoC4/CyDMA.c **** *
 615:Generated_Source\PSoC4/CyDMA.c **** * Parameters:
 616:Generated_Source\PSoC4/CyDMA.c **** *  channel:  Channel used by this function
 617:Generated_Source\PSoC4/CyDMA.c **** *  priority: Priority for channel. Priority can be 0,1,2, or 3.
 618:Generated_Source\PSoC4/CyDMA.c **** *            0 is the highest priority.
 619:Generated_Source\PSoC4/CyDMA.c **** *                   
 620:Generated_Source\PSoC4/CyDMA.c **** * Return:
 621:Generated_Source\PSoC4/CyDMA.c **** *  None.
 622:Generated_Source\PSoC4/CyDMA.c **** *
 623:Generated_Source\PSoC4/CyDMA.c **** * Side effect:
 624:Generated_Source\PSoC4/CyDMA.c **** *  This function should not be called while the channel is enabled.
 625:Generated_Source\PSoC4/CyDMA.c **** *
 626:Generated_Source\PSoC4/CyDMA.c **** *******************************************************************************/
 627:Generated_Source\PSoC4/CyDMA.c **** void CyDmaSetPriority(int32 channel, int32 priority)
 628:Generated_Source\PSoC4/CyDMA.c **** {
 825              		.loc 1 628 0
 826              		.cfi_startproc
 827              		@ args = 0, pretend = 0, frame = 0
ARM GAS  C:\Users\RYANCA~1\AppData\Local\Temp\ccQoZK0a.s 			page 28


 828              		@ frame_needed = 0, uses_anonymous_args = 0
 829              	.LVL48:
 830 0000 70B5     		push	{r4, r5, r6, lr}
 831              		.cfi_def_cfa_offset 16
 832              		.cfi_offset 4, -16
 833              		.cfi_offset 5, -12
 834              		.cfi_offset 6, -8
 835              		.cfi_offset 14, -4
 836              		.loc 1 628 0
 837 0002 0400     		movs	r4, r0
 838 0004 0D00     		movs	r5, r1
 629:Generated_Source\PSoC4/CyDMA.c ****     uint32 regValue;
 630:Generated_Source\PSoC4/CyDMA.c **** 
 631:Generated_Source\PSoC4/CyDMA.c ****     CYASSERT((channel  >= 0) && (channel  <  CYDMA_CH_NR));
 839              		.loc 1 631 0
 840 0006 0728     		cmp	r0, #7
 841 0008 02D9     		bls	.L80
 842              		.loc 1 631 0 is_stmt 0 discriminator 1
 843 000a 0020     		movs	r0, #0
 844              	.LVL49:
 845 000c FFF7FEFF 		bl	CyHalt
 846              	.LVL50:
 847              	.L80:
 632:Generated_Source\PSoC4/CyDMA.c ****     CYASSERT((priority >= 0) && (priority <= CY_DMA_MAX_PRIO));
 848              		.loc 1 632 0 is_stmt 1
 849 0010 032D     		cmp	r5, #3
 850 0012 02D9     		bls	.L81
 851              		.loc 1 632 0 is_stmt 0 discriminator 1
 852 0014 0020     		movs	r0, #0
 853 0016 FFF7FEFF 		bl	CyHalt
 854              	.LVL51:
 855              	.L81:
 856 001a 054B     		ldr	r3, .L82
 857 001c A400     		lsls	r4, r4, #2
 858              	.LVL52:
 859 001e E418     		adds	r4, r4, r3
 633:Generated_Source\PSoC4/CyDMA.c **** 
 634:Generated_Source\PSoC4/CyDMA.c ****     regValue = CYDMA_CH_CTL_BASE.ctl[channel] & (uint32)~CYDMA_PRIO;
 860              		.loc 1 634 0 is_stmt 1
 861 0020 2268     		ldr	r2, [r4]
 862              	.LVL53:
 635:Generated_Source\PSoC4/CyDMA.c ****     CYDMA_CH_CTL_BASE.ctl[channel] = regValue | (uint32)((uint32)priority << CYDMA_PRIO_POS);
 863              		.loc 1 635 0
 864 0022 044B     		ldr	r3, .L82+4
 865 0024 2D07     		lsls	r5, r5, #28
 866              	.LVL54:
 867 0026 1340     		ands	r3, r2
 868              	.LVL55:
 869 0028 1D43     		orrs	r5, r3
 870 002a 2560     		str	r5, [r4]
 636:Generated_Source\PSoC4/CyDMA.c **** }
 871              		.loc 1 636 0
 872              		@ sp needed
 873 002c 70BD     		pop	{r4, r5, r6, pc}
 874              	.L83:
 875 002e C046     		.align	2
 876              	.L82:
ARM GAS  C:\Users\RYANCA~1\AppData\Local\Temp\ccQoZK0a.s 			page 29


 877 0030 80101040 		.word	1074794624
 878 0034 FFFFFFCF 		.word	-805306369
 879              		.cfi_endproc
 880              	.LFE22:
 881              		.size	CyDmaSetPriority, .-CyDmaSetPriority
 882              		.section	.text.CyDmaGetPriority,"ax",%progbits
 883              		.align	1
 884              		.global	CyDmaGetPriority
 885              		.code	16
 886              		.thumb_func
 887              		.type	CyDmaGetPriority, %function
 888              	CyDmaGetPriority:
 889              	.LFB23:
 637:Generated_Source\PSoC4/CyDMA.c **** 
 638:Generated_Source\PSoC4/CyDMA.c **** 
 639:Generated_Source\PSoC4/CyDMA.c **** /*******************************************************************************
 640:Generated_Source\PSoC4/CyDMA.c **** * Function Name: CyDmaGetPriority
 641:Generated_Source\PSoC4/CyDMA.c **** ********************************************************************************
 642:Generated_Source\PSoC4/CyDMA.c **** *
 643:Generated_Source\PSoC4/CyDMA.c **** * Summary:
 644:Generated_Source\PSoC4/CyDMA.c **** *  Gets the priority for the channel.
 645:Generated_Source\PSoC4/CyDMA.c **** *
 646:Generated_Source\PSoC4/CyDMA.c **** * Parameters:
 647:Generated_Source\PSoC4/CyDMA.c **** *  channel: Channel used by this function.
 648:Generated_Source\PSoC4/CyDMA.c **** *                   
 649:Generated_Source\PSoC4/CyDMA.c **** * Return:
 650:Generated_Source\PSoC4/CyDMA.c **** *  Priority for channel. Priority can be 0,1,2, or 3. 0 is the highest priority.
 651:Generated_Source\PSoC4/CyDMA.c **** *
 652:Generated_Source\PSoC4/CyDMA.c **** *******************************************************************************/
 653:Generated_Source\PSoC4/CyDMA.c **** int32 CyDmaGetPriority(int32 channel)
 654:Generated_Source\PSoC4/CyDMA.c **** {
 890              		.loc 1 654 0
 891              		.cfi_startproc
 892              		@ args = 0, pretend = 0, frame = 0
 893              		@ frame_needed = 0, uses_anonymous_args = 0
 894              	.LVL56:
 895 0000 10B5     		push	{r4, lr}
 896              		.cfi_def_cfa_offset 8
 897              		.cfi_offset 4, -8
 898              		.cfi_offset 14, -4
 899              		.loc 1 654 0
 900 0002 0400     		movs	r4, r0
 655:Generated_Source\PSoC4/CyDMA.c ****     uint32 priority;
 656:Generated_Source\PSoC4/CyDMA.c **** 
 657:Generated_Source\PSoC4/CyDMA.c ****     CYASSERT((channel >= 0) && (channel < CYDMA_CH_NR));
 901              		.loc 1 657 0
 902 0004 0728     		cmp	r0, #7
 903 0006 02D9     		bls	.L85
 904              		.loc 1 657 0 is_stmt 0 discriminator 1
 905 0008 0020     		movs	r0, #0
 906              	.LVL57:
 907 000a FFF7FEFF 		bl	CyHalt
 908              	.LVL58:
 909              	.L85:
 658:Generated_Source\PSoC4/CyDMA.c **** 
 659:Generated_Source\PSoC4/CyDMA.c ****     priority = (CYDMA_CH_CTL_BASE.ctl[channel] & CYDMA_PRIO) >> CYDMA_PRIO_POS;
 910              		.loc 1 659 0 is_stmt 1
ARM GAS  C:\Users\RYANCA~1\AppData\Local\Temp\ccQoZK0a.s 			page 30


 911 000e 034B     		ldr	r3, .L86
 912 0010 A400     		lsls	r4, r4, #2
 913              	.LVL59:
 914 0012 E058     		ldr	r0, [r4, r3]
 915              	.LVL60:
 660:Generated_Source\PSoC4/CyDMA.c ****     return ((int32)priority);
 661:Generated_Source\PSoC4/CyDMA.c **** }
 916              		.loc 1 661 0
 917              		@ sp needed
 660:Generated_Source\PSoC4/CyDMA.c ****     return ((int32)priority);
 918              		.loc 1 660 0
 919 0014 8000     		lsls	r0, r0, #2
 920              	.LVL61:
 921 0016 800F     		lsrs	r0, r0, #30
 922              		.loc 1 661 0
 923 0018 10BD     		pop	{r4, pc}
 924              	.L87:
 925 001a C046     		.align	2
 926              	.L86:
 927 001c 80101040 		.word	1074794624
 928              		.cfi_endproc
 929              	.LFE23:
 930              		.size	CyDmaGetPriority, .-CyDmaGetPriority
 931              		.section	.text.CyDmaSetNextDescriptor,"ax",%progbits
 932              		.align	1
 933              		.global	CyDmaSetNextDescriptor
 934              		.code	16
 935              		.thumb_func
 936              		.type	CyDmaSetNextDescriptor, %function
 937              	CyDmaSetNextDescriptor:
 938              	.LFB24:
 662:Generated_Source\PSoC4/CyDMA.c **** 
 663:Generated_Source\PSoC4/CyDMA.c **** 
 664:Generated_Source\PSoC4/CyDMA.c **** /*******************************************************************************
 665:Generated_Source\PSoC4/CyDMA.c **** * Function Name: CyDmaSetNextDescriptor
 666:Generated_Source\PSoC4/CyDMA.c **** ********************************************************************************
 667:Generated_Source\PSoC4/CyDMA.c **** *
 668:Generated_Source\PSoC4/CyDMA.c **** * Summary:
 669:Generated_Source\PSoC4/CyDMA.c **** *  Sets the descriptor that should be run the next time the channel is
 670:Generated_Source\PSoC4/CyDMA.c **** *  triggered.
 671:Generated_Source\PSoC4/CyDMA.c **** *
 672:Generated_Source\PSoC4/CyDMA.c **** * Parameters:
 673:Generated_Source\PSoC4/CyDMA.c **** *  channel:    Channel used by this function.
 674:Generated_Source\PSoC4/CyDMA.c **** *  descriptor: Next Descriptor to run (0 or 1).
 675:Generated_Source\PSoC4/CyDMA.c **** *
 676:Generated_Source\PSoC4/CyDMA.c **** * Return:
 677:Generated_Source\PSoC4/CyDMA.c **** *  None.
 678:Generated_Source\PSoC4/CyDMA.c **** *                   
 679:Generated_Source\PSoC4/CyDMA.c **** * Side effect:
 680:Generated_Source\PSoC4/CyDMA.c **** *  This function should not be called while the channel is enabled.
 681:Generated_Source\PSoC4/CyDMA.c **** *
 682:Generated_Source\PSoC4/CyDMA.c **** *******************************************************************************/
 683:Generated_Source\PSoC4/CyDMA.c **** void CyDmaSetNextDescriptor(int32 channel, int32 descriptor)
 684:Generated_Source\PSoC4/CyDMA.c **** {
 939              		.loc 1 684 0
 940              		.cfi_startproc
 941              		@ args = 0, pretend = 0, frame = 0
ARM GAS  C:\Users\RYANCA~1\AppData\Local\Temp\ccQoZK0a.s 			page 31


 942              		@ frame_needed = 0, uses_anonymous_args = 0
 943              	.LVL62:
 944 0000 70B5     		push	{r4, r5, r6, lr}
 945              		.cfi_def_cfa_offset 16
 946              		.cfi_offset 4, -16
 947              		.cfi_offset 5, -12
 948              		.cfi_offset 6, -8
 949              		.cfi_offset 14, -4
 950              		.loc 1 684 0
 951 0002 0400     		movs	r4, r0
 952 0004 0D00     		movs	r5, r1
 685:Generated_Source\PSoC4/CyDMA.c ****     uint32 regValue;
 686:Generated_Source\PSoC4/CyDMA.c **** 
 687:Generated_Source\PSoC4/CyDMA.c ****     CYASSERT((channel    >= 0) && (channel    < CYDMA_CH_NR));
 953              		.loc 1 687 0
 954 0006 0728     		cmp	r0, #7
 955 0008 02D9     		bls	.L89
 956              		.loc 1 687 0 is_stmt 0 discriminator 1
 957 000a 0020     		movs	r0, #0
 958              	.LVL63:
 959 000c FFF7FEFF 		bl	CyHalt
 960              	.LVL64:
 961              	.L89:
 688:Generated_Source\PSoC4/CyDMA.c ****     CYASSERT((descriptor >= 0) && (descriptor < CYDMA_DESCR_NR));
 962              		.loc 1 688 0 is_stmt 1
 963 0010 012D     		cmp	r5, #1
 964 0012 02D9     		bls	.L90
 965              		.loc 1 688 0 is_stmt 0 discriminator 1
 966 0014 0020     		movs	r0, #0
 967 0016 FFF7FEFF 		bl	CyHalt
 968              	.LVL65:
 969              	.L90:
 970 001a 054B     		ldr	r3, .L91
 971 001c A400     		lsls	r4, r4, #2
 972              	.LVL66:
 973 001e E418     		adds	r4, r4, r3
 689:Generated_Source\PSoC4/CyDMA.c **** 
 690:Generated_Source\PSoC4/CyDMA.c ****     regValue = CYDMA_CH_CTL_BASE.ctl[channel] & (uint32)~CYDMA_DESCRIPTOR;
 974              		.loc 1 690 0 is_stmt 1
 975 0020 2268     		ldr	r2, [r4]
 976              	.LVL67:
 691:Generated_Source\PSoC4/CyDMA.c ****     CYDMA_CH_CTL_BASE.ctl[channel] = regValue | (uint32)((uint32)descriptor << CYDMA_DESCRIPTOR_POS
 977              		.loc 1 691 0
 978 0022 044B     		ldr	r3, .L91+4
 979 0024 AD07     		lsls	r5, r5, #30
 980              	.LVL68:
 981 0026 1340     		ands	r3, r2
 982              	.LVL69:
 983 0028 1D43     		orrs	r5, r3
 984 002a 2560     		str	r5, [r4]
 692:Generated_Source\PSoC4/CyDMA.c **** }
 985              		.loc 1 692 0
 986              		@ sp needed
 987 002c 70BD     		pop	{r4, r5, r6, pc}
 988              	.L92:
 989 002e C046     		.align	2
 990              	.L91:
ARM GAS  C:\Users\RYANCA~1\AppData\Local\Temp\ccQoZK0a.s 			page 32


 991 0030 80101040 		.word	1074794624
 992 0034 FFFFFFBF 		.word	-1073741825
 993              		.cfi_endproc
 994              	.LFE24:
 995              		.size	CyDmaSetNextDescriptor, .-CyDmaSetNextDescriptor
 996              		.section	.text.CyDmaGetNextDescriptor,"ax",%progbits
 997              		.align	1
 998              		.global	CyDmaGetNextDescriptor
 999              		.code	16
 1000              		.thumb_func
 1001              		.type	CyDmaGetNextDescriptor, %function
 1002              	CyDmaGetNextDescriptor:
 1003              	.LFB25:
 693:Generated_Source\PSoC4/CyDMA.c **** 
 694:Generated_Source\PSoC4/CyDMA.c **** 
 695:Generated_Source\PSoC4/CyDMA.c **** /*******************************************************************************
 696:Generated_Source\PSoC4/CyDMA.c **** * Function Name: CyDmaGetNextDescriptor
 697:Generated_Source\PSoC4/CyDMA.c **** ********************************************************************************
 698:Generated_Source\PSoC4/CyDMA.c **** *
 699:Generated_Source\PSoC4/CyDMA.c **** * Summary:
 700:Generated_Source\PSoC4/CyDMA.c **** *  Returns the next descriptor that should be run, as set by 
 701:Generated_Source\PSoC4/CyDMA.c **** *  CyDmaSetNextDescriptor().
 702:Generated_Source\PSoC4/CyDMA.c **** *
 703:Generated_Source\PSoC4/CyDMA.c **** * Parameters:
 704:Generated_Source\PSoC4/CyDMA.c **** *  channel: channel used by this function.
 705:Generated_Source\PSoC4/CyDMA.c **** *                   
 706:Generated_Source\PSoC4/CyDMA.c **** * Return:
 707:Generated_Source\PSoC4/CyDMA.c **** *  Next Descriptor to run (0 or 1).
 708:Generated_Source\PSoC4/CyDMA.c **** *
 709:Generated_Source\PSoC4/CyDMA.c **** *******************************************************************************/
 710:Generated_Source\PSoC4/CyDMA.c **** int32 CyDmaGetNextDescriptor(int32 channel)
 711:Generated_Source\PSoC4/CyDMA.c **** {
 1004              		.loc 1 711 0
 1005              		.cfi_startproc
 1006              		@ args = 0, pretend = 0, frame = 0
 1007              		@ frame_needed = 0, uses_anonymous_args = 0
 1008              	.LVL70:
 1009 0000 10B5     		push	{r4, lr}
 1010              		.cfi_def_cfa_offset 8
 1011              		.cfi_offset 4, -8
 1012              		.cfi_offset 14, -4
 1013              		.loc 1 711 0
 1014 0002 0400     		movs	r4, r0
 712:Generated_Source\PSoC4/CyDMA.c ****     uint32 nextDescriptor;
 713:Generated_Source\PSoC4/CyDMA.c **** 
 714:Generated_Source\PSoC4/CyDMA.c ****     CYASSERT((channel >= 0) && (channel < CYDMA_CH_NR));
 1015              		.loc 1 714 0
 1016 0004 0728     		cmp	r0, #7
 1017 0006 02D9     		bls	.L94
 1018              		.loc 1 714 0 is_stmt 0 discriminator 1
 1019 0008 0020     		movs	r0, #0
 1020              	.LVL71:
 1021 000a FFF7FEFF 		bl	CyHalt
 1022              	.LVL72:
 1023              	.L94:
 715:Generated_Source\PSoC4/CyDMA.c **** 
 716:Generated_Source\PSoC4/CyDMA.c ****     nextDescriptor = (CYDMA_CH_CTL_BASE.ctl[channel] & CYDMA_DESCRIPTOR) >> CYDMA_DESCRIPTOR_POS;
ARM GAS  C:\Users\RYANCA~1\AppData\Local\Temp\ccQoZK0a.s 			page 33


 1024              		.loc 1 716 0 is_stmt 1
 1025 000e 034B     		ldr	r3, .L95
 1026 0010 A400     		lsls	r4, r4, #2
 1027              	.LVL73:
 1028 0012 E058     		ldr	r0, [r4, r3]
 1029              	.LVL74:
 717:Generated_Source\PSoC4/CyDMA.c ****     return ((int32)nextDescriptor);
 718:Generated_Source\PSoC4/CyDMA.c **** }
 1030              		.loc 1 718 0
 1031              		@ sp needed
 717:Generated_Source\PSoC4/CyDMA.c ****     return ((int32)nextDescriptor);
 1032              		.loc 1 717 0
 1033 0014 4000     		lsls	r0, r0, #1
 1034              	.LVL75:
 1035 0016 C00F     		lsrs	r0, r0, #31
 1036              		.loc 1 718 0
 1037 0018 10BD     		pop	{r4, pc}
 1038              	.L96:
 1039 001a C046     		.align	2
 1040              	.L95:
 1041 001c 80101040 		.word	1074794624
 1042              		.cfi_endproc
 1043              	.LFE25:
 1044              		.size	CyDmaGetNextDescriptor, .-CyDmaGetNextDescriptor
 1045              		.section	.text.CyDmaSetConfiguration,"ax",%progbits
 1046              		.align	1
 1047              		.global	CyDmaSetConfiguration
 1048              		.code	16
 1049              		.thumb_func
 1050              		.type	CyDmaSetConfiguration, %function
 1051              	CyDmaSetConfiguration:
 1052              	.LFB26:
 719:Generated_Source\PSoC4/CyDMA.c **** 
 720:Generated_Source\PSoC4/CyDMA.c **** 
 721:Generated_Source\PSoC4/CyDMA.c **** /*******************************************************************************
 722:Generated_Source\PSoC4/CyDMA.c **** * Function Name: CyDmaSetConfiguration
 723:Generated_Source\PSoC4/CyDMA.c **** ********************************************************************************
 724:Generated_Source\PSoC4/CyDMA.c **** *
 725:Generated_Source\PSoC4/CyDMA.c **** * Summary:
 726:Generated_Source\PSoC4/CyDMA.c **** *  Sets configuration information for the specified descriptor.
 727:Generated_Source\PSoC4/CyDMA.c **** *
 728:Generated_Source\PSoC4/CyDMA.c **** * Parameters:
 729:Generated_Source\PSoC4/CyDMA.c **** *  channel:    DMA channel modified by this function.
 730:Generated_Source\PSoC4/CyDMA.c **** *  descriptor: Descriptor (0 or 1) modified by this function.
 731:Generated_Source\PSoC4/CyDMA.c **** *  config:     Pointer to a configuration structure. Refer to cydma_init_struct
 732:Generated_Source\PSoC4/CyDMA.c **** *              structure definition in CyDMA_P4.h and/or DMA channel datasheet
 733:Generated_Source\PSoC4/CyDMA.c **** *              for more information.
 734:Generated_Source\PSoC4/CyDMA.c **** *                   
 735:Generated_Source\PSoC4/CyDMA.c **** * Return:
 736:Generated_Source\PSoC4/CyDMA.c **** *  None.
 737:Generated_Source\PSoC4/CyDMA.c **** *
 738:Generated_Source\PSoC4/CyDMA.c **** * Side effect:
 739:Generated_Source\PSoC4/CyDMA.c **** *  The status register associated with the specified descriptor is reset to
 740:Generated_Source\PSoC4/CyDMA.c **** *  zero after this function call. This function also validates the descriptor.
 741:Generated_Source\PSoC4/CyDMA.c **** *  This function should not be called while the descriptor is active.
 742:Generated_Source\PSoC4/CyDMA.c **** *  This can be checked by calling CyDmaGetStatus().
 743:Generated_Source\PSoC4/CyDMA.c **** *
ARM GAS  C:\Users\RYANCA~1\AppData\Local\Temp\ccQoZK0a.s 			page 34


 744:Generated_Source\PSoC4/CyDMA.c **** *******************************************************************************/
 745:Generated_Source\PSoC4/CyDMA.c **** void CyDmaSetConfiguration(int32 channel, int32 descriptor, const cydma_init_struct * config)
 746:Generated_Source\PSoC4/CyDMA.c **** {  
 1053              		.loc 1 746 0
 1054              		.cfi_startproc
 1055              		@ args = 0, pretend = 0, frame = 0
 1056              		@ frame_needed = 0, uses_anonymous_args = 0
 1057              	.LVL76:
 1058 0000 70B5     		push	{r4, r5, r6, lr}
 1059              		.cfi_def_cfa_offset 16
 1060              		.cfi_offset 4, -16
 1061              		.cfi_offset 5, -12
 1062              		.cfi_offset 6, -8
 1063              		.cfi_offset 14, -4
 1064              		.loc 1 746 0
 1065 0002 0600     		movs	r6, r0
 1066 0004 0D00     		movs	r5, r1
 1067 0006 1400     		movs	r4, r2
 747:Generated_Source\PSoC4/CyDMA.c ****     CYASSERT((channel        >= 0) && (channel         < CYDMA_CH_NR));
 1068              		.loc 1 747 0
 1069 0008 0728     		cmp	r0, #7
 1070 000a 02D9     		bls	.L98
 1071              		.loc 1 747 0 is_stmt 0 discriminator 1
 1072 000c 0020     		movs	r0, #0
 1073              	.LVL77:
 1074 000e FFF7FEFF 		bl	CyHalt
 1075              	.LVL78:
 1076              	.L98:
 748:Generated_Source\PSoC4/CyDMA.c ****     CYASSERT((descriptor     >= 0) && (descriptor      < CYDMA_DESCR_NR));
 1077              		.loc 1 748 0 is_stmt 1
 1078 0012 012D     		cmp	r5, #1
 1079 0014 02D9     		bls	.L99
 1080              		.loc 1 748 0 is_stmt 0 discriminator 1
 1081 0016 0020     		movs	r0, #0
 1082 0018 FFF7FEFF 		bl	CyHalt
 1083              	.LVL79:
 1084              	.L99:
 749:Generated_Source\PSoC4/CyDMA.c **** 
 750:Generated_Source\PSoC4/CyDMA.c ****     CYASSERT(0u == (config->dataElementSize     & (uint32)~CYDMA_DATA_SIZE));   
 1085              		.loc 1 750 0 is_stmt 1
 1086 001c 284B     		ldr	r3, .L129
 1087 001e 2268     		ldr	r2, [r4]
 1088 0020 1A42     		tst	r2, r3
 1089 0022 02D0     		beq	.L100
 1090              		.loc 1 750 0 is_stmt 0 discriminator 1
 1091 0024 0020     		movs	r0, #0
 1092 0026 FFF7FEFF 		bl	CyHalt
 1093              	.LVL80:
 1094              	.L100:
 751:Generated_Source\PSoC4/CyDMA.c ****     CYASSERT((config->numDataElements > 0)     && (config->numDataElements <= CYDMA_MAX_DATA_NR));
 1095              		.loc 1 751 0 is_stmt 1
 1096 002a 6368     		ldr	r3, [r4, #4]
 1097 002c 254A     		ldr	r2, .L129+4
 1098 002e 013B     		subs	r3, r3, #1
 1099 0030 9342     		cmp	r3, r2
 1100 0032 02D9     		bls	.L101
 1101              		.loc 1 751 0 is_stmt 0 discriminator 1
ARM GAS  C:\Users\RYANCA~1\AppData\Local\Temp\ccQoZK0a.s 			page 35


 1102 0034 0020     		movs	r0, #0
 1103 0036 FFF7FEFF 		bl	CyHalt
 1104              	.LVL81:
 1105              	.L101:
 752:Generated_Source\PSoC4/CyDMA.c ****     CYASSERT(0u == (config->srcDstTransferWidth & (uint32)~CYDMA_TRANSFER_WIDTH));
 1106              		.loc 1 752 0 is_stmt 1
 1107 003a 234B     		ldr	r3, .L129+8
 1108 003c A268     		ldr	r2, [r4, #8]
 1109 003e 1A42     		tst	r2, r3
 1110 0040 02D0     		beq	.L102
 1111              		.loc 1 752 0 is_stmt 0 discriminator 1
 1112 0042 0020     		movs	r0, #0
 1113 0044 FFF7FEFF 		bl	CyHalt
 1114              	.LVL82:
 1115              	.L102:
 753:Generated_Source\PSoC4/CyDMA.c ****     CYASSERT(0u == (config->addressIncrement    & (uint32)~CYDMA_ADDR_INCR));
 1116              		.loc 1 753 0 is_stmt 1
 1117 0048 204B     		ldr	r3, .L129+12
 1118 004a E268     		ldr	r2, [r4, #12]
 1119 004c 1A42     		tst	r2, r3
 1120 004e 02D0     		beq	.L103
 1121              		.loc 1 753 0 is_stmt 0 discriminator 1
 1122 0050 0020     		movs	r0, #0
 1123 0052 FFF7FEFF 		bl	CyHalt
 1124              	.LVL83:
 1125              	.L103:
 754:Generated_Source\PSoC4/CyDMA.c ****     CYASSERT(0u == (config->triggerType         & (uint32)~CYDMA_TRIGGER_TYPE));
 1126              		.loc 1 754 0 is_stmt 1
 1127 0056 1E4B     		ldr	r3, .L129+16
 1128 0058 2269     		ldr	r2, [r4, #16]
 1129 005a 1A42     		tst	r2, r3
 1130 005c 02D0     		beq	.L104
 1131              		.loc 1 754 0 is_stmt 0 discriminator 1
 1132 005e 0020     		movs	r0, #0
 1133 0060 FFF7FEFF 		bl	CyHalt
 1134              	.LVL84:
 1135              	.L104:
 755:Generated_Source\PSoC4/CyDMA.c ****     CYASSERT(0u == (config->transferMode        & (uint32)~CYDMA_TRANSFER_MODE));
 1136              		.loc 1 755 0 is_stmt 1
 1137 0064 6369     		ldr	r3, [r4, #20]
 1138 0066 9B00     		lsls	r3, r3, #2
 1139 0068 02D0     		beq	.L105
 1140              		.loc 1 755 0 is_stmt 0 discriminator 1
 1141 006a 0020     		movs	r0, #0
 1142 006c FFF7FEFF 		bl	CyHalt
 1143              	.LVL85:
 1144              	.L105:
 756:Generated_Source\PSoC4/CyDMA.c ****     CYASSERT(0u == (config->preemptable         & (uint32)~CYDMA_PREEMPTABLE));
 1145              		.loc 1 756 0 is_stmt 1
 1146 0070 184B     		ldr	r3, .L129+20
 1147 0072 A269     		ldr	r2, [r4, #24]
 1148 0074 1A42     		tst	r2, r3
 1149 0076 02D0     		beq	.L106
 1150              		.loc 1 756 0 is_stmt 0 discriminator 1
 1151 0078 0020     		movs	r0, #0
 1152 007a FFF7FEFF 		bl	CyHalt
 1153              	.LVL86:
ARM GAS  C:\Users\RYANCA~1\AppData\Local\Temp\ccQoZK0a.s 			page 36


 1154              	.L106:
 757:Generated_Source\PSoC4/CyDMA.c ****     CYASSERT(0u == (config->actions             & (uint32)~CYDMA_POST_COMPLETE_ACTIONS));
 1155              		.loc 1 757 0 is_stmt 1
 1156 007e 164B     		ldr	r3, .L129+24
 1157 0080 E269     		ldr	r2, [r4, #28]
 1158 0082 1A42     		tst	r2, r3
 1159 0084 02D0     		beq	.L107
 1160              		.loc 1 757 0 is_stmt 0 discriminator 1
 1161 0086 0020     		movs	r0, #0
 1162 0088 FFF7FEFF 		bl	CyHalt
 1163              	.LVL87:
 1164              	.L107:
 758:Generated_Source\PSoC4/CyDMA.c ****     
 759:Generated_Source\PSoC4/CyDMA.c ****     CYDMA_DESCR_BASE.descriptor[channel][descriptor].ctl = config->dataElementSize     |
 760:Generated_Source\PSoC4/CyDMA.c ****                                                   ((uint32)config->numDataElements-1u) |
 761:Generated_Source\PSoC4/CyDMA.c ****                                                            config->srcDstTransferWidth |
 762:Generated_Source\PSoC4/CyDMA.c ****                                                            config->addressIncrement    |
 763:Generated_Source\PSoC4/CyDMA.c ****                                                            config->triggerType         |
 764:Generated_Source\PSoC4/CyDMA.c ****                                                            config->transferMode        |
 765:Generated_Source\PSoC4/CyDMA.c ****                                                            config->preemptable         |
 1165              		.loc 1 765 0 is_stmt 1
 1166 008c A268     		ldr	r2, [r4, #8]
 1167 008e 2368     		ldr	r3, [r4]
 759:Generated_Source\PSoC4/CyDMA.c ****                                                   ((uint32)config->numDataElements-1u) |
 1168              		.loc 1 759 0
 1169 0090 7600     		lsls	r6, r6, #1
 1170              	.LVL88:
 1171              		.loc 1 765 0
 1172 0092 1343     		orrs	r3, r2
 1173 0094 E268     		ldr	r2, [r4, #12]
 759:Generated_Source\PSoC4/CyDMA.c ****                                                   ((uint32)config->numDataElements-1u) |
 1174              		.loc 1 759 0
 1175 0096 7519     		adds	r5, r6, r5
 1176              	.LVL89:
 1177              		.loc 1 765 0
 1178 0098 1343     		orrs	r3, r2
 1179 009a 2269     		ldr	r2, [r4, #16]
 759:Generated_Source\PSoC4/CyDMA.c ****                                                   ((uint32)config->numDataElements-1u) |
 1180              		.loc 1 759 0
 1181 009c 2D01     		lsls	r5, r5, #4
 1182              		.loc 1 765 0
 1183 009e 1343     		orrs	r3, r2
 1184 00a0 6269     		ldr	r2, [r4, #20]
 766:Generated_Source\PSoC4/CyDMA.c ****                                                            config->actions;
 767:Generated_Source\PSoC4/CyDMA.c **** 
 768:Generated_Source\PSoC4/CyDMA.c ****     CYDMA_DESCR_BASE.descriptor[channel][descriptor].status = CYDMA_VALID;
 769:Generated_Source\PSoC4/CyDMA.c **** }
 1185              		.loc 1 769 0
 1186              		@ sp needed
 765:Generated_Source\PSoC4/CyDMA.c ****                                                            config->actions;
 1187              		.loc 1 765 0
 1188 00a2 1343     		orrs	r3, r2
 1189 00a4 A269     		ldr	r2, [r4, #24]
 1190 00a6 1343     		orrs	r3, r2
 1191 00a8 E269     		ldr	r2, [r4, #28]
 1192 00aa 1343     		orrs	r3, r2
 1193 00ac 6268     		ldr	r2, [r4, #4]
ARM GAS  C:\Users\RYANCA~1\AppData\Local\Temp\ccQoZK0a.s 			page 37


 1194 00ae 013A     		subs	r2, r2, #1
 1195 00b0 1343     		orrs	r3, r2
 759:Generated_Source\PSoC4/CyDMA.c ****                                                   ((uint32)config->numDataElements-1u) |
 1196              		.loc 1 759 0
 1197 00b2 0A4A     		ldr	r2, .L129+28
 1198 00b4 AD18     		adds	r5, r5, r2
 1199 00b6 AB60     		str	r3, [r5, #8]
 768:Generated_Source\PSoC4/CyDMA.c **** }
 1200              		.loc 1 768 0
 1201 00b8 8023     		movs	r3, #128
 1202 00ba 1B06     		lsls	r3, r3, #24
 1203 00bc EB60     		str	r3, [r5, #12]
 1204              	.LVL90:
 1205              		.loc 1 769 0
 1206 00be 70BD     		pop	{r4, r5, r6, pc}
 1207              	.L130:
 1208              		.align	2
 1209              	.L129:
 1210 00c0 FFFFFCFF 		.word	-196609
 1211 00c4 FFFF0000 		.word	65535
 1212 00c8 FFFFAFFF 		.word	-5242881
 1213 00cc FFFF5FFF 		.word	-10485761
 1214 00d0 FFFFFFFC 		.word	-50331649
 1215 00d4 FFFFFFEF 		.word	-268435457
 1216 00d8 FFFFFFD3 		.word	-738197505
 1217 00dc 00181040 		.word	1074796544
 1218              		.cfi_endproc
 1219              	.LFE26:
 1220              		.size	CyDmaSetConfiguration, .-CyDmaSetConfiguration
 1221              		.section	.text.CyDmaValidateDescriptor,"ax",%progbits
 1222              		.align	1
 1223              		.global	CyDmaValidateDescriptor
 1224              		.code	16
 1225              		.thumb_func
 1226              		.type	CyDmaValidateDescriptor, %function
 1227              	CyDmaValidateDescriptor:
 1228              	.LFB27:
 770:Generated_Source\PSoC4/CyDMA.c **** 
 771:Generated_Source\PSoC4/CyDMA.c **** 
 772:Generated_Source\PSoC4/CyDMA.c **** /*******************************************************************************
 773:Generated_Source\PSoC4/CyDMA.c **** * Function Name: CyDmaValidateDescriptor
 774:Generated_Source\PSoC4/CyDMA.c **** ********************************************************************************
 775:Generated_Source\PSoC4/CyDMA.c **** *
 776:Generated_Source\PSoC4/CyDMA.c **** * Summary:
 777:Generated_Source\PSoC4/CyDMA.c **** *  Validates the specified descriptor after it has been invalidated.
 778:Generated_Source\PSoC4/CyDMA.c **** *
 779:Generated_Source\PSoC4/CyDMA.c **** * Parameters:
 780:Generated_Source\PSoC4/CyDMA.c **** *  channel:    Channel used by this function.
 781:Generated_Source\PSoC4/CyDMA.c **** *  descriptor: Descriptor (0 or 1) modified by this function.
 782:Generated_Source\PSoC4/CyDMA.c **** *                   
 783:Generated_Source\PSoC4/CyDMA.c **** * Return:
 784:Generated_Source\PSoC4/CyDMA.c **** *  None. 
 785:Generated_Source\PSoC4/CyDMA.c **** *
 786:Generated_Source\PSoC4/CyDMA.c **** * Side effect:
 787:Generated_Source\PSoC4/CyDMA.c **** *  The status register associated with the specified descriptor is reset to
 788:Generated_Source\PSoC4/CyDMA.c **** *  zero after this function call.
 789:Generated_Source\PSoC4/CyDMA.c **** *  This function should not be called when the specified descriptor is active
ARM GAS  C:\Users\RYANCA~1\AppData\Local\Temp\ccQoZK0a.s 			page 38


 790:Generated_Source\PSoC4/CyDMA.c **** *  in the DMA transfer engine. This can be checked by calling CyDmaGetStatus().
 791:Generated_Source\PSoC4/CyDMA.c **** *
 792:Generated_Source\PSoC4/CyDMA.c **** *******************************************************************************/
 793:Generated_Source\PSoC4/CyDMA.c **** void CyDmaValidateDescriptor(int32 channel, int32 descriptor)
 794:Generated_Source\PSoC4/CyDMA.c **** {
 1229              		.loc 1 794 0
 1230              		.cfi_startproc
 1231              		@ args = 0, pretend = 0, frame = 0
 1232              		@ frame_needed = 0, uses_anonymous_args = 0
 1233              	.LVL91:
 1234 0000 70B5     		push	{r4, r5, r6, lr}
 1235              		.cfi_def_cfa_offset 16
 1236              		.cfi_offset 4, -16
 1237              		.cfi_offset 5, -12
 1238              		.cfi_offset 6, -8
 1239              		.cfi_offset 14, -4
 1240              		.loc 1 794 0
 1241 0002 0500     		movs	r5, r0
 1242 0004 0C00     		movs	r4, r1
 795:Generated_Source\PSoC4/CyDMA.c ****     CYASSERT((channel    >= 0) && (channel    < CYDMA_CH_NR));
 1243              		.loc 1 795 0
 1244 0006 0728     		cmp	r0, #7
 1245 0008 02D9     		bls	.L132
 1246              		.loc 1 795 0 is_stmt 0 discriminator 1
 1247 000a 0020     		movs	r0, #0
 1248              	.LVL92:
 1249 000c FFF7FEFF 		bl	CyHalt
 1250              	.LVL93:
 1251              	.L132:
 796:Generated_Source\PSoC4/CyDMA.c ****     CYASSERT((descriptor >= 0) && (descriptor < CYDMA_DESCR_NR));
 1252              		.loc 1 796 0 is_stmt 1
 1253 0010 012C     		cmp	r4, #1
 1254 0012 02D9     		bls	.L133
 1255              		.loc 1 796 0 is_stmt 0 discriminator 1
 1256 0014 0020     		movs	r0, #0
 1257 0016 FFF7FEFF 		bl	CyHalt
 1258              	.LVL94:
 1259              	.L133:
 797:Generated_Source\PSoC4/CyDMA.c **** 
 798:Generated_Source\PSoC4/CyDMA.c ****     CYDMA_DESCR_BASE.descriptor[channel][descriptor].status = CYDMA_VALID;
 1260              		.loc 1 798 0 is_stmt 1
 1261 001a 6D00     		lsls	r5, r5, #1
 1262              	.LVL95:
 1263 001c 2C19     		adds	r4, r5, r4
 1264              	.LVL96:
 1265 001e 034B     		ldr	r3, .L134
 1266 0020 2401     		lsls	r4, r4, #4
 1267 0022 E418     		adds	r4, r4, r3
 1268 0024 8023     		movs	r3, #128
 1269 0026 1B06     		lsls	r3, r3, #24
 1270 0028 E360     		str	r3, [r4, #12]
 799:Generated_Source\PSoC4/CyDMA.c **** }
 1271              		.loc 1 799 0
 1272              		@ sp needed
 1273 002a 70BD     		pop	{r4, r5, r6, pc}
 1274              	.L135:
 1275              		.align	2
ARM GAS  C:\Users\RYANCA~1\AppData\Local\Temp\ccQoZK0a.s 			page 39


 1276              	.L134:
 1277 002c 00181040 		.word	1074796544
 1278              		.cfi_endproc
 1279              	.LFE27:
 1280              		.size	CyDmaValidateDescriptor, .-CyDmaValidateDescriptor
 1281              		.section	.text.CyDmaGetDescriptorStatus,"ax",%progbits
 1282              		.align	1
 1283              		.global	CyDmaGetDescriptorStatus
 1284              		.code	16
 1285              		.thumb_func
 1286              		.type	CyDmaGetDescriptorStatus, %function
 1287              	CyDmaGetDescriptorStatus:
 1288              	.LFB28:
 800:Generated_Source\PSoC4/CyDMA.c **** 
 801:Generated_Source\PSoC4/CyDMA.c **** 
 802:Generated_Source\PSoC4/CyDMA.c **** /*******************************************************************************
 803:Generated_Source\PSoC4/CyDMA.c **** * Function Name: CyDmaGetDescriptorStatus
 804:Generated_Source\PSoC4/CyDMA.c **** ********************************************************************************
 805:Generated_Source\PSoC4/CyDMA.c **** *
 806:Generated_Source\PSoC4/CyDMA.c **** * Summary:
 807:Generated_Source\PSoC4/CyDMA.c **** *  Returns the status of the specified descriptor.
 808:Generated_Source\PSoC4/CyDMA.c **** *
 809:Generated_Source\PSoC4/CyDMA.c **** * Parameters:
 810:Generated_Source\PSoC4/CyDMA.c **** *  channel:    Channel used by this function.
 811:Generated_Source\PSoC4/CyDMA.c **** *  descriptor: Descriptor (0 or 1) modified by this function.
 812:Generated_Source\PSoC4/CyDMA.c **** *                   
 813:Generated_Source\PSoC4/CyDMA.c **** * Return:
 814:Generated_Source\PSoC4/CyDMA.c **** *  Returns the contents of the specified descriptors status register. Refer to 
 815:Generated_Source\PSoC4/CyDMA.c **** *  descriptor status register bit definitions in CyDMA_P4.h or the API
 816:Generated_Source\PSoC4/CyDMA.c **** *  description in the DMA channel datasheet for more information.
 817:Generated_Source\PSoC4/CyDMA.c **** *
 818:Generated_Source\PSoC4/CyDMA.c **** *******************************************************************************/
 819:Generated_Source\PSoC4/CyDMA.c **** uint32 CyDmaGetDescriptorStatus(int32 channel, int32 descriptor)
 820:Generated_Source\PSoC4/CyDMA.c **** {
 1289              		.loc 1 820 0
 1290              		.cfi_startproc
 1291              		@ args = 0, pretend = 0, frame = 0
 1292              		@ frame_needed = 0, uses_anonymous_args = 0
 1293              	.LVL97:
 1294 0000 70B5     		push	{r4, r5, r6, lr}
 1295              		.cfi_def_cfa_offset 16
 1296              		.cfi_offset 4, -16
 1297              		.cfi_offset 5, -12
 1298              		.cfi_offset 6, -8
 1299              		.cfi_offset 14, -4
 1300              		.loc 1 820 0
 1301 0002 0500     		movs	r5, r0
 1302 0004 0C00     		movs	r4, r1
 821:Generated_Source\PSoC4/CyDMA.c ****     CYASSERT((channel    >= 0) && (channel    < CYDMA_CH_NR));
 1303              		.loc 1 821 0
 1304 0006 0728     		cmp	r0, #7
 1305 0008 02D9     		bls	.L137
 1306              		.loc 1 821 0 is_stmt 0 discriminator 1
 1307 000a 0020     		movs	r0, #0
 1308              	.LVL98:
 1309 000c FFF7FEFF 		bl	CyHalt
 1310              	.LVL99:
ARM GAS  C:\Users\RYANCA~1\AppData\Local\Temp\ccQoZK0a.s 			page 40


 1311              	.L137:
 822:Generated_Source\PSoC4/CyDMA.c ****     CYASSERT((descriptor >= 0) && (descriptor < CYDMA_DESCR_NR));
 1312              		.loc 1 822 0 is_stmt 1
 1313 0010 012C     		cmp	r4, #1
 1314 0012 02D9     		bls	.L138
 1315              		.loc 1 822 0 is_stmt 0 discriminator 1
 1316 0014 0020     		movs	r0, #0
 1317 0016 FFF7FEFF 		bl	CyHalt
 1318              	.LVL100:
 1319              	.L138:
 823:Generated_Source\PSoC4/CyDMA.c **** 
 824:Generated_Source\PSoC4/CyDMA.c ****     return (CYDMA_DESCR_BASE.descriptor[channel][descriptor].status);
 1320              		.loc 1 824 0 is_stmt 1
 1321 001a 6D00     		lsls	r5, r5, #1
 1322              	.LVL101:
 1323 001c 2C19     		adds	r4, r5, r4
 1324              	.LVL102:
 1325 001e 024B     		ldr	r3, .L139
 1326 0020 2401     		lsls	r4, r4, #4
 1327 0022 E418     		adds	r4, r4, r3
 1328 0024 E068     		ldr	r0, [r4, #12]
 825:Generated_Source\PSoC4/CyDMA.c **** }
 1329              		.loc 1 825 0
 1330              		@ sp needed
 1331 0026 70BD     		pop	{r4, r5, r6, pc}
 1332              	.L140:
 1333              		.align	2
 1334              	.L139:
 1335 0028 00181040 		.word	1074796544
 1336              		.cfi_endproc
 1337              	.LFE28:
 1338              		.size	CyDmaGetDescriptorStatus, .-CyDmaGetDescriptorStatus
 1339              		.section	.text.CyDmaSetSrcAddress,"ax",%progbits
 1340              		.align	1
 1341              		.global	CyDmaSetSrcAddress
 1342              		.code	16
 1343              		.thumb_func
 1344              		.type	CyDmaSetSrcAddress, %function
 1345              	CyDmaSetSrcAddress:
 1346              	.LFB29:
 826:Generated_Source\PSoC4/CyDMA.c **** 
 827:Generated_Source\PSoC4/CyDMA.c **** 
 828:Generated_Source\PSoC4/CyDMA.c **** /*******************************************************************************
 829:Generated_Source\PSoC4/CyDMA.c **** * Function Name: CyDmaSetSrcAddress
 830:Generated_Source\PSoC4/CyDMA.c **** ********************************************************************************
 831:Generated_Source\PSoC4/CyDMA.c **** *
 832:Generated_Source\PSoC4/CyDMA.c **** * Summary:
 833:Generated_Source\PSoC4/CyDMA.c **** *  Configures the source address for the specified descriptor.
 834:Generated_Source\PSoC4/CyDMA.c **** *
 835:Generated_Source\PSoC4/CyDMA.c **** * Parameters:
 836:Generated_Source\PSoC4/CyDMA.c **** *  channel:    Channel used by this function.
 837:Generated_Source\PSoC4/CyDMA.c **** *  descriptor: Descriptor (0 or 1) modified by this function.
 838:Generated_Source\PSoC4/CyDMA.c **** *  srcAddress: Address of DMA transfer source.
 839:Generated_Source\PSoC4/CyDMA.c **** *                   
 840:Generated_Source\PSoC4/CyDMA.c **** * Return:
 841:Generated_Source\PSoC4/CyDMA.c **** *  None.
 842:Generated_Source\PSoC4/CyDMA.c **** *
ARM GAS  C:\Users\RYANCA~1\AppData\Local\Temp\ccQoZK0a.s 			page 41


 843:Generated_Source\PSoC4/CyDMA.c **** * Side effect:
 844:Generated_Source\PSoC4/CyDMA.c **** *  This function should not be called when the specified descriptor is active
 845:Generated_Source\PSoC4/CyDMA.c **** *  in the DMA transfer engine. This can be checked by calling CyDmaGetStatus(). 
 846:Generated_Source\PSoC4/CyDMA.c **** *
 847:Generated_Source\PSoC4/CyDMA.c **** *******************************************************************************/
 848:Generated_Source\PSoC4/CyDMA.c **** void CyDmaSetSrcAddress(int32 channel, int32 descriptor, void * srcAddress)
 849:Generated_Source\PSoC4/CyDMA.c **** {
 1347              		.loc 1 849 0
 1348              		.cfi_startproc
 1349              		@ args = 0, pretend = 0, frame = 0
 1350              		@ frame_needed = 0, uses_anonymous_args = 0
 1351              	.LVL103:
 1352 0000 70B5     		push	{r4, r5, r6, lr}
 1353              		.cfi_def_cfa_offset 16
 1354              		.cfi_offset 4, -16
 1355              		.cfi_offset 5, -12
 1356              		.cfi_offset 6, -8
 1357              		.cfi_offset 14, -4
 1358              		.loc 1 849 0
 1359 0002 0600     		movs	r6, r0
 1360 0004 0C00     		movs	r4, r1
 1361 0006 1500     		movs	r5, r2
 850:Generated_Source\PSoC4/CyDMA.c ****     CYASSERT((channel    >= 0) && (channel    < CYDMA_CH_NR));
 1362              		.loc 1 850 0
 1363 0008 0728     		cmp	r0, #7
 1364 000a 02D9     		bls	.L142
 1365              		.loc 1 850 0 is_stmt 0 discriminator 1
 1366 000c 0020     		movs	r0, #0
 1367              	.LVL104:
 1368 000e FFF7FEFF 		bl	CyHalt
 1369              	.LVL105:
 1370              	.L142:
 851:Generated_Source\PSoC4/CyDMA.c ****     CYASSERT((descriptor >= 0) && (descriptor < CYDMA_DESCR_NR));
 1371              		.loc 1 851 0 is_stmt 1
 1372 0012 012C     		cmp	r4, #1
 1373 0014 02D9     		bls	.L143
 1374              		.loc 1 851 0 is_stmt 0 discriminator 1
 1375 0016 0020     		movs	r0, #0
 1376 0018 FFF7FEFF 		bl	CyHalt
 1377              	.LVL106:
 1378              	.L143:
 852:Generated_Source\PSoC4/CyDMA.c **** 
 853:Generated_Source\PSoC4/CyDMA.c ****     CYDMA_DESCR_BASE.descriptor[channel][descriptor].src = srcAddress;
 1379              		.loc 1 853 0 is_stmt 1
 1380 001c 7600     		lsls	r6, r6, #1
 1381              	.LVL107:
 1382 001e 3419     		adds	r4, r6, r4
 1383              	.LVL108:
 1384 0020 014B     		ldr	r3, .L144
 1385 0022 2401     		lsls	r4, r4, #4
 1386 0024 E550     		str	r5, [r4, r3]
 854:Generated_Source\PSoC4/CyDMA.c **** }
 1387              		.loc 1 854 0
 1388              		@ sp needed
 1389              	.LVL109:
 1390              	.LVL110:
 1391 0026 70BD     		pop	{r4, r5, r6, pc}
ARM GAS  C:\Users\RYANCA~1\AppData\Local\Temp\ccQoZK0a.s 			page 42


 1392              	.L145:
 1393              		.align	2
 1394              	.L144:
 1395 0028 00181040 		.word	1074796544
 1396              		.cfi_endproc
 1397              	.LFE29:
 1398              		.size	CyDmaSetSrcAddress, .-CyDmaSetSrcAddress
 1399              		.section	.text.CyDmaGetSrcAddress,"ax",%progbits
 1400              		.align	1
 1401              		.global	CyDmaGetSrcAddress
 1402              		.code	16
 1403              		.thumb_func
 1404              		.type	CyDmaGetSrcAddress, %function
 1405              	CyDmaGetSrcAddress:
 1406              	.LFB30:
 855:Generated_Source\PSoC4/CyDMA.c **** 
 856:Generated_Source\PSoC4/CyDMA.c **** 
 857:Generated_Source\PSoC4/CyDMA.c **** /*******************************************************************************
 858:Generated_Source\PSoC4/CyDMA.c **** * Function Name: CyDmaGetSrcAddress
 859:Generated_Source\PSoC4/CyDMA.c **** ********************************************************************************
 860:Generated_Source\PSoC4/CyDMA.c **** *
 861:Generated_Source\PSoC4/CyDMA.c **** * Summary:
 862:Generated_Source\PSoC4/CyDMA.c **** *  Returns the source address for the specified descriptor, set by 
 863:Generated_Source\PSoC4/CyDMA.c **** *  CyDmaSetSrcAddress().
 864:Generated_Source\PSoC4/CyDMA.c **** *
 865:Generated_Source\PSoC4/CyDMA.c **** * Parameters:
 866:Generated_Source\PSoC4/CyDMA.c **** *  channel:    Channel used by this function.
 867:Generated_Source\PSoC4/CyDMA.c **** *  descriptor: Specifies descriptor (0 or 1) used by this function.
 868:Generated_Source\PSoC4/CyDMA.c **** *                   
 869:Generated_Source\PSoC4/CyDMA.c **** * Return:
 870:Generated_Source\PSoC4/CyDMA.c **** *  Source address written to specified descriptor.
 871:Generated_Source\PSoC4/CyDMA.c **** *
 872:Generated_Source\PSoC4/CyDMA.c **** *******************************************************************************/
 873:Generated_Source\PSoC4/CyDMA.c **** void * CyDmaGetSrcAddress(int32 channel, int32 descriptor)
 874:Generated_Source\PSoC4/CyDMA.c **** {
 1407              		.loc 1 874 0
 1408              		.cfi_startproc
 1409              		@ args = 0, pretend = 0, frame = 0
 1410              		@ frame_needed = 0, uses_anonymous_args = 0
 1411              	.LVL111:
 1412 0000 70B5     		push	{r4, r5, r6, lr}
 1413              		.cfi_def_cfa_offset 16
 1414              		.cfi_offset 4, -16
 1415              		.cfi_offset 5, -12
 1416              		.cfi_offset 6, -8
 1417              		.cfi_offset 14, -4
 1418              		.loc 1 874 0
 1419 0002 0500     		movs	r5, r0
 1420 0004 0C00     		movs	r4, r1
 875:Generated_Source\PSoC4/CyDMA.c ****     CYASSERT((channel    >= 0) && (channel    < CYDMA_CH_NR));
 1421              		.loc 1 875 0
 1422 0006 0728     		cmp	r0, #7
 1423 0008 02D9     		bls	.L147
 1424              		.loc 1 875 0 is_stmt 0 discriminator 1
 1425 000a 0020     		movs	r0, #0
 1426              	.LVL112:
 1427 000c FFF7FEFF 		bl	CyHalt
ARM GAS  C:\Users\RYANCA~1\AppData\Local\Temp\ccQoZK0a.s 			page 43


 1428              	.LVL113:
 1429              	.L147:
 876:Generated_Source\PSoC4/CyDMA.c ****     CYASSERT((descriptor >= 0) && (descriptor < CYDMA_DESCR_NR));
 1430              		.loc 1 876 0 is_stmt 1
 1431 0010 012C     		cmp	r4, #1
 1432 0012 02D9     		bls	.L148
 1433              		.loc 1 876 0 is_stmt 0 discriminator 1
 1434 0014 0020     		movs	r0, #0
 1435 0016 FFF7FEFF 		bl	CyHalt
 1436              	.LVL114:
 1437              	.L148:
 877:Generated_Source\PSoC4/CyDMA.c **** 
 878:Generated_Source\PSoC4/CyDMA.c ****     return (CYDMA_DESCR_BASE.descriptor[channel][descriptor].src);
 1438              		.loc 1 878 0 is_stmt 1
 1439 001a 6D00     		lsls	r5, r5, #1
 1440              	.LVL115:
 1441 001c 2C19     		adds	r4, r5, r4
 1442              	.LVL116:
 1443 001e 024B     		ldr	r3, .L149
 1444 0020 2401     		lsls	r4, r4, #4
 1445 0022 E058     		ldr	r0, [r4, r3]
 879:Generated_Source\PSoC4/CyDMA.c **** }
 1446              		.loc 1 879 0
 1447              		@ sp needed
 1448 0024 70BD     		pop	{r4, r5, r6, pc}
 1449              	.L150:
 1450 0026 C046     		.align	2
 1451              	.L149:
 1452 0028 00181040 		.word	1074796544
 1453              		.cfi_endproc
 1454              	.LFE30:
 1455              		.size	CyDmaGetSrcAddress, .-CyDmaGetSrcAddress
 1456              		.section	.text.CyDmaSetDstAddress,"ax",%progbits
 1457              		.align	1
 1458              		.global	CyDmaSetDstAddress
 1459              		.code	16
 1460              		.thumb_func
 1461              		.type	CyDmaSetDstAddress, %function
 1462              	CyDmaSetDstAddress:
 1463              	.LFB31:
 880:Generated_Source\PSoC4/CyDMA.c **** 
 881:Generated_Source\PSoC4/CyDMA.c **** 
 882:Generated_Source\PSoC4/CyDMA.c **** /*******************************************************************************
 883:Generated_Source\PSoC4/CyDMA.c **** * Function Name: CyDmaSetDstAddress
 884:Generated_Source\PSoC4/CyDMA.c **** ********************************************************************************
 885:Generated_Source\PSoC4/CyDMA.c **** *
 886:Generated_Source\PSoC4/CyDMA.c **** * Summary:
 887:Generated_Source\PSoC4/CyDMA.c **** *  Configures the destination address for the specified descriptor.
 888:Generated_Source\PSoC4/CyDMA.c **** *
 889:Generated_Source\PSoC4/CyDMA.c **** * Parameters:
 890:Generated_Source\PSoC4/CyDMA.c **** *  channel:    Channel used by this function.
 891:Generated_Source\PSoC4/CyDMA.c **** *  descriptor: Descriptor (0 or 1) modified by this function.
 892:Generated_Source\PSoC4/CyDMA.c **** *  dstAddress: Address of DMA transfer destination.
 893:Generated_Source\PSoC4/CyDMA.c **** *                   
 894:Generated_Source\PSoC4/CyDMA.c **** * Return:
 895:Generated_Source\PSoC4/CyDMA.c **** *  None.
 896:Generated_Source\PSoC4/CyDMA.c **** *
ARM GAS  C:\Users\RYANCA~1\AppData\Local\Temp\ccQoZK0a.s 			page 44


 897:Generated_Source\PSoC4/CyDMA.c **** * Side effect:
 898:Generated_Source\PSoC4/CyDMA.c **** *  This function should not be called when the specified descriptor is active
 899:Generated_Source\PSoC4/CyDMA.c **** *  in the DMA transfer engine. This can be checked by calling CyDmaGetStatus(). 
 900:Generated_Source\PSoC4/CyDMA.c **** *
 901:Generated_Source\PSoC4/CyDMA.c **** *******************************************************************************/
 902:Generated_Source\PSoC4/CyDMA.c **** void CyDmaSetDstAddress(int32 channel, int32 descriptor, void * dstAddress)
 903:Generated_Source\PSoC4/CyDMA.c **** {
 1464              		.loc 1 903 0
 1465              		.cfi_startproc
 1466              		@ args = 0, pretend = 0, frame = 0
 1467              		@ frame_needed = 0, uses_anonymous_args = 0
 1468              	.LVL117:
 1469 0000 70B5     		push	{r4, r5, r6, lr}
 1470              		.cfi_def_cfa_offset 16
 1471              		.cfi_offset 4, -16
 1472              		.cfi_offset 5, -12
 1473              		.cfi_offset 6, -8
 1474              		.cfi_offset 14, -4
 1475              		.loc 1 903 0
 1476 0002 0600     		movs	r6, r0
 1477 0004 0C00     		movs	r4, r1
 1478 0006 1500     		movs	r5, r2
 904:Generated_Source\PSoC4/CyDMA.c ****     CYASSERT((channel    >= 0) && (channel    < CYDMA_CH_NR));
 1479              		.loc 1 904 0
 1480 0008 0728     		cmp	r0, #7
 1481 000a 02D9     		bls	.L152
 1482              		.loc 1 904 0 is_stmt 0 discriminator 1
 1483 000c 0020     		movs	r0, #0
 1484              	.LVL118:
 1485 000e FFF7FEFF 		bl	CyHalt
 1486              	.LVL119:
 1487              	.L152:
 905:Generated_Source\PSoC4/CyDMA.c ****     CYASSERT((descriptor >= 0) && (descriptor < CYDMA_DESCR_NR));
 1488              		.loc 1 905 0 is_stmt 1
 1489 0012 012C     		cmp	r4, #1
 1490 0014 02D9     		bls	.L153
 1491              		.loc 1 905 0 is_stmt 0 discriminator 1
 1492 0016 0020     		movs	r0, #0
 1493 0018 FFF7FEFF 		bl	CyHalt
 1494              	.LVL120:
 1495              	.L153:
 906:Generated_Source\PSoC4/CyDMA.c **** 
 907:Generated_Source\PSoC4/CyDMA.c ****     CYDMA_DESCR_BASE.descriptor[channel][descriptor].dst = dstAddress;
 1496              		.loc 1 907 0 is_stmt 1
 1497 001c 7600     		lsls	r6, r6, #1
 1498              	.LVL121:
 1499 001e 3419     		adds	r4, r6, r4
 1500              	.LVL122:
 1501 0020 024B     		ldr	r3, .L154
 1502 0022 2401     		lsls	r4, r4, #4
 1503 0024 E418     		adds	r4, r4, r3
 1504 0026 6560     		str	r5, [r4, #4]
 908:Generated_Source\PSoC4/CyDMA.c **** }
 1505              		.loc 1 908 0
 1506              		@ sp needed
 1507              	.LVL123:
 1508              	.LVL124:
ARM GAS  C:\Users\RYANCA~1\AppData\Local\Temp\ccQoZK0a.s 			page 45


 1509 0028 70BD     		pop	{r4, r5, r6, pc}
 1510              	.L155:
 1511 002a C046     		.align	2
 1512              	.L154:
 1513 002c 00181040 		.word	1074796544
 1514              		.cfi_endproc
 1515              	.LFE31:
 1516              		.size	CyDmaSetDstAddress, .-CyDmaSetDstAddress
 1517              		.section	.text.CyDmaGetDstAddress,"ax",%progbits
 1518              		.align	1
 1519              		.global	CyDmaGetDstAddress
 1520              		.code	16
 1521              		.thumb_func
 1522              		.type	CyDmaGetDstAddress, %function
 1523              	CyDmaGetDstAddress:
 1524              	.LFB32:
 909:Generated_Source\PSoC4/CyDMA.c **** 
 910:Generated_Source\PSoC4/CyDMA.c **** 
 911:Generated_Source\PSoC4/CyDMA.c **** /*******************************************************************************
 912:Generated_Source\PSoC4/CyDMA.c **** * Function Name: CyDmaGetDstAddress
 913:Generated_Source\PSoC4/CyDMA.c **** ********************************************************************************
 914:Generated_Source\PSoC4/CyDMA.c **** *
 915:Generated_Source\PSoC4/CyDMA.c **** * Summary:
 916:Generated_Source\PSoC4/CyDMA.c **** *  Returns the destination address for the specified descriptor, set by 
 917:Generated_Source\PSoC4/CyDMA.c **** *  CyDmaSetDstAddress().
 918:Generated_Source\PSoC4/CyDMA.c **** *
 919:Generated_Source\PSoC4/CyDMA.c **** * Parameters:
 920:Generated_Source\PSoC4/CyDMA.c **** *  channel:    Channel used by this function.
 921:Generated_Source\PSoC4/CyDMA.c **** *  descriptor: Specifies descriptor (0 or 1) used by this function.
 922:Generated_Source\PSoC4/CyDMA.c **** *                   
 923:Generated_Source\PSoC4/CyDMA.c **** * Return:
 924:Generated_Source\PSoC4/CyDMA.c **** *  Destination address written to specified descriptor.
 925:Generated_Source\PSoC4/CyDMA.c **** *
 926:Generated_Source\PSoC4/CyDMA.c **** *******************************************************************************/
 927:Generated_Source\PSoC4/CyDMA.c **** void * CyDmaGetDstAddress(int32 channel, int32 descriptor)
 928:Generated_Source\PSoC4/CyDMA.c **** {
 1525              		.loc 1 928 0
 1526              		.cfi_startproc
 1527              		@ args = 0, pretend = 0, frame = 0
 1528              		@ frame_needed = 0, uses_anonymous_args = 0
 1529              	.LVL125:
 1530 0000 70B5     		push	{r4, r5, r6, lr}
 1531              		.cfi_def_cfa_offset 16
 1532              		.cfi_offset 4, -16
 1533              		.cfi_offset 5, -12
 1534              		.cfi_offset 6, -8
 1535              		.cfi_offset 14, -4
 1536              		.loc 1 928 0
 1537 0002 0500     		movs	r5, r0
 1538 0004 0C00     		movs	r4, r1
 929:Generated_Source\PSoC4/CyDMA.c ****     CYASSERT((channel    >= 0) && (channel    < CYDMA_CH_NR));
 1539              		.loc 1 929 0
 1540 0006 0728     		cmp	r0, #7
 1541 0008 02D9     		bls	.L157
 1542              		.loc 1 929 0 is_stmt 0 discriminator 1
 1543 000a 0020     		movs	r0, #0
 1544              	.LVL126:
ARM GAS  C:\Users\RYANCA~1\AppData\Local\Temp\ccQoZK0a.s 			page 46


 1545 000c FFF7FEFF 		bl	CyHalt
 1546              	.LVL127:
 1547              	.L157:
 930:Generated_Source\PSoC4/CyDMA.c ****     CYASSERT((descriptor >= 0) && (descriptor < CYDMA_DESCR_NR));
 1548              		.loc 1 930 0 is_stmt 1
 1549 0010 012C     		cmp	r4, #1
 1550 0012 02D9     		bls	.L158
 1551              		.loc 1 930 0 is_stmt 0 discriminator 1
 1552 0014 0020     		movs	r0, #0
 1553 0016 FFF7FEFF 		bl	CyHalt
 1554              	.LVL128:
 1555              	.L158:
 931:Generated_Source\PSoC4/CyDMA.c **** 
 932:Generated_Source\PSoC4/CyDMA.c ****     return (CYDMA_DESCR_BASE.descriptor[channel][descriptor].dst);
 1556              		.loc 1 932 0 is_stmt 1
 1557 001a 6D00     		lsls	r5, r5, #1
 1558              	.LVL129:
 1559 001c 2C19     		adds	r4, r5, r4
 1560              	.LVL130:
 1561 001e 024B     		ldr	r3, .L159
 1562 0020 2401     		lsls	r4, r4, #4
 1563 0022 E418     		adds	r4, r4, r3
 1564 0024 6068     		ldr	r0, [r4, #4]
 933:Generated_Source\PSoC4/CyDMA.c **** }
 1565              		.loc 1 933 0
 1566              		@ sp needed
 1567 0026 70BD     		pop	{r4, r5, r6, pc}
 1568              	.L160:
 1569              		.align	2
 1570              	.L159:
 1571 0028 00181040 		.word	1074796544
 1572              		.cfi_endproc
 1573              	.LFE32:
 1574              		.size	CyDmaGetDstAddress, .-CyDmaGetDstAddress
 1575              		.section	.text.CyDmaSetDataElementSize,"ax",%progbits
 1576              		.align	1
 1577              		.global	CyDmaSetDataElementSize
 1578              		.code	16
 1579              		.thumb_func
 1580              		.type	CyDmaSetDataElementSize, %function
 1581              	CyDmaSetDataElementSize:
 1582              	.LFB33:
 934:Generated_Source\PSoC4/CyDMA.c **** 
 935:Generated_Source\PSoC4/CyDMA.c **** /*******************************************************************************
 936:Generated_Source\PSoC4/CyDMA.c **** * Function Name: CyDmaSetDataElementSize
 937:Generated_Source\PSoC4/CyDMA.c **** ********************************************************************************
 938:Generated_Source\PSoC4/CyDMA.c **** *
 939:Generated_Source\PSoC4/CyDMA.c **** * Summary:
 940:Generated_Source\PSoC4/CyDMA.c **** *  Sets the data element size for the specified descriptor.
 941:Generated_Source\PSoC4/CyDMA.c **** *
 942:Generated_Source\PSoC4/CyDMA.c **** * Parameters:
 943:Generated_Source\PSoC4/CyDMA.c **** *  channel:         Channel used by this function.
 944:Generated_Source\PSoC4/CyDMA.c **** *  descriptor:      Descriptor (0 or 1) modified by this function.
 945:Generated_Source\PSoC4/CyDMA.c **** *  dataElementSize: Specifies the size of the data element. The DMA transfer
 946:Generated_Source\PSoC4/CyDMA.c **** *                   engine transfers one data element at a time. How these
 947:Generated_Source\PSoC4/CyDMA.c **** *                   transfers occur is controlled by the transfer mode.
 948:Generated_Source\PSoC4/CyDMA.c **** *                   Refer to the API bit field definitions in CyDMA_P4.h
ARM GAS  C:\Users\RYANCA~1\AppData\Local\Temp\ccQoZK0a.s 			page 47


 949:Generated_Source\PSoC4/CyDMA.c **** *                   or API description in the DMA channel datasheet for the 
 950:Generated_Source\PSoC4/CyDMA.c **** *                   parameter options.
 951:Generated_Source\PSoC4/CyDMA.c **** *
 952:Generated_Source\PSoC4/CyDMA.c **** * Return:
 953:Generated_Source\PSoC4/CyDMA.c **** *  None.
 954:Generated_Source\PSoC4/CyDMA.c **** *
 955:Generated_Source\PSoC4/CyDMA.c **** * Side effect:
 956:Generated_Source\PSoC4/CyDMA.c **** *  This function should not be called when the specified descriptor is active
 957:Generated_Source\PSoC4/CyDMA.c **** *  in the DMA transfer engine. This can be checked by calling CyDmaGetStatus(). 
 958:Generated_Source\PSoC4/CyDMA.c **** *
 959:Generated_Source\PSoC4/CyDMA.c **** *******************************************************************************/
 960:Generated_Source\PSoC4/CyDMA.c **** void CyDmaSetDataElementSize(int32 channel, int32 descriptor, uint32 dataElementSize)
 961:Generated_Source\PSoC4/CyDMA.c **** {
 1583              		.loc 1 961 0
 1584              		.cfi_startproc
 1585              		@ args = 0, pretend = 0, frame = 0
 1586              		@ frame_needed = 0, uses_anonymous_args = 0
 1587              	.LVL131:
 1588 0000 F8B5     		push	{r3, r4, r5, r6, r7, lr}
 1589              		.cfi_def_cfa_offset 24
 1590              		.cfi_offset 3, -24
 1591              		.cfi_offset 4, -20
 1592              		.cfi_offset 5, -16
 1593              		.cfi_offset 6, -12
 1594              		.cfi_offset 7, -8
 1595              		.cfi_offset 14, -4
 1596              		.loc 1 961 0
 1597 0002 0700     		movs	r7, r0
 1598 0004 0C00     		movs	r4, r1
 1599 0006 1500     		movs	r5, r2
 962:Generated_Source\PSoC4/CyDMA.c ****     uint32 regValue;
 963:Generated_Source\PSoC4/CyDMA.c ****     
 964:Generated_Source\PSoC4/CyDMA.c ****     CYASSERT((channel    >= 0) && (channel    < CYDMA_CH_NR));
 1600              		.loc 1 964 0
 1601 0008 0728     		cmp	r0, #7
 1602 000a 02D9     		bls	.L162
 1603              		.loc 1 964 0 is_stmt 0 discriminator 1
 1604 000c 0020     		movs	r0, #0
 1605              	.LVL132:
 1606 000e FFF7FEFF 		bl	CyHalt
 1607              	.LVL133:
 1608              	.L162:
 965:Generated_Source\PSoC4/CyDMA.c ****     CYASSERT((descriptor >= 0) && (descriptor < CYDMA_DESCR_NR));
 1609              		.loc 1 965 0 is_stmt 1
 1610 0012 012C     		cmp	r4, #1
 1611 0014 02D9     		bls	.L163
 1612              		.loc 1 965 0 is_stmt 0 discriminator 1
 1613 0016 0020     		movs	r0, #0
 1614 0018 FFF7FEFF 		bl	CyHalt
 1615              	.LVL134:
 1616              	.L163:
 1617 001c 074E     		ldr	r6, .L168
 966:Generated_Source\PSoC4/CyDMA.c ****     CYASSERT(0u == (dataElementSize & (uint32)~CYDMA_DATA_SIZE));
 1618              		.loc 1 966 0 is_stmt 1
 1619 001e 3542     		tst	r5, r6
 1620 0020 02D0     		beq	.L164
 1621              		.loc 1 966 0 is_stmt 0 discriminator 1
ARM GAS  C:\Users\RYANCA~1\AppData\Local\Temp\ccQoZK0a.s 			page 48


 1622 0022 0020     		movs	r0, #0
 1623 0024 FFF7FEFF 		bl	CyHalt
 1624              	.LVL135:
 1625              	.L164:
 967:Generated_Source\PSoC4/CyDMA.c **** 
 968:Generated_Source\PSoC4/CyDMA.c ****     regValue = CYDMA_DESCR_BASE.descriptor[channel][descriptor].ctl & (uint32)~CYDMA_DATA_SIZE;
 1626              		.loc 1 968 0 is_stmt 1
 1627 0028 7F00     		lsls	r7, r7, #1
 1628              	.LVL136:
 1629 002a 3C19     		adds	r4, r7, r4
 1630              	.LVL137:
 1631 002c 044B     		ldr	r3, .L168+4
 1632 002e 2401     		lsls	r4, r4, #4
 1633 0030 E418     		adds	r4, r4, r3
 1634 0032 A368     		ldr	r3, [r4, #8]
 1635              	.LVL138:
 969:Generated_Source\PSoC4/CyDMA.c ****     CYDMA_DESCR_BASE.descriptor[channel][descriptor].ctl = regValue | dataElementSize;
 970:Generated_Source\PSoC4/CyDMA.c **** }
 1636              		.loc 1 970 0
 1637              		@ sp needed
 969:Generated_Source\PSoC4/CyDMA.c ****     CYDMA_DESCR_BASE.descriptor[channel][descriptor].ctl = regValue | dataElementSize;
 1638              		.loc 1 969 0
 1639 0034 1E40     		ands	r6, r3
 1640 0036 3543     		orrs	r5, r6
 1641              	.LVL139:
 1642 0038 A560     		str	r5, [r4, #8]
 1643              		.loc 1 970 0
 1644 003a F8BD     		pop	{r3, r4, r5, r6, r7, pc}
 1645              	.L169:
 1646              		.align	2
 1647              	.L168:
 1648 003c FFFFFCFF 		.word	-196609
 1649 0040 00181040 		.word	1074796544
 1650              		.cfi_endproc
 1651              	.LFE33:
 1652              		.size	CyDmaSetDataElementSize, .-CyDmaSetDataElementSize
 1653              		.section	.text.CyDmaGetDataElementSize,"ax",%progbits
 1654              		.align	1
 1655              		.global	CyDmaGetDataElementSize
 1656              		.code	16
 1657              		.thumb_func
 1658              		.type	CyDmaGetDataElementSize, %function
 1659              	CyDmaGetDataElementSize:
 1660              	.LFB34:
 971:Generated_Source\PSoC4/CyDMA.c **** 
 972:Generated_Source\PSoC4/CyDMA.c **** 
 973:Generated_Source\PSoC4/CyDMA.c **** /*******************************************************************************
 974:Generated_Source\PSoC4/CyDMA.c **** * Function Name: CyDmaGetDataElementSize
 975:Generated_Source\PSoC4/CyDMA.c **** ********************************************************************************
 976:Generated_Source\PSoC4/CyDMA.c **** *
 977:Generated_Source\PSoC4/CyDMA.c **** * Summary:
 978:Generated_Source\PSoC4/CyDMA.c **** *  Returns the data element size configured for the specified descriptor, set by
 979:Generated_Source\PSoC4/CyDMA.c **** *  CyDmaSetDataElementSize() or CyDmaSetConfiguration.
 980:Generated_Source\PSoC4/CyDMA.c **** *
 981:Generated_Source\PSoC4/CyDMA.c **** * Parameters:
 982:Generated_Source\PSoC4/CyDMA.c **** *  channel:    Channel used by this function.
 983:Generated_Source\PSoC4/CyDMA.c **** *  descriptor: Descriptor (0 or 1) modified by this function.
ARM GAS  C:\Users\RYANCA~1\AppData\Local\Temp\ccQoZK0a.s 			page 49


 984:Generated_Source\PSoC4/CyDMA.c **** *                   
 985:Generated_Source\PSoC4/CyDMA.c **** * Return:
 986:Generated_Source\PSoC4/CyDMA.c **** *  The size of the data element. The DMA transfer engine transfers one data
 987:Generated_Source\PSoC4/CyDMA.c **** *  element at a time. How these transfers occur is controlled by the transfer
 988:Generated_Source\PSoC4/CyDMA.c **** *  mode. Refer to the API bit field definitions in CyDMA_P4.h or the API 
 989:Generated_Source\PSoC4/CyDMA.c **** *  description in the DMA channel datasheet for more information.
 990:Generated_Source\PSoC4/CyDMA.c **** *
 991:Generated_Source\PSoC4/CyDMA.c **** * Note:
 992:Generated_Source\PSoC4/CyDMA.c **** *  The size of the source and destination can be configured to use the
 993:Generated_Source\PSoC4/CyDMA.c **** *  data element size, or a Word, this is set in CyDmaSetSrcDstTransferWidth().
 994:Generated_Source\PSoC4/CyDMA.c **** *
 995:Generated_Source\PSoC4/CyDMA.c **** *******************************************************************************/
 996:Generated_Source\PSoC4/CyDMA.c **** uint32 CyDmaGetDataElementSize(int32 channel, int32 descriptor)
 997:Generated_Source\PSoC4/CyDMA.c **** {
 1661              		.loc 1 997 0
 1662              		.cfi_startproc
 1663              		@ args = 0, pretend = 0, frame = 0
 1664              		@ frame_needed = 0, uses_anonymous_args = 0
 1665              	.LVL140:
 1666 0000 70B5     		push	{r4, r5, r6, lr}
 1667              		.cfi_def_cfa_offset 16
 1668              		.cfi_offset 4, -16
 1669              		.cfi_offset 5, -12
 1670              		.cfi_offset 6, -8
 1671              		.cfi_offset 14, -4
 1672              		.loc 1 997 0
 1673 0002 0500     		movs	r5, r0
 1674 0004 0C00     		movs	r4, r1
 998:Generated_Source\PSoC4/CyDMA.c ****     CYASSERT((channel    >= 0) && (channel    < CYDMA_CH_NR));
 1675              		.loc 1 998 0
 1676 0006 0728     		cmp	r0, #7
 1677 0008 02D9     		bls	.L171
 1678              		.loc 1 998 0 is_stmt 0 discriminator 1
 1679 000a 0020     		movs	r0, #0
 1680              	.LVL141:
 1681 000c FFF7FEFF 		bl	CyHalt
 1682              	.LVL142:
 1683              	.L171:
 999:Generated_Source\PSoC4/CyDMA.c ****     CYASSERT((descriptor >= 0) && (descriptor < CYDMA_DESCR_NR));
 1684              		.loc 1 999 0 is_stmt 1
 1685 0010 012C     		cmp	r4, #1
 1686 0012 02D9     		bls	.L172
 1687              		.loc 1 999 0 is_stmt 0 discriminator 1
 1688 0014 0020     		movs	r0, #0
 1689 0016 FFF7FEFF 		bl	CyHalt
 1690              	.LVL143:
 1691              	.L172:
1000:Generated_Source\PSoC4/CyDMA.c **** 
1001:Generated_Source\PSoC4/CyDMA.c ****     return (CYDMA_DESCR_BASE.descriptor[channel][descriptor].ctl & CYDMA_DATA_SIZE);
 1692              		.loc 1 1001 0 is_stmt 1
 1693 001a 6D00     		lsls	r5, r5, #1
 1694              	.LVL144:
 1695 001c 2C19     		adds	r4, r5, r4
 1696              	.LVL145:
 1697 001e 044B     		ldr	r3, .L173
 1698 0020 2401     		lsls	r4, r4, #4
 1699 0022 E418     		adds	r4, r4, r3
ARM GAS  C:\Users\RYANCA~1\AppData\Local\Temp\ccQoZK0a.s 			page 50


 1700 0024 C023     		movs	r3, #192
 1701 0026 A068     		ldr	r0, [r4, #8]
 1702 0028 9B02     		lsls	r3, r3, #10
 1703 002a 1840     		ands	r0, r3
1002:Generated_Source\PSoC4/CyDMA.c **** }
 1704              		.loc 1 1002 0
 1705              		@ sp needed
 1706 002c 70BD     		pop	{r4, r5, r6, pc}
 1707              	.L174:
 1708 002e C046     		.align	2
 1709              	.L173:
 1710 0030 00181040 		.word	1074796544
 1711              		.cfi_endproc
 1712              	.LFE34:
 1713              		.size	CyDmaGetDataElementSize, .-CyDmaGetDataElementSize
 1714              		.section	.text.CyDmaSetNumDataElements,"ax",%progbits
 1715              		.align	1
 1716              		.global	CyDmaSetNumDataElements
 1717              		.code	16
 1718              		.thumb_func
 1719              		.type	CyDmaSetNumDataElements, %function
 1720              	CyDmaSetNumDataElements:
 1721              	.LFB35:
1003:Generated_Source\PSoC4/CyDMA.c **** 
1004:Generated_Source\PSoC4/CyDMA.c **** 
1005:Generated_Source\PSoC4/CyDMA.c **** /*******************************************************************************
1006:Generated_Source\PSoC4/CyDMA.c **** * Function Name: CyDmaSetNumDataElements
1007:Generated_Source\PSoC4/CyDMA.c **** ********************************************************************************
1008:Generated_Source\PSoC4/CyDMA.c **** *
1009:Generated_Source\PSoC4/CyDMA.c **** * Summary:
1010:Generated_Source\PSoC4/CyDMA.c **** *  Sets the number of data elements to transfer for specified descriptor.
1011:Generated_Source\PSoC4/CyDMA.c **** *
1012:Generated_Source\PSoC4/CyDMA.c **** * Parameters:
1013:Generated_Source\PSoC4/CyDMA.c **** *  channel:         Channel used by this function.
1014:Generated_Source\PSoC4/CyDMA.c **** *  descriptor:      Descriptor (0 or 1) modified by this function.
1015:Generated_Source\PSoC4/CyDMA.c **** *  numDataElements: Total number of data elements this descriptor transfers.
1016:Generated_Source\PSoC4/CyDMA.c **** *                   Valid ranges are 1 to 65536.
1017:Generated_Source\PSoC4/CyDMA.c **** *                   
1018:Generated_Source\PSoC4/CyDMA.c **** * Return:
1019:Generated_Source\PSoC4/CyDMA.c **** *  None.
1020:Generated_Source\PSoC4/CyDMA.c **** *
1021:Generated_Source\PSoC4/CyDMA.c **** * Side effect:
1022:Generated_Source\PSoC4/CyDMA.c **** *  This function should not be called when the specified descriptor is active
1023:Generated_Source\PSoC4/CyDMA.c **** *  in the DMA transfer engine. This can be checked by calling CyDmaGetStatus(). 
1024:Generated_Source\PSoC4/CyDMA.c **** *
1025:Generated_Source\PSoC4/CyDMA.c **** *******************************************************************************/
1026:Generated_Source\PSoC4/CyDMA.c **** void CyDmaSetNumDataElements(int32 channel, int32 descriptor, int32 numDataElements)
1027:Generated_Source\PSoC4/CyDMA.c **** {
 1722              		.loc 1 1027 0
 1723              		.cfi_startproc
 1724              		@ args = 0, pretend = 0, frame = 0
 1725              		@ frame_needed = 0, uses_anonymous_args = 0
 1726              	.LVL146:
 1727 0000 70B5     		push	{r4, r5, r6, lr}
 1728              		.cfi_def_cfa_offset 16
 1729              		.cfi_offset 4, -16
 1730              		.cfi_offset 5, -12
ARM GAS  C:\Users\RYANCA~1\AppData\Local\Temp\ccQoZK0a.s 			page 51


 1731              		.cfi_offset 6, -8
 1732              		.cfi_offset 14, -4
 1733              		.loc 1 1027 0
 1734 0002 0600     		movs	r6, r0
 1735 0004 0C00     		movs	r4, r1
 1736 0006 1500     		movs	r5, r2
1028:Generated_Source\PSoC4/CyDMA.c ****     uint32 regValue;
1029:Generated_Source\PSoC4/CyDMA.c ****     
1030:Generated_Source\PSoC4/CyDMA.c ****     CYASSERT((channel        >= 0) && (channel         <  CYDMA_CH_NR));
 1737              		.loc 1 1030 0
 1738 0008 0728     		cmp	r0, #7
 1739 000a 02D9     		bls	.L176
 1740              		.loc 1 1030 0 is_stmt 0 discriminator 1
 1741 000c 0020     		movs	r0, #0
 1742              	.LVL147:
 1743 000e FFF7FEFF 		bl	CyHalt
 1744              	.LVL148:
 1745              	.L176:
1031:Generated_Source\PSoC4/CyDMA.c ****     CYASSERT((descriptor     >= 0) && (descriptor      <  CYDMA_DESCR_NR));
 1746              		.loc 1 1031 0 is_stmt 1
 1747 0012 012C     		cmp	r4, #1
 1748 0014 02D9     		bls	.L177
 1749              		.loc 1 1031 0 is_stmt 0 discriminator 1
 1750 0016 0020     		movs	r0, #0
 1751 0018 FFF7FEFF 		bl	CyHalt
 1752              	.LVL149:
 1753              	.L177:
1032:Generated_Source\PSoC4/CyDMA.c ****     CYASSERT((numDataElements > 0) && (numDataElements <= CYDMA_MAX_DATA_NR));
 1754              		.loc 1 1032 0 is_stmt 1
 1755 001c 084B     		ldr	r3, .L179
 1756 001e 013D     		subs	r5, r5, #1
 1757              	.LVL150:
 1758 0020 9D42     		cmp	r5, r3
 1759 0022 02D9     		bls	.L178
 1760              		.loc 1 1032 0 is_stmt 0 discriminator 1
 1761 0024 0020     		movs	r0, #0
 1762 0026 FFF7FEFF 		bl	CyHalt
 1763              	.LVL151:
 1764              	.L178:
1033:Generated_Source\PSoC4/CyDMA.c ****     
1034:Generated_Source\PSoC4/CyDMA.c ****     --numDataElements;
1035:Generated_Source\PSoC4/CyDMA.c ****     regValue = CYDMA_DESCR_BASE.descriptor[channel][descriptor].ctl & (uint32)~CYDMA_DATA_NR;
 1765              		.loc 1 1035 0 is_stmt 1
 1766 002a 7600     		lsls	r6, r6, #1
 1767              	.LVL152:
 1768 002c 3419     		adds	r4, r6, r4
 1769              	.LVL153:
 1770 002e 054B     		ldr	r3, .L179+4
 1771 0030 2401     		lsls	r4, r4, #4
 1772 0032 E418     		adds	r4, r4, r3
 1773 0034 A368     		ldr	r3, [r4, #8]
 1774              	.LVL154:
1036:Generated_Source\PSoC4/CyDMA.c ****     CYDMA_DESCR_BASE.descriptor[channel][descriptor].ctl = regValue | (uint32)numDataElements;
1037:Generated_Source\PSoC4/CyDMA.c **** }
 1775              		.loc 1 1037 0
 1776              		@ sp needed
1036:Generated_Source\PSoC4/CyDMA.c ****     CYDMA_DESCR_BASE.descriptor[channel][descriptor].ctl = regValue | (uint32)numDataElements;
ARM GAS  C:\Users\RYANCA~1\AppData\Local\Temp\ccQoZK0a.s 			page 52


 1777              		.loc 1 1036 0
 1778 0036 1B0C     		lsrs	r3, r3, #16
 1779              	.LVL155:
 1780 0038 1B04     		lsls	r3, r3, #16
 1781 003a 1D43     		orrs	r5, r3
 1782              	.LVL156:
 1783 003c A560     		str	r5, [r4, #8]
 1784              		.loc 1 1037 0
 1785 003e 70BD     		pop	{r4, r5, r6, pc}
 1786              	.L180:
 1787              		.align	2
 1788              	.L179:
 1789 0040 FFFF0000 		.word	65535
 1790 0044 00181040 		.word	1074796544
 1791              		.cfi_endproc
 1792              	.LFE35:
 1793              		.size	CyDmaSetNumDataElements, .-CyDmaSetNumDataElements
 1794              		.section	.text.CyDmaGetNumDataElements,"ax",%progbits
 1795              		.align	1
 1796              		.global	CyDmaGetNumDataElements
 1797              		.code	16
 1798              		.thumb_func
 1799              		.type	CyDmaGetNumDataElements, %function
 1800              	CyDmaGetNumDataElements:
 1801              	.LFB36:
1038:Generated_Source\PSoC4/CyDMA.c **** 
1039:Generated_Source\PSoC4/CyDMA.c **** 
1040:Generated_Source\PSoC4/CyDMA.c **** /*******************************************************************************
1041:Generated_Source\PSoC4/CyDMA.c **** * Function Name: CyDmaGetNumDataElements
1042:Generated_Source\PSoC4/CyDMA.c **** ********************************************************************************
1043:Generated_Source\PSoC4/CyDMA.c **** *
1044:Generated_Source\PSoC4/CyDMA.c **** * Summary:
1045:Generated_Source\PSoC4/CyDMA.c **** *  Returns the number of data elements to be transferred. Only reflects the
1046:Generated_Source\PSoC4/CyDMA.c **** *  value written by CyDmaSetNumDataElements() or CyDmaSetConfiguration(). This
1047:Generated_Source\PSoC4/CyDMA.c **** *  does not reflect how many elements have been transferred. For that
1048:Generated_Source\PSoC4/CyDMA.c **** *  information use the CyDmaGetDescriptorStatus() function.
1049:Generated_Source\PSoC4/CyDMA.c **** *
1050:Generated_Source\PSoC4/CyDMA.c **** * Parameters:
1051:Generated_Source\PSoC4/CyDMA.c **** *  channel:    Channel used by this function.
1052:Generated_Source\PSoC4/CyDMA.c **** *  descriptor: Descriptor (0 or 1) modified by this function.
1053:Generated_Source\PSoC4/CyDMA.c **** *                   
1054:Generated_Source\PSoC4/CyDMA.c **** * Return:
1055:Generated_Source\PSoC4/CyDMA.c **** *  Number of data elements to transfer.
1056:Generated_Source\PSoC4/CyDMA.c **** *
1057:Generated_Source\PSoC4/CyDMA.c **** *******************************************************************************/
1058:Generated_Source\PSoC4/CyDMA.c **** int32 CyDmaGetNumDataElements(int32 channel, int32 descriptor)
1059:Generated_Source\PSoC4/CyDMA.c **** {
 1802              		.loc 1 1059 0
 1803              		.cfi_startproc
 1804              		@ args = 0, pretend = 0, frame = 0
 1805              		@ frame_needed = 0, uses_anonymous_args = 0
 1806              	.LVL157:
 1807 0000 70B5     		push	{r4, r5, r6, lr}
 1808              		.cfi_def_cfa_offset 16
 1809              		.cfi_offset 4, -16
 1810              		.cfi_offset 5, -12
 1811              		.cfi_offset 6, -8
ARM GAS  C:\Users\RYANCA~1\AppData\Local\Temp\ccQoZK0a.s 			page 53


 1812              		.cfi_offset 14, -4
 1813              		.loc 1 1059 0
 1814 0002 0500     		movs	r5, r0
 1815 0004 0C00     		movs	r4, r1
1060:Generated_Source\PSoC4/CyDMA.c ****     uint32 numElements;
1061:Generated_Source\PSoC4/CyDMA.c **** 
1062:Generated_Source\PSoC4/CyDMA.c ****     CYASSERT((channel    >= 0) && (channel    < CYDMA_CH_NR));
 1816              		.loc 1 1062 0
 1817 0006 0728     		cmp	r0, #7
 1818 0008 02D9     		bls	.L182
 1819              		.loc 1 1062 0 is_stmt 0 discriminator 1
 1820 000a 0020     		movs	r0, #0
 1821              	.LVL158:
 1822 000c FFF7FEFF 		bl	CyHalt
 1823              	.LVL159:
 1824              	.L182:
1063:Generated_Source\PSoC4/CyDMA.c ****     CYASSERT((descriptor >= 0) && (descriptor < CYDMA_DESCR_NR));
 1825              		.loc 1 1063 0 is_stmt 1
 1826 0010 012C     		cmp	r4, #1
 1827 0012 02D9     		bls	.L183
 1828              		.loc 1 1063 0 is_stmt 0 discriminator 1
 1829 0014 0020     		movs	r0, #0
 1830 0016 FFF7FEFF 		bl	CyHalt
 1831              	.LVL160:
 1832              	.L183:
1064:Generated_Source\PSoC4/CyDMA.c ****     
1065:Generated_Source\PSoC4/CyDMA.c ****     numElements = (CYDMA_DESCR_BASE.descriptor[channel][descriptor].ctl & CYDMA_DATA_NR) + 1u;
 1833              		.loc 1 1065 0 is_stmt 1
 1834 001a 6D00     		lsls	r5, r5, #1
 1835              	.LVL161:
 1836 001c 2C19     		adds	r4, r5, r4
 1837              	.LVL162:
 1838 001e 034B     		ldr	r3, .L184
 1839 0020 2401     		lsls	r4, r4, #4
 1840 0022 E418     		adds	r4, r4, r3
 1841 0024 A068     		ldr	r0, [r4, #8]
 1842              	.LVL163:
1066:Generated_Source\PSoC4/CyDMA.c ****     return ((int32)numElements);
1067:Generated_Source\PSoC4/CyDMA.c **** }
 1843              		.loc 1 1067 0
 1844              		@ sp needed
1066:Generated_Source\PSoC4/CyDMA.c ****     return ((int32)numElements);
 1845              		.loc 1 1066 0
 1846 0026 80B2     		uxth	r0, r0
 1847              	.LVL164:
 1848 0028 0130     		adds	r0, r0, #1
 1849              		.loc 1 1067 0
 1850 002a 70BD     		pop	{r4, r5, r6, pc}
 1851              	.L185:
 1852              		.align	2
 1853              	.L184:
 1854 002c 00181040 		.word	1074796544
 1855              		.cfi_endproc
 1856              	.LFE36:
 1857              		.size	CyDmaGetNumDataElements, .-CyDmaGetNumDataElements
 1858              		.section	.text.CyDmaSetSrcDstTransferWidth,"ax",%progbits
 1859              		.align	1
ARM GAS  C:\Users\RYANCA~1\AppData\Local\Temp\ccQoZK0a.s 			page 54


 1860              		.global	CyDmaSetSrcDstTransferWidth
 1861              		.code	16
 1862              		.thumb_func
 1863              		.type	CyDmaSetSrcDstTransferWidth, %function
 1864              	CyDmaSetSrcDstTransferWidth:
 1865              	.LFB37:
1068:Generated_Source\PSoC4/CyDMA.c **** 
1069:Generated_Source\PSoC4/CyDMA.c **** 
1070:Generated_Source\PSoC4/CyDMA.c **** /*******************************************************************************
1071:Generated_Source\PSoC4/CyDMA.c **** * Function Name: CyDmaSetSrcDstTransferWidth
1072:Generated_Source\PSoC4/CyDMA.c **** ********************************************************************************
1073:Generated_Source\PSoC4/CyDMA.c **** *
1074:Generated_Source\PSoC4/CyDMA.c **** * Summary:
1075:Generated_Source\PSoC4/CyDMA.c **** *  Sets the width of the source and destination. The DMA can either read and
1076:Generated_Source\PSoC4/CyDMA.c **** *  write data from the source and destination at the size specified by
1077:Generated_Source\PSoC4/CyDMA.c **** *  CyDmaSetDataElementSize() or by a word (4bytes). This also determines how
1078:Generated_Source\PSoC4/CyDMA.c **** *  many bytes the addresses are incremented if increment source and destination
1079:Generated_Source\PSoC4/CyDMA.c **** *  address are turned on.
1080:Generated_Source\PSoC4/CyDMA.c **** *
1081:Generated_Source\PSoC4/CyDMA.c **** * Parameters:
1082:Generated_Source\PSoC4/CyDMA.c **** *  channel:       Channel used by this function.
1083:Generated_Source\PSoC4/CyDMA.c **** *  descriptor:    Descriptor (0 or 1) modified by this function.
1084:Generated_Source\PSoC4/CyDMA.c **** *  transferWidth: Specifies the source and destination widths. Refer to 
1085:Generated_Source\PSoC4/CyDMA.c **** *                 the API bit field definitions in CyDMA_P4.h or the API
1086:Generated_Source\PSoC4/CyDMA.c **** *                 description in the DMA channel datasheet for the parameter
1087:Generated_Source\PSoC4/CyDMA.c **** *                 options.
1088:Generated_Source\PSoC4/CyDMA.c **** *                   
1089:Generated_Source\PSoC4/CyDMA.c **** * Return:
1090:Generated_Source\PSoC4/CyDMA.c **** *  None.
1091:Generated_Source\PSoC4/CyDMA.c **** *
1092:Generated_Source\PSoC4/CyDMA.c **** * Side effect:
1093:Generated_Source\PSoC4/CyDMA.c **** *  This function should not be called when the specified descriptor is active
1094:Generated_Source\PSoC4/CyDMA.c **** *  in the DMA transfer engine. This can be checked by calling CyDmaGetStatus(). 
1095:Generated_Source\PSoC4/CyDMA.c **** *
1096:Generated_Source\PSoC4/CyDMA.c **** *******************************************************************************/
1097:Generated_Source\PSoC4/CyDMA.c **** void CyDmaSetSrcDstTransferWidth(int32 channel, int32 descriptor, uint32 transferWidth)
1098:Generated_Source\PSoC4/CyDMA.c **** {
 1866              		.loc 1 1098 0
 1867              		.cfi_startproc
 1868              		@ args = 0, pretend = 0, frame = 0
 1869              		@ frame_needed = 0, uses_anonymous_args = 0
 1870              	.LVL165:
 1871 0000 F8B5     		push	{r3, r4, r5, r6, r7, lr}
 1872              		.cfi_def_cfa_offset 24
 1873              		.cfi_offset 3, -24
 1874              		.cfi_offset 4, -20
 1875              		.cfi_offset 5, -16
 1876              		.cfi_offset 6, -12
 1877              		.cfi_offset 7, -8
 1878              		.cfi_offset 14, -4
 1879              		.loc 1 1098 0
 1880 0002 0700     		movs	r7, r0
 1881 0004 0C00     		movs	r4, r1
 1882 0006 1500     		movs	r5, r2
1099:Generated_Source\PSoC4/CyDMA.c ****     uint32 regValue;
1100:Generated_Source\PSoC4/CyDMA.c **** 
1101:Generated_Source\PSoC4/CyDMA.c ****     CYASSERT((channel    >= 0) && (channel    < CYDMA_CH_NR));
ARM GAS  C:\Users\RYANCA~1\AppData\Local\Temp\ccQoZK0a.s 			page 55


 1883              		.loc 1 1101 0
 1884 0008 0728     		cmp	r0, #7
 1885 000a 02D9     		bls	.L187
 1886              		.loc 1 1101 0 is_stmt 0 discriminator 1
 1887 000c 0020     		movs	r0, #0
 1888              	.LVL166:
 1889 000e FFF7FEFF 		bl	CyHalt
 1890              	.LVL167:
 1891              	.L187:
1102:Generated_Source\PSoC4/CyDMA.c ****     CYASSERT((descriptor >= 0) && (descriptor < CYDMA_DESCR_NR));
 1892              		.loc 1 1102 0 is_stmt 1
 1893 0012 012C     		cmp	r4, #1
 1894 0014 02D9     		bls	.L188
 1895              		.loc 1 1102 0 is_stmt 0 discriminator 1
 1896 0016 0020     		movs	r0, #0
 1897 0018 FFF7FEFF 		bl	CyHalt
 1898              	.LVL168:
 1899              	.L188:
 1900 001c 074E     		ldr	r6, .L193
1103:Generated_Source\PSoC4/CyDMA.c ****     CYASSERT(0u == (transferWidth & (uint32)~CYDMA_TRANSFER_WIDTH));
 1901              		.loc 1 1103 0 is_stmt 1
 1902 001e 3542     		tst	r5, r6
 1903 0020 02D0     		beq	.L189
 1904              		.loc 1 1103 0 is_stmt 0 discriminator 1
 1905 0022 0020     		movs	r0, #0
 1906 0024 FFF7FEFF 		bl	CyHalt
 1907              	.LVL169:
 1908              	.L189:
1104:Generated_Source\PSoC4/CyDMA.c **** 
1105:Generated_Source\PSoC4/CyDMA.c ****     regValue = CYDMA_DESCR_BASE.descriptor[channel][descriptor].ctl & (uint32)~CYDMA_TRANSFER_WIDTH
 1909              		.loc 1 1105 0 is_stmt 1
 1910 0028 7F00     		lsls	r7, r7, #1
 1911              	.LVL170:
 1912 002a 3C19     		adds	r4, r7, r4
 1913              	.LVL171:
 1914 002c 044B     		ldr	r3, .L193+4
 1915 002e 2401     		lsls	r4, r4, #4
 1916 0030 E418     		adds	r4, r4, r3
 1917 0032 A368     		ldr	r3, [r4, #8]
 1918              	.LVL172:
1106:Generated_Source\PSoC4/CyDMA.c ****     CYDMA_DESCR_BASE.descriptor[channel][descriptor].ctl = regValue | transferWidth;
1107:Generated_Source\PSoC4/CyDMA.c **** }
 1919              		.loc 1 1107 0
 1920              		@ sp needed
1106:Generated_Source\PSoC4/CyDMA.c ****     CYDMA_DESCR_BASE.descriptor[channel][descriptor].ctl = regValue | transferWidth;
 1921              		.loc 1 1106 0
 1922 0034 1E40     		ands	r6, r3
 1923 0036 3543     		orrs	r5, r6
 1924              	.LVL173:
 1925 0038 A560     		str	r5, [r4, #8]
 1926              		.loc 1 1107 0
 1927 003a F8BD     		pop	{r3, r4, r5, r6, r7, pc}
 1928              	.L194:
 1929              		.align	2
 1930              	.L193:
 1931 003c FFFFAFFF 		.word	-5242881
 1932 0040 00181040 		.word	1074796544
ARM GAS  C:\Users\RYANCA~1\AppData\Local\Temp\ccQoZK0a.s 			page 56


 1933              		.cfi_endproc
 1934              	.LFE37:
 1935              		.size	CyDmaSetSrcDstTransferWidth, .-CyDmaSetSrcDstTransferWidth
 1936              		.section	.text.CyDmaGetSrcDstTransferWidth,"ax",%progbits
 1937              		.align	1
 1938              		.global	CyDmaGetSrcDstTransferWidth
 1939              		.code	16
 1940              		.thumb_func
 1941              		.type	CyDmaGetSrcDstTransferWidth, %function
 1942              	CyDmaGetSrcDstTransferWidth:
 1943              	.LFB38:
1108:Generated_Source\PSoC4/CyDMA.c **** 
1109:Generated_Source\PSoC4/CyDMA.c **** 
1110:Generated_Source\PSoC4/CyDMA.c **** /*******************************************************************************
1111:Generated_Source\PSoC4/CyDMA.c **** * Function Name: CyDmaGetSrcDstTransferWidth
1112:Generated_Source\PSoC4/CyDMA.c **** ********************************************************************************
1113:Generated_Source\PSoC4/CyDMA.c **** *
1114:Generated_Source\PSoC4/CyDMA.c **** * Summary:
1115:Generated_Source\PSoC4/CyDMA.c **** *  Returns the width of the source and destination, as set by 
1116:Generated_Source\PSoC4/CyDMA.c **** *  CyDmaSetSrcDstTransferWidth() or CyDmaSetConfiguration().
1117:Generated_Source\PSoC4/CyDMA.c **** *
1118:Generated_Source\PSoC4/CyDMA.c **** * Parameters:
1119:Generated_Source\PSoC4/CyDMA.c **** *  channel:    Channel used by this function.
1120:Generated_Source\PSoC4/CyDMA.c **** *  descriptor: Descriptor (0 or 1) modified by this function.
1121:Generated_Source\PSoC4/CyDMA.c **** *                   
1122:Generated_Source\PSoC4/CyDMA.c **** * Return:
1123:Generated_Source\PSoC4/CyDMA.c **** *  Width of source and destination. Refer to the API bit field definitions in
1124:Generated_Source\PSoC4/CyDMA.c **** *  CyDMA_P4.h or the API description in the DMA channel datasheet for more
1125:Generated_Source\PSoC4/CyDMA.c **** *  information.
1126:Generated_Source\PSoC4/CyDMA.c **** *
1127:Generated_Source\PSoC4/CyDMA.c **** *******************************************************************************/
1128:Generated_Source\PSoC4/CyDMA.c **** uint32 CyDmaGetSrcDstTransferWidth(int32 channel, int32 descriptor)
1129:Generated_Source\PSoC4/CyDMA.c **** {
 1944              		.loc 1 1129 0
 1945              		.cfi_startproc
 1946              		@ args = 0, pretend = 0, frame = 0
 1947              		@ frame_needed = 0, uses_anonymous_args = 0
 1948              	.LVL174:
 1949 0000 70B5     		push	{r4, r5, r6, lr}
 1950              		.cfi_def_cfa_offset 16
 1951              		.cfi_offset 4, -16
 1952              		.cfi_offset 5, -12
 1953              		.cfi_offset 6, -8
 1954              		.cfi_offset 14, -4
 1955              		.loc 1 1129 0
 1956 0002 0500     		movs	r5, r0
 1957 0004 0C00     		movs	r4, r1
1130:Generated_Source\PSoC4/CyDMA.c ****     CYASSERT((channel    >= 0) && (channel    < CYDMA_CH_NR));
 1958              		.loc 1 1130 0
 1959 0006 0728     		cmp	r0, #7
 1960 0008 02D9     		bls	.L196
 1961              		.loc 1 1130 0 is_stmt 0 discriminator 1
 1962 000a 0020     		movs	r0, #0
 1963              	.LVL175:
 1964 000c FFF7FEFF 		bl	CyHalt
 1965              	.LVL176:
 1966              	.L196:
ARM GAS  C:\Users\RYANCA~1\AppData\Local\Temp\ccQoZK0a.s 			page 57


1131:Generated_Source\PSoC4/CyDMA.c ****     CYASSERT((descriptor >= 0) && (descriptor < CYDMA_DESCR_NR));
 1967              		.loc 1 1131 0 is_stmt 1
 1968 0010 012C     		cmp	r4, #1
 1969 0012 02D9     		bls	.L197
 1970              		.loc 1 1131 0 is_stmt 0 discriminator 1
 1971 0014 0020     		movs	r0, #0
 1972 0016 FFF7FEFF 		bl	CyHalt
 1973              	.LVL177:
 1974              	.L197:
1132:Generated_Source\PSoC4/CyDMA.c ****     return (CYDMA_DESCR_BASE.descriptor[channel][descriptor].ctl & CYDMA_TRANSFER_WIDTH);
 1975              		.loc 1 1132 0 is_stmt 1
 1976 001a 6D00     		lsls	r5, r5, #1
 1977              	.LVL178:
 1978 001c 2C19     		adds	r4, r5, r4
 1979              	.LVL179:
 1980 001e 044B     		ldr	r3, .L198
 1981 0020 2401     		lsls	r4, r4, #4
 1982 0022 E418     		adds	r4, r4, r3
 1983 0024 A023     		movs	r3, #160
 1984 0026 A068     		ldr	r0, [r4, #8]
 1985 0028 DB03     		lsls	r3, r3, #15
 1986 002a 1840     		ands	r0, r3
1133:Generated_Source\PSoC4/CyDMA.c **** }
 1987              		.loc 1 1133 0
 1988              		@ sp needed
 1989 002c 70BD     		pop	{r4, r5, r6, pc}
 1990              	.L199:
 1991 002e C046     		.align	2
 1992              	.L198:
 1993 0030 00181040 		.word	1074796544
 1994              		.cfi_endproc
 1995              	.LFE38:
 1996              		.size	CyDmaGetSrcDstTransferWidth, .-CyDmaGetSrcDstTransferWidth
 1997              		.section	.text.CyDmaSetAddressIncrement,"ax",%progbits
 1998              		.align	1
 1999              		.global	CyDmaSetAddressIncrement
 2000              		.code	16
 2001              		.thumb_func
 2002              		.type	CyDmaSetAddressIncrement, %function
 2003              	CyDmaSetAddressIncrement:
 2004              	.LFB39:
1134:Generated_Source\PSoC4/CyDMA.c **** 
1135:Generated_Source\PSoC4/CyDMA.c **** 
1136:Generated_Source\PSoC4/CyDMA.c **** /*******************************************************************************
1137:Generated_Source\PSoC4/CyDMA.c **** * Function Name: CyDmaSetAddressIncrement
1138:Generated_Source\PSoC4/CyDMA.c **** ********************************************************************************
1139:Generated_Source\PSoC4/CyDMA.c **** *
1140:Generated_Source\PSoC4/CyDMA.c **** * Summary:
1141:Generated_Source\PSoC4/CyDMA.c **** *  Sets whether the source or destination addresses are incremented after the
1142:Generated_Source\PSoC4/CyDMA.c **** *  transfer of each data element. The amount that the source and destination
1143:Generated_Source\PSoC4/CyDMA.c **** *  address are incremented is determined by the CyDmaSetSrcDstTransferWidth()
1144:Generated_Source\PSoC4/CyDMA.c **** *  function. The addresses will either be incremented by the data element size
1145:Generated_Source\PSoC4/CyDMA.c **** *  or by a word (4 bytes).
1146:Generated_Source\PSoC4/CyDMA.c **** *
1147:Generated_Source\PSoC4/CyDMA.c **** * Parameters:
1148:Generated_Source\PSoC4/CyDMA.c **** *  channel:          Channel used by this function.
1149:Generated_Source\PSoC4/CyDMA.c **** *  descriptor:       Descriptor (0 or 1) modified by this function.
ARM GAS  C:\Users\RYANCA~1\AppData\Local\Temp\ccQoZK0a.s 			page 58


1150:Generated_Source\PSoC4/CyDMA.c **** *  addressIncrement: Address increment settings. Refer to the API bit fields 
1151:Generated_Source\PSoC4/CyDMA.c **** *                    definition in CyDMA_P4.h or the API description in the DMA
1152:Generated_Source\PSoC4/CyDMA.c **** *                    channel datasheet for the parameter options.
1153:Generated_Source\PSoC4/CyDMA.c **** *    
1154:Generated_Source\PSoC4/CyDMA.c **** * Return:
1155:Generated_Source\PSoC4/CyDMA.c **** *  None.
1156:Generated_Source\PSoC4/CyDMA.c **** *
1157:Generated_Source\PSoC4/CyDMA.c **** * Side effect:
1158:Generated_Source\PSoC4/CyDMA.c **** *  This function should not be called when the specified descriptor is active
1159:Generated_Source\PSoC4/CyDMA.c **** *  in the DMA transfer engine. This can be checked by calling CyDmaGetStatus(). 
1160:Generated_Source\PSoC4/CyDMA.c **** *
1161:Generated_Source\PSoC4/CyDMA.c **** *******************************************************************************/
1162:Generated_Source\PSoC4/CyDMA.c **** void CyDmaSetAddressIncrement(int32 channel, int32 descriptor, uint32 addressIncrement)
1163:Generated_Source\PSoC4/CyDMA.c **** {
 2005              		.loc 1 1163 0
 2006              		.cfi_startproc
 2007              		@ args = 0, pretend = 0, frame = 0
 2008              		@ frame_needed = 0, uses_anonymous_args = 0
 2009              	.LVL180:
 2010 0000 F8B5     		push	{r3, r4, r5, r6, r7, lr}
 2011              		.cfi_def_cfa_offset 24
 2012              		.cfi_offset 3, -24
 2013              		.cfi_offset 4, -20
 2014              		.cfi_offset 5, -16
 2015              		.cfi_offset 6, -12
 2016              		.cfi_offset 7, -8
 2017              		.cfi_offset 14, -4
 2018              		.loc 1 1163 0
 2019 0002 0700     		movs	r7, r0
 2020 0004 0C00     		movs	r4, r1
 2021 0006 1500     		movs	r5, r2
1164:Generated_Source\PSoC4/CyDMA.c ****     uint32 regValue;
1165:Generated_Source\PSoC4/CyDMA.c **** 
1166:Generated_Source\PSoC4/CyDMA.c ****     CYASSERT((channel    >= 0) && (channel    < CYDMA_CH_NR));
 2022              		.loc 1 1166 0
 2023 0008 0728     		cmp	r0, #7
 2024 000a 02D9     		bls	.L201
 2025              		.loc 1 1166 0 is_stmt 0 discriminator 1
 2026 000c 0020     		movs	r0, #0
 2027              	.LVL181:
 2028 000e FFF7FEFF 		bl	CyHalt
 2029              	.LVL182:
 2030              	.L201:
1167:Generated_Source\PSoC4/CyDMA.c ****     CYASSERT((descriptor >= 0) && (descriptor < CYDMA_DESCR_NR));
 2031              		.loc 1 1167 0 is_stmt 1
 2032 0012 012C     		cmp	r4, #1
 2033 0014 02D9     		bls	.L202
 2034              		.loc 1 1167 0 is_stmt 0 discriminator 1
 2035 0016 0020     		movs	r0, #0
 2036 0018 FFF7FEFF 		bl	CyHalt
 2037              	.LVL183:
 2038              	.L202:
 2039 001c 074E     		ldr	r6, .L207
1168:Generated_Source\PSoC4/CyDMA.c ****     CYASSERT(0u == (addressIncrement & (uint32)~CYDMA_ADDR_INCR));
 2040              		.loc 1 1168 0 is_stmt 1
 2041 001e 3542     		tst	r5, r6
 2042 0020 02D0     		beq	.L203
ARM GAS  C:\Users\RYANCA~1\AppData\Local\Temp\ccQoZK0a.s 			page 59


 2043              		.loc 1 1168 0 is_stmt 0 discriminator 1
 2044 0022 0020     		movs	r0, #0
 2045 0024 FFF7FEFF 		bl	CyHalt
 2046              	.LVL184:
 2047              	.L203:
1169:Generated_Source\PSoC4/CyDMA.c **** 
1170:Generated_Source\PSoC4/CyDMA.c ****     regValue = CYDMA_DESCR_BASE.descriptor[channel][descriptor].ctl & (uint32)~CYDMA_ADDR_INCR;
 2048              		.loc 1 1170 0 is_stmt 1
 2049 0028 7F00     		lsls	r7, r7, #1
 2050              	.LVL185:
 2051 002a 3C19     		adds	r4, r7, r4
 2052              	.LVL186:
 2053 002c 044B     		ldr	r3, .L207+4
 2054 002e 2401     		lsls	r4, r4, #4
 2055 0030 E418     		adds	r4, r4, r3
 2056 0032 A368     		ldr	r3, [r4, #8]
 2057              	.LVL187:
1171:Generated_Source\PSoC4/CyDMA.c ****     CYDMA_DESCR_BASE.descriptor[channel][descriptor].ctl = regValue | addressIncrement;
1172:Generated_Source\PSoC4/CyDMA.c **** }
 2058              		.loc 1 1172 0
 2059              		@ sp needed
1171:Generated_Source\PSoC4/CyDMA.c ****     CYDMA_DESCR_BASE.descriptor[channel][descriptor].ctl = regValue | addressIncrement;
 2060              		.loc 1 1171 0
 2061 0034 1E40     		ands	r6, r3
 2062 0036 3543     		orrs	r5, r6
 2063              	.LVL188:
 2064 0038 A560     		str	r5, [r4, #8]
 2065              		.loc 1 1172 0
 2066 003a F8BD     		pop	{r3, r4, r5, r6, r7, pc}
 2067              	.L208:
 2068              		.align	2
 2069              	.L207:
 2070 003c FFFF5FFF 		.word	-10485761
 2071 0040 00181040 		.word	1074796544
 2072              		.cfi_endproc
 2073              	.LFE39:
 2074              		.size	CyDmaSetAddressIncrement, .-CyDmaSetAddressIncrement
 2075              		.section	.text.CyDmaGetAddressIncrement,"ax",%progbits
 2076              		.align	1
 2077              		.global	CyDmaGetAddressIncrement
 2078              		.code	16
 2079              		.thumb_func
 2080              		.type	CyDmaGetAddressIncrement, %function
 2081              	CyDmaGetAddressIncrement:
 2082              	.LFB40:
1173:Generated_Source\PSoC4/CyDMA.c **** 
1174:Generated_Source\PSoC4/CyDMA.c **** 
1175:Generated_Source\PSoC4/CyDMA.c **** /*******************************************************************************
1176:Generated_Source\PSoC4/CyDMA.c **** * Function Name: CyDmaGetAddressIncrement
1177:Generated_Source\PSoC4/CyDMA.c **** ********************************************************************************
1178:Generated_Source\PSoC4/CyDMA.c **** *
1179:Generated_Source\PSoC4/CyDMA.c **** * Summary:
1180:Generated_Source\PSoC4/CyDMA.c **** *  Returns address increment settings as set by CyDmaSetAddressIncrement() or
1181:Generated_Source\PSoC4/CyDMA.c **** *  CyDmaSetConfiguration().
1182:Generated_Source\PSoC4/CyDMA.c **** *
1183:Generated_Source\PSoC4/CyDMA.c **** * Parameters:
1184:Generated_Source\PSoC4/CyDMA.c **** *  channel:    Channel used by this function.
ARM GAS  C:\Users\RYANCA~1\AppData\Local\Temp\ccQoZK0a.s 			page 60


1185:Generated_Source\PSoC4/CyDMA.c **** *  descriptor: Descriptor (0 or 1) modified by this function.
1186:Generated_Source\PSoC4/CyDMA.c **** *                   
1187:Generated_Source\PSoC4/CyDMA.c **** * Return:
1188:Generated_Source\PSoC4/CyDMA.c **** *  Address increment settings. Refer to the API bit field definitions in
1189:Generated_Source\PSoC4/CyDMA.c **** *  CyDMA_P4.h or the API description in the DMA channel datasheet for more
1190:Generated_Source\PSoC4/CyDMA.c **** *  information.
1191:Generated_Source\PSoC4/CyDMA.c **** *
1192:Generated_Source\PSoC4/CyDMA.c **** *******************************************************************************/
1193:Generated_Source\PSoC4/CyDMA.c **** uint32 CyDmaGetAddressIncrement(int32 channel, int32 descriptor)
1194:Generated_Source\PSoC4/CyDMA.c **** {
 2083              		.loc 1 1194 0
 2084              		.cfi_startproc
 2085              		@ args = 0, pretend = 0, frame = 0
 2086              		@ frame_needed = 0, uses_anonymous_args = 0
 2087              	.LVL189:
 2088 0000 70B5     		push	{r4, r5, r6, lr}
 2089              		.cfi_def_cfa_offset 16
 2090              		.cfi_offset 4, -16
 2091              		.cfi_offset 5, -12
 2092              		.cfi_offset 6, -8
 2093              		.cfi_offset 14, -4
 2094              		.loc 1 1194 0
 2095 0002 0500     		movs	r5, r0
 2096 0004 0C00     		movs	r4, r1
1195:Generated_Source\PSoC4/CyDMA.c ****     CYASSERT((channel    >= 0) && (channel    < CYDMA_CH_NR));
 2097              		.loc 1 1195 0
 2098 0006 0728     		cmp	r0, #7
 2099 0008 02D9     		bls	.L210
 2100              		.loc 1 1195 0 is_stmt 0 discriminator 1
 2101 000a 0020     		movs	r0, #0
 2102              	.LVL190:
 2103 000c FFF7FEFF 		bl	CyHalt
 2104              	.LVL191:
 2105              	.L210:
1196:Generated_Source\PSoC4/CyDMA.c ****     CYASSERT((descriptor >= 0) && (descriptor < CYDMA_DESCR_NR));
 2106              		.loc 1 1196 0 is_stmt 1
 2107 0010 012C     		cmp	r4, #1
 2108 0012 02D9     		bls	.L211
 2109              		.loc 1 1196 0 is_stmt 0 discriminator 1
 2110 0014 0020     		movs	r0, #0
 2111 0016 FFF7FEFF 		bl	CyHalt
 2112              	.LVL192:
 2113              	.L211:
1197:Generated_Source\PSoC4/CyDMA.c **** 
1198:Generated_Source\PSoC4/CyDMA.c ****     return (CYDMA_DESCR_BASE.descriptor[channel][descriptor].ctl & CYDMA_ADDR_INCR);
 2114              		.loc 1 1198 0 is_stmt 1
 2115 001a 6D00     		lsls	r5, r5, #1
 2116              	.LVL193:
 2117 001c 2C19     		adds	r4, r5, r4
 2118              	.LVL194:
 2119 001e 044B     		ldr	r3, .L212
 2120 0020 2401     		lsls	r4, r4, #4
 2121 0022 E418     		adds	r4, r4, r3
 2122 0024 A023     		movs	r3, #160
 2123 0026 A068     		ldr	r0, [r4, #8]
 2124 0028 1B04     		lsls	r3, r3, #16
 2125 002a 1840     		ands	r0, r3
ARM GAS  C:\Users\RYANCA~1\AppData\Local\Temp\ccQoZK0a.s 			page 61


1199:Generated_Source\PSoC4/CyDMA.c **** }
 2126              		.loc 1 1199 0
 2127              		@ sp needed
 2128 002c 70BD     		pop	{r4, r5, r6, pc}
 2129              	.L213:
 2130 002e C046     		.align	2
 2131              	.L212:
 2132 0030 00181040 		.word	1074796544
 2133              		.cfi_endproc
 2134              	.LFE40:
 2135              		.size	CyDmaGetAddressIncrement, .-CyDmaGetAddressIncrement
 2136              		.section	.text.CyDmaSetTriggerType,"ax",%progbits
 2137              		.align	1
 2138              		.global	CyDmaSetTriggerType
 2139              		.code	16
 2140              		.thumb_func
 2141              		.type	CyDmaSetTriggerType, %function
 2142              	CyDmaSetTriggerType:
 2143              	.LFB41:
1200:Generated_Source\PSoC4/CyDMA.c **** 
1201:Generated_Source\PSoC4/CyDMA.c **** 
1202:Generated_Source\PSoC4/CyDMA.c **** /*******************************************************************************
1203:Generated_Source\PSoC4/CyDMA.c **** * Function Name: CyDmaSetTriggerType
1204:Generated_Source\PSoC4/CyDMA.c **** ********************************************************************************
1205:Generated_Source\PSoC4/CyDMA.c **** *
1206:Generated_Source\PSoC4/CyDMA.c **** * Summary:
1207:Generated_Source\PSoC4/CyDMA.c **** *  Sets the type of input trigger for the DMA For level sensitive triggers sets
1208:Generated_Source\PSoC4/CyDMA.c **** *  how long the DMA waits for the trigger to go low (deactivate) before
1209:Generated_Source\PSoC4/CyDMA.c **** *  triggering the channel again.
1210:Generated_Source\PSoC4/CyDMA.c **** *
1211:Generated_Source\PSoC4/CyDMA.c **** * Parameters:
1212:Generated_Source\PSoC4/CyDMA.c **** *  channel:     Channel used by this function.
1213:Generated_Source\PSoC4/CyDMA.c **** *  descriptor:  Descriptor (0 or 1) modified by this function.
1214:Generated_Source\PSoC4/CyDMA.c **** *  triggerType: Type of DMA trigger. Refer to the API bit field definitions
1215:Generated_Source\PSoC4/CyDMA.c **** *               in CyDMA_P4.h or the API description in the DMA channel
1216:Generated_Source\PSoC4/CyDMA.c **** *               datasheet for the parameter options.
1217:Generated_Source\PSoC4/CyDMA.c **** *                   
1218:Generated_Source\PSoC4/CyDMA.c **** * Return:
1219:Generated_Source\PSoC4/CyDMA.c **** *  None.
1220:Generated_Source\PSoC4/CyDMA.c **** *
1221:Generated_Source\PSoC4/CyDMA.c **** * Side effect:
1222:Generated_Source\PSoC4/CyDMA.c **** *  This function should not be called when the specified descriptor is active
1223:Generated_Source\PSoC4/CyDMA.c **** *  in the DMA transfer engine. This can be checked by calling CyDmaGetStatus(). 
1224:Generated_Source\PSoC4/CyDMA.c **** *
1225:Generated_Source\PSoC4/CyDMA.c **** *******************************************************************************/
1226:Generated_Source\PSoC4/CyDMA.c **** void CyDmaSetTriggerType(int32 channel, int32 descriptor, uint32 triggerType)
1227:Generated_Source\PSoC4/CyDMA.c **** {
 2144              		.loc 1 1227 0
 2145              		.cfi_startproc
 2146              		@ args = 0, pretend = 0, frame = 0
 2147              		@ frame_needed = 0, uses_anonymous_args = 0
 2148              	.LVL195:
 2149 0000 F8B5     		push	{r3, r4, r5, r6, r7, lr}
 2150              		.cfi_def_cfa_offset 24
 2151              		.cfi_offset 3, -24
 2152              		.cfi_offset 4, -20
 2153              		.cfi_offset 5, -16
ARM GAS  C:\Users\RYANCA~1\AppData\Local\Temp\ccQoZK0a.s 			page 62


 2154              		.cfi_offset 6, -12
 2155              		.cfi_offset 7, -8
 2156              		.cfi_offset 14, -4
 2157              		.loc 1 1227 0
 2158 0002 0700     		movs	r7, r0
 2159 0004 0C00     		movs	r4, r1
 2160 0006 1500     		movs	r5, r2
1228:Generated_Source\PSoC4/CyDMA.c ****     uint32 regValue;
1229:Generated_Source\PSoC4/CyDMA.c **** 
1230:Generated_Source\PSoC4/CyDMA.c ****     CYASSERT((channel    >= 0) && (channel    < CYDMA_CH_NR));
 2161              		.loc 1 1230 0
 2162 0008 0728     		cmp	r0, #7
 2163 000a 02D9     		bls	.L215
 2164              		.loc 1 1230 0 is_stmt 0 discriminator 1
 2165 000c 0020     		movs	r0, #0
 2166              	.LVL196:
 2167 000e FFF7FEFF 		bl	CyHalt
 2168              	.LVL197:
 2169              	.L215:
1231:Generated_Source\PSoC4/CyDMA.c ****     CYASSERT((descriptor >= 0) && (descriptor < CYDMA_DESCR_NR));
 2170              		.loc 1 1231 0 is_stmt 1
 2171 0012 012C     		cmp	r4, #1
 2172 0014 02D9     		bls	.L216
 2173              		.loc 1 1231 0 is_stmt 0 discriminator 1
 2174 0016 0020     		movs	r0, #0
 2175 0018 FFF7FEFF 		bl	CyHalt
 2176              	.LVL198:
 2177              	.L216:
 2178 001c 074E     		ldr	r6, .L221
1232:Generated_Source\PSoC4/CyDMA.c ****     CYASSERT(0u == (triggerType & (uint32)~CYDMA_TRIGGER_TYPE));
 2179              		.loc 1 1232 0 is_stmt 1
 2180 001e 3542     		tst	r5, r6
 2181 0020 02D0     		beq	.L217
 2182              		.loc 1 1232 0 is_stmt 0 discriminator 1
 2183 0022 0020     		movs	r0, #0
 2184 0024 FFF7FEFF 		bl	CyHalt
 2185              	.LVL199:
 2186              	.L217:
1233:Generated_Source\PSoC4/CyDMA.c **** 
1234:Generated_Source\PSoC4/CyDMA.c ****     regValue = CYDMA_DESCR_BASE.descriptor[channel][descriptor].ctl & (uint32)~CYDMA_TRIGGER_TYPE;
 2187              		.loc 1 1234 0 is_stmt 1
 2188 0028 7F00     		lsls	r7, r7, #1
 2189              	.LVL200:
 2190 002a 3C19     		adds	r4, r7, r4
 2191              	.LVL201:
 2192 002c 044B     		ldr	r3, .L221+4
 2193 002e 2401     		lsls	r4, r4, #4
 2194 0030 E418     		adds	r4, r4, r3
 2195 0032 A368     		ldr	r3, [r4, #8]
 2196              	.LVL202:
1235:Generated_Source\PSoC4/CyDMA.c ****     CYDMA_DESCR_BASE.descriptor[channel][descriptor].ctl = regValue | triggerType;
1236:Generated_Source\PSoC4/CyDMA.c **** }
 2197              		.loc 1 1236 0
 2198              		@ sp needed
1235:Generated_Source\PSoC4/CyDMA.c ****     CYDMA_DESCR_BASE.descriptor[channel][descriptor].ctl = regValue | triggerType;
 2199              		.loc 1 1235 0
 2200 0034 1E40     		ands	r6, r3
ARM GAS  C:\Users\RYANCA~1\AppData\Local\Temp\ccQoZK0a.s 			page 63


 2201 0036 3543     		orrs	r5, r6
 2202              	.LVL203:
 2203 0038 A560     		str	r5, [r4, #8]
 2204              		.loc 1 1236 0
 2205 003a F8BD     		pop	{r3, r4, r5, r6, r7, pc}
 2206              	.L222:
 2207              		.align	2
 2208              	.L221:
 2209 003c FFFFFFFC 		.word	-50331649
 2210 0040 00181040 		.word	1074796544
 2211              		.cfi_endproc
 2212              	.LFE41:
 2213              		.size	CyDmaSetTriggerType, .-CyDmaSetTriggerType
 2214              		.section	.text.CyDmaGetTriggerType,"ax",%progbits
 2215              		.align	1
 2216              		.global	CyDmaGetTriggerType
 2217              		.code	16
 2218              		.thumb_func
 2219              		.type	CyDmaGetTriggerType, %function
 2220              	CyDmaGetTriggerType:
 2221              	.LFB42:
1237:Generated_Source\PSoC4/CyDMA.c **** 
1238:Generated_Source\PSoC4/CyDMA.c **** 
1239:Generated_Source\PSoC4/CyDMA.c **** /*******************************************************************************
1240:Generated_Source\PSoC4/CyDMA.c **** * Function Name: CyDmaGetTriggerType
1241:Generated_Source\PSoC4/CyDMA.c **** ********************************************************************************
1242:Generated_Source\PSoC4/CyDMA.c **** *
1243:Generated_Source\PSoC4/CyDMA.c **** * Summary:
1244:Generated_Source\PSoC4/CyDMA.c **** *  Returns the trigger deactivation settings as set by CyDmaSetTriggerType() or
1245:Generated_Source\PSoC4/CyDMA.c **** *  CyDmaSetConfiguration().
1246:Generated_Source\PSoC4/CyDMA.c **** *
1247:Generated_Source\PSoC4/CyDMA.c **** * Parameters:
1248:Generated_Source\PSoC4/CyDMA.c **** *  channel:    Channel used by this function.
1249:Generated_Source\PSoC4/CyDMA.c **** *  descriptor: Descriptor (0 or 1) modified by this function.
1250:Generated_Source\PSoC4/CyDMA.c **** *                   
1251:Generated_Source\PSoC4/CyDMA.c **** * Return:
1252:Generated_Source\PSoC4/CyDMA.c **** *  Trigger deactivation settings. Refer to the API bit field definitions in
1253:Generated_Source\PSoC4/CyDMA.c **** *  CyDMA_P4.h or the API description in the DMA channel datasheet for more
1254:Generated_Source\PSoC4/CyDMA.c **** *  information.
1255:Generated_Source\PSoC4/CyDMA.c **** *
1256:Generated_Source\PSoC4/CyDMA.c **** *******************************************************************************/
1257:Generated_Source\PSoC4/CyDMA.c **** uint32 CyDmaGetTriggerType(int32 channel, int32 descriptor)
1258:Generated_Source\PSoC4/CyDMA.c **** {
 2222              		.loc 1 1258 0
 2223              		.cfi_startproc
 2224              		@ args = 0, pretend = 0, frame = 0
 2225              		@ frame_needed = 0, uses_anonymous_args = 0
 2226              	.LVL204:
 2227 0000 70B5     		push	{r4, r5, r6, lr}
 2228              		.cfi_def_cfa_offset 16
 2229              		.cfi_offset 4, -16
 2230              		.cfi_offset 5, -12
 2231              		.cfi_offset 6, -8
 2232              		.cfi_offset 14, -4
 2233              		.loc 1 1258 0
 2234 0002 0500     		movs	r5, r0
 2235 0004 0C00     		movs	r4, r1
ARM GAS  C:\Users\RYANCA~1\AppData\Local\Temp\ccQoZK0a.s 			page 64


1259:Generated_Source\PSoC4/CyDMA.c ****     CYASSERT((channel    >= 0) && (channel    < CYDMA_CH_NR));
 2236              		.loc 1 1259 0
 2237 0006 0728     		cmp	r0, #7
 2238 0008 02D9     		bls	.L224
 2239              		.loc 1 1259 0 is_stmt 0 discriminator 1
 2240 000a 0020     		movs	r0, #0
 2241              	.LVL205:
 2242 000c FFF7FEFF 		bl	CyHalt
 2243              	.LVL206:
 2244              	.L224:
1260:Generated_Source\PSoC4/CyDMA.c ****     CYASSERT((descriptor >= 0) && (descriptor < CYDMA_DESCR_NR));
 2245              		.loc 1 1260 0 is_stmt 1
 2246 0010 012C     		cmp	r4, #1
 2247 0012 02D9     		bls	.L225
 2248              		.loc 1 1260 0 is_stmt 0 discriminator 1
 2249 0014 0020     		movs	r0, #0
 2250 0016 FFF7FEFF 		bl	CyHalt
 2251              	.LVL207:
 2252              	.L225:
1261:Generated_Source\PSoC4/CyDMA.c **** 
1262:Generated_Source\PSoC4/CyDMA.c ****     return (CYDMA_DESCR_BASE.descriptor[channel][descriptor].ctl & CYDMA_TRIGGER_TYPE);
 2253              		.loc 1 1262 0 is_stmt 1
 2254 001a 6D00     		lsls	r5, r5, #1
 2255              	.LVL208:
 2256 001c 2C19     		adds	r4, r5, r4
 2257              	.LVL209:
 2258 001e 044B     		ldr	r3, .L226
 2259 0020 2401     		lsls	r4, r4, #4
 2260 0022 E418     		adds	r4, r4, r3
 2261 0024 C023     		movs	r3, #192
 2262 0026 A068     		ldr	r0, [r4, #8]
 2263 0028 9B04     		lsls	r3, r3, #18
 2264 002a 1840     		ands	r0, r3
1263:Generated_Source\PSoC4/CyDMA.c **** }
 2265              		.loc 1 1263 0
 2266              		@ sp needed
 2267 002c 70BD     		pop	{r4, r5, r6, pc}
 2268              	.L227:
 2269 002e C046     		.align	2
 2270              	.L226:
 2271 0030 00181040 		.word	1074796544
 2272              		.cfi_endproc
 2273              	.LFE42:
 2274              		.size	CyDmaGetTriggerType, .-CyDmaGetTriggerType
 2275              		.section	.text.CyDmaSetTransferMode,"ax",%progbits
 2276              		.align	1
 2277              		.global	CyDmaSetTransferMode
 2278              		.code	16
 2279              		.thumb_func
 2280              		.type	CyDmaSetTransferMode, %function
 2281              	CyDmaSetTransferMode:
 2282              	.LFB43:
1264:Generated_Source\PSoC4/CyDMA.c **** 
1265:Generated_Source\PSoC4/CyDMA.c **** 
1266:Generated_Source\PSoC4/CyDMA.c **** /*******************************************************************************
1267:Generated_Source\PSoC4/CyDMA.c **** * Function Name: CyDmaSetTransferMode
1268:Generated_Source\PSoC4/CyDMA.c **** ********************************************************************************
ARM GAS  C:\Users\RYANCA~1\AppData\Local\Temp\ccQoZK0a.s 			page 65


1269:Generated_Source\PSoC4/CyDMA.c **** *
1270:Generated_Source\PSoC4/CyDMA.c **** * Summary:
1271:Generated_Source\PSoC4/CyDMA.c **** *  Sets the DMA transfer mode. This determines how the DMA reacts to each trigger
1272:Generated_Source\PSoC4/CyDMA.c **** *  event.
1273:Generated_Source\PSoC4/CyDMA.c **** *
1274:Generated_Source\PSoC4/CyDMA.c **** * Parameters:
1275:Generated_Source\PSoC4/CyDMA.c **** *  channel:      Channel used by this function.
1276:Generated_Source\PSoC4/CyDMA.c **** *  descriptor:   Descriptor (0 or 1) modified by this function.
1277:Generated_Source\PSoC4/CyDMA.c **** *  transferMode: Specifies the DMA transfer mode settings. Refer to the API bit
1278:Generated_Source\PSoC4/CyDMA.c **** *                field definitions in CyDMA_P4.h or the API description in the
1279:Generated_Source\PSoC4/CyDMA.c **** *                DMA channel datasheet for the parameter options.
1280:Generated_Source\PSoC4/CyDMA.c **** *                   
1281:Generated_Source\PSoC4/CyDMA.c **** * Return:
1282:Generated_Source\PSoC4/CyDMA.c **** *  None.
1283:Generated_Source\PSoC4/CyDMA.c **** *
1284:Generated_Source\PSoC4/CyDMA.c **** * Side effect:
1285:Generated_Source\PSoC4/CyDMA.c **** *  This function should not be called when the specified descriptor is active
1286:Generated_Source\PSoC4/CyDMA.c **** *  in the DMA transfer engine. This can be checked by calling CyDmaGetStatus(). 
1287:Generated_Source\PSoC4/CyDMA.c **** *
1288:Generated_Source\PSoC4/CyDMA.c **** *******************************************************************************/
1289:Generated_Source\PSoC4/CyDMA.c **** void CyDmaSetTransferMode(int32 channel, int32 descriptor, uint32 transferMode)
1290:Generated_Source\PSoC4/CyDMA.c **** {
 2283              		.loc 1 1290 0
 2284              		.cfi_startproc
 2285              		@ args = 0, pretend = 0, frame = 0
 2286              		@ frame_needed = 0, uses_anonymous_args = 0
 2287              	.LVL210:
 2288 0000 70B5     		push	{r4, r5, r6, lr}
 2289              		.cfi_def_cfa_offset 16
 2290              		.cfi_offset 4, -16
 2291              		.cfi_offset 5, -12
 2292              		.cfi_offset 6, -8
 2293              		.cfi_offset 14, -4
 2294              		.loc 1 1290 0
 2295 0002 0600     		movs	r6, r0
 2296 0004 0C00     		movs	r4, r1
 2297 0006 1500     		movs	r5, r2
1291:Generated_Source\PSoC4/CyDMA.c ****     uint32 regValue;
1292:Generated_Source\PSoC4/CyDMA.c **** 
1293:Generated_Source\PSoC4/CyDMA.c ****     CYASSERT((channel    >= 0) && (channel    < CYDMA_CH_NR));
 2298              		.loc 1 1293 0
 2299 0008 0728     		cmp	r0, #7
 2300 000a 02D9     		bls	.L229
 2301              		.loc 1 1293 0 is_stmt 0 discriminator 1
 2302 000c 0020     		movs	r0, #0
 2303              	.LVL211:
 2304 000e FFF7FEFF 		bl	CyHalt
 2305              	.LVL212:
 2306              	.L229:
1294:Generated_Source\PSoC4/CyDMA.c ****     CYASSERT((descriptor >= 0) && (descriptor < CYDMA_DESCR_NR));
 2307              		.loc 1 1294 0 is_stmt 1
 2308 0012 012C     		cmp	r4, #1
 2309 0014 02D9     		bls	.L230
 2310              		.loc 1 1294 0 is_stmt 0 discriminator 1
 2311 0016 0020     		movs	r0, #0
 2312 0018 FFF7FEFF 		bl	CyHalt
 2313              	.LVL213:
ARM GAS  C:\Users\RYANCA~1\AppData\Local\Temp\ccQoZK0a.s 			page 66


 2314              	.L230:
1295:Generated_Source\PSoC4/CyDMA.c ****     CYASSERT(0u == (transferMode & (uint32)~CYDMA_TRANSFER_MODE));
 2315              		.loc 1 1295 0 is_stmt 1
 2316 001c AB00     		lsls	r3, r5, #2
 2317 001e 02D0     		beq	.L231
 2318              		.loc 1 1295 0 is_stmt 0 discriminator 1
 2319 0020 0020     		movs	r0, #0
 2320 0022 FFF7FEFF 		bl	CyHalt
 2321              	.LVL214:
 2322              	.L231:
1296:Generated_Source\PSoC4/CyDMA.c **** 
1297:Generated_Source\PSoC4/CyDMA.c ****     regValue = CYDMA_DESCR_BASE.descriptor[channel][descriptor].ctl & (uint32)~CYDMA_TRANSFER_MODE;
 2323              		.loc 1 1297 0 is_stmt 1
 2324 0026 7600     		lsls	r6, r6, #1
 2325              	.LVL215:
 2326 0028 3419     		adds	r4, r6, r4
 2327              	.LVL216:
 2328 002a 044B     		ldr	r3, .L235
 2329 002c 2401     		lsls	r4, r4, #4
 2330 002e E418     		adds	r4, r4, r3
 2331 0030 A368     		ldr	r3, [r4, #8]
 2332              	.LVL217:
1298:Generated_Source\PSoC4/CyDMA.c ****     CYDMA_DESCR_BASE.descriptor[channel][descriptor].ctl = regValue | transferMode;
1299:Generated_Source\PSoC4/CyDMA.c **** }
 2333              		.loc 1 1299 0
 2334              		@ sp needed
1298:Generated_Source\PSoC4/CyDMA.c ****     CYDMA_DESCR_BASE.descriptor[channel][descriptor].ctl = regValue | transferMode;
 2335              		.loc 1 1298 0
 2336 0032 9B00     		lsls	r3, r3, #2
 2337              	.LVL218:
 2338 0034 9B08     		lsrs	r3, r3, #2
 2339 0036 1D43     		orrs	r5, r3
 2340              	.LVL219:
 2341 0038 A560     		str	r5, [r4, #8]
 2342              		.loc 1 1299 0
 2343 003a 70BD     		pop	{r4, r5, r6, pc}
 2344              	.L236:
 2345              		.align	2
 2346              	.L235:
 2347 003c 00181040 		.word	1074796544
 2348              		.cfi_endproc
 2349              	.LFE43:
 2350              		.size	CyDmaSetTransferMode, .-CyDmaSetTransferMode
 2351              		.section	.text.CyDmaGetTransferMode,"ax",%progbits
 2352              		.align	1
 2353              		.global	CyDmaGetTransferMode
 2354              		.code	16
 2355              		.thumb_func
 2356              		.type	CyDmaGetTransferMode, %function
 2357              	CyDmaGetTransferMode:
 2358              	.LFB44:
1300:Generated_Source\PSoC4/CyDMA.c **** 
1301:Generated_Source\PSoC4/CyDMA.c **** 
1302:Generated_Source\PSoC4/CyDMA.c **** /*******************************************************************************
1303:Generated_Source\PSoC4/CyDMA.c **** * Function Name: CyDmaGetTransferMode
1304:Generated_Source\PSoC4/CyDMA.c **** ********************************************************************************
1305:Generated_Source\PSoC4/CyDMA.c **** *
ARM GAS  C:\Users\RYANCA~1\AppData\Local\Temp\ccQoZK0a.s 			page 67


1306:Generated_Source\PSoC4/CyDMA.c **** * Summary:
1307:Generated_Source\PSoC4/CyDMA.c **** *  Returns the transfer mode for the specified descriptor as set by 
1308:Generated_Source\PSoC4/CyDMA.c **** *  CyDmaSetTransferMode() or CyDmaSetConfiguration.
1309:Generated_Source\PSoC4/CyDMA.c **** *
1310:Generated_Source\PSoC4/CyDMA.c **** * Parameters:
1311:Generated_Source\PSoC4/CyDMA.c **** *  channel:    Channel used by this function.
1312:Generated_Source\PSoC4/CyDMA.c **** *  descriptor: Descriptor (0 or 1) modified by this function.
1313:Generated_Source\PSoC4/CyDMA.c **** *                   
1314:Generated_Source\PSoC4/CyDMA.c **** * Return:
1315:Generated_Source\PSoC4/CyDMA.c **** *  DMA transfer mode settings. Refer to the API bit field definitions in
1316:Generated_Source\PSoC4/CyDMA.c **** *  CyDMA_P4.h or the API description in the DMA channel datasheet for more
1317:Generated_Source\PSoC4/CyDMA.c **** *  information.
1318:Generated_Source\PSoC4/CyDMA.c **** *
1319:Generated_Source\PSoC4/CyDMA.c **** *******************************************************************************/
1320:Generated_Source\PSoC4/CyDMA.c **** uint32 CyDmaGetTransferMode(int32 channel, int32 descriptor)
1321:Generated_Source\PSoC4/CyDMA.c **** {
 2359              		.loc 1 1321 0
 2360              		.cfi_startproc
 2361              		@ args = 0, pretend = 0, frame = 0
 2362              		@ frame_needed = 0, uses_anonymous_args = 0
 2363              	.LVL220:
 2364 0000 70B5     		push	{r4, r5, r6, lr}
 2365              		.cfi_def_cfa_offset 16
 2366              		.cfi_offset 4, -16
 2367              		.cfi_offset 5, -12
 2368              		.cfi_offset 6, -8
 2369              		.cfi_offset 14, -4
 2370              		.loc 1 1321 0
 2371 0002 0500     		movs	r5, r0
 2372 0004 0C00     		movs	r4, r1
1322:Generated_Source\PSoC4/CyDMA.c ****     CYASSERT((channel    >= 0) && (channel    < CYDMA_CH_NR));
 2373              		.loc 1 1322 0
 2374 0006 0728     		cmp	r0, #7
 2375 0008 02D9     		bls	.L238
 2376              		.loc 1 1322 0 is_stmt 0 discriminator 1
 2377 000a 0020     		movs	r0, #0
 2378              	.LVL221:
 2379 000c FFF7FEFF 		bl	CyHalt
 2380              	.LVL222:
 2381              	.L238:
1323:Generated_Source\PSoC4/CyDMA.c ****     CYASSERT((descriptor >= 0) && (descriptor < CYDMA_DESCR_NR));
 2382              		.loc 1 1323 0 is_stmt 1
 2383 0010 012C     		cmp	r4, #1
 2384 0012 02D9     		bls	.L239
 2385              		.loc 1 1323 0 is_stmt 0 discriminator 1
 2386 0014 0020     		movs	r0, #0
 2387 0016 FFF7FEFF 		bl	CyHalt
 2388              	.LVL223:
 2389              	.L239:
1324:Generated_Source\PSoC4/CyDMA.c **** 
1325:Generated_Source\PSoC4/CyDMA.c ****     return (CYDMA_DESCR_BASE.descriptor[channel][descriptor].ctl & CYDMA_TRANSFER_MODE);
 2390              		.loc 1 1325 0 is_stmt 1
 2391 001a 6D00     		lsls	r5, r5, #1
 2392              	.LVL224:
 2393 001c 2C19     		adds	r4, r5, r4
 2394              	.LVL225:
 2395 001e 034B     		ldr	r3, .L240
ARM GAS  C:\Users\RYANCA~1\AppData\Local\Temp\ccQoZK0a.s 			page 68


 2396 0020 2401     		lsls	r4, r4, #4
 2397 0022 E418     		adds	r4, r4, r3
 2398 0024 A068     		ldr	r0, [r4, #8]
1326:Generated_Source\PSoC4/CyDMA.c **** }
 2399              		.loc 1 1326 0
 2400              		@ sp needed
1325:Generated_Source\PSoC4/CyDMA.c **** }
 2401              		.loc 1 1325 0
 2402 0026 800F     		lsrs	r0, r0, #30
 2403 0028 8007     		lsls	r0, r0, #30
 2404              		.loc 1 1326 0
 2405 002a 70BD     		pop	{r4, r5, r6, pc}
 2406              	.L241:
 2407              		.align	2
 2408              	.L240:
 2409 002c 00181040 		.word	1074796544
 2410              		.cfi_endproc
 2411              	.LFE44:
 2412              		.size	CyDmaGetTransferMode, .-CyDmaGetTransferMode
 2413              		.section	.text.CyDmaSetPreemptable,"ax",%progbits
 2414              		.align	1
 2415              		.global	CyDmaSetPreemptable
 2416              		.code	16
 2417              		.thumb_func
 2418              		.type	CyDmaSetPreemptable, %function
 2419              	CyDmaSetPreemptable:
 2420              	.LFB45:
1327:Generated_Source\PSoC4/CyDMA.c **** 
1328:Generated_Source\PSoC4/CyDMA.c **** 
1329:Generated_Source\PSoC4/CyDMA.c **** /*******************************************************************************
1330:Generated_Source\PSoC4/CyDMA.c **** * Function Name: CyDmaSetPreemptable
1331:Generated_Source\PSoC4/CyDMA.c **** ********************************************************************************
1332:Generated_Source\PSoC4/CyDMA.c **** *
1333:Generated_Source\PSoC4/CyDMA.c **** * Summary:
1334:Generated_Source\PSoC4/CyDMA.c **** *  Determines if the descriptor is preemptable.
1335:Generated_Source\PSoC4/CyDMA.c **** *
1336:Generated_Source\PSoC4/CyDMA.c **** * Parameters:
1337:Generated_Source\PSoC4/CyDMA.c **** *  channel:     Channel used by this function.
1338:Generated_Source\PSoC4/CyDMA.c **** *  descriptor:  Descriptor (0 or 1) modified by this function.
1339:Generated_Source\PSoC4/CyDMA.c **** *  preemptable: Descriptor preemption settings. Refer to the API bit fields
1340:Generated_Source\PSoC4/CyDMA.c **** *               definition in CyDMA_P4.h or the API description in the DMA 
1341:Generated_Source\PSoC4/CyDMA.c **** *               channel datasheet for the parameter options.
1342:Generated_Source\PSoC4/CyDMA.c **** *                   
1343:Generated_Source\PSoC4/CyDMA.c **** * Return:
1344:Generated_Source\PSoC4/CyDMA.c **** *  None.
1345:Generated_Source\PSoC4/CyDMA.c **** *
1346:Generated_Source\PSoC4/CyDMA.c **** * Side effect:
1347:Generated_Source\PSoC4/CyDMA.c **** *  This function should not be called when the specified descriptor is active
1348:Generated_Source\PSoC4/CyDMA.c **** *  in the DMA transfer engine. This can be checked by calling CyDmaGetStatus(). 
1349:Generated_Source\PSoC4/CyDMA.c **** *
1350:Generated_Source\PSoC4/CyDMA.c **** *******************************************************************************/
1351:Generated_Source\PSoC4/CyDMA.c **** void CyDmaSetPreemptable(int32 channel, int32 descriptor, uint32 preemptable)
1352:Generated_Source\PSoC4/CyDMA.c **** {
 2421              		.loc 1 1352 0
 2422              		.cfi_startproc
 2423              		@ args = 0, pretend = 0, frame = 0
 2424              		@ frame_needed = 0, uses_anonymous_args = 0
ARM GAS  C:\Users\RYANCA~1\AppData\Local\Temp\ccQoZK0a.s 			page 69


 2425              	.LVL226:
 2426 0000 F8B5     		push	{r3, r4, r5, r6, r7, lr}
 2427              		.cfi_def_cfa_offset 24
 2428              		.cfi_offset 3, -24
 2429              		.cfi_offset 4, -20
 2430              		.cfi_offset 5, -16
 2431              		.cfi_offset 6, -12
 2432              		.cfi_offset 7, -8
 2433              		.cfi_offset 14, -4
 2434              		.loc 1 1352 0
 2435 0002 0700     		movs	r7, r0
 2436 0004 0C00     		movs	r4, r1
 2437 0006 1500     		movs	r5, r2
1353:Generated_Source\PSoC4/CyDMA.c ****     uint32 regValue;
1354:Generated_Source\PSoC4/CyDMA.c **** 
1355:Generated_Source\PSoC4/CyDMA.c ****     CYASSERT((channel    >= 0) && (channel    < CYDMA_CH_NR));
 2438              		.loc 1 1355 0
 2439 0008 0728     		cmp	r0, #7
 2440 000a 02D9     		bls	.L243
 2441              		.loc 1 1355 0 is_stmt 0 discriminator 1
 2442 000c 0020     		movs	r0, #0
 2443              	.LVL227:
 2444 000e FFF7FEFF 		bl	CyHalt
 2445              	.LVL228:
 2446              	.L243:
1356:Generated_Source\PSoC4/CyDMA.c ****     CYASSERT((descriptor >= 0) && (descriptor < CYDMA_DESCR_NR));
 2447              		.loc 1 1356 0 is_stmt 1
 2448 0012 012C     		cmp	r4, #1
 2449 0014 02D9     		bls	.L244
 2450              		.loc 1 1356 0 is_stmt 0 discriminator 1
 2451 0016 0020     		movs	r0, #0
 2452 0018 FFF7FEFF 		bl	CyHalt
 2453              	.LVL229:
 2454              	.L244:
 2455 001c 074E     		ldr	r6, .L249
1357:Generated_Source\PSoC4/CyDMA.c ****     CYASSERT(0u == (preemptable & (uint32)~CYDMA_PREEMPTABLE));
 2456              		.loc 1 1357 0 is_stmt 1
 2457 001e 3542     		tst	r5, r6
 2458 0020 02D0     		beq	.L245
 2459              		.loc 1 1357 0 is_stmt 0 discriminator 1
 2460 0022 0020     		movs	r0, #0
 2461 0024 FFF7FEFF 		bl	CyHalt
 2462              	.LVL230:
 2463              	.L245:
1358:Generated_Source\PSoC4/CyDMA.c **** 
1359:Generated_Source\PSoC4/CyDMA.c ****     regValue = CYDMA_DESCR_BASE.descriptor[channel][descriptor].ctl & (uint32)~CYDMA_PREEMPTABLE;
 2464              		.loc 1 1359 0 is_stmt 1
 2465 0028 7F00     		lsls	r7, r7, #1
 2466              	.LVL231:
 2467 002a 3C19     		adds	r4, r7, r4
 2468              	.LVL232:
 2469 002c 044B     		ldr	r3, .L249+4
 2470 002e 2401     		lsls	r4, r4, #4
 2471 0030 E418     		adds	r4, r4, r3
 2472 0032 A368     		ldr	r3, [r4, #8]
 2473              	.LVL233:
1360:Generated_Source\PSoC4/CyDMA.c ****     CYDMA_DESCR_BASE.descriptor[channel][descriptor].ctl = regValue | preemptable;
ARM GAS  C:\Users\RYANCA~1\AppData\Local\Temp\ccQoZK0a.s 			page 70


1361:Generated_Source\PSoC4/CyDMA.c **** }
 2474              		.loc 1 1361 0
 2475              		@ sp needed
1360:Generated_Source\PSoC4/CyDMA.c ****     CYDMA_DESCR_BASE.descriptor[channel][descriptor].ctl = regValue | preemptable;
 2476              		.loc 1 1360 0
 2477 0034 1E40     		ands	r6, r3
 2478 0036 3543     		orrs	r5, r6
 2479              	.LVL234:
 2480 0038 A560     		str	r5, [r4, #8]
 2481              		.loc 1 1361 0
 2482 003a F8BD     		pop	{r3, r4, r5, r6, r7, pc}
 2483              	.L250:
 2484              		.align	2
 2485              	.L249:
 2486 003c FFFFFFEF 		.word	-268435457
 2487 0040 00181040 		.word	1074796544
 2488              		.cfi_endproc
 2489              	.LFE45:
 2490              		.size	CyDmaSetPreemptable, .-CyDmaSetPreemptable
 2491              		.section	.text.CyDmaGetPreemptable,"ax",%progbits
 2492              		.align	1
 2493              		.global	CyDmaGetPreemptable
 2494              		.code	16
 2495              		.thumb_func
 2496              		.type	CyDmaGetPreemptable, %function
 2497              	CyDmaGetPreemptable:
 2498              	.LFB46:
1362:Generated_Source\PSoC4/CyDMA.c **** 
1363:Generated_Source\PSoC4/CyDMA.c **** 
1364:Generated_Source\PSoC4/CyDMA.c **** /*******************************************************************************
1365:Generated_Source\PSoC4/CyDMA.c **** * Function Name: CyDmaGetPreemptable
1366:Generated_Source\PSoC4/CyDMA.c **** ********************************************************************************
1367:Generated_Source\PSoC4/CyDMA.c **** *
1368:Generated_Source\PSoC4/CyDMA.c **** * Summary:
1369:Generated_Source\PSoC4/CyDMA.c **** *  Returns whether or not the descriptor is preemptable.
1370:Generated_Source\PSoC4/CyDMA.c **** *
1371:Generated_Source\PSoC4/CyDMA.c **** * Parameters:
1372:Generated_Source\PSoC4/CyDMA.c **** *  channel:    Channel used by this function.
1373:Generated_Source\PSoC4/CyDMA.c **** *  descriptor: Descriptor (0 or 1) modified by this function.
1374:Generated_Source\PSoC4/CyDMA.c **** *                   
1375:Generated_Source\PSoC4/CyDMA.c **** * Return:
1376:Generated_Source\PSoC4/CyDMA.c **** *  Descriptor preemption setting. Refer to the API bit field definitions in
1377:Generated_Source\PSoC4/CyDMA.c **** *  CyDMA_P4.h or the API description in the DMA channel datasheet for more
1378:Generated_Source\PSoC4/CyDMA.c **** *  information.
1379:Generated_Source\PSoC4/CyDMA.c **** *
1380:Generated_Source\PSoC4/CyDMA.c **** *******************************************************************************/
1381:Generated_Source\PSoC4/CyDMA.c **** uint32 CyDmaGetPreemptable(int32 channel, int32 descriptor)
1382:Generated_Source\PSoC4/CyDMA.c **** {
 2499              		.loc 1 1382 0
 2500              		.cfi_startproc
 2501              		@ args = 0, pretend = 0, frame = 0
 2502              		@ frame_needed = 0, uses_anonymous_args = 0
 2503              	.LVL235:
 2504 0000 70B5     		push	{r4, r5, r6, lr}
 2505              		.cfi_def_cfa_offset 16
 2506              		.cfi_offset 4, -16
 2507              		.cfi_offset 5, -12
ARM GAS  C:\Users\RYANCA~1\AppData\Local\Temp\ccQoZK0a.s 			page 71


 2508              		.cfi_offset 6, -8
 2509              		.cfi_offset 14, -4
 2510              		.loc 1 1382 0
 2511 0002 0500     		movs	r5, r0
 2512 0004 0C00     		movs	r4, r1
1383:Generated_Source\PSoC4/CyDMA.c ****     CYASSERT((channel    >= 0) && (channel    < CYDMA_CH_NR));
 2513              		.loc 1 1383 0
 2514 0006 0728     		cmp	r0, #7
 2515 0008 02D9     		bls	.L252
 2516              		.loc 1 1383 0 is_stmt 0 discriminator 1
 2517 000a 0020     		movs	r0, #0
 2518              	.LVL236:
 2519 000c FFF7FEFF 		bl	CyHalt
 2520              	.LVL237:
 2521              	.L252:
1384:Generated_Source\PSoC4/CyDMA.c ****     CYASSERT((descriptor >= 0) && (descriptor < CYDMA_DESCR_NR));
 2522              		.loc 1 1384 0 is_stmt 1
 2523 0010 012C     		cmp	r4, #1
 2524 0012 02D9     		bls	.L253
 2525              		.loc 1 1384 0 is_stmt 0 discriminator 1
 2526 0014 0020     		movs	r0, #0
 2527 0016 FFF7FEFF 		bl	CyHalt
 2528              	.LVL238:
 2529              	.L253:
1385:Generated_Source\PSoC4/CyDMA.c **** 
1386:Generated_Source\PSoC4/CyDMA.c ****     return (CYDMA_DESCR_BASE.descriptor[channel][descriptor].ctl & CYDMA_PREEMPTABLE);
 2530              		.loc 1 1386 0 is_stmt 1
 2531 001a 6D00     		lsls	r5, r5, #1
 2532              	.LVL239:
 2533 001c 2C19     		adds	r4, r5, r4
 2534              	.LVL240:
 2535 001e 044B     		ldr	r3, .L254
 2536 0020 2401     		lsls	r4, r4, #4
 2537 0022 E418     		adds	r4, r4, r3
 2538 0024 8023     		movs	r3, #128
 2539 0026 A068     		ldr	r0, [r4, #8]
 2540 0028 5B05     		lsls	r3, r3, #21
 2541 002a 1840     		ands	r0, r3
1387:Generated_Source\PSoC4/CyDMA.c **** }
 2542              		.loc 1 1387 0
 2543              		@ sp needed
 2544 002c 70BD     		pop	{r4, r5, r6, pc}
 2545              	.L255:
 2546 002e C046     		.align	2
 2547              	.L254:
 2548 0030 00181040 		.word	1074796544
 2549              		.cfi_endproc
 2550              	.LFE46:
 2551              		.size	CyDmaGetPreemptable, .-CyDmaGetPreemptable
 2552              		.section	.text.CyDmaSetPostCompletionActions,"ax",%progbits
 2553              		.align	1
 2554              		.global	CyDmaSetPostCompletionActions
 2555              		.code	16
 2556              		.thumb_func
 2557              		.type	CyDmaSetPostCompletionActions, %function
 2558              	CyDmaSetPostCompletionActions:
 2559              	.LFB47:
ARM GAS  C:\Users\RYANCA~1\AppData\Local\Temp\ccQoZK0a.s 			page 72


1388:Generated_Source\PSoC4/CyDMA.c **** 
1389:Generated_Source\PSoC4/CyDMA.c **** 
1390:Generated_Source\PSoC4/CyDMA.c **** /*******************************************************************************
1391:Generated_Source\PSoC4/CyDMA.c **** * Function Name: CyDmaSetPostCompletionActions
1392:Generated_Source\PSoC4/CyDMA.c **** ********************************************************************************
1393:Generated_Source\PSoC4/CyDMA.c **** *
1394:Generated_Source\PSoC4/CyDMA.c **** * Summary:
1395:Generated_Source\PSoC4/CyDMA.c **** *  Determines what occurs after a descriptor completes.
1396:Generated_Source\PSoC4/CyDMA.c **** *
1397:Generated_Source\PSoC4/CyDMA.c **** * Parameters:
1398:Generated_Source\PSoC4/CyDMA.c **** *  channel:    Channel used by this function.
1399:Generated_Source\PSoC4/CyDMA.c **** *  descriptor: Descriptor (0 or 1) modified by this function.
1400:Generated_Source\PSoC4/CyDMA.c **** *  actions:    Specifies descriptor post completion actions. Refer to the API
1401:Generated_Source\PSoC4/CyDMA.c **** *              bit field definitions in CyDMA_P4.h or the API description
1402:Generated_Source\PSoC4/CyDMA.c **** *              in the DMA channel datasheet for the parameter options.
1403:Generated_Source\PSoC4/CyDMA.c **** *                   
1404:Generated_Source\PSoC4/CyDMA.c **** * Return:
1405:Generated_Source\PSoC4/CyDMA.c **** *  None.  
1406:Generated_Source\PSoC4/CyDMA.c **** *
1407:Generated_Source\PSoC4/CyDMA.c **** * Side effect:
1408:Generated_Source\PSoC4/CyDMA.c **** *  This function should not be called when the specified descriptor is active
1409:Generated_Source\PSoC4/CyDMA.c **** *  in the DMA transfer engine. This can be checked by calling CyDmaGetStatus(). 
1410:Generated_Source\PSoC4/CyDMA.c **** *
1411:Generated_Source\PSoC4/CyDMA.c **** *******************************************************************************/
1412:Generated_Source\PSoC4/CyDMA.c **** void CyDmaSetPostCompletionActions(int32 channel, int32 descriptor, uint32 actions)
1413:Generated_Source\PSoC4/CyDMA.c **** {
 2560              		.loc 1 1413 0
 2561              		.cfi_startproc
 2562              		@ args = 0, pretend = 0, frame = 0
 2563              		@ frame_needed = 0, uses_anonymous_args = 0
 2564              	.LVL241:
 2565 0000 F8B5     		push	{r3, r4, r5, r6, r7, lr}
 2566              		.cfi_def_cfa_offset 24
 2567              		.cfi_offset 3, -24
 2568              		.cfi_offset 4, -20
 2569              		.cfi_offset 5, -16
 2570              		.cfi_offset 6, -12
 2571              		.cfi_offset 7, -8
 2572              		.cfi_offset 14, -4
 2573              		.loc 1 1413 0
 2574 0002 0700     		movs	r7, r0
 2575 0004 0C00     		movs	r4, r1
 2576 0006 1500     		movs	r5, r2
1414:Generated_Source\PSoC4/CyDMA.c ****     uint32 regValue;
1415:Generated_Source\PSoC4/CyDMA.c **** 
1416:Generated_Source\PSoC4/CyDMA.c ****     CYASSERT((channel    >= 0) && (channel    < CYDMA_CH_NR));
 2577              		.loc 1 1416 0
 2578 0008 0728     		cmp	r0, #7
 2579 000a 02D9     		bls	.L257
 2580              		.loc 1 1416 0 is_stmt 0 discriminator 1
 2581 000c 0020     		movs	r0, #0
 2582              	.LVL242:
 2583 000e FFF7FEFF 		bl	CyHalt
 2584              	.LVL243:
 2585              	.L257:
1417:Generated_Source\PSoC4/CyDMA.c ****     CYASSERT((descriptor >= 0) && (descriptor < CYDMA_DESCR_NR));
 2586              		.loc 1 1417 0 is_stmt 1
ARM GAS  C:\Users\RYANCA~1\AppData\Local\Temp\ccQoZK0a.s 			page 73


 2587 0012 012C     		cmp	r4, #1
 2588 0014 02D9     		bls	.L258
 2589              		.loc 1 1417 0 is_stmt 0 discriminator 1
 2590 0016 0020     		movs	r0, #0
 2591 0018 FFF7FEFF 		bl	CyHalt
 2592              	.LVL244:
 2593              	.L258:
 2594 001c 074E     		ldr	r6, .L263
1418:Generated_Source\PSoC4/CyDMA.c ****     CYASSERT(0u == (actions & (uint32)~CYDMA_POST_COMPLETE_ACTIONS));
 2595              		.loc 1 1418 0 is_stmt 1
 2596 001e 3542     		tst	r5, r6
 2597 0020 02D0     		beq	.L259
 2598              		.loc 1 1418 0 is_stmt 0 discriminator 1
 2599 0022 0020     		movs	r0, #0
 2600 0024 FFF7FEFF 		bl	CyHalt
 2601              	.LVL245:
 2602              	.L259:
1419:Generated_Source\PSoC4/CyDMA.c **** 
1420:Generated_Source\PSoC4/CyDMA.c ****     regValue = CYDMA_DESCR_BASE.descriptor[channel][descriptor].ctl & (uint32)~CYDMA_POST_COMPLETE_
 2603              		.loc 1 1420 0 is_stmt 1
 2604 0028 7F00     		lsls	r7, r7, #1
 2605              	.LVL246:
 2606 002a 3C19     		adds	r4, r7, r4
 2607              	.LVL247:
 2608 002c 044B     		ldr	r3, .L263+4
 2609 002e 2401     		lsls	r4, r4, #4
 2610 0030 E418     		adds	r4, r4, r3
 2611 0032 A368     		ldr	r3, [r4, #8]
 2612              	.LVL248:
1421:Generated_Source\PSoC4/CyDMA.c ****     CYDMA_DESCR_BASE.descriptor[channel][descriptor].ctl = regValue | actions;
1422:Generated_Source\PSoC4/CyDMA.c **** }
 2613              		.loc 1 1422 0
 2614              		@ sp needed
1421:Generated_Source\PSoC4/CyDMA.c ****     CYDMA_DESCR_BASE.descriptor[channel][descriptor].ctl = regValue | actions;
 2615              		.loc 1 1421 0
 2616 0034 1E40     		ands	r6, r3
 2617 0036 3543     		orrs	r5, r6
 2618              	.LVL249:
 2619 0038 A560     		str	r5, [r4, #8]
 2620              		.loc 1 1422 0
 2621 003a F8BD     		pop	{r3, r4, r5, r6, r7, pc}
 2622              	.L264:
 2623              		.align	2
 2624              	.L263:
 2625 003c FFFFFFD3 		.word	-738197505
 2626 0040 00181040 		.word	1074796544
 2627              		.cfi_endproc
 2628              	.LFE47:
 2629              		.size	CyDmaSetPostCompletionActions, .-CyDmaSetPostCompletionActions
 2630              		.section	.text.CyDmaGetPostCompletionActions,"ax",%progbits
 2631              		.align	1
 2632              		.global	CyDmaGetPostCompletionActions
 2633              		.code	16
 2634              		.thumb_func
 2635              		.type	CyDmaGetPostCompletionActions, %function
 2636              	CyDmaGetPostCompletionActions:
 2637              	.LFB48:
ARM GAS  C:\Users\RYANCA~1\AppData\Local\Temp\ccQoZK0a.s 			page 74


1423:Generated_Source\PSoC4/CyDMA.c **** 
1424:Generated_Source\PSoC4/CyDMA.c **** 
1425:Generated_Source\PSoC4/CyDMA.c **** /*******************************************************************************
1426:Generated_Source\PSoC4/CyDMA.c **** * Function Name: CyDmaGetPostCompletionActions
1427:Generated_Source\PSoC4/CyDMA.c **** ********************************************************************************
1428:Generated_Source\PSoC4/CyDMA.c **** *
1429:Generated_Source\PSoC4/CyDMA.c **** * Summary:
1430:Generated_Source\PSoC4/CyDMA.c **** *  Returns the post descriptor action settings as set by 
1431:Generated_Source\PSoC4/CyDMA.c **** *  CyDmaSetPostCompletionActions() or CyDmaSetConfiguration().
1432:Generated_Source\PSoC4/CyDMA.c **** *
1433:Generated_Source\PSoC4/CyDMA.c **** * Parameters:
1434:Generated_Source\PSoC4/CyDMA.c **** *  channel:    Channel used by this function.
1435:Generated_Source\PSoC4/CyDMA.c **** *  descriptor: Descriptor (0 or 1) modified by this function.
1436:Generated_Source\PSoC4/CyDMA.c **** *                   
1437:Generated_Source\PSoC4/CyDMA.c **** * Return:
1438:Generated_Source\PSoC4/CyDMA.c **** *  Post descriptor actions. Refer to the API bit field definitions in
1439:Generated_Source\PSoC4/CyDMA.c **** *  CyDMA_P4.h or the API description in the DMA channel datasheet for more
1440:Generated_Source\PSoC4/CyDMA.c **** *  information.
1441:Generated_Source\PSoC4/CyDMA.c **** *
1442:Generated_Source\PSoC4/CyDMA.c **** *******************************************************************************/
1443:Generated_Source\PSoC4/CyDMA.c **** uint32 CyDmaGetPostCompletionActions(int32 channel, int32 descriptor)
1444:Generated_Source\PSoC4/CyDMA.c **** {
 2638              		.loc 1 1444 0
 2639              		.cfi_startproc
 2640              		@ args = 0, pretend = 0, frame = 0
 2641              		@ frame_needed = 0, uses_anonymous_args = 0
 2642              	.LVL250:
 2643 0000 70B5     		push	{r4, r5, r6, lr}
 2644              		.cfi_def_cfa_offset 16
 2645              		.cfi_offset 4, -16
 2646              		.cfi_offset 5, -12
 2647              		.cfi_offset 6, -8
 2648              		.cfi_offset 14, -4
 2649              		.loc 1 1444 0
 2650 0002 0500     		movs	r5, r0
 2651 0004 0C00     		movs	r4, r1
1445:Generated_Source\PSoC4/CyDMA.c ****     CYASSERT((channel    >= 0) && (channel    < CYDMA_CH_NR));
 2652              		.loc 1 1445 0
 2653 0006 0728     		cmp	r0, #7
 2654 0008 02D9     		bls	.L266
 2655              		.loc 1 1445 0 is_stmt 0 discriminator 1
 2656 000a 0020     		movs	r0, #0
 2657              	.LVL251:
 2658 000c FFF7FEFF 		bl	CyHalt
 2659              	.LVL252:
 2660              	.L266:
1446:Generated_Source\PSoC4/CyDMA.c ****     CYASSERT((descriptor >= 0) && (descriptor < CYDMA_DESCR_NR));
 2661              		.loc 1 1446 0 is_stmt 1
 2662 0010 012C     		cmp	r4, #1
 2663 0012 02D9     		bls	.L267
 2664              		.loc 1 1446 0 is_stmt 0 discriminator 1
 2665 0014 0020     		movs	r0, #0
 2666 0016 FFF7FEFF 		bl	CyHalt
 2667              	.LVL253:
 2668              	.L267:
1447:Generated_Source\PSoC4/CyDMA.c **** 
1448:Generated_Source\PSoC4/CyDMA.c ****     return (CYDMA_DESCR_BASE.descriptor[channel][descriptor].ctl & CYDMA_POST_COMPLETE_ACTIONS);
ARM GAS  C:\Users\RYANCA~1\AppData\Local\Temp\ccQoZK0a.s 			page 75


 2669              		.loc 1 1448 0 is_stmt 1
 2670 001a 6D00     		lsls	r5, r5, #1
 2671              	.LVL254:
 2672 001c 2C19     		adds	r4, r5, r4
 2673              	.LVL255:
 2674 001e 044B     		ldr	r3, .L268
 2675 0020 2401     		lsls	r4, r4, #4
 2676 0022 E418     		adds	r4, r4, r3
 2677 0024 B023     		movs	r3, #176
 2678 0026 A068     		ldr	r0, [r4, #8]
 2679 0028 9B05     		lsls	r3, r3, #22
 2680 002a 1840     		ands	r0, r3
1449:Generated_Source\PSoC4/CyDMA.c **** }
 2681              		.loc 1 1449 0
 2682              		@ sp needed
 2683 002c 70BD     		pop	{r4, r5, r6, pc}
 2684              	.L269:
 2685 002e C046     		.align	2
 2686              	.L268:
 2687 0030 00181040 		.word	1074796544
 2688              		.cfi_endproc
 2689              	.LFE48:
 2690              		.size	CyDmaGetPostCompletionActions, .-CyDmaGetPostCompletionActions
 2691              		.data
 2692              		.align	2
 2693              		.set	.LANCHOR0,. + 0
 2694              		.type	CyDmaInterruptCallback, %object
 2695              		.size	CyDmaInterruptCallback, 32
 2696              	CyDmaInterruptCallback:
 2697 0000 00000000 		.word	CyDmaDefaultInterruptCallback
 2698 0004 00000000 		.word	CyDmaDefaultInterruptCallback
 2699 0008 00000000 		.word	CyDmaDefaultInterruptCallback
 2700 000c 00000000 		.word	CyDmaDefaultInterruptCallback
 2701 0010 00000000 		.word	CyDmaDefaultInterruptCallback
 2702 0014 00000000 		.word	CyDmaDefaultInterruptCallback
 2703 0018 00000000 		.word	CyDmaDefaultInterruptCallback
 2704 001c 00000000 		.word	CyDmaDefaultInterruptCallback
 2705              		.bss
 2706              		.align	2
 2707              		.set	.LANCHOR1,. + 0
 2708              		.type	initIntrVector.5006, %object
 2709              		.size	initIntrVector.5006, 1
 2710              	initIntrVector.5006:
 2711 0000 00       		.space	1
 2712 0001 000000   		.space	3
 2713              		.type	CyDmaChannelUsedMask, %object
 2714              		.size	CyDmaChannelUsedMask, 4
 2715              	CyDmaChannelUsedMask:
 2716 0004 00000000 		.space	4
 2717              		.text
 2718              	.Letext0:
 2719              		.file 2 "Generated_Source\\PSoC4\\cytypes.h"
 2720              		.file 3 "Generated_Source\\PSoC4\\CyDMA.h"
 2721              		.file 4 "Generated_Source\\PSoC4\\CyLib.h"