ARM GAS  C:\Users\RYANCA~1\AppData\Local\Temp\ccfontiW.s 			page 1


   1              		.syntax unified
   2              		.cpu cortex-m0
   3              		.fpu softvfp
   4              		.eabi_attribute 20, 1
   5              		.eabi_attribute 21, 1
   6              		.eabi_attribute 23, 3
   7              		.eabi_attribute 24, 1
   8              		.eabi_attribute 25, 1
   9              		.eabi_attribute 26, 1
  10              		.eabi_attribute 30, 4
  11              		.eabi_attribute 34, 0
  12              		.eabi_attribute 18, 4
  13              		.thumb
  14              		.syntax unified
  15              		.file	"frucd_display.c"
  16              		.text
  17              	.Ltext0:
  18              		.cfi_sections	.debug_frame
  19              		.section	.text.calibrateScreen,"ax",%progbits
  20              		.align	1
  21              		.global	calibrateScreen
  22              		.code	16
  23              		.thumb_func
  24              		.type	calibrateScreen, %function
  25              	calibrateScreen:
  26              	.LFB35:
  27              		.file 1 "frucd_display.c"
   1:frucd_display.c **** /* ========================================
   2:frucd_display.c ****  *
   3:frucd_display.c ****  * APIs for updating FRUCD Dashboard display
   4:frucd_display.c ****  *
   5:frucd_display.c ****  * ========================================
   6:frucd_display.c **** */
   7:frucd_display.c **** #include "frucd_display.h"
   8:frucd_display.c **** 
   9:frucd_display.c **** // Just a test function that displays elements at the supposed corners of the screen
  10:frucd_display.c **** void calibrateScreen() {
  28              		.loc 1 10 0
  29              		.cfi_startproc
  30              		@ args = 0, pretend = 0, frame = 0
  31              		@ frame_needed = 0, uses_anonymous_args = 0
  32 0000 F7B5     		push	{r0, r1, r2, r4, r5, r6, r7, lr}
  33              		.cfi_def_cfa_offset 32
  34              		.cfi_offset 0, -32
  35              		.cfi_offset 1, -28
  36              		.cfi_offset 2, -24
  37              		.cfi_offset 4, -20
  38              		.cfi_offset 5, -16
  39              		.cfi_offset 6, -12
  40              		.cfi_offset 7, -8
  41              		.cfi_offset 14, -4
  11:frucd_display.c ****     UG_FillScreen(C_WHITE);
  42              		.loc 1 11 0
  43 0002 1948     		ldr	r0, .L2
  44 0004 FFF7FEFF 		bl	UG_FillScreen
  45              	.LVL0:
  12:frucd_display.c ****     //libTFT_FillRectangle(0, 0, 10, 10, RED);
ARM GAS  C:\Users\RYANCA~1\AppData\Local\Temp\ccfontiW.s 			page 2


  13:frucd_display.c ****     UG_FillFrame(0, 0, 10, 10, C_RED);
  46              		.loc 1 13 0
  47 0008 FF23     		movs	r3, #255
  48 000a 1B04     		lsls	r3, r3, #16
  49 000c 0093     		str	r3, [sp]
  50 000e 0021     		movs	r1, #0
  51 0010 0A23     		movs	r3, #10
  52 0012 0800     		movs	r0, r1
  53 0014 1A00     		movs	r2, r3
  14:frucd_display.c ****     //libTFT_FillRectangle(0, 262, 10, 10, BLUE);
  15:frucd_display.c ****     UG_FillFrame(0, 262, 10, 272, C_BLUE);
  54              		.loc 1 15 0
  55 0016 8827     		movs	r7, #136
  56 0018 8325     		movs	r5, #131
  13:frucd_display.c ****     //libTFT_FillRectangle(0, 262, 10, 10, BLUE);
  57              		.loc 1 13 0
  58 001a FFF7FEFF 		bl	UG_FillFrame
  59              	.LVL1:
  60              		.loc 1 15 0
  61 001e FF23     		movs	r3, #255
  62 0020 7F00     		lsls	r7, r7, #1
  63 0022 6D00     		lsls	r5, r5, #1
  64 0024 2900     		movs	r1, r5
  65 0026 0093     		str	r3, [sp]
  66 0028 0A22     		movs	r2, #10
  67 002a 3B00     		movs	r3, r7
  68 002c 0020     		movs	r0, #0
  69 002e FFF7FEFF 		bl	UG_FillFrame
  70              	.LVL2:
  16:frucd_display.c ****     //libTFT_FillRectangle(470, 0, 10, 10, GREEN);
  17:frucd_display.c ****     UG_FillFrame(470, 0, 480, 10, C_GREEN);
  71              		.loc 1 17 0
  72 0032 F026     		movs	r6, #240
  73 0034 EB24     		movs	r4, #235
  74 0036 FF23     		movs	r3, #255
  75 0038 7600     		lsls	r6, r6, #1
  76 003a 6400     		lsls	r4, r4, #1
  77 003c 1B02     		lsls	r3, r3, #8
  78 003e 3200     		movs	r2, r6
  79 0040 0093     		str	r3, [sp]
  80 0042 2000     		movs	r0, r4
  81 0044 0A23     		movs	r3, #10
  82 0046 0021     		movs	r1, #0
  83 0048 FFF7FEFF 		bl	UG_FillFrame
  84              	.LVL3:
  18:frucd_display.c ****     //libTFT_FillRectangle(470, 262, 10, 10, YELLOW);
  19:frucd_display.c ****     UG_FillFrame(470, 262, 480, 272, C_YELLOW);
  85              		.loc 1 19 0
  86 004c 074B     		ldr	r3, .L2+4
  87 004e 3200     		movs	r2, r6
  88 0050 2900     		movs	r1, r5
  89 0052 0093     		str	r3, [sp]
  90 0054 2000     		movs	r0, r4
  91 0056 3B00     		movs	r3, r7
  92 0058 FFF7FEFF 		bl	UG_FillFrame
  93              	.LVL4:
  20:frucd_display.c ****     CyDelay(300);
ARM GAS  C:\Users\RYANCA~1\AppData\Local\Temp\ccfontiW.s 			page 3


  94              		.loc 1 20 0
  95 005c 9620     		movs	r0, #150
  96 005e 4000     		lsls	r0, r0, #1
  97 0060 FFF7FEFF 		bl	CyDelay
  98              	.LVL5:
  21:frucd_display.c **** }
  99              		.loc 1 21 0
 100              		@ sp needed
 101 0064 F7BD     		pop	{r0, r1, r2, r4, r5, r6, r7, pc}
 102              	.L3:
 103 0066 C046     		.align	2
 104              	.L2:
 105 0068 FFFFFF00 		.word	16777215
 106 006c 00FFFF00 		.word	16776960
 107              		.cfi_endproc
 108              	.LFE35:
 109              		.size	calibrateScreen, .-calibrateScreen
 110              		.section	.text.debugTemplate,"ax",%progbits
 111              		.align	1
 112              		.global	debugTemplate
 113              		.code	16
 114              		.thumb_func
 115              		.type	debugTemplate, %function
 116              	debugTemplate:
 117              	.LFB36:
  22:frucd_display.c **** 
  23:frucd_display.c **** // Initializes dashboard layout/labels
  24:frucd_display.c **** /*
  25:frucd_display.c **** void initDashTemplate() {
  26:frucd_display.c ****     UG_FillScreen(C_BLACK);
  27:frucd_display.c ****     UG_PutString(68, 10, "PACK SOC");
  28:frucd_display.c ****     UG_PutString(297, 10, "MAX PACK T");
  29:frucd_display.c ****     UG_PutString(10, 195, "STATE:");
  30:frucd_display.c ****     UG_PutString(10, 240, "GLV V:");
  31:frucd_display.c ****     UG_PutString(339, 195, "MC T:");
  32:frucd_display.c ****     UG_PutString(300, 240, "MOTOR T:");
  33:frucd_display.c **** }
  34:frucd_display.c **** */
  35:frucd_display.c **** 
  36:frucd_display.c **** void debugTemplate(){
 118              		.loc 1 36 0
 119              		.cfi_startproc
 120              		@ args = 0, pretend = 0, frame = 0
 121              		@ frame_needed = 0, uses_anonymous_args = 0
 122 0000 10B5     		push	{r4, lr}
 123              		.cfi_def_cfa_offset 8
 124              		.cfi_offset 4, -8
 125              		.cfi_offset 14, -4
  37:frucd_display.c ****     UG_FillScreen(C_BLACK);
 126              		.loc 1 37 0
 127 0002 0020     		movs	r0, #0
 128 0004 FFF7FEFF 		bl	UG_FillScreen
 129              	.LVL6:
  38:frucd_display.c ****     UG_PutString(68, 10, "PACK SOC");
 130              		.loc 1 38 0
 131 0008 104A     		ldr	r2, .L5
 132 000a 0A21     		movs	r1, #10
ARM GAS  C:\Users\RYANCA~1\AppData\Local\Temp\ccfontiW.s 			page 4


 133 000c 4420     		movs	r0, #68
 134 000e FFF7FEFF 		bl	UG_PutString
 135              	.LVL7:
  39:frucd_display.c ****     UG_PutString(297, 10, "MAX PACK T");
 136              		.loc 1 39 0
 137 0012 2A20     		movs	r0, #42
 138 0014 0E4A     		ldr	r2, .L5+4
 139 0016 0A21     		movs	r1, #10
 140 0018 FF30     		adds	r0, r0, #255
 141 001a FFF7FEFF 		bl	UG_PutString
 142              	.LVL8:
  40:frucd_display.c ****     UG_PutString(10, 195, "STATE:");
 143              		.loc 1 40 0
 144 001e 0D4A     		ldr	r2, .L5+8
 145 0020 C321     		movs	r1, #195
 146 0022 0A20     		movs	r0, #10
 147 0024 FFF7FEFF 		bl	UG_PutString
 148              	.LVL9:
  41:frucd_display.c ****     UG_PutString(10, 240, "GLV V:");
 149              		.loc 1 41 0
 150 0028 0B4A     		ldr	r2, .L5+12
 151 002a F021     		movs	r1, #240
 152 002c 0A20     		movs	r0, #10
 153 002e FFF7FEFF 		bl	UG_PutString
 154              	.LVL10:
  42:frucd_display.c ****     UG_PutString(339, 195, "MC T:");
 155              		.loc 1 42 0
 156 0032 5420     		movs	r0, #84
 157 0034 094A     		ldr	r2, .L5+16
 158 0036 C321     		movs	r1, #195
 159 0038 FF30     		adds	r0, r0, #255
 160 003a FFF7FEFF 		bl	UG_PutString
 161              	.LVL11:
  43:frucd_display.c ****     UG_PutString(300, 240, "MOTOR T:");
 162              		.loc 1 43 0
 163 003e 9620     		movs	r0, #150
 164 0040 074A     		ldr	r2, .L5+20
 165 0042 F021     		movs	r1, #240
 166 0044 4000     		lsls	r0, r0, #1
 167 0046 FFF7FEFF 		bl	UG_PutString
 168              	.LVL12:
  44:frucd_display.c ****     
  45:frucd_display.c ****     
  46:frucd_display.c ****     
  47:frucd_display.c **** }
 169              		.loc 1 47 0
 170              		@ sp needed
 171 004a 10BD     		pop	{r4, pc}
 172              	.L6:
 173              		.align	2
 174              	.L5:
 175 004c 00000000 		.word	.LC0
 176 0050 09000000 		.word	.LC2
 177 0054 14000000 		.word	.LC4
 178 0058 1B000000 		.word	.LC6
 179 005c 22000000 		.word	.LC8
 180 0060 28000000 		.word	.LC10
ARM GAS  C:\Users\RYANCA~1\AppData\Local\Temp\ccfontiW.s 			page 5


 181              		.cfi_endproc
 182              	.LFE36:
 183              		.size	debugTemplate, .-debugTemplate
 184              		.section	.text.driveTemplate,"ax",%progbits
 185              		.align	1
 186              		.global	driveTemplate
 187              		.code	16
 188              		.thumb_func
 189              		.type	driveTemplate, %function
 190              	driveTemplate:
 191              	.LFB37:
  48:frucd_display.c **** void driveTemplate(){
 192              		.loc 1 48 0
 193              		.cfi_startproc
 194              		@ args = 0, pretend = 0, frame = 0
 195              		@ frame_needed = 0, uses_anonymous_args = 0
 196 0000 10B5     		push	{r4, lr}
 197              		.cfi_def_cfa_offset 8
 198              		.cfi_offset 4, -8
 199              		.cfi_offset 14, -4
  49:frucd_display.c ****     UG_FillScreen(C_BLACK);
 200              		.loc 1 49 0
 201 0002 0020     		movs	r0, #0
 202 0004 FFF7FEFF 		bl	UG_FillScreen
 203              	.LVL13:
  50:frucd_display.c ****     UG_PutString(68, 10, "PACK SOC");
 204              		.loc 1 50 0
 205 0008 084A     		ldr	r2, .L8
 206 000a 0A21     		movs	r1, #10
 207 000c 4420     		movs	r0, #68
 208 000e FFF7FEFF 		bl	UG_PutString
 209              	.LVL14:
  51:frucd_display.c ****     UG_PutString(297, 10, "MAX PACK T");
 210              		.loc 1 51 0
 211 0012 2A20     		movs	r0, #42
 212 0014 064A     		ldr	r2, .L8+4
 213 0016 0A21     		movs	r1, #10
 214 0018 FF30     		adds	r0, r0, #255
 215 001a FFF7FEFF 		bl	UG_PutString
 216              	.LVL15:
  52:frucd_display.c ****     UG_PutString(35, 225, "STATE:");
 217              		.loc 1 52 0
 218 001e 054A     		ldr	r2, .L8+8
 219 0020 E121     		movs	r1, #225
 220 0022 2320     		movs	r0, #35
 221 0024 FFF7FEFF 		bl	UG_PutString
 222              	.LVL16:
  53:frucd_display.c ****     
  54:frucd_display.c **** }
 223              		.loc 1 54 0
 224              		@ sp needed
 225 0028 10BD     		pop	{r4, pc}
 226              	.L9:
 227 002a C046     		.align	2
 228              	.L8:
 229 002c 00000000 		.word	.LC0
 230 0030 09000000 		.word	.LC2
ARM GAS  C:\Users\RYANCA~1\AppData\Local\Temp\ccfontiW.s 			page 6


 231 0034 14000000 		.word	.LC4
 232              		.cfi_endproc
 233              	.LFE37:
 234              		.size	driveTemplate, .-driveTemplate
 235              		.section	.text.disp_SOC,"ax",%progbits
 236              		.align	1
 237              		.global	disp_SOC
 238              		.code	16
 239              		.thumb_func
 240              		.type	disp_SOC, %function
 241              	disp_SOC:
 242              	.LFB38:
  55:frucd_display.c **** /*
  56:frucd_display.c ****  * BEGIN: functions to show data on dash
  57:frucd_display.c ****  * - handle variety of digit counts
  58:frucd_display.c ****  * - color decision logic is in here
  59:frucd_display.c ****  */
  60:frucd_display.c **** 
  61:frucd_display.c **** /*
  62:frucd_display.c **** void disp_SOC(uint8_t data) {
  63:frucd_display.c ****     UG_FontSelect(&FONT_32X53);
  64:frucd_display.c ****     UG_COLOR color;
  65:frucd_display.c ****     if (data == 100) {
  66:frucd_display.c ****         // handle 100% case
  67:frucd_display.c ****         color = C_GREEN;
  68:frucd_display.c ****         if (color != last_SOC_color) {
  69:frucd_display.c ****             // only draw rectangle if color changed
  70:frucd_display.c ****             UG_FillFrame(30, 35, 210, 170, color);
  71:frucd_display.c ****             last_SOC_color = color;
  72:frucd_display.c ****         }
  73:frucd_display.c ****         UG_PutColorString(55, 80, "100%", C_BLACK, C_GREEN);
  74:frucd_display.c ****     } else {
  75:frucd_display.c ****         // handle other cases
  76:frucd_display.c ****         char data_s[4];
  77:frucd_display.c ****         sprintf(data_s, "%d", data);
  78:frucd_display.c ****         if (data >= 10) {
  79:frucd_display.c ****             // handle 2 digit cases
  80:frucd_display.c ****             // choose color
  81:frucd_display.c ****             if (data > 75) {
  82:frucd_display.c ****                 color = C_GREEN;
  83:frucd_display.c ****             } else if (data > 50) {
  84:frucd_display.c ****                 color = C_YELLOW;
  85:frucd_display.c ****             } else if (data > 25) {
  86:frucd_display.c ****                 color = C_ORANGE;
  87:frucd_display.c ****             } else {
  88:frucd_display.c ****                 color = C_RED;
  89:frucd_display.c ****             }
  90:frucd_display.c ****             data_s[2] = '%';
  91:frucd_display.c ****             data_s[3] = '\0';
  92:frucd_display.c ****             if (color != last_SOC_color) {
  93:frucd_display.c ****                 // only draw rectangle if color changed
  94:frucd_display.c ****                 UG_FillFrame(30, 35, 210, 170, color);
  95:frucd_display.c ****                 last_SOC_color = color;
  96:frucd_display.c ****             }
  97:frucd_display.c ****             UG_PutColorString(70, 80, data_s, C_BLACK, color);
  98:frucd_display.c ****         } else {
  99:frucd_display.c ****             // handle 1 digit cases
ARM GAS  C:\Users\RYANCA~1\AppData\Local\Temp\ccfontiW.s 			page 7


 100:frucd_display.c ****             data_s[1] = '%';
 101:frucd_display.c ****             data_s[2] = '\0';
 102:frucd_display.c ****             color = C_RED;
 103:frucd_display.c ****             
 104:frucd_display.c ****             
 105:frucd_display.c ****             
 106:frucd_display.c ****             
 107:frucd_display.c ****             //why is this here?
 108:frucd_display.c ****             UG_FillFrame(30, 35, 210, 170, C_BLACK);
 109:frucd_display.c ****             
 110:frucd_display.c ****             
 111:frucd_display.c ****             
 112:frucd_display.c ****             
 113:frucd_display.c ****             
 114:frucd_display.c ****             
 115:frucd_display.c ****             
 116:frucd_display.c ****             UG_FillFrame(30, 35, 210, 170, color);
 117:frucd_display.c ****             UG_PutColorString(90, 80, data_s, C_BLACK, color);
 118:frucd_display.c ****         }   
 119:frucd_display.c ****     }
 120:frucd_display.c ****     UG_FontSelect(&FONT_12X16);
 121:frucd_display.c **** }
 122:frucd_display.c **** 
 123:frucd_display.c **** 
 124:frucd_display.c **** */
 125:frucd_display.c **** 
 126:frucd_display.c **** 
 127:frucd_display.c **** // size is big if 1, small if not
 128:frucd_display.c **** void disp_SOC(uint8_t data, uint16_t x1, uint16_t y1, uint16_t x2, uint16_t y2, uint8_t size) {
 243              		.loc 1 128 0
 244              		.cfi_startproc
 245              		@ args = 8, pretend = 0, frame = 32
 246              		@ frame_needed = 0, uses_anonymous_args = 0
 247              	.LVL17:
 248 0000 F0B5     		push	{r4, r5, r6, r7, lr}
 249              		.cfi_def_cfa_offset 20
 250              		.cfi_offset 4, -20
 251              		.cfi_offset 5, -16
 252              		.cfi_offset 6, -12
 253              		.cfi_offset 7, -8
 254              		.cfi_offset 14, -4
 255 0002 8BB0     		sub	sp, sp, #44
 256              		.cfi_def_cfa_offset 64
 257              		.loc 1 128 0
 258 0004 0393     		str	r3, [sp, #12]
 259 0006 10AB     		add	r3, sp, #64
 260              	.LVL18:
 261 0008 1B88     		ldrh	r3, [r3]
 262              	.LVL19:
 263 000a 0F00     		movs	r7, r1
 264 000c 0493     		str	r3, [sp, #16]
 265 000e 11AB     		add	r3, sp, #68
 266              	.LVL20:
 267 0010 1978     		ldrb	r1, [r3]
 268              	.LVL21:
 129:frucd_display.c ****     int stringSize;
 130:frucd_display.c ****     int xFont, yFont;
ARM GAS  C:\Users\RYANCA~1\AppData\Local\Temp\ccfontiW.s 			page 8


 131:frucd_display.c ****     int horizFontSize = 12 + 20*size;
 269              		.loc 1 131 0
 270 0012 1423     		movs	r3, #20
 271              	.LVL22:
 272 0014 4B43     		muls	r3, r1
 128:frucd_display.c ****     int stringSize;
 273              		.loc 1 128 0
 274 0016 0292     		str	r2, [sp, #8]
 275 0018 0400     		movs	r4, r0
 276              		.loc 1 131 0
 277 001a 0C33     		adds	r3, r3, #12
 278              	.LVL23:
 132:frucd_display.c ****     if (data >= 100) {
 133:frucd_display.c ****         stringSize = 4;
 279              		.loc 1 133 0
 280 001c 0422     		movs	r2, #4
 281              	.LVL24:
 132:frucd_display.c ****     if (data >= 100) {
 282              		.loc 1 132 0
 283 001e 6328     		cmp	r0, #99
 284 0020 04D8     		bhi	.L11
 134:frucd_display.c ****     }else if (data >= 10){
 135:frucd_display.c ****         stringSize = 3;
 136:frucd_display.c ****     }else{
 137:frucd_display.c ****         stringSize = 2;
 285              		.loc 1 137 0
 286 0022 0532     		adds	r2, r2, #5
 287 0024 8242     		cmp	r2, r0
 288 0026 9241     		sbcs	r2, r2, r2
 289 0028 5242     		rsbs	r2, r2, #0
 290 002a 0232     		adds	r2, r2, #2
 291              	.L11:
 292              	.LVL25:
 138:frucd_display.c ****     }
 139:frucd_display.c ****     
 140:frucd_display.c ****     xFont = (x1 + x2)/2 - ((horizFontSize*stringSize)/2);
 293              		.loc 1 140 0
 294 002c 5343     		muls	r3, r2
 295              	.LVL26:
 296 002e 0398     		ldr	r0, [sp, #12]
 297              	.LVL27:
 298 0030 5B10     		asrs	r3, r3, #1
 299 0032 3D18     		adds	r5, r7, r0
 300 0034 6810     		asrs	r0, r5, #1
 301 0036 C51A     		subs	r5, r0, r3
 302              	.LVL28:
 141:frucd_display.c ****     yFont = (y1 + y2)/2 - 5 - (size*17);    
 303              		.loc 1 141 0
 304 0038 049A     		ldr	r2, [sp, #16]
 305              	.LVL29:
 306 003a 029B     		ldr	r3, [sp, #8]
 307 003c 9E18     		adds	r6, r3, r2
 308 003e 7610     		asrs	r6, r6, #1
 309 0040 731F     		subs	r3, r6, #5
 310 0042 1126     		movs	r6, #17
 311 0044 7642     		rsbs	r6, r6, #0
 312 0046 4E43     		muls	r6, r1
ARM GAS  C:\Users\RYANCA~1\AppData\Local\Temp\ccfontiW.s 			page 9


 313 0048 9E19     		adds	r6, r3, r6
 314              	.LVL30:
 142:frucd_display.c ****     if(size == 1){
 315              		.loc 1 142 0
 316 004a 0129     		cmp	r1, #1
 317 004c 02D1     		bne	.L12
 143:frucd_display.c ****         UG_FontSelect(&FONT_32X53);
 318              		.loc 1 143 0
 319 004e 4048     		ldr	r0, .L28
 320 0050 FFF7FEFF 		bl	UG_FontSelect
 321              	.LVL31:
 322              	.L12:
 323 0054 33B2     		sxth	r3, r6
 324 0056 0593     		str	r3, [sp, #20]
 325 0058 2BB2     		sxth	r3, r5
 326 005a 0693     		str	r3, [sp, #24]
 144:frucd_display.c ****        
 145:frucd_display.c ****     }
 146:frucd_display.c ****         
 147:frucd_display.c ****     UG_COLOR color;
 148:frucd_display.c ****     if (data == 100) {
 327              		.loc 1 148 0
 328 005c 642C     		cmp	r4, #100
 329 005e 19D1     		bne	.L13
 330              	.LVL32:
 149:frucd_display.c ****         // handle 100% case
 150:frucd_display.c ****         color = C_GREEN;
 151:frucd_display.c ****         if (color != last_SOC_color) {
 331              		.loc 1 151 0
 332 0060 FF25     		movs	r5, #255
 333              	.LVL33:
 334 0062 3C4E     		ldr	r6, .L28+4
 335              	.LVL34:
 336 0064 2D02     		lsls	r5, r5, #8
 337 0066 3368     		ldr	r3, [r6]
 338 0068 AB42     		cmp	r3, r5
 339 006a 0DD0     		beq	.L14
 152:frucd_display.c ****             // only draw rectangle if color changed
 153:frucd_display.c ****             UG_FillFrame(x1, y1, x2, y2, color);
 340              		.loc 1 153 0
 341 006c 6B46     		mov	r3, sp
 342 006e 1022     		movs	r2, #16
 343 0070 9B5E     		ldrsh	r3, [r3, r2]
 344 0072 6A46     		mov	r2, sp
 345 0074 0C21     		movs	r1, #12
 346 0076 525E     		ldrsh	r2, [r2, r1]
 347 0078 6946     		mov	r1, sp
 348 007a 0820     		movs	r0, #8
 349 007c 095E     		ldrsh	r1, [r1, r0]
 350 007e 38B2     		sxth	r0, r7
 351 0080 0095     		str	r5, [sp]
 352 0082 FFF7FEFF 		bl	UG_FillFrame
 353              	.LVL35:
 154:frucd_display.c ****             last_SOC_color = color;
 354              		.loc 1 154 0
 355 0086 3560     		str	r5, [r6]
 356              	.L14:
ARM GAS  C:\Users\RYANCA~1\AppData\Local\Temp\ccfontiW.s 			page 10


 155:frucd_display.c ****         }
 156:frucd_display.c ****         
 157:frucd_display.c ****         UG_PutColorString(xFont, yFont, "100%", C_BLACK, C_GREEN);
 357              		.loc 1 157 0
 358 0088 FF23     		movs	r3, #255
 359 008a 1B02     		lsls	r3, r3, #8
 360 008c 0093     		str	r3, [sp]
 361 008e 324A     		ldr	r2, .L28+8
 362 0090 0023     		movs	r3, #0
 363 0092 53E0     		b	.L25
 364              	.LVL36:
 365              	.L13:
 366              	.LBB2:
 158:frucd_display.c ****     } else {
 159:frucd_display.c ****         // handle other cases
 160:frucd_display.c ****         char data_s[4];
 161:frucd_display.c ****         sprintf(data_s, "%d", data);
 367              		.loc 1 161 0
 368 0094 2200     		movs	r2, r4
 369 0096 3149     		ldr	r1, .L28+12
 370 0098 09A8     		add	r0, sp, #36
 371 009a FFF7FEFF 		bl	sprintf
 372              	.LVL37:
 162:frucd_display.c ****         if (data >= 10) {
 373              		.loc 1 162 0
 374 009e 092C     		cmp	r4, #9
 375 00a0 28D9     		bls	.L16
 163:frucd_display.c ****             // handle 2 digit cases
 164:frucd_display.c ****             // choose color
 165:frucd_display.c ****             if (data > 75) {
 376              		.loc 1 165 0
 377 00a2 4B2C     		cmp	r4, #75
 378 00a4 06D8     		bhi	.L22
 166:frucd_display.c ****                 color = C_GREEN;
 167:frucd_display.c ****             } else if (data > 50) {
 379              		.loc 1 167 0
 380 00a6 322C     		cmp	r4, #50
 381 00a8 07D8     		bhi	.L23
 168:frucd_display.c ****                 color = C_YELLOW;
 169:frucd_display.c ****             } else if (data > 25) {
 382              		.loc 1 169 0
 383 00aa 192C     		cmp	r4, #25
 384 00ac 07D8     		bhi	.L24
 170:frucd_display.c ****                 color = C_ORANGE;
 171:frucd_display.c ****             } else {
 172:frucd_display.c ****                 color = C_RED;
 385              		.loc 1 172 0
 386 00ae FF25     		movs	r5, #255
 387              	.LVL38:
 388 00b0 2D04     		lsls	r5, r5, #16
 389 00b2 05E0     		b	.L17
 390              	.LVL39:
 391              	.L22:
 166:frucd_display.c ****             } else if (data > 50) {
 392              		.loc 1 166 0
 393 00b4 FF25     		movs	r5, #255
 394              	.LVL40:
ARM GAS  C:\Users\RYANCA~1\AppData\Local\Temp\ccfontiW.s 			page 11


 395 00b6 2D02     		lsls	r5, r5, #8
 396 00b8 02E0     		b	.L17
 397              	.LVL41:
 398              	.L23:
 168:frucd_display.c ****                 color = C_YELLOW;
 399              		.loc 1 168 0
 400 00ba 294D     		ldr	r5, .L28+16
 401              	.LVL42:
 402 00bc 00E0     		b	.L17
 403              	.LVL43:
 404              	.L24:
 170:frucd_display.c ****                 color = C_ORANGE;
 405              		.loc 1 170 0
 406 00be 294D     		ldr	r5, .L28+20
 407              	.LVL44:
 408              	.L17:
 173:frucd_display.c ****             }
 174:frucd_display.c ****             data_s[2] = '%';
 409              		.loc 1 174 0
 410 00c0 2522     		movs	r2, #37
 411 00c2 09AB     		add	r3, sp, #36
 412 00c4 9A70     		strb	r2, [r3, #2]
 175:frucd_display.c ****             data_s[3] = '\0';
 413              		.loc 1 175 0
 414 00c6 0022     		movs	r2, #0
 176:frucd_display.c ****             if (color != last_SOC_color) {
 415              		.loc 1 176 0
 416 00c8 224E     		ldr	r6, .L28+4
 417              	.LVL45:
 175:frucd_display.c ****             data_s[3] = '\0';
 418              		.loc 1 175 0
 419 00ca DA70     		strb	r2, [r3, #3]
 420              		.loc 1 176 0
 421 00cc 3368     		ldr	r3, [r6]
 422 00ce 9D42     		cmp	r5, r3
 423 00d0 0DD0     		beq	.L18
 177:frucd_display.c ****                 // only draw rectangle if color changed
 178:frucd_display.c ****                 UG_FillFrame(x1, y1, x2, y2, color);
 424              		.loc 1 178 0
 425 00d2 6B46     		mov	r3, sp
 426 00d4 1022     		movs	r2, #16
 427 00d6 9B5E     		ldrsh	r3, [r3, r2]
 428 00d8 6A46     		mov	r2, sp
 429 00da 0C21     		movs	r1, #12
 430 00dc 525E     		ldrsh	r2, [r2, r1]
 431 00de 6946     		mov	r1, sp
 432 00e0 0820     		movs	r0, #8
 433 00e2 095E     		ldrsh	r1, [r1, r0]
 434 00e4 38B2     		sxth	r0, r7
 435 00e6 0095     		str	r5, [sp]
 436 00e8 FFF7FEFF 		bl	UG_FillFrame
 437              	.LVL46:
 179:frucd_display.c ****                 last_SOC_color = color;
 438              		.loc 1 179 0
 439 00ec 3560     		str	r5, [r6]
 440              	.L18:
 180:frucd_display.c ****             }
ARM GAS  C:\Users\RYANCA~1\AppData\Local\Temp\ccfontiW.s 			page 12


 181:frucd_display.c ****             UG_PutColorString(xFont, yFont, data_s, C_BLACK, color);
 441              		.loc 1 181 0
 442 00ee 0095     		str	r5, [sp]
 443 00f0 0023     		movs	r3, #0
 444 00f2 22E0     		b	.L26
 445              	.LVL47:
 446              	.L16:
 182:frucd_display.c ****         } else {
 183:frucd_display.c ****             // handle 1 digit cases
 184:frucd_display.c ****             data_s[1] = '%';
 447              		.loc 1 184 0
 448 00f4 2523     		movs	r3, #37
 449 00f6 06AA     		add	r2, sp, #24
 450 00f8 5373     		strb	r3, [r2, #13]
 185:frucd_display.c ****             data_s[2] = '\0';
 186:frucd_display.c ****             color = C_RED;
 187:frucd_display.c ****             UG_FillFrame(x1, y1, x2, y2, C_BLACK);
 451              		.loc 1 187 0
 452 00fa 3BB2     		sxth	r3, r7
 185:frucd_display.c ****             data_s[2] = '\0';
 453              		.loc 1 185 0
 454 00fc 0024     		movs	r4, #0
 455              		.loc 1 187 0
 456 00fe 0793     		str	r3, [sp, #28]
 457 0100 6B46     		mov	r3, sp
 185:frucd_display.c ****             data_s[2] = '\0';
 458              		.loc 1 185 0
 459 0102 9473     		strb	r4, [r2, #14]
 460              	.LVL48:
 461              		.loc 1 187 0
 462 0104 0822     		movs	r2, #8
 463 0106 9B5E     		ldrsh	r3, [r3, r2]
 188:frucd_display.c ****             UG_FillFrame(x1, y1, x2, y2, color);
 464              		.loc 1 188 0
 465 0108 FF27     		movs	r7, #255
 187:frucd_display.c ****             UG_FillFrame(x1, y1, x2, y2, color);
 466              		.loc 1 187 0
 467 010a 0293     		str	r3, [sp, #8]
 468 010c 6B46     		mov	r3, sp
 469 010e 0C25     		movs	r5, #12
 470 0110 5D5F     		ldrsh	r5, [r3, r5]
 471              	.LVL49:
 472 0112 6B46     		mov	r3, sp
 473 0114 1026     		movs	r6, #16
 474 0116 9E5F     		ldrsh	r6, [r3, r6]
 475              	.LVL50:
 476 0118 2A00     		movs	r2, r5
 477 011a 3300     		movs	r3, r6
 478 011c 0299     		ldr	r1, [sp, #8]
 479 011e 0798     		ldr	r0, [sp, #28]
 480              		.loc 1 188 0
 481 0120 3F04     		lsls	r7, r7, #16
 187:frucd_display.c ****             UG_FillFrame(x1, y1, x2, y2, color);
 482              		.loc 1 187 0
 483 0122 0094     		str	r4, [sp]
 484 0124 FFF7FEFF 		bl	UG_FillFrame
 485              	.LVL51:
ARM GAS  C:\Users\RYANCA~1\AppData\Local\Temp\ccfontiW.s 			page 13


 486              		.loc 1 188 0
 487 0128 3300     		movs	r3, r6
 488 012a 0097     		str	r7, [sp]
 489 012c 2A00     		movs	r2, r5
 490 012e 0299     		ldr	r1, [sp, #8]
 491 0130 0798     		ldr	r0, [sp, #28]
 492 0132 FFF7FEFF 		bl	UG_FillFrame
 493              	.LVL52:
 189:frucd_display.c ****             UG_PutColorString(xFont, yFont, data_s, C_BLACK, color);
 494              		.loc 1 189 0
 495 0136 2300     		movs	r3, r4
 496 0138 0097     		str	r7, [sp]
 497              	.LVL53:
 498              	.L26:
 499 013a 09AA     		add	r2, sp, #36
 500              	.L25:
 501 013c 0599     		ldr	r1, [sp, #20]
 502 013e 0698     		ldr	r0, [sp, #24]
 503 0140 FFF7FEFF 		bl	UG_PutColorString
 504              	.LVL54:
 505              	.LBE2:
 190:frucd_display.c ****         }   
 191:frucd_display.c ****     }
 192:frucd_display.c ****     UG_FontSelect(&FONT_12X16);
 506              		.loc 1 192 0
 507 0144 0848     		ldr	r0, .L28+24
 508 0146 FFF7FEFF 		bl	UG_FontSelect
 509              	.LVL55:
 193:frucd_display.c **** }
 510              		.loc 1 193 0
 511 014a 0BB0     		add	sp, sp, #44
 512              		@ sp needed
 513 014c F0BD     		pop	{r4, r5, r6, r7, pc}
 514              	.L29:
 515 014e C046     		.align	2
 516              	.L28:
 517 0150 00000000 		.word	FONT_32X53
 518 0154 00000000 		.word	last_SOC_color
 519 0158 31000000 		.word	.LC17
 520 015c 36000000 		.word	.LC19
 521 0160 00FFFF00 		.word	16776960
 522 0164 00A5FF00 		.word	16753920
 523 0168 00000000 		.word	FONT_12X16
 524              		.cfi_endproc
 525              	.LFE38:
 526              		.size	disp_SOC, .-disp_SOC
 527              		.section	.text.disp_max_pack_temp,"ax",%progbits
 528              		.align	1
 529              		.global	disp_max_pack_temp
 530              		.code	16
 531              		.thumb_func
 532              		.type	disp_max_pack_temp, %function
 533              	disp_max_pack_temp:
 534              	.LFB39:
 194:frucd_display.c **** 
 195:frucd_display.c **** /*
 196:frucd_display.c **** 
ARM GAS  C:\Users\RYANCA~1\AppData\Local\Temp\ccfontiW.s 			page 14


 197:frucd_display.c **** void disp_max_pack_temp(uint8_t data) {
 198:frucd_display.c ****     // choose color
 199:frucd_display.c ****     UG_COLOR color;
 200:frucd_display.c ****     if (data < 45) {
 201:frucd_display.c ****         color = C_GREEN;
 202:frucd_display.c ****     } else if (data < 50) {
 203:frucd_display.c ****         color = C_YELLOW;
 204:frucd_display.c ****     } else if (data < 55) {
 205:frucd_display.c ****         color = C_ORANGE;
 206:frucd_display.c ****     } else {
 207:frucd_display.c ****         color = C_RED;
 208:frucd_display.c ****         
 209:frucd_display.c ****         
 210:frucd_display.c ****         
 211:frucd_display.c ****         
 212:frucd_display.c ****         //whats up with the first line here?
 213:frucd_display.c ****         UG_FillFrame(270, 35, 450, 170, C_BLACK);
 214:frucd_display.c ****         UG_FillFrame(270, 35, 450, 170, color);
 215:frucd_display.c ****         
 216:frucd_display.c ****         
 217:frucd_display.c ****         
 218:frucd_display.c ****         
 219:frucd_display.c ****         
 220:frucd_display.c ****         
 221:frucd_display.c ****         
 222:frucd_display.c ****     }
 223:frucd_display.c ****     
 224:frucd_display.c ****     if (color != last_max_pack_temp_color) {
 225:frucd_display.c ****         // only draw rectangle if color changed
 226:frucd_display.c ****         UG_FillFrame(270, 35, 450, 170, color);
 227:frucd_display.c ****         last_max_pack_temp_color = color;
 228:frucd_display.c ****     }
 229:frucd_display.c ****     UG_FontSelect(&FONT_32X53);
 230:frucd_display.c ****     char data_s[4];
 231:frucd_display.c ****     sprintf(data_s, "%d", data);
 232:frucd_display.c ****     data_s[2] = 'C';
 233:frucd_display.c ****     data_s[3] = '\0';
 234:frucd_display.c ****     UG_PutColorString(310, 80, data_s, C_BLACK, color);
 235:frucd_display.c ****     UG_FontSelect(&FONT_12X16);
 236:frucd_display.c **** }
 237:frucd_display.c **** 
 238:frucd_display.c **** */
 239:frucd_display.c **** 
 240:frucd_display.c **** 
 241:frucd_display.c **** void disp_max_pack_temp(uint8_t data, uint16_t x1, uint16_t y1, uint16_t x2, uint16_t y2, uint8_t s
 535              		.loc 1 241 0
 536              		.cfi_startproc
 537              		@ args = 8, pretend = 0, frame = 40
 538              		@ frame_needed = 0, uses_anonymous_args = 0
 539              	.LVL56:
 540 0000 F0B5     		push	{r4, r5, r6, r7, lr}
 541              		.cfi_def_cfa_offset 20
 542              		.cfi_offset 4, -20
 543              		.cfi_offset 5, -16
 544              		.cfi_offset 6, -12
 545              		.cfi_offset 7, -8
 546              		.cfi_offset 14, -4
ARM GAS  C:\Users\RYANCA~1\AppData\Local\Temp\ccfontiW.s 			page 15


 547 0002 8DB0     		sub	sp, sp, #52
 548              		.cfi_def_cfa_offset 72
 549              		.loc 1 241 0
 550 0004 0593     		str	r3, [sp, #20]
 551 0006 12AB     		add	r3, sp, #72
 552              	.LVL57:
 553 0008 1B88     		ldrh	r3, [r3]
 554              	.LVL58:
 555 000a 0492     		str	r2, [sp, #16]
 556 000c 0693     		str	r3, [sp, #24]
 557 000e 13AB     		add	r3, sp, #76
 558              	.LVL59:
 559 0010 1A78     		ldrb	r2, [r3]
 560              	.LVL60:
 242:frucd_display.c ****     int xFont, yFont;
 243:frucd_display.c ****     int horizFontSize = 12 + 20*size;
 244:frucd_display.c ****     int stringSize;
 245:frucd_display.c ****     stringSize = 3;
 246:frucd_display.c ****     xFont = (x1 + x2)/2 - ((horizFontSize*stringSize)/2);
 561              		.loc 1 246 0
 562 0012 1423     		movs	r3, #20
 563              	.LVL61:
 241:frucd_display.c ****     int xFont, yFont;
 564              		.loc 1 241 0
 565 0014 0391     		str	r1, [sp, #12]
 566              		.loc 1 246 0
 567 0016 0321     		movs	r1, #3
 568              	.LVL62:
 569 0018 5343     		muls	r3, r2
 570 001a 0C33     		adds	r3, r3, #12
 571              	.LVL63:
 572 001c 4B43     		muls	r3, r1
 573              	.LVL64:
 241:frucd_display.c ****     int xFont, yFont;
 574              		.loc 1 241 0
 575 001e 0290     		str	r0, [sp, #8]
 576              		.loc 1 246 0
 577 0020 0399     		ldr	r1, [sp, #12]
 578 0022 0598     		ldr	r0, [sp, #20]
 579              	.LVL65:
 580 0024 5B10     		asrs	r3, r3, #1
 581 0026 0818     		adds	r0, r1, r0
 582 0028 4010     		asrs	r0, r0, #1
 583 002a C31A     		subs	r3, r0, r3
 247:frucd_display.c ****     yFont = (y1 + y2)/2 - 5 - (size*17);    
 584              		.loc 1 247 0
 585 002c 0699     		ldr	r1, [sp, #24]
 246:frucd_display.c ****     yFont = (y1 + y2)/2 - 5 - (size*17);    
 586              		.loc 1 246 0
 587 002e 0893     		str	r3, [sp, #32]
 588              	.LVL66:
 589              		.loc 1 247 0
 590 0030 049B     		ldr	r3, [sp, #16]
 591              	.LVL67:
 592 0032 5B18     		adds	r3, r3, r1
 593 0034 1121     		movs	r1, #17
 594 0036 4942     		rsbs	r1, r1, #0
ARM GAS  C:\Users\RYANCA~1\AppData\Local\Temp\ccfontiW.s 			page 16


 595 0038 5143     		muls	r1, r2
 596 003a 5B10     		asrs	r3, r3, #1
 597 003c 053B     		subs	r3, r3, #5
 598 003e 5B18     		adds	r3, r3, r1
 599 0040 0993     		str	r3, [sp, #36]
 600              	.LVL68:
 248:frucd_display.c ****     if(size == 1){
 601              		.loc 1 248 0
 602 0042 012A     		cmp	r2, #1
 603 0044 02D1     		bne	.L31
 249:frucd_display.c ****         UG_FontSelect(&FONT_32X53);
 604              		.loc 1 249 0
 605 0046 2D48     		ldr	r0, .L37
 606 0048 FFF7FEFF 		bl	UG_FontSelect
 607              	.LVL69:
 608              	.L31:
 250:frucd_display.c ****     }
 251:frucd_display.c ****     
 252:frucd_display.c ****     // choose color
 253:frucd_display.c ****     UG_COLOR color;
 254:frucd_display.c ****     if (data < 45) {
 609              		.loc 1 254 0
 610 004c 029B     		ldr	r3, [sp, #8]
 611 004e 2C2B     		cmp	r3, #44
 612 0050 21D9     		bls	.L34
 255:frucd_display.c ****         color = C_GREEN;
 256:frucd_display.c ****     } else if (data < 50) {
 613              		.loc 1 256 0
 614 0052 312B     		cmp	r3, #49
 615 0054 22D9     		bls	.L35
 257:frucd_display.c ****         color = C_YELLOW;
 258:frucd_display.c ****     } else if (data < 55) {
 616              		.loc 1 258 0
 617 0056 362B     		cmp	r3, #54
 618 0058 22D9     		bls	.L36
 619              	.LVL70:
 259:frucd_display.c ****         color = C_ORANGE;
 260:frucd_display.c ****     } else {
 261:frucd_display.c ****         color = C_RED; 
 262:frucd_display.c ****         UG_FillFrame(x1, y1, x2, y2, C_BLACK);
 620              		.loc 1 262 0
 621 005a 6B46     		mov	r3, sp
 622 005c 0C25     		movs	r5, #12
 623 005e 5D5F     		ldrsh	r5, [r3, r5]
 624 0060 6B46     		mov	r3, sp
 625 0062 1026     		movs	r6, #16
 626 0064 9E5F     		ldrsh	r6, [r3, r6]
 627 0066 6B46     		mov	r3, sp
 628 0068 1427     		movs	r7, #20
 629 006a DF5F     		ldrsh	r7, [r3, r7]
 630 006c 6B46     		mov	r3, sp
 263:frucd_display.c ****         UG_FillFrame(x1, y1, x2, y2, color);
 631              		.loc 1 263 0
 632 006e FF24     		movs	r4, #255
 262:frucd_display.c ****         UG_FillFrame(x1, y1, x2, y2, color);
 633              		.loc 1 262 0
 634 0070 1822     		movs	r2, #24
ARM GAS  C:\Users\RYANCA~1\AppData\Local\Temp\ccfontiW.s 			page 17


 635 0072 9B5E     		ldrsh	r3, [r3, r2]
 636 0074 0022     		movs	r2, #0
 637 0076 3100     		movs	r1, r6
 638 0078 0092     		str	r2, [sp]
 639 007a 2800     		movs	r0, r5
 640 007c 3A00     		movs	r2, r7
 641              		.loc 1 263 0
 642 007e 2404     		lsls	r4, r4, #16
 262:frucd_display.c ****         UG_FillFrame(x1, y1, x2, y2, color);
 643              		.loc 1 262 0
 644 0080 0793     		str	r3, [sp, #28]
 645 0082 FFF7FEFF 		bl	UG_FillFrame
 646              	.LVL71:
 647              		.loc 1 263 0
 648 0086 0094     		str	r4, [sp]
 649 0088 079B     		ldr	r3, [sp, #28]
 650 008a 3A00     		movs	r2, r7
 651 008c 3100     		movs	r1, r6
 652 008e 2800     		movs	r0, r5
 653 0090 FFF7FEFF 		bl	UG_FillFrame
 654              	.LVL72:
 655 0094 05E0     		b	.L32
 656              	.LVL73:
 657              	.L34:
 255:frucd_display.c ****     } else if (data < 50) {
 658              		.loc 1 255 0
 659 0096 FF24     		movs	r4, #255
 660 0098 2402     		lsls	r4, r4, #8
 661 009a 02E0     		b	.L32
 662              	.L35:
 257:frucd_display.c ****     } else if (data < 55) {
 663              		.loc 1 257 0
 664 009c 184C     		ldr	r4, .L37+4
 665 009e 00E0     		b	.L32
 666              	.L36:
 259:frucd_display.c ****     } else {
 667              		.loc 1 259 0
 668 00a0 184C     		ldr	r4, .L37+8
 669              	.L32:
 670              	.LVL74:
 264:frucd_display.c ****     
 265:frucd_display.c ****     }
 266:frucd_display.c ****     
 267:frucd_display.c ****     if (color != last_max_pack_temp_color) {
 671              		.loc 1 267 0
 672 00a2 194D     		ldr	r5, .L37+12
 673 00a4 2B68     		ldr	r3, [r5]
 674 00a6 9C42     		cmp	r4, r3
 675 00a8 0FD0     		beq	.L33
 268:frucd_display.c ****         // only draw rectangle if color changed
 269:frucd_display.c ****         UG_FillFrame(x1, y1, x2, y2, color);
 676              		.loc 1 269 0
 677 00aa 6B46     		mov	r3, sp
 678 00ac 1822     		movs	r2, #24
 679 00ae 9B5E     		ldrsh	r3, [r3, r2]
 680 00b0 6A46     		mov	r2, sp
 681 00b2 1421     		movs	r1, #20
ARM GAS  C:\Users\RYANCA~1\AppData\Local\Temp\ccfontiW.s 			page 18


 682 00b4 525E     		ldrsh	r2, [r2, r1]
 683 00b6 6946     		mov	r1, sp
 684 00b8 1020     		movs	r0, #16
 685 00ba 095E     		ldrsh	r1, [r1, r0]
 686 00bc 6846     		mov	r0, sp
 687 00be 0C26     		movs	r6, #12
 688 00c0 805F     		ldrsh	r0, [r0, r6]
 689 00c2 0094     		str	r4, [sp]
 690 00c4 FFF7FEFF 		bl	UG_FillFrame
 691              	.LVL75:
 270:frucd_display.c ****         last_max_pack_temp_color = color;
 692              		.loc 1 270 0
 693 00c8 2C60     		str	r4, [r5]
 694              	.L33:
 271:frucd_display.c ****     }
 272:frucd_display.c **** 
 273:frucd_display.c ****     char data_s[4];
 274:frucd_display.c ****     sprintf(data_s, "%d", data);
 695              		.loc 1 274 0
 696 00ca 0BAD     		add	r5, sp, #44
 697 00cc 029A     		ldr	r2, [sp, #8]
 698 00ce 0F49     		ldr	r1, .L37+16
 699 00d0 2800     		movs	r0, r5
 700 00d2 FFF7FEFF 		bl	sprintf
 701              	.LVL76:
 275:frucd_display.c ****     data_s[2] = 'C';
 276:frucd_display.c ****     data_s[3] = '\0';
 277:frucd_display.c ****     UG_PutColorString(xFont, yFont, data_s, C_BLACK, color);
 702              		.loc 1 277 0
 703 00d6 6A46     		mov	r2, sp
 275:frucd_display.c ****     data_s[2] = 'C';
 704              		.loc 1 275 0
 705 00d8 4323     		movs	r3, #67
 706              		.loc 1 277 0
 707 00da 2421     		movs	r1, #36
 708 00dc 515E     		ldrsh	r1, [r2, r1]
 275:frucd_display.c ****     data_s[2] = 'C';
 709              		.loc 1 275 0
 710 00de AB70     		strb	r3, [r5, #2]
 711              		.loc 1 277 0
 712 00e0 6A46     		mov	r2, sp
 276:frucd_display.c ****     UG_PutColorString(xFont, yFont, data_s, C_BLACK, color);
 713              		.loc 1 276 0
 714 00e2 0023     		movs	r3, #0
 715              		.loc 1 277 0
 716 00e4 2020     		movs	r0, #32
 717 00e6 105E     		ldrsh	r0, [r2, r0]
 276:frucd_display.c ****     UG_PutColorString(xFont, yFont, data_s, C_BLACK, color);
 718              		.loc 1 276 0
 719 00e8 EB70     		strb	r3, [r5, #3]
 720              		.loc 1 277 0
 721 00ea 2A00     		movs	r2, r5
 722 00ec 0094     		str	r4, [sp]
 723 00ee FFF7FEFF 		bl	UG_PutColorString
 724              	.LVL77:
 278:frucd_display.c ****     UG_FontSelect(&FONT_12X16);
 725              		.loc 1 278 0
ARM GAS  C:\Users\RYANCA~1\AppData\Local\Temp\ccfontiW.s 			page 19


 726 00f2 0748     		ldr	r0, .L37+20
 727 00f4 FFF7FEFF 		bl	UG_FontSelect
 728              	.LVL78:
 279:frucd_display.c **** }
 729              		.loc 1 279 0
 730 00f8 0DB0     		add	sp, sp, #52
 731              		@ sp needed
 732              	.LVL79:
 733 00fa F0BD     		pop	{r4, r5, r6, r7, pc}
 734              	.L38:
 735              		.align	2
 736              	.L37:
 737 00fc 00000000 		.word	FONT_32X53
 738 0100 00FFFF00 		.word	16776960
 739 0104 00A5FF00 		.word	16753920
 740 0108 00000000 		.word	last_max_pack_temp_color
 741 010c 36000000 		.word	.LC19
 742 0110 00000000 		.word	FONT_12X16
 743              		.cfi_endproc
 744              	.LFE39:
 745              		.size	disp_max_pack_temp, .-disp_max_pack_temp
 746              		.section	.text.disp_state,"ax",%progbits
 747              		.align	1
 748              		.global	disp_state
 749              		.code	16
 750              		.thumb_func
 751              		.type	disp_state, %function
 752              	disp_state:
 753              	.LFB40:
 280:frucd_display.c **** 
 281:frucd_display.c **** 
 282:frucd_display.c **** /*
 283:frucd_display.c **** 
 284:frucd_display.c **** void disp_state(uint8_t state) { // TODO
 285:frucd_display.c ****     UG_COLOR color;
 286:frucd_display.c ****     // check fault bit
 287:frucd_display.c ****     if (state & 0x80) {
 288:frucd_display.c ****         // *************** FAULTS ***************
 289:frucd_display.c ****         uint8 fault = state & 0x7f; // mask off fault bit
 290:frucd_display.c ****         switch(fault) {
 291:frucd_display.c ****             case NONE: // STARTUP (effectively)
 292:frucd_display.c ****                 // not obtainable via CAN
 293:frucd_display.c ****                 // would only show when hardcoded on startup
 294:frucd_display.c ****                 color = C_YELLOW;
 295:frucd_display.c ****                 if (color != last_state_color) {
 296:frucd_display.c ****                     // only draw rectangle if color changed
 297:frucd_display.c ****                     UG_FillFrame(95, 185, 240, 215, color);
 298:frucd_display.c ****                     last_state_color = color;
 299:frucd_display.c ****                 }
 300:frucd_display.c ****                 UG_PutColorString(100, 195, " STARTUP  ", C_BLACK, color);
 301:frucd_display.c ****                 break;
 302:frucd_display.c ****             case DRIVE_REQUEST_FROM_LV:
 303:frucd_display.c ****                 color = C_RED;
 304:frucd_display.c ****                 if (color != last_state_color) {
 305:frucd_display.c ****                     // only draw rectangle if color changed
 306:frucd_display.c ****                     UG_FillFrame(95, 185, 240, 215, color);
 307:frucd_display.c ****                     last_state_color = color;
ARM GAS  C:\Users\RYANCA~1\AppData\Local\Temp\ccfontiW.s 			page 20


 308:frucd_display.c ****                 }
 309:frucd_display.c ****                 UG_PutColorString(100, 195, "DRV FRM LV", C_BLACK, color);
 310:frucd_display.c ****                 break;
 311:frucd_display.c ****             case CONSERVATIVE_TIMER_MAXED:
 312:frucd_display.c ****                 color = C_RED;
 313:frucd_display.c ****                 if (color != last_state_color) {
 314:frucd_display.c ****                     // only draw rectangle if color changed
 315:frucd_display.c ****                     UG_FillFrame(95, 185, 240, 215, color);
 316:frucd_display.c ****                     last_state_color = color;
 317:frucd_display.c ****                 }
 318:frucd_display.c ****                 UG_PutColorString(100, 195, "PRE TM OUT", C_BLACK, color);
 319:frucd_display.c ****                 break;
 320:frucd_display.c ****             case BRAKE_NOT_PRESSED:
 321:frucd_display.c ****                 color = C_RED;
 322:frucd_display.c ****                 if (color != last_state_color) {
 323:frucd_display.c ****                     // only draw rectangle if color changed
 324:frucd_display.c ****                     UG_FillFrame(95, 185, 240, 215, color);
 325:frucd_display.c ****                     last_state_color = color;
 326:frucd_display.c ****                 }
 327:frucd_display.c ****                 UG_PutColorString(100, 195, "BR NOT PRS", C_BLACK, color);
 328:frucd_display.c ****                 break;
 329:frucd_display.c ****             case HV_DISABLED_WHILE_DRIVING:
 330:frucd_display.c ****                 color = C_RED;
 331:frucd_display.c ****                 if (color != last_state_color) {
 332:frucd_display.c ****                     // only draw rectangle if color changed
 333:frucd_display.c ****                     UG_FillFrame(95, 185, 240, 215, color);
 334:frucd_display.c ****                     last_state_color = color;
 335:frucd_display.c ****                 }
 336:frucd_display.c ****                 UG_PutColorString(100, 195, "HV OFF DRV", C_BLACK, color);
 337:frucd_display.c ****                 break;
 338:frucd_display.c ****             case SENSOR_DISCREPANCY:
 339:frucd_display.c ****                 color = C_RED;
 340:frucd_display.c ****                 if (color != last_state_color) {
 341:frucd_display.c ****                     // only draw rectangle if color changed
 342:frucd_display.c ****                     UG_FillFrame(95, 185, 240, 215, color);
 343:frucd_display.c ****                     last_state_color = color;
 344:frucd_display.c ****                 }
 345:frucd_display.c ****                 UG_PutColorString(100, 195, "SNSR DSCRP", C_BLACK, color);
 346:frucd_display.c ****                 break;
 347:frucd_display.c ****             case BRAKE_IMPLAUSIBLE:
 348:frucd_display.c ****                 color = C_YELLOW;
 349:frucd_display.c ****                 if (color != last_state_color) {
 350:frucd_display.c ****                     // only draw rectangle if color changed
 351:frucd_display.c ****                     UG_FillFrame(95, 185, 240, 215, color);
 352:frucd_display.c ****                     last_state_color = color;
 353:frucd_display.c ****                 }
 354:frucd_display.c ****                 UG_PutColorString(100, 195, "BSPD TRIPD", C_BLACK, color); //whitespace to clear
 355:frucd_display.c ****                 break;
 356:frucd_display.c ****             case ESTOP:
 357:frucd_display.c ****                 color = C_RED;
 358:frucd_display.c ****                 if (color != last_state_color) {
 359:frucd_display.c ****                     // only draw rectangle if color changed
 360:frucd_display.c ****                     UG_FillFrame(95, 185, 240, 215, color);
 361:frucd_display.c ****                     last_state_color = color;
 362:frucd_display.c ****                 }
 363:frucd_display.c ****                 UG_PutColorString(100, 195, "SHTDWN OPN", C_BLACK, color); //whitespace to clear
 364:frucd_display.c ****                 break;
ARM GAS  C:\Users\RYANCA~1\AppData\Local\Temp\ccfontiW.s 			page 21


 365:frucd_display.c ****         }
 366:frucd_display.c ****         
 367:frucd_display.c ****     } else {
 368:frucd_display.c ****         // *************** NO FAULTS ***************
 369:frucd_display.c ****         color = C_GREEN;
 370:frucd_display.c ****         if (color != last_state_color) {
 371:frucd_display.c ****             // only draw rectangle if color changed
 372:frucd_display.c ****             UG_FillFrame(95, 185, 240, 215, color);
 373:frucd_display.c ****             last_state_color = color;
 374:frucd_display.c ****         }
 375:frucd_display.c ****         switch(state) {
 376:frucd_display.c ****             case LV:
 377:frucd_display.c ****                 UG_PutColorString(100, 195, "    LV    ", C_BLACK, color);
 378:frucd_display.c ****                 break;
 379:frucd_display.c ****             case PRECHARGING:
 380:frucd_display.c ****                 UG_PutColorString(100, 195, "PRECHARGE ", C_BLACK, color);
 381:frucd_display.c ****                 break;
 382:frucd_display.c ****             case HV_ENABLED:
 383:frucd_display.c ****                 UG_PutColorString(100, 195, "HV ENABLED", C_BLACK, color);
 384:frucd_display.c ****                 break;
 385:frucd_display.c ****             case DRIVE:
 386:frucd_display.c ****                 UG_PutColorString(100, 195, "  DRIVE   ", C_BLACK, color);
 387:frucd_display.c ****                 break;
 388:frucd_display.c ****         }
 389:frucd_display.c ****     }
 390:frucd_display.c **** }
 391:frucd_display.c **** 
 392:frucd_display.c **** 
 393:frucd_display.c **** */
 394:frucd_display.c **** 
 395:frucd_display.c **** 
 396:frucd_display.c **** void disp_state(uint8_t state, uint16_t x1, uint16_t y1, uint16_t x2, uint16_t y2, uint8_t size) { 
 754              		.loc 1 396 0
 755              		.cfi_startproc
 756              		@ args = 8, pretend = 0, frame = 24
 757              		@ frame_needed = 0, uses_anonymous_args = 0
 758              	.LVL80:
 759 0000 F0B5     		push	{r4, r5, r6, r7, lr}
 760              		.cfi_def_cfa_offset 20
 761              		.cfi_offset 4, -20
 762              		.cfi_offset 5, -16
 763              		.cfi_offset 6, -12
 764              		.cfi_offset 7, -8
 765              		.cfi_offset 14, -4
 766 0002 89B0     		sub	sp, sp, #36
 767              		.cfi_def_cfa_offset 56
 768              		.loc 1 396 0
 769 0004 0593     		str	r3, [sp, #20]
 770 0006 0EAB     		add	r3, sp, #56
 771              	.LVL81:
 772 0008 1C88     		ldrh	r4, [r3]
 773 000a 0FAB     		add	r3, sp, #60
 774              	.LVL82:
 775 000c 0492     		str	r2, [sp, #16]
 776 000e 1A78     		ldrb	r2, [r3]
 777              	.LVL83:
 397:frucd_display.c ****     int xFont, yFont;
ARM GAS  C:\Users\RYANCA~1\AppData\Local\Temp\ccfontiW.s 			page 22


 398:frucd_display.c ****     int horizFontSize = 12 + 20*size;
 399:frucd_display.c ****     int stringSize;
 400:frucd_display.c ****     stringSize = 10;
 401:frucd_display.c ****     xFont = (x1 + x2)/2 - ((horizFontSize*stringSize)/2);
 778              		.loc 1 401 0
 779 0010 1423     		movs	r3, #20
 780              	.LVL84:
 396:frucd_display.c ****     int xFont, yFont;
 781              		.loc 1 396 0
 782 0012 0391     		str	r1, [sp, #12]
 783              		.loc 1 401 0
 784 0014 0A21     		movs	r1, #10
 785              	.LVL85:
 402:frucd_display.c ****     yFont = (y1 + y2)/2 - 5 - (size*17);    
 786              		.loc 1 402 0
 787 0016 1127     		movs	r7, #17
 401:frucd_display.c ****     yFont = (y1 + y2)/2 - 5 - (size*17);    
 788              		.loc 1 401 0
 789 0018 5343     		muls	r3, r2
 790 001a 0C33     		adds	r3, r3, #12
 791              	.LVL86:
 792 001c 4B43     		muls	r3, r1
 793              	.LVL87:
 396:frucd_display.c ****     int xFont, yFont;
 794              		.loc 1 396 0
 795 001e 0600     		movs	r6, r0
 401:frucd_display.c ****     yFont = (y1 + y2)/2 - 5 - (size*17);    
 796              		.loc 1 401 0
 797 0020 0399     		ldr	r1, [sp, #12]
 798 0022 0598     		ldr	r0, [sp, #20]
 799              	.LVL88:
 800 0024 5B10     		asrs	r3, r3, #1
 801 0026 0918     		adds	r1, r1, r0
 802 0028 4910     		asrs	r1, r1, #1
 803 002a CB1A     		subs	r3, r1, r3
 804 002c 0693     		str	r3, [sp, #24]
 805              	.LVL89:
 806              		.loc 1 402 0
 807 002e 7F42     		rsbs	r7, r7, #0
 808 0030 049B     		ldr	r3, [sp, #16]
 809              	.LVL90:
 810 0032 5743     		muls	r7, r2
 811 0034 1B19     		adds	r3, r3, r4
 812 0036 5B10     		asrs	r3, r3, #1
 813 0038 053B     		subs	r3, r3, #5
 814 003a DB19     		adds	r3, r3, r7
 815 003c 0793     		str	r3, [sp, #28]
 816              	.LVL91:
 403:frucd_display.c ****     if(size == 1){
 817              		.loc 1 403 0
 818 003e 012A     		cmp	r2, #1
 819 0040 02D1     		bne	.L40
 404:frucd_display.c ****         UG_FontSelect(&FONT_32X53);
 820              		.loc 1 404 0
 821 0042 8D48     		ldr	r0, .L68
 822 0044 FFF7FEFF 		bl	UG_FontSelect
 823              	.LVL92:
ARM GAS  C:\Users\RYANCA~1\AppData\Local\Temp\ccfontiW.s 			page 23


 824              	.L40:
 405:frucd_display.c ****         
 406:frucd_display.c ****     }
 407:frucd_display.c ****     UG_COLOR color;
 408:frucd_display.c ****     // check fault bit
 409:frucd_display.c ****     if (state & 0x80) {
 825              		.loc 1 409 0
 826 0048 73B2     		sxtb	r3, r6
 827 004a 002B     		cmp	r3, #0
 828 004c 00DB     		blt	.LCB725
 829 004e DEE0     		b	.L41	@long jump
 830              	.LCB725:
 831              	.LVL93:
 832              	.LBB3:
 410:frucd_display.c ****         // *************** FAULTS ***************
 411:frucd_display.c ****         uint8 fault = state & 0x7f; // mask off fault bit
 412:frucd_display.c ****         switch(fault) {
 833              		.loc 1 412 0
 834 0050 7F20     		movs	r0, #127
 835 0052 3040     		ands	r0, r6
 836 0054 0728     		cmp	r0, #7
 837 0056 00D9     		bls	.LCB732
 838 0058 08E1     		b	.L42	@long jump
 839              	.LCB732:
 840 005a 6B46     		mov	r3, sp
 841 005c 1C27     		movs	r7, #28
 842 005e DF5F     		ldrsh	r7, [r3, r7]
 843 0060 6B46     		mov	r3, sp
 844 0062 864D     		ldr	r5, .L68+4
 845 0064 1826     		movs	r6, #24
 846 0066 9E5F     		ldrsh	r6, [r3, r6]
 847              	.LVL94:
 413:frucd_display.c ****             case NONE: // STARTUP (effectively)
 414:frucd_display.c ****                 // not obtainable via CAN
 415:frucd_display.c ****                 // would only show when hardcoded on startup
 416:frucd_display.c ****                 color = C_YELLOW;
 417:frucd_display.c ****                 if (color != last_state_color) {
 418:frucd_display.c ****                     // only draw rectangle if color changed
 419:frucd_display.c ****                     UG_FillFrame(x1, y1, x2, y2, color);
 420:frucd_display.c ****                     last_state_color = color;
 421:frucd_display.c ****                 }
 422:frucd_display.c ****                 UG_PutColorString(xFont, yFont, " STARTUP  ", C_BLACK, color);
 423:frucd_display.c ****                 break;
 424:frucd_display.c ****             case DRIVE_REQUEST_FROM_LV:
 425:frucd_display.c ****                 color = C_RED;
 426:frucd_display.c ****                 if (color != last_state_color) {
 427:frucd_display.c ****                     // only draw rectangle if color changed
 428:frucd_display.c ****                     UG_FillFrame(x1, y1, x2, y2, color);
 429:frucd_display.c ****                     last_state_color = color;
 430:frucd_display.c ****                 }
 431:frucd_display.c ****                 UG_PutColorString(xFont, yFont, "DRV FRM LV", C_BLACK, color);
 432:frucd_display.c ****                 break;
 433:frucd_display.c ****             case CONSERVATIVE_TIMER_MAXED:
 434:frucd_display.c ****                 color = C_RED;
 435:frucd_display.c ****                 if (color != last_state_color) {
 436:frucd_display.c ****                     // only draw rectangle if color changed
 437:frucd_display.c ****                     UG_FillFrame(x1, y1, x2, y2, color);
ARM GAS  C:\Users\RYANCA~1\AppData\Local\Temp\ccfontiW.s 			page 24


 438:frucd_display.c ****                     last_state_color = color;
 439:frucd_display.c ****                 }
 440:frucd_display.c ****                 UG_PutColorString(xFont, yFont, "PRE TM OUT", C_BLACK, color);
 441:frucd_display.c ****                 break;
 442:frucd_display.c ****             case BRAKE_NOT_PRESSED:
 443:frucd_display.c ****                 color = C_RED;
 444:frucd_display.c ****                 if (color != last_state_color) {
 445:frucd_display.c ****                     // only draw rectangle if color changed
 446:frucd_display.c ****                     UG_FillFrame(x1, y1, x2, y2, color);
 447:frucd_display.c ****                     last_state_color = color;
 448:frucd_display.c ****                 }
 449:frucd_display.c ****                 UG_PutColorString(xFont, yFont, "BR NOT PRS", C_BLACK, color);
 450:frucd_display.c ****                 break;
 451:frucd_display.c ****             case HV_DISABLED_WHILE_DRIVING:
 452:frucd_display.c ****                 color = C_RED;
 453:frucd_display.c ****                 if (color != last_state_color) {
 454:frucd_display.c ****                     // only draw rectangle if color changed
 455:frucd_display.c ****                     UG_FillFrame(x1, y1, x2, y2, color);
 456:frucd_display.c ****                     last_state_color = color;
 457:frucd_display.c ****                 }
 458:frucd_display.c ****                 UG_PutColorString(xFont, yFont, "HV OFF DRV", C_BLACK, color);
 459:frucd_display.c ****                 break;
 460:frucd_display.c ****             case SENSOR_DISCREPANCY:
 461:frucd_display.c ****                 color = C_RED;
 462:frucd_display.c ****                 if (color != last_state_color) {
 463:frucd_display.c ****                     // only draw rectangle if color changed
 464:frucd_display.c ****                     UG_FillFrame(x1, y1, x2, y2, color);
 465:frucd_display.c ****                     last_state_color = color;
 466:frucd_display.c ****                 }
 467:frucd_display.c ****                 UG_PutColorString(xFont, yFont, "SNSR DSCRP", C_BLACK, color);
 468:frucd_display.c ****                 break;
 469:frucd_display.c ****             case BRAKE_IMPLAUSIBLE:
 470:frucd_display.c ****                 color = C_YELLOW;
 471:frucd_display.c ****                 if (color != last_state_color) {
 472:frucd_display.c ****                     // only draw rectangle if color changed
 473:frucd_display.c ****                     UG_FillFrame(x1, y1, x2, y2, color);
 474:frucd_display.c ****                     last_state_color = color;
 475:frucd_display.c ****                 }
 476:frucd_display.c ****                 UG_PutColorString(xFont, yFont, "BSPD TRIPD", C_BLACK, color); //whitespace to clea
 477:frucd_display.c ****                 break;
 478:frucd_display.c ****             case ESTOP:
 479:frucd_display.c ****                 color = C_RED;
 480:frucd_display.c ****                 if (color != last_state_color) {
 848              		.loc 1 480 0
 849 0068 2B68     		ldr	r3, [r5]
 850 006a 1A00     		movs	r2, r3
 412:frucd_display.c ****             case NONE: // STARTUP (effectively)
 851              		.loc 1 412 0
 852 006c FFF7FEFF 		bl	__gnu_thumb1_case_uqi
 853              	.L44:
 854 0070 04       		.byte	(.L43-.L44)/2
 855 0071 1B       		.byte	(.L45-.L44)/2
 856 0072 35       		.byte	(.L46-.L44)/2
 857 0073 4F       		.byte	(.L47-.L44)/2
 858 0074 69       		.byte	(.L48-.L44)/2
 859 0075 83       		.byte	(.L49-.L44)/2
 860 0076 9D       		.byte	(.L50-.L44)/2
ARM GAS  C:\Users\RYANCA~1\AppData\Local\Temp\ccfontiW.s 			page 25


 861 0077 B4       		.byte	(.L51-.L44)/2
 862              		.p2align 1
 863              	.L43:
 864              	.LVL95:
 417:frucd_display.c ****                     // only draw rectangle if color changed
 865              		.loc 1 417 0
 866 0078 814B     		ldr	r3, .L68+8
 867 007a 9A42     		cmp	r2, r3
 868 007c 0ED0     		beq	.L52
 419:frucd_display.c ****                     last_state_color = color;
 869              		.loc 1 419 0
 870 007e 6A46     		mov	r2, sp
 871 0080 1421     		movs	r1, #20
 872 0082 525E     		ldrsh	r2, [r2, r1]
 873 0084 6946     		mov	r1, sp
 874 0086 1020     		movs	r0, #16
 875 0088 095E     		ldrsh	r1, [r1, r0]
 876 008a 6846     		mov	r0, sp
 877 008c 23B2     		sxth	r3, r4
 878 008e 0C24     		movs	r4, #12
 879 0090 005F     		ldrsh	r0, [r0, r4]
 880 0092 7B4C     		ldr	r4, .L68+8
 881 0094 0094     		str	r4, [sp]
 882 0096 FFF7FEFF 		bl	UG_FillFrame
 883              	.LVL96:
 420:frucd_display.c ****                 }
 884              		.loc 1 420 0
 885 009a 2C60     		str	r4, [r5]
 886              	.L52:
 422:frucd_display.c ****                 break;
 887              		.loc 1 422 0
 888 009c 784B     		ldr	r3, .L68+8
 889 009e 794A     		ldr	r2, .L68+12
 890 00a0 0093     		str	r3, [sp]
 891 00a2 0023     		movs	r3, #0
 892 00a4 B1E0     		b	.L67
 893              	.LVL97:
 894              	.L45:
 426:frucd_display.c ****                     // only draw rectangle if color changed
 895              		.loc 1 426 0
 896 00a6 FF23     		movs	r3, #255
 897 00a8 1B04     		lsls	r3, r3, #16
 898 00aa 9A42     		cmp	r2, r3
 899 00ac 0FD0     		beq	.L53
 428:frucd_display.c ****                     last_state_color = color;
 900              		.loc 1 428 0
 901 00ae 6A46     		mov	r2, sp
 902 00b0 1421     		movs	r1, #20
 903 00b2 525E     		ldrsh	r2, [r2, r1]
 904 00b4 6946     		mov	r1, sp
 905 00b6 1020     		movs	r0, #16
 906 00b8 095E     		ldrsh	r1, [r1, r0]
 907 00ba 6846     		mov	r0, sp
 908 00bc 23B2     		sxth	r3, r4
 909 00be 0C24     		movs	r4, #12
 910 00c0 005F     		ldrsh	r0, [r0, r4]
 911 00c2 FF24     		movs	r4, #255
ARM GAS  C:\Users\RYANCA~1\AppData\Local\Temp\ccfontiW.s 			page 26


 912 00c4 2404     		lsls	r4, r4, #16
 913 00c6 0094     		str	r4, [sp]
 914 00c8 FFF7FEFF 		bl	UG_FillFrame
 915              	.LVL98:
 429:frucd_display.c ****                 }
 916              		.loc 1 429 0
 917 00cc 2C60     		str	r4, [r5]
 918              	.L53:
 431:frucd_display.c ****                 break;
 919              		.loc 1 431 0
 920 00ce FF23     		movs	r3, #255
 921 00d0 1B04     		lsls	r3, r3, #16
 922 00d2 0093     		str	r3, [sp]
 923 00d4 6C4A     		ldr	r2, .L68+16
 924 00d6 0023     		movs	r3, #0
 925 00d8 97E0     		b	.L67
 926              	.LVL99:
 927              	.L46:
 435:frucd_display.c ****                     // only draw rectangle if color changed
 928              		.loc 1 435 0
 929 00da FF23     		movs	r3, #255
 930 00dc 1B04     		lsls	r3, r3, #16
 931 00de 9A42     		cmp	r2, r3
 932 00e0 0FD0     		beq	.L54
 437:frucd_display.c ****                     last_state_color = color;
 933              		.loc 1 437 0
 934 00e2 6A46     		mov	r2, sp
 935 00e4 1421     		movs	r1, #20
 936 00e6 525E     		ldrsh	r2, [r2, r1]
 937 00e8 6946     		mov	r1, sp
 938 00ea 1020     		movs	r0, #16
 939 00ec 095E     		ldrsh	r1, [r1, r0]
 940 00ee 6846     		mov	r0, sp
 941 00f0 23B2     		sxth	r3, r4
 942 00f2 0C24     		movs	r4, #12
 943 00f4 005F     		ldrsh	r0, [r0, r4]
 944 00f6 FF24     		movs	r4, #255
 945 00f8 2404     		lsls	r4, r4, #16
 946 00fa 0094     		str	r4, [sp]
 947 00fc FFF7FEFF 		bl	UG_FillFrame
 948              	.LVL100:
 438:frucd_display.c ****                 }
 949              		.loc 1 438 0
 950 0100 2C60     		str	r4, [r5]
 951              	.L54:
 440:frucd_display.c ****                 break;
 952              		.loc 1 440 0
 953 0102 FF23     		movs	r3, #255
 954 0104 1B04     		lsls	r3, r3, #16
 955 0106 0093     		str	r3, [sp]
 956 0108 604A     		ldr	r2, .L68+20
 957 010a 0023     		movs	r3, #0
 958 010c 7DE0     		b	.L67
 959              	.LVL101:
 960              	.L47:
 444:frucd_display.c ****                     // only draw rectangle if color changed
 961              		.loc 1 444 0
ARM GAS  C:\Users\RYANCA~1\AppData\Local\Temp\ccfontiW.s 			page 27


 962 010e FF23     		movs	r3, #255
 963 0110 1B04     		lsls	r3, r3, #16
 964 0112 9A42     		cmp	r2, r3
 965 0114 0FD0     		beq	.L55
 446:frucd_display.c ****                     last_state_color = color;
 966              		.loc 1 446 0
 967 0116 6A46     		mov	r2, sp
 968 0118 1421     		movs	r1, #20
 969 011a 525E     		ldrsh	r2, [r2, r1]
 970 011c 6946     		mov	r1, sp
 971 011e 1020     		movs	r0, #16
 972 0120 095E     		ldrsh	r1, [r1, r0]
 973 0122 6846     		mov	r0, sp
 974 0124 23B2     		sxth	r3, r4
 975 0126 0C24     		movs	r4, #12
 976 0128 005F     		ldrsh	r0, [r0, r4]
 977 012a FF24     		movs	r4, #255
 978 012c 2404     		lsls	r4, r4, #16
 979 012e 0094     		str	r4, [sp]
 980 0130 FFF7FEFF 		bl	UG_FillFrame
 981              	.LVL102:
 447:frucd_display.c ****                 }
 982              		.loc 1 447 0
 983 0134 2C60     		str	r4, [r5]
 984              	.L55:
 449:frucd_display.c ****                 break;
 985              		.loc 1 449 0
 986 0136 FF23     		movs	r3, #255
 987 0138 1B04     		lsls	r3, r3, #16
 988 013a 0093     		str	r3, [sp]
 989 013c 544A     		ldr	r2, .L68+24
 990 013e 0023     		movs	r3, #0
 991 0140 63E0     		b	.L67
 992              	.LVL103:
 993              	.L48:
 453:frucd_display.c ****                     // only draw rectangle if color changed
 994              		.loc 1 453 0
 995 0142 FF23     		movs	r3, #255
 996 0144 1B04     		lsls	r3, r3, #16
 997 0146 9A42     		cmp	r2, r3
 998 0148 0FD0     		beq	.L56
 455:frucd_display.c ****                     last_state_color = color;
 999              		.loc 1 455 0
 1000 014a 6A46     		mov	r2, sp
 1001 014c 1421     		movs	r1, #20
 1002 014e 525E     		ldrsh	r2, [r2, r1]
 1003 0150 6946     		mov	r1, sp
 1004 0152 1020     		movs	r0, #16
 1005 0154 095E     		ldrsh	r1, [r1, r0]
 1006 0156 6846     		mov	r0, sp
 1007 0158 23B2     		sxth	r3, r4
 1008 015a 0C24     		movs	r4, #12
 1009 015c 005F     		ldrsh	r0, [r0, r4]
 1010 015e FF24     		movs	r4, #255
 1011 0160 2404     		lsls	r4, r4, #16
 1012 0162 0094     		str	r4, [sp]
 1013 0164 FFF7FEFF 		bl	UG_FillFrame
ARM GAS  C:\Users\RYANCA~1\AppData\Local\Temp\ccfontiW.s 			page 28


 1014              	.LVL104:
 456:frucd_display.c ****                 }
 1015              		.loc 1 456 0
 1016 0168 2C60     		str	r4, [r5]
 1017              	.L56:
 458:frucd_display.c ****                 break;
 1018              		.loc 1 458 0
 1019 016a FF23     		movs	r3, #255
 1020 016c 1B04     		lsls	r3, r3, #16
 1021 016e 0093     		str	r3, [sp]
 1022 0170 484A     		ldr	r2, .L68+28
 1023 0172 0023     		movs	r3, #0
 1024 0174 49E0     		b	.L67
 1025              	.LVL105:
 1026              	.L49:
 462:frucd_display.c ****                     // only draw rectangle if color changed
 1027              		.loc 1 462 0
 1028 0176 FF23     		movs	r3, #255
 1029 0178 1B04     		lsls	r3, r3, #16
 1030 017a 9A42     		cmp	r2, r3
 1031 017c 0FD0     		beq	.L57
 464:frucd_display.c ****                     last_state_color = color;
 1032              		.loc 1 464 0
 1033 017e 6A46     		mov	r2, sp
 1034 0180 1421     		movs	r1, #20
 1035 0182 525E     		ldrsh	r2, [r2, r1]
 1036 0184 6946     		mov	r1, sp
 1037 0186 1020     		movs	r0, #16
 1038 0188 095E     		ldrsh	r1, [r1, r0]
 1039 018a 6846     		mov	r0, sp
 1040 018c 23B2     		sxth	r3, r4
 1041 018e 0C24     		movs	r4, #12
 1042 0190 005F     		ldrsh	r0, [r0, r4]
 1043 0192 FF24     		movs	r4, #255
 1044 0194 2404     		lsls	r4, r4, #16
 1045 0196 0094     		str	r4, [sp]
 1046 0198 FFF7FEFF 		bl	UG_FillFrame
 1047              	.LVL106:
 465:frucd_display.c ****                 }
 1048              		.loc 1 465 0
 1049 019c 2C60     		str	r4, [r5]
 1050              	.L57:
 467:frucd_display.c ****                 break;
 1051              		.loc 1 467 0
 1052 019e FF23     		movs	r3, #255
 1053 01a0 1B04     		lsls	r3, r3, #16
 1054 01a2 0093     		str	r3, [sp]
 1055 01a4 3C4A     		ldr	r2, .L68+32
 1056 01a6 0023     		movs	r3, #0
 1057 01a8 2FE0     		b	.L67
 1058              	.LVL107:
 1059              	.L50:
 471:frucd_display.c ****                     // only draw rectangle if color changed
 1060              		.loc 1 471 0
 1061 01aa 354B     		ldr	r3, .L68+8
 1062 01ac 9A42     		cmp	r2, r3
 1063 01ae 0ED0     		beq	.L58
ARM GAS  C:\Users\RYANCA~1\AppData\Local\Temp\ccfontiW.s 			page 29


 473:frucd_display.c ****                     last_state_color = color;
 1064              		.loc 1 473 0
 1065 01b0 6A46     		mov	r2, sp
 1066 01b2 1421     		movs	r1, #20
 1067 01b4 525E     		ldrsh	r2, [r2, r1]
 1068 01b6 6946     		mov	r1, sp
 1069 01b8 1020     		movs	r0, #16
 1070 01ba 095E     		ldrsh	r1, [r1, r0]
 1071 01bc 6846     		mov	r0, sp
 1072 01be 23B2     		sxth	r3, r4
 1073 01c0 0C24     		movs	r4, #12
 1074 01c2 005F     		ldrsh	r0, [r0, r4]
 1075 01c4 2E4C     		ldr	r4, .L68+8
 1076 01c6 0094     		str	r4, [sp]
 1077 01c8 FFF7FEFF 		bl	UG_FillFrame
 1078              	.LVL108:
 474:frucd_display.c ****                 }
 1079              		.loc 1 474 0
 1080 01cc 2C60     		str	r4, [r5]
 1081              	.L58:
 476:frucd_display.c ****                 break;
 1082              		.loc 1 476 0
 1083 01ce 2C4B     		ldr	r3, .L68+8
 1084 01d0 324A     		ldr	r2, .L68+36
 1085 01d2 0093     		str	r3, [sp]
 1086 01d4 0023     		movs	r3, #0
 1087 01d6 18E0     		b	.L67
 1088              	.LVL109:
 1089              	.L51:
 1090              		.loc 1 480 0
 1091 01d8 FF23     		movs	r3, #255
 1092 01da 1B04     		lsls	r3, r3, #16
 1093 01dc 9A42     		cmp	r2, r3
 1094 01de 0FD0     		beq	.L59
 481:frucd_display.c ****                     // only draw rectangle if color changed
 482:frucd_display.c ****                     UG_FillFrame(x1, y1, x2, y2, color);
 1095              		.loc 1 482 0
 1096 01e0 6A46     		mov	r2, sp
 1097 01e2 1421     		movs	r1, #20
 1098 01e4 525E     		ldrsh	r2, [r2, r1]
 1099 01e6 6946     		mov	r1, sp
 1100 01e8 1020     		movs	r0, #16
 1101 01ea 095E     		ldrsh	r1, [r1, r0]
 1102 01ec 6846     		mov	r0, sp
 1103 01ee 23B2     		sxth	r3, r4
 1104 01f0 0C24     		movs	r4, #12
 1105 01f2 005F     		ldrsh	r0, [r0, r4]
 1106 01f4 FF24     		movs	r4, #255
 1107 01f6 2404     		lsls	r4, r4, #16
 1108 01f8 0094     		str	r4, [sp]
 1109 01fa FFF7FEFF 		bl	UG_FillFrame
 1110              	.LVL110:
 483:frucd_display.c ****                     last_state_color = color;
 1111              		.loc 1 483 0
 1112 01fe 2C60     		str	r4, [r5]
 1113              	.L59:
 484:frucd_display.c ****                 }
ARM GAS  C:\Users\RYANCA~1\AppData\Local\Temp\ccfontiW.s 			page 30


 485:frucd_display.c ****                 UG_PutColorString(xFont, yFont, "SHTDWN OPN", C_BLACK, color); //whitespace to clea
 1114              		.loc 1 485 0
 1115 0200 FF23     		movs	r3, #255
 1116 0202 1B04     		lsls	r3, r3, #16
 1117 0204 0093     		str	r3, [sp]
 1118 0206 0023     		movs	r3, #0
 1119 0208 254A     		ldr	r2, .L68+40
 1120              	.LVL111:
 1121              	.L67:
 1122 020a 3900     		movs	r1, r7
 1123 020c 2BE0     		b	.L66
 1124              	.L41:
 1125              	.LVL112:
 1126              	.LBE3:
 486:frucd_display.c ****                 break;
 487:frucd_display.c ****         }
 488:frucd_display.c ****         
 489:frucd_display.c ****     } else {
 490:frucd_display.c ****         // *************** NO FAULTS ***************
 491:frucd_display.c ****         color = C_GREEN;
 492:frucd_display.c ****         if (color != last_state_color) {
 1127              		.loc 1 492 0
 1128 020e FF27     		movs	r7, #255
 1129 0210 1A4D     		ldr	r5, .L68+4
 1130 0212 3F02     		lsls	r7, r7, #8
 1131 0214 2B68     		ldr	r3, [r5]
 1132 0216 BB42     		cmp	r3, r7
 1133 0218 0DD0     		beq	.L60
 493:frucd_display.c ****             // only draw rectangle if color changed
 494:frucd_display.c ****             UG_FillFrame(x1, y1, x2, y2, color);
 1134              		.loc 1 494 0
 1135 021a 6A46     		mov	r2, sp
 1136 021c 1421     		movs	r1, #20
 1137 021e 525E     		ldrsh	r2, [r2, r1]
 1138 0220 6946     		mov	r1, sp
 1139 0222 1020     		movs	r0, #16
 1140 0224 095E     		ldrsh	r1, [r1, r0]
 1141 0226 6846     		mov	r0, sp
 1142 0228 23B2     		sxth	r3, r4
 1143 022a 0C24     		movs	r4, #12
 1144 022c 005F     		ldrsh	r0, [r0, r4]
 1145 022e 0097     		str	r7, [sp]
 1146 0230 FFF7FEFF 		bl	UG_FillFrame
 1147              	.LVL113:
 495:frucd_display.c ****             last_state_color = color;
 1148              		.loc 1 495 0
 1149 0234 2F60     		str	r7, [r5]
 1150              	.L60:
 496:frucd_display.c ****         }
 497:frucd_display.c ****         switch(state) {
 1151              		.loc 1 497 0
 1152 0236 032E     		cmp	r6, #3
 1153 0238 18D8     		bhi	.L42
 1154 023a 6B46     		mov	r3, sp
 1155 023c 1C21     		movs	r1, #28
 1156 023e 595E     		ldrsh	r1, [r3, r1]
 1157 0240 6B46     		mov	r3, sp
ARM GAS  C:\Users\RYANCA~1\AppData\Local\Temp\ccfontiW.s 			page 31


 1158 0242 3000     		movs	r0, r6
 1159 0244 1826     		movs	r6, #24
 1160 0246 9E5F     		ldrsh	r6, [r3, r6]
 1161 0248 FF23     		movs	r3, #255
 1162 024a 1B02     		lsls	r3, r3, #8
 498:frucd_display.c ****             case LV:
 499:frucd_display.c ****                 UG_PutColorString(xFont, yFont, "    LV    ", C_BLACK, color);
 500:frucd_display.c ****                 break;
 501:frucd_display.c ****             case PRECHARGING:
 502:frucd_display.c ****                 UG_PutColorString(xFont, yFont, "PRECHARGE ", C_BLACK, color);
 503:frucd_display.c ****                 break;
 504:frucd_display.c ****             case HV_ENABLED:
 505:frucd_display.c ****                 UG_PutColorString(xFont, yFont, "HV ENABLED", C_BLACK, color);
 506:frucd_display.c ****                 break;
 507:frucd_display.c ****             case DRIVE:
 508:frucd_display.c ****                 UG_PutColorString(xFont, yFont, "  DRIVE   ", C_BLACK, color);
 1163              		.loc 1 508 0
 1164 024c 0093     		str	r3, [sp]
 1165 024e 0023     		movs	r3, #0
 497:frucd_display.c ****             case LV:
 1166              		.loc 1 497 0
 1167 0250 FFF7FEFF 		bl	__gnu_thumb1_case_uqi
 1168              	.L62:
 1169 0254 02       		.byte	(.L61-.L62)/2
 1170 0255 04       		.byte	(.L63-.L62)/2
 1171 0256 06       		.byte	(.L64-.L62)/2
 1172 0257 08       		.byte	(.L65-.L62)/2
 1173              		.p2align 1
 1174              	.L61:
 499:frucd_display.c ****                 break;
 1175              		.loc 1 499 0
 1176 0258 124A     		ldr	r2, .L68+44
 1177 025a 04E0     		b	.L66
 1178              	.L63:
 502:frucd_display.c ****                 break;
 1179              		.loc 1 502 0
 1180 025c 124A     		ldr	r2, .L68+48
 1181 025e 02E0     		b	.L66
 1182              	.L64:
 505:frucd_display.c ****                 break;
 1183              		.loc 1 505 0
 1184 0260 124A     		ldr	r2, .L68+52
 1185 0262 00E0     		b	.L66
 1186              	.L65:
 1187              		.loc 1 508 0
 1188 0264 124A     		ldr	r2, .L68+56
 1189              	.LVL114:
 1190              	.L66:
 1191 0266 3000     		movs	r0, r6
 1192 0268 FFF7FEFF 		bl	UG_PutColorString
 1193              	.LVL115:
 1194              	.L42:
 509:frucd_display.c ****                 break;
 510:frucd_display.c ****         }
 511:frucd_display.c ****     }
 512:frucd_display.c ****      UG_FontSelect(&FONT_12X16);
 1195              		.loc 1 512 0
ARM GAS  C:\Users\RYANCA~1\AppData\Local\Temp\ccfontiW.s 			page 32


 1196 026c 1148     		ldr	r0, .L68+60
 1197 026e FFF7FEFF 		bl	UG_FontSelect
 1198              	.LVL116:
 513:frucd_display.c **** }
 1199              		.loc 1 513 0
 1200 0272 09B0     		add	sp, sp, #36
 1201              		@ sp needed
 1202 0274 F0BD     		pop	{r4, r5, r6, r7, pc}
 1203              	.L69:
 1204 0276 C046     		.align	2
 1205              	.L68:
 1206 0278 00000000 		.word	FONT_32X53
 1207 027c 00000000 		.word	last_state_color
 1208 0280 00FFFF00 		.word	16776960
 1209 0284 39000000 		.word	.LC28
 1210 0288 44000000 		.word	.LC30
 1211 028c 4F000000 		.word	.LC32
 1212 0290 5A000000 		.word	.LC34
 1213 0294 65000000 		.word	.LC36
 1214 0298 70000000 		.word	.LC38
 1215 029c 7B000000 		.word	.LC40
 1216 02a0 86000000 		.word	.LC42
 1217 02a4 91000000 		.word	.LC44
 1218 02a8 9C000000 		.word	.LC46
 1219 02ac A7000000 		.word	.LC48
 1220 02b0 B2000000 		.word	.LC50
 1221 02b4 00000000 		.word	FONT_12X16
 1222              		.cfi_endproc
 1223              	.LFE40:
 1224              		.size	disp_state, .-disp_state
 1225              		.global	__aeabi_uidiv
 1226              		.section	.text.disp_glv_v,"ax",%progbits
 1227              		.align	1
 1228              		.global	disp_glv_v
 1229              		.code	16
 1230              		.thumb_func
 1231              		.type	disp_glv_v, %function
 1232              	disp_glv_v:
 1233              	.LFB41:
 514:frucd_display.c **** 
 515:frucd_display.c **** /*
 516:frucd_display.c **** 
 517:frucd_display.c **** void disp_glv_v(uint32_t data) {
 518:frucd_display.c ****     // translate from voltage divider measurement to true voltage
 519:frucd_display.c ****     // y = 0.4295x + 18.254
 520:frucd_display.c ****     data *= 859;
 521:frucd_display.c ****     data /= 2000; // 0.4295
 522:frucd_display.c ****     data += 18;
 523:frucd_display.c ****     UG_COLOR color;
 524:frucd_display.c ****     if (data > 1150) {
 525:frucd_display.c ****         color = C_GREEN;
 526:frucd_display.c ****     } else if (data > 1100) {
 527:frucd_display.c ****         color = C_YELLOW;
 528:frucd_display.c ****     } else if (data > 1050) {
 529:frucd_display.c ****         color = C_ORANGE;
 530:frucd_display.c ****     } else {
 531:frucd_display.c ****         color = C_RED;
ARM GAS  C:\Users\RYANCA~1\AppData\Local\Temp\ccfontiW.s 			page 33


 532:frucd_display.c ****     }
 533:frucd_display.c ****     if (color != last_glv_v_color) {
 534:frucd_display.c ****         // only draw rectangle if color changed
 535:frucd_display.c ****         UG_FillFrame(95, 230, 182, 260, color);
 536:frucd_display.c ****         last_glv_v_color = color;
 537:frucd_display.c ****     }
 538:frucd_display.c ****     char data_s[7];
 539:frucd_display.c ****     sprintf(data_s, "%d", data);
 540:frucd_display.c ****     // handle 3 digit cases; 2 and 1 are practically impossible
 541:frucd_display.c ****     if (data < 1000) {
 542:frucd_display.c ****         data_s[3] = data_s[2];
 543:frucd_display.c ****         data_s[2] = data_s[1];
 544:frucd_display.c ****         data_s[1] = data_s[0];  
 545:frucd_display.c ****         data_s[0] = ' ';
 546:frucd_display.c ****     }
 547:frucd_display.c ****     // shift over fractional part
 548:frucd_display.c ****     data_s[4] = data_s[3];
 549:frucd_display.c ****     data_s[3] = data_s[2];
 550:frucd_display.c ****     // add syntax
 551:frucd_display.c ****     data_s[2] = '.';
 552:frucd_display.c ****     data_s[5] = 'V';
 553:frucd_display.c ****     data_s[6] = '\0';
 554:frucd_display.c ****     UG_PutColorString(100, 240, data_s, C_BLACK, color);
 555:frucd_display.c **** }
 556:frucd_display.c **** 
 557:frucd_display.c **** */
 558:frucd_display.c **** 
 559:frucd_display.c **** 
 560:frucd_display.c **** void disp_glv_v(uint32_t data, uint16_t x1, uint16_t y1, uint16_t x2, uint16_t y2, uint8_t size) { 
 1234              		.loc 1 560 0
 1235              		.cfi_startproc
 1236              		@ args = 8, pretend = 0, frame = 32
 1237              		@ frame_needed = 0, uses_anonymous_args = 0
 1238              	.LVL117:
 1239 0000 F0B5     		push	{r4, r5, r6, r7, lr}
 1240              		.cfi_def_cfa_offset 20
 1241              		.cfi_offset 4, -20
 1242              		.cfi_offset 5, -16
 1243              		.cfi_offset 6, -12
 1244              		.cfi_offset 7, -8
 1245              		.cfi_offset 14, -4
 1246 0002 8BB0     		sub	sp, sp, #44
 1247              		.cfi_def_cfa_offset 64
 1248              		.loc 1 560 0
 1249 0004 0593     		str	r3, [sp, #20]
 1250 0006 10AB     		add	r3, sp, #64
 1251              	.LVL118:
 1252 0008 1B88     		ldrh	r3, [r3]
 1253              	.LVL119:
 1254 000a 0492     		str	r2, [sp, #16]
 1255 000c 0693     		str	r3, [sp, #24]
 1256 000e 11AB     		add	r3, sp, #68
 1257              	.LVL120:
 1258 0010 1C78     		ldrb	r4, [r3]
 1259              	.LVL121:
 561:frucd_display.c ****     int xFont, yFont;
 562:frucd_display.c ****     int horizFontSize = 12 + 20*size;
ARM GAS  C:\Users\RYANCA~1\AppData\Local\Temp\ccfontiW.s 			page 34


 563:frucd_display.c ****     int stringSize;
 564:frucd_display.c ****     stringSize = 6;
 565:frucd_display.c ****     xFont = (x1 + x2)/2 - ((horizFontSize*stringSize)/2);
 1260              		.loc 1 565 0
 1261 0012 1423     		movs	r3, #20
 1262              	.LVL122:
 1263 0014 0622     		movs	r2, #6
 1264              	.LVL123:
 1265 0016 6343     		muls	r3, r4
 1266 0018 0C33     		adds	r3, r3, #12
 1267              	.LVL124:
 1268 001a 5343     		muls	r3, r2
 1269              	.LVL125:
 1270 001c 059A     		ldr	r2, [sp, #20]
 560:frucd_display.c ****     int xFont, yFont;
 1271              		.loc 1 560 0
 1272 001e 0500     		movs	r5, r0
 1273              		.loc 1 565 0
 1274 0020 8818     		adds	r0, r1, r2
 1275              	.LVL126:
 1276 0022 4010     		asrs	r0, r0, #1
 1277 0024 5B10     		asrs	r3, r3, #1
 1278 0026 C31A     		subs	r3, r0, r3
 566:frucd_display.c ****     yFont = (y1 + y2)/2 - 5 - (size*17);    
 567:frucd_display.c ****     
 568:frucd_display.c ****     UG_PutString(x1 - 85, yFont, "GLV V:");
 1279              		.loc 1 568 0
 1280 0028 069A     		ldr	r2, [sp, #24]
 565:frucd_display.c ****     yFont = (y1 + y2)/2 - 5 - (size*17);    
 1281              		.loc 1 565 0
 1282 002a 0793     		str	r3, [sp, #28]
 1283              	.LVL127:
 1284              		.loc 1 568 0
 1285 002c 049B     		ldr	r3, [sp, #16]
 1286              	.LVL128:
 1287 002e 0800     		movs	r0, r1
 1288 0030 9B18     		adds	r3, r3, r2
 1289 0032 1122     		movs	r2, #17
 1290 0034 5242     		rsbs	r2, r2, #0
 1291 0036 6243     		muls	r2, r4
 1292 0038 5B10     		asrs	r3, r3, #1
 1293 003a 053B     		subs	r3, r3, #5
 1294 003c 9B18     		adds	r3, r3, r2
 1295 003e 1BB2     		sxth	r3, r3
 1296 0040 5538     		subs	r0, r0, #85
 560:frucd_display.c ****     int xFont, yFont;
 1297              		.loc 1 560 0
 1298 0042 0E00     		movs	r6, r1
 1299              		.loc 1 568 0
 1300 0044 00B2     		sxth	r0, r0
 1301 0046 2F4A     		ldr	r2, .L78
 1302 0048 1900     		movs	r1, r3
 1303              	.LVL129:
 1304 004a 0393     		str	r3, [sp, #12]
 1305 004c FFF7FEFF 		bl	UG_PutString
 1306              	.LVL130:
 569:frucd_display.c ****     
ARM GAS  C:\Users\RYANCA~1\AppData\Local\Temp\ccfontiW.s 			page 35


 570:frucd_display.c ****     if(size == 1){
 1307              		.loc 1 570 0
 1308 0050 012C     		cmp	r4, #1
 1309 0052 02D1     		bne	.L71
 571:frucd_display.c ****         UG_FontSelect(&FONT_32X53);  
 1310              		.loc 1 571 0
 1311 0054 2C48     		ldr	r0, .L78+4
 1312 0056 FFF7FEFF 		bl	UG_FontSelect
 1313              	.LVL131:
 1314              	.L71:
 572:frucd_display.c ****     }
 573:frucd_display.c ****     // translate from voltage divider measurement to true voltage
 574:frucd_display.c ****     // y = 0.4295x + 18.254
 575:frucd_display.c ****     data *= 859;
 576:frucd_display.c ****     data /= 2000; // 0.4295
 1315              		.loc 1 576 0
 1316 005a FA21     		movs	r1, #250
 575:frucd_display.c ****     data /= 2000; // 0.4295
 1317              		.loc 1 575 0
 1318 005c 2B48     		ldr	r0, .L78+8
 1319              		.loc 1 576 0
 1320 005e C900     		lsls	r1, r1, #3
 575:frucd_display.c ****     data /= 2000; // 0.4295
 1321              		.loc 1 575 0
 1322 0060 6843     		muls	r0, r5
 1323              	.LVL132:
 1324              		.loc 1 576 0
 1325 0062 FFF7FEFF 		bl	__aeabi_uidiv
 1326              	.LVL133:
 577:frucd_display.c ****     data += 18;
 578:frucd_display.c ****     UG_COLOR color;
 579:frucd_display.c ****     if (data > 1150) {
 1327              		.loc 1 579 0
 1328 0066 2A4B     		ldr	r3, .L78+12
 577:frucd_display.c ****     data += 18;
 1329              		.loc 1 577 0
 1330 0068 1230     		adds	r0, r0, #18
 1331              	.LVL134:
 1332 006a 0500     		movs	r5, r0
 1333              	.LVL135:
 1334              		.loc 1 579 0
 1335 006c 9842     		cmp	r0, r3
 1336 006e 08D8     		bhi	.L75
 580:frucd_display.c ****         color = C_GREEN;
 581:frucd_display.c ****     } else if (data > 1100) {
 1337              		.loc 1 581 0
 1338 0070 284B     		ldr	r3, .L78+16
 1339 0072 9842     		cmp	r0, r3
 1340 0074 08D8     		bhi	.L76
 582:frucd_display.c ****         color = C_YELLOW;
 583:frucd_display.c ****     } else if (data > 1050) {
 1341              		.loc 1 583 0
 1342 0076 284B     		ldr	r3, .L78+20
 1343 0078 9842     		cmp	r0, r3
 1344 007a 07D8     		bhi	.L77
 584:frucd_display.c ****         color = C_ORANGE;
 585:frucd_display.c ****     } else {
ARM GAS  C:\Users\RYANCA~1\AppData\Local\Temp\ccfontiW.s 			page 36


 586:frucd_display.c ****         color = C_RED;
 1345              		.loc 1 586 0
 1346 007c FF24     		movs	r4, #255
 1347              	.LVL136:
 1348 007e 2404     		lsls	r4, r4, #16
 1349 0080 05E0     		b	.L72
 1350              	.LVL137:
 1351              	.L75:
 580:frucd_display.c ****     } else if (data > 1100) {
 1352              		.loc 1 580 0
 1353 0082 FF24     		movs	r4, #255
 1354              	.LVL138:
 1355 0084 2402     		lsls	r4, r4, #8
 1356 0086 02E0     		b	.L72
 1357              	.LVL139:
 1358              	.L76:
 582:frucd_display.c ****         color = C_YELLOW;
 1359              		.loc 1 582 0
 1360 0088 244C     		ldr	r4, .L78+24
 1361              	.LVL140:
 1362 008a 00E0     		b	.L72
 1363              	.LVL141:
 1364              	.L77:
 584:frucd_display.c ****         color = C_ORANGE;
 1365              		.loc 1 584 0
 1366 008c 244C     		ldr	r4, .L78+28
 1367              	.LVL142:
 1368              	.L72:
 587:frucd_display.c ****     }
 588:frucd_display.c ****     if (color != last_glv_v_color) {
 1369              		.loc 1 588 0
 1370 008e 254F     		ldr	r7, .L78+32
 1371 0090 3B68     		ldr	r3, [r7]
 1372 0092 9C42     		cmp	r4, r3
 1373 0094 0DD0     		beq	.L73
 589:frucd_display.c ****         // only draw rectangle if color changed
 590:frucd_display.c ****         UG_FillFrame(x1, y1, x2, y2, color);
 1374              		.loc 1 590 0
 1375 0096 6B46     		mov	r3, sp
 1376 0098 1822     		movs	r2, #24
 1377 009a 9B5E     		ldrsh	r3, [r3, r2]
 1378 009c 6A46     		mov	r2, sp
 1379 009e 1421     		movs	r1, #20
 1380 00a0 525E     		ldrsh	r2, [r2, r1]
 1381 00a2 6946     		mov	r1, sp
 1382 00a4 1020     		movs	r0, #16
 1383 00a6 095E     		ldrsh	r1, [r1, r0]
 1384              	.LVL143:
 1385 00a8 30B2     		sxth	r0, r6
 1386 00aa 0094     		str	r4, [sp]
 1387 00ac FFF7FEFF 		bl	UG_FillFrame
 1388              	.LVL144:
 591:frucd_display.c ****         last_glv_v_color = color;
 1389              		.loc 1 591 0
 1390 00b0 3C60     		str	r4, [r7]
 1391              	.L73:
 592:frucd_display.c ****     }
ARM GAS  C:\Users\RYANCA~1\AppData\Local\Temp\ccfontiW.s 			page 37


 593:frucd_display.c ****     char data_s[7];
 594:frucd_display.c ****     sprintf(data_s, "%d", data);
 1392              		.loc 1 594 0
 1393 00b2 08AE     		add	r6, sp, #32
 1394 00b4 2A00     		movs	r2, r5
 1395 00b6 1C49     		ldr	r1, .L78+36
 1396 00b8 3000     		movs	r0, r6
 1397 00ba FFF7FEFF 		bl	sprintf
 1398              	.LVL145:
 595:frucd_display.c ****     // handle 3 digit cases; 2 and 1 are practically impossible
 596:frucd_display.c ****     if (data < 1000) {
 1399              		.loc 1 596 0
 1400 00be 1B4B     		ldr	r3, .L78+40
 1401 00c0 9D42     		cmp	r5, r3
 1402 00c2 07D8     		bhi	.L74
 597:frucd_display.c ****         data_s[3] = data_s[2];
 1403              		.loc 1 597 0
 1404 00c4 B378     		ldrb	r3, [r6, #2]
 1405 00c6 F370     		strb	r3, [r6, #3]
 598:frucd_display.c ****         data_s[2] = data_s[1];
 1406              		.loc 1 598 0
 1407 00c8 7378     		ldrb	r3, [r6, #1]
 1408 00ca B370     		strb	r3, [r6, #2]
 599:frucd_display.c ****         data_s[1] = data_s[0];  
 1409              		.loc 1 599 0
 1410 00cc 3378     		ldrb	r3, [r6]
 1411 00ce 7370     		strb	r3, [r6, #1]
 600:frucd_display.c ****         data_s[0] = ' ';
 1412              		.loc 1 600 0
 1413 00d0 2023     		movs	r3, #32
 1414 00d2 3370     		strb	r3, [r6]
 1415              	.L74:
 601:frucd_display.c ****     }
 602:frucd_display.c ****     // shift over fractional part
 603:frucd_display.c ****     data_s[4] = data_s[3];
 1416              		.loc 1 603 0
 1417 00d4 F378     		ldrb	r3, [r6, #3]
 604:frucd_display.c ****     data_s[3] = data_s[2];
 605:frucd_display.c ****     // add syntax
 606:frucd_display.c ****     data_s[2] = '.';
 607:frucd_display.c ****     data_s[5] = 'V';
 608:frucd_display.c ****     data_s[6] = '\0';
 609:frucd_display.c ****     UG_PutColorString(xFont, yFont, data_s, C_BLACK, color);
 1418              		.loc 1 609 0
 1419 00d6 6A46     		mov	r2, sp
 603:frucd_display.c ****     data_s[3] = data_s[2];
 1420              		.loc 1 603 0
 1421 00d8 3371     		strb	r3, [r6, #4]
 604:frucd_display.c ****     data_s[3] = data_s[2];
 1422              		.loc 1 604 0
 1423 00da B378     		ldrb	r3, [r6, #2]
 1424              		.loc 1 609 0
 1425 00dc 1C20     		movs	r0, #28
 1426 00de 105E     		ldrsh	r0, [r2, r0]
 604:frucd_display.c ****     data_s[3] = data_s[2];
 1427              		.loc 1 604 0
 1428 00e0 F370     		strb	r3, [r6, #3]
ARM GAS  C:\Users\RYANCA~1\AppData\Local\Temp\ccfontiW.s 			page 38


 606:frucd_display.c ****     data_s[5] = 'V';
 1429              		.loc 1 606 0
 1430 00e2 2E23     		movs	r3, #46
 1431 00e4 B370     		strb	r3, [r6, #2]
 607:frucd_display.c ****     data_s[6] = '\0';
 1432              		.loc 1 607 0
 1433 00e6 2833     		adds	r3, r3, #40
 1434 00e8 7371     		strb	r3, [r6, #5]
 608:frucd_display.c ****     UG_PutColorString(xFont, yFont, data_s, C_BLACK, color);
 1435              		.loc 1 608 0
 1436 00ea 0023     		movs	r3, #0
 1437              		.loc 1 609 0
 1438 00ec 3200     		movs	r2, r6
 608:frucd_display.c ****     UG_PutColorString(xFont, yFont, data_s, C_BLACK, color);
 1439              		.loc 1 608 0
 1440 00ee B371     		strb	r3, [r6, #6]
 1441              		.loc 1 609 0
 1442 00f0 0399     		ldr	r1, [sp, #12]
 1443 00f2 0094     		str	r4, [sp]
 1444 00f4 FFF7FEFF 		bl	UG_PutColorString
 1445              	.LVL146:
 610:frucd_display.c ****     UG_FontSelect(&FONT_12X16);
 1446              		.loc 1 610 0
 1447 00f8 0D48     		ldr	r0, .L78+44
 1448 00fa FFF7FEFF 		bl	UG_FontSelect
 1449              	.LVL147:
 611:frucd_display.c **** }
 1450              		.loc 1 611 0
 1451 00fe 0BB0     		add	sp, sp, #44
 1452              		@ sp needed
 1453              	.LVL148:
 1454              	.LVL149:
 1455 0100 F0BD     		pop	{r4, r5, r6, r7, pc}
 1456              	.L79:
 1457 0102 C046     		.align	2
 1458              	.L78:
 1459 0104 1B000000 		.word	.LC6
 1460 0108 00000000 		.word	FONT_32X53
 1461 010c 5B030000 		.word	859
 1462 0110 7E040000 		.word	1150
 1463 0114 4C040000 		.word	1100
 1464 0118 1A040000 		.word	1050
 1465 011c 00FFFF00 		.word	16776960
 1466 0120 00A5FF00 		.word	16753920
 1467 0124 00000000 		.word	last_glv_v_color
 1468 0128 36000000 		.word	.LC19
 1469 012c E7030000 		.word	999
 1470 0130 00000000 		.word	FONT_12X16
 1471              		.cfi_endproc
 1472              	.LFE41:
 1473              		.size	disp_glv_v, .-disp_glv_v
 1474              		.section	.text.disp_gen_temp,"ax",%progbits
 1475              		.align	1
 1476              		.global	disp_gen_temp
 1477              		.code	16
 1478              		.thumb_func
 1479              		.type	disp_gen_temp, %function
ARM GAS  C:\Users\RYANCA~1\AppData\Local\Temp\ccfontiW.s 			page 39


 1480              	disp_gen_temp:
 1481              	.LFB44:
 612:frucd_display.c **** 
 613:frucd_display.c **** 
 614:frucd_display.c **** /*
 615:frucd_display.c **** void disp_mc_temp(uint16_t data) {
 616:frucd_display.c ****     if (data >= 100) {
 617:frucd_display.c ****         // handle 3 digit cases
 618:frucd_display.c ****         UG_FillFrame(410, 185, 470, 215, C_GREEN);
 619:frucd_display.c ****         char data_s[5];
 620:frucd_display.c ****         sprintf(data_s, "%d", data);
 621:frucd_display.c ****         data_s[3] = 'C';
 622:frucd_display.c ****         data_s[4] = '\0';
 623:frucd_display.c ****         UG_PutColorString(415, 195, data_s, C_BLACK, C_GREEN);
 624:frucd_display.c ****     } else {
 625:frucd_display.c ****         // handle 2 digit cases
 626:frucd_display.c ****         UG_FillFrame(410, 185, 470, 215, C_GREEN);
 627:frucd_display.c ****         char data_s[4];
 628:frucd_display.c ****         sprintf(data_s, "%d", data);
 629:frucd_display.c ****         data_s[2] = 'C';
 630:frucd_display.c ****         data_s[3] = '\0';
 631:frucd_display.c ****         UG_PutColorString(422, 195, data_s, C_BLACK, C_GREEN);
 632:frucd_display.c ****     }
 633:frucd_display.c **** }
 634:frucd_display.c **** */
 635:frucd_display.c **** 
 636:frucd_display.c **** void disp_mc_temp(uint16_t data, uint16_t x1, uint16_t y1, uint16_t x2, uint16_t y2, uint8_t size){
 637:frucd_display.c ****     disp_gen_temp(data, x1, y1, x2, y2, size);
 638:frucd_display.c **** }
 639:frucd_display.c **** /*
 640:frucd_display.c **** void disp_motor_temp(uint16_t data) {
 641:frucd_display.c ****     if (data >= 100) {
 642:frucd_display.c ****         // handle 3 digit cases
 643:frucd_display.c ****         UG_FillFrame(410, 230, 470, 260, C_GREEN);
 644:frucd_display.c ****         char data_s[5];
 645:frucd_display.c ****         sprintf(data_s, "%d", data);
 646:frucd_display.c ****         data_s[3] = 'C';
 647:frucd_display.c ****         data_s[4] = '\0';
 648:frucd_display.c ****         UG_PutColorString(415, 240, data_s, C_BLACK, C_GREEN);
 649:frucd_display.c ****     } else {
 650:frucd_display.c ****         // handle 2 digit cases
 651:frucd_display.c ****         UG_FillFrame(410, 230, 470, 260, C_GREEN);
 652:frucd_display.c ****         char data_s[4];
 653:frucd_display.c ****         sprintf(data_s, "%d", data);
 654:frucd_display.c ****         data_s[2] = 'C';
 655:frucd_display.c ****         data_s[3] = '\0';
 656:frucd_display.c ****         UG_PutColorString(422, 240, data_s, C_BLACK, C_GREEN);
 657:frucd_display.c ****     }
 658:frucd_display.c **** }
 659:frucd_display.c **** */
 660:frucd_display.c **** 
 661:frucd_display.c **** void disp_motor_temp(uint16_t data, uint16_t x1, uint16_t y1, uint16_t x2, uint16_t y2, uint8_t siz
 662:frucd_display.c ****     disp_gen_temp(data, x1, y1, x2, y2, size);
 663:frucd_display.c **** }
 664:frucd_display.c **** 
 665:frucd_display.c **** 
 666:frucd_display.c **** 
ARM GAS  C:\Users\RYANCA~1\AppData\Local\Temp\ccfontiW.s 			page 40


 667:frucd_display.c **** void disp_gen_temp(uint16_t data, uint16_t x1, uint16_t y1, uint16_t x2, uint16_t y2, uint8_t size)
 1482              		.loc 1 667 0
 1483              		.cfi_startproc
 1484              		@ args = 8, pretend = 0, frame = 24
 1485              		@ frame_needed = 0, uses_anonymous_args = 0
 1486              	.LVL150:
 1487 0000 F0B5     		push	{r4, r5, r6, r7, lr}
 1488              		.cfi_def_cfa_offset 20
 1489              		.cfi_offset 4, -20
 1490              		.cfi_offset 5, -16
 1491              		.cfi_offset 6, -12
 1492              		.cfi_offset 7, -8
 1493              		.cfi_offset 14, -4
 1494 0002 1500     		movs	r5, r2
 668:frucd_display.c ****     int xFont, yFont;
 669:frucd_display.c ****     int horizFontSize = 12 + 20*size;
 670:frucd_display.c ****     int stringSize;
 671:frucd_display.c ****     if (data >= 100) {
 672:frucd_display.c ****         stringSize = 4;
 673:frucd_display.c ****     }else{
 674:frucd_display.c ****         stringSize = 3;
 1495              		.loc 1 674 0
 1496 0004 6322     		movs	r2, #99
 1497              	.LVL151:
 667:frucd_display.c ****     int xFont, yFont;
 1498              		.loc 1 667 0
 1499 0006 89B0     		sub	sp, sp, #36
 1500              		.cfi_def_cfa_offset 56
 667:frucd_display.c ****     int xFont, yFont;
 1501              		.loc 1 667 0
 1502 0008 1E00     		movs	r6, r3
 1503 000a 0EAB     		add	r3, sp, #56
 1504              	.LVL152:
 1505 000c 1F88     		ldrh	r7, [r3]
 1506 000e 0FAB     		add	r3, sp, #60
 1507              	.LVL153:
 1508 0010 0C00     		movs	r4, r1
 1509 0012 1978     		ldrb	r1, [r3]
 1510              	.LVL154:
 669:frucd_display.c ****     int stringSize;
 1511              		.loc 1 669 0
 1512 0014 1423     		movs	r3, #20
 1513              	.LVL155:
 1514              		.loc 1 674 0
 1515 0016 8242     		cmp	r2, r0
 1516 0018 9241     		sbcs	r2, r2, r2
 669:frucd_display.c ****     int stringSize;
 1517              		.loc 1 669 0
 1518 001a 4B43     		muls	r3, r1
 1519              		.loc 1 674 0
 1520 001c 5242     		rsbs	r2, r2, #0
 1521 001e 0332     		adds	r2, r2, #3
 669:frucd_display.c ****     int stringSize;
 1522              		.loc 1 669 0
 1523 0020 0C33     		adds	r3, r3, #12
 1524              	.LVL156:
 675:frucd_display.c ****     }
ARM GAS  C:\Users\RYANCA~1\AppData\Local\Temp\ccfontiW.s 			page 41


 676:frucd_display.c ****     xFont = (x1 + x2)/2 - ((horizFontSize*stringSize)/2);
 1525              		.loc 1 676 0
 1526 0022 5343     		muls	r3, r2
 1527              	.LVL157:
 677:frucd_display.c ****     yFont = (y1 + y2)/2 - 5 - (size*17);    
 1528              		.loc 1 677 0
 1529 0024 1122     		movs	r2, #17
 1530              	.LVL158:
 667:frucd_display.c ****     int xFont, yFont;
 1531              		.loc 1 667 0
 1532 0026 0390     		str	r0, [sp, #12]
 676:frucd_display.c ****     yFont = (y1 + y2)/2 - 5 - (size*17);    
 1533              		.loc 1 676 0
 1534 0028 A019     		adds	r0, r4, r6
 1535              	.LVL159:
 1536 002a 4010     		asrs	r0, r0, #1
 1537 002c 5B10     		asrs	r3, r3, #1
 1538              		.loc 1 677 0
 1539 002e 5242     		rsbs	r2, r2, #0
 676:frucd_display.c ****     yFont = (y1 + y2)/2 - 5 - (size*17);    
 1540              		.loc 1 676 0
 1541 0030 C31A     		subs	r3, r0, r3
 1542              		.loc 1 677 0
 1543 0032 4A43     		muls	r2, r1
 676:frucd_display.c ****     yFont = (y1 + y2)/2 - 5 - (size*17);    
 1544              		.loc 1 676 0
 1545 0034 0493     		str	r3, [sp, #16]
 1546              	.LVL160:
 1547              		.loc 1 677 0
 1548 0036 EB19     		adds	r3, r5, r7
 1549              	.LVL161:
 1550 0038 5B10     		asrs	r3, r3, #1
 1551 003a 053B     		subs	r3, r3, #5
 1552 003c 9B18     		adds	r3, r3, r2
 1553 003e 0593     		str	r3, [sp, #20]
 1554              	.LVL162:
 678:frucd_display.c ****     if(size == 1){
 1555              		.loc 1 678 0
 1556 0040 0129     		cmp	r1, #1
 1557 0042 02D1     		bne	.L82
 679:frucd_display.c ****         UG_FontSelect(&FONT_32X53);
 1558              		.loc 1 679 0
 1559 0044 1B48     		ldr	r0, .L87
 1560 0046 FFF7FEFF 		bl	UG_FontSelect
 1561              	.LVL163:
 1562              	.L82:
 1563 004a 20B2     		sxth	r0, r4
 1564 004c 6C46     		mov	r4, sp
 1565 004e 29B2     		sxth	r1, r5
 1566 0050 FF25     		movs	r5, #255
 1567 0052 32B2     		sxth	r2, r6
 1568 0054 3BB2     		sxth	r3, r7
 1569 0056 1426     		movs	r6, #20
 1570 0058 A75F     		ldrsh	r7, [r4, r6]
 1571 005a 1026     		movs	r6, #16
 1572 005c A65F     		ldrsh	r6, [r4, r6]
 1573 005e 2D02     		lsls	r5, r5, #8
ARM GAS  C:\Users\RYANCA~1\AppData\Local\Temp\ccfontiW.s 			page 42


 1574 0060 3400     		movs	r4, r6
 680:frucd_display.c ****         
 681:frucd_display.c ****     }
 682:frucd_display.c ****     if (data >= 100) {
 1575              		.loc 1 682 0
 1576 0062 039E     		ldr	r6, [sp, #12]
 1577              	.LBB4:
 683:frucd_display.c ****         // handle 3 digit cases
 684:frucd_display.c ****         UG_FillFrame(x1, y1, x2, y2, C_GREEN);
 1578              		.loc 1 684 0
 1579 0064 0095     		str	r5, [sp]
 1580              	.LBE4:
 682:frucd_display.c ****         // handle 3 digit cases
 1581              		.loc 1 682 0
 1582 0066 632E     		cmp	r6, #99
 1583 0068 0CD9     		bls	.L83
 1584              	.LBB5:
 685:frucd_display.c ****         char data_s[5];
 686:frucd_display.c ****         sprintf(data_s, "%d", data);
 1585              		.loc 1 686 0
 1586 006a 06AE     		add	r6, sp, #24
 684:frucd_display.c ****         char data_s[5];
 1587              		.loc 1 684 0
 1588 006c FFF7FEFF 		bl	UG_FillFrame
 1589              	.LVL164:
 1590              		.loc 1 686 0
 1591 0070 039A     		ldr	r2, [sp, #12]
 1592 0072 1149     		ldr	r1, .L87+4
 1593 0074 3000     		movs	r0, r6
 1594 0076 FFF7FEFF 		bl	sprintf
 1595              	.LVL165:
 687:frucd_display.c ****         data_s[3] = 'C';
 1596              		.loc 1 687 0
 1597 007a 4323     		movs	r3, #67
 1598 007c F370     		strb	r3, [r6, #3]
 688:frucd_display.c ****         data_s[4] = '\0';
 1599              		.loc 1 688 0
 1600 007e 0023     		movs	r3, #0
 1601 0080 3371     		strb	r3, [r6, #4]
 1602 0082 0BE0     		b	.L86
 1603              	.L83:
 1604              	.LBE5:
 1605              	.LBB6:
 689:frucd_display.c ****         UG_PutColorString(xFont, yFont, data_s, C_BLACK, C_GREEN);
 690:frucd_display.c ****     } else {
 691:frucd_display.c ****         // handle 2 digit cases
 692:frucd_display.c ****         UG_FillFrame(x1, y1, x2, y2, C_GREEN);
 693:frucd_display.c ****         char data_s[4];
 694:frucd_display.c ****         sprintf(data_s, "%d", data);
 1606              		.loc 1 694 0
 1607 0084 06AE     		add	r6, sp, #24
 692:frucd_display.c ****         char data_s[4];
 1608              		.loc 1 692 0
 1609 0086 FFF7FEFF 		bl	UG_FillFrame
 1610              	.LVL166:
 1611              		.loc 1 694 0
 1612 008a 039A     		ldr	r2, [sp, #12]
ARM GAS  C:\Users\RYANCA~1\AppData\Local\Temp\ccfontiW.s 			page 43


 1613 008c 0A49     		ldr	r1, .L87+4
 1614 008e 3000     		movs	r0, r6
 1615 0090 FFF7FEFF 		bl	sprintf
 1616              	.LVL167:
 695:frucd_display.c ****         data_s[2] = 'C';
 1617              		.loc 1 695 0
 1618 0094 4323     		movs	r3, #67
 1619 0096 B370     		strb	r3, [r6, #2]
 696:frucd_display.c ****         data_s[3] = '\0';
 1620              		.loc 1 696 0
 1621 0098 0023     		movs	r3, #0
 1622 009a F370     		strb	r3, [r6, #3]
 1623              	.L86:
 697:frucd_display.c ****         UG_PutColorString(xFont, yFont, data_s, C_BLACK, C_GREEN);
 1624              		.loc 1 697 0
 1625 009c 3200     		movs	r2, r6
 1626 009e 3900     		movs	r1, r7
 1627 00a0 2000     		movs	r0, r4
 1628 00a2 0095     		str	r5, [sp]
 1629 00a4 FFF7FEFF 		bl	UG_PutColorString
 1630              	.LVL168:
 1631              	.LBE6:
 698:frucd_display.c ****     }
 699:frucd_display.c ****      UG_FontSelect(&FONT_12X16);
 1632              		.loc 1 699 0
 1633 00a8 0448     		ldr	r0, .L87+8
 1634 00aa FFF7FEFF 		bl	UG_FontSelect
 1635              	.LVL169:
 700:frucd_display.c **** }
 1636              		.loc 1 700 0
 1637 00ae 09B0     		add	sp, sp, #36
 1638              		@ sp needed
 1639 00b0 F0BD     		pop	{r4, r5, r6, r7, pc}
 1640              	.L88:
 1641 00b2 C046     		.align	2
 1642              	.L87:
 1643 00b4 00000000 		.word	FONT_32X53
 1644 00b8 36000000 		.word	.LC19
 1645 00bc 00000000 		.word	FONT_12X16
 1646              		.cfi_endproc
 1647              	.LFE44:
 1648              		.size	disp_gen_temp, .-disp_gen_temp
 1649              		.section	.text.disp_motor_temp,"ax",%progbits
 1650              		.align	1
 1651              		.global	disp_motor_temp
 1652              		.code	16
 1653              		.thumb_func
 1654              		.type	disp_motor_temp, %function
 1655              	disp_motor_temp:
 1656              	.LFB43:
 661:frucd_display.c ****     disp_gen_temp(data, x1, y1, x2, y2, size);
 1657              		.loc 1 661 0
 1658              		.cfi_startproc
 1659              		@ args = 8, pretend = 0, frame = 0
 1660              		@ frame_needed = 0, uses_anonymous_args = 0
 1661              	.LVL170:
 1662 0000 37B5     		push	{r0, r1, r2, r4, r5, lr}
ARM GAS  C:\Users\RYANCA~1\AppData\Local\Temp\ccfontiW.s 			page 44


 1663              		.cfi_def_cfa_offset 24
 1664              		.cfi_offset 0, -24
 1665              		.cfi_offset 1, -20
 1666              		.cfi_offset 2, -16
 1667              		.cfi_offset 4, -12
 1668              		.cfi_offset 5, -8
 1669              		.cfi_offset 14, -4
 661:frucd_display.c ****     disp_gen_temp(data, x1, y1, x2, y2, size);
 1670              		.loc 1 661 0
 1671 0002 06AC     		add	r4, sp, #24
 1672              	.LVL171:
 1673 0004 07AD     		add	r5, sp, #28
 1674              	.LVL172:
 1675 0006 2D78     		ldrb	r5, [r5]
 1676              	.LVL173:
 1677 0008 2488     		ldrh	r4, [r4]
 1678              	.LVL174:
 662:frucd_display.c **** }
 1679              		.loc 1 662 0
 1680 000a 0195     		str	r5, [sp, #4]
 1681 000c 0094     		str	r4, [sp]
 1682 000e FFF7FEFF 		bl	disp_gen_temp
 1683              	.LVL175:
 663:frucd_display.c **** 
 1684              		.loc 1 663 0
 1685              		@ sp needed
 1686 0012 37BD     		pop	{r0, r1, r2, r4, r5, pc}
 1687              		.cfi_endproc
 1688              	.LFE43:
 1689              		.size	disp_motor_temp, .-disp_motor_temp
 1690              		.section	.text.disp_mc_temp,"ax",%progbits
 1691              		.align	1
 1692              		.global	disp_mc_temp
 1693              		.code	16
 1694              		.thumb_func
 1695              		.type	disp_mc_temp, %function
 1696              	disp_mc_temp:
 1697              	.LFB47:
 1698              		.cfi_startproc
 1699              		@ args = 8, pretend = 0, frame = 0
 1700              		@ frame_needed = 0, uses_anonymous_args = 0
 1701 0000 37B5     		push	{r0, r1, r2, r4, r5, lr}
 1702              		.cfi_def_cfa_offset 24
 1703              		.cfi_offset 0, -24
 1704              		.cfi_offset 1, -20
 1705              		.cfi_offset 2, -16
 1706              		.cfi_offset 4, -12
 1707              		.cfi_offset 5, -8
 1708              		.cfi_offset 14, -4
 1709 0002 06AC     		add	r4, sp, #24
 1710 0004 07AD     		add	r5, sp, #28
 1711 0006 2D78     		ldrb	r5, [r5]
 1712 0008 2488     		ldrh	r4, [r4]
 1713 000a 0195     		str	r5, [sp, #4]
 1714 000c 0094     		str	r4, [sp]
 1715 000e FFF7FEFF 		bl	disp_gen_temp
 1716              		@ sp needed
ARM GAS  C:\Users\RYANCA~1\AppData\Local\Temp\ccfontiW.s 			page 45


 1717 0012 37BD     		pop	{r0, r1, r2, r4, r5, pc}
 1718              		.cfi_endproc
 1719              	.LFE47:
 1720              		.size	disp_mc_temp, .-disp_mc_temp
 1721              		.section	.text.disp_gen_voltage,"ax",%progbits
 1722              		.align	1
 1723              		.global	disp_gen_voltage
 1724              		.code	16
 1725              		.thumb_func
 1726              		.type	disp_gen_voltage, %function
 1727              	disp_gen_voltage:
 1728              	.LFB45:
 701:frucd_display.c **** 
 702:frucd_display.c **** void disp_gen_voltage(uint16_t data, uint16_t x1, uint16_t y1, uint16_t x2, uint16_t y2, uint8_t si
 1729              		.loc 1 702 0
 1730              		.cfi_startproc
 1731              		@ args = 8, pretend = 0, frame = 24
 1732              		@ frame_needed = 0, uses_anonymous_args = 0
 1733              	.LVL176:
 1734              		.loc 1 702 0
 1735 0000 F0B5     		push	{r4, r5, r6, r7, lr}
 1736              		.cfi_def_cfa_offset 20
 1737              		.cfi_offset 4, -20
 1738              		.cfi_offset 5, -16
 1739              		.cfi_offset 6, -12
 1740              		.cfi_offset 7, -8
 1741              		.cfi_offset 14, -4
 1742 0002 89B0     		sub	sp, sp, #36
 1743              		.cfi_def_cfa_offset 56
 1744              		.loc 1 702 0
 1745 0004 1D00     		movs	r5, r3
 1746 0006 0EAB     		add	r3, sp, #56
 1747              	.LVL177:
 1748 0008 1E88     		ldrh	r6, [r3]
 1749 000a 0FAB     		add	r3, sp, #60
 1750              	.LVL178:
 1751 000c 1400     		movs	r4, r2
 1752 000e 1A78     		ldrb	r2, [r3]
 1753              	.LVL179:
 703:frucd_display.c ****     int xFont, yFont;
 704:frucd_display.c ****     int horizFontSize = 12 + 20*size;
 705:frucd_display.c ****     int stringSize;
 706:frucd_display.c ****     stringSize = 6;
 707:frucd_display.c ****    
 708:frucd_display.c ****     xFont = (x1 + x2)/2 - ((horizFontSize*stringSize)/2);
 1754              		.loc 1 708 0
 1755 0010 1423     		movs	r3, #20
 1756              	.LVL180:
 702:frucd_display.c ****     int xFont, yFont;
 1757              		.loc 1 702 0
 1758 0012 0391     		str	r1, [sp, #12]
 1759              		.loc 1 708 0
 1760 0014 0621     		movs	r1, #6
 1761              	.LVL181:
 1762 0016 5343     		muls	r3, r2
 1763 0018 0C33     		adds	r3, r3, #12
 1764              	.LVL182:
ARM GAS  C:\Users\RYANCA~1\AppData\Local\Temp\ccfontiW.s 			page 46


 1765 001a 4B43     		muls	r3, r1
 1766              	.LVL183:
 1767 001c 0399     		ldr	r1, [sp, #12]
 702:frucd_display.c ****     int xFont, yFont;
 1768              		.loc 1 702 0
 1769 001e 0700     		movs	r7, r0
 1770              		.loc 1 708 0
 1771 0020 4819     		adds	r0, r1, r5
 1772              	.LVL184:
 709:frucd_display.c ****     yFont = (y1 + y2)/2 - 5 - (size*17);    
 1773              		.loc 1 709 0
 1774 0022 1121     		movs	r1, #17
 708:frucd_display.c ****     yFont = (y1 + y2)/2 - 5 - (size*17);    
 1775              		.loc 1 708 0
 1776 0024 5B10     		asrs	r3, r3, #1
 1777 0026 4010     		asrs	r0, r0, #1
 1778              		.loc 1 709 0
 1779 0028 4942     		rsbs	r1, r1, #0
 708:frucd_display.c ****     yFont = (y1 + y2)/2 - 5 - (size*17);    
 1780              		.loc 1 708 0
 1781 002a C31A     		subs	r3, r0, r3
 1782              		.loc 1 709 0
 1783 002c 5143     		muls	r1, r2
 708:frucd_display.c ****     yFont = (y1 + y2)/2 - 5 - (size*17);    
 1784              		.loc 1 708 0
 1785 002e 0493     		str	r3, [sp, #16]
 1786              	.LVL185:
 1787              		.loc 1 709 0
 1788 0030 A319     		adds	r3, r4, r6
 1789              	.LVL186:
 1790 0032 5B10     		asrs	r3, r3, #1
 1791 0034 053B     		subs	r3, r3, #5
 1792 0036 5B18     		adds	r3, r3, r1
 1793 0038 0593     		str	r3, [sp, #20]
 1794              	.LVL187:
 710:frucd_display.c ****     if(size == 1){
 1795              		.loc 1 710 0
 1796 003a 012A     		cmp	r2, #1
 1797 003c 02D1     		bne	.L92
 711:frucd_display.c ****         UG_FontSelect(&FONT_32X53);
 1798              		.loc 1 711 0
 1799 003e 1D48     		ldr	r0, .L94
 1800 0040 FFF7FEFF 		bl	UG_FontSelect
 1801              	.LVL188:
 1802              	.L92:
 712:frucd_display.c ****         
 713:frucd_display.c ****     }
 714:frucd_display.c ****     UG_FillFrame(x1, y1, x2, y2, C_GREEN);
 1803              		.loc 1 714 0
 1804 0044 6846     		mov	r0, sp
 1805 0046 21B2     		sxth	r1, r4
 1806 0048 0C24     		movs	r4, #12
 1807 004a 005F     		ldrsh	r0, [r0, r4]
 1808 004c FF24     		movs	r4, #255
 1809 004e 2402     		lsls	r4, r4, #8
 1810 0050 33B2     		sxth	r3, r6
 1811 0052 2AB2     		sxth	r2, r5
ARM GAS  C:\Users\RYANCA~1\AppData\Local\Temp\ccfontiW.s 			page 47


 1812 0054 0094     		str	r4, [sp]
 715:frucd_display.c ****     char data_s[7];
 716:frucd_display.c ****     sprintf(data_s, "%d", data);
 1813              		.loc 1 716 0
 1814 0056 06AC     		add	r4, sp, #24
 714:frucd_display.c ****     char data_s[7];
 1815              		.loc 1 714 0
 1816 0058 FFF7FEFF 		bl	UG_FillFrame
 1817              	.LVL189:
 1818              		.loc 1 716 0
 1819 005c 3A00     		movs	r2, r7
 1820 005e 1649     		ldr	r1, .L94+4
 1821 0060 2000     		movs	r0, r4
 1822 0062 FFF7FEFF 		bl	sprintf
 1823              	.LVL190:
 717:frucd_display.c ****     // handle 3 digit cases; 2 and 1 are practically impossible
 718:frucd_display.c ****     if (data < 1000) {
 1824              		.loc 1 718 0
 1825 0066 154B     		ldr	r3, .L94+8
 1826 0068 9F42     		cmp	r7, r3
 1827 006a 07D8     		bhi	.L93
 719:frucd_display.c ****         data_s[3] = data_s[2];
 1828              		.loc 1 719 0
 1829 006c A378     		ldrb	r3, [r4, #2]
 1830 006e E370     		strb	r3, [r4, #3]
 720:frucd_display.c ****         data_s[2] = data_s[1];
 1831              		.loc 1 720 0
 1832 0070 6378     		ldrb	r3, [r4, #1]
 1833 0072 A370     		strb	r3, [r4, #2]
 721:frucd_display.c ****         data_s[1] = data_s[0];  
 1834              		.loc 1 721 0
 1835 0074 2378     		ldrb	r3, [r4]
 1836 0076 6370     		strb	r3, [r4, #1]
 722:frucd_display.c ****         data_s[0] = ' ';
 1837              		.loc 1 722 0
 1838 0078 2023     		movs	r3, #32
 1839 007a 2370     		strb	r3, [r4]
 1840              	.L93:
 723:frucd_display.c ****     }
 724:frucd_display.c ****     // shift over fractional part
 725:frucd_display.c ****     data_s[4] = data_s[3];
 726:frucd_display.c ****     data_s[3] = data_s[2];
 727:frucd_display.c ****     // add syntax
 728:frucd_display.c ****     data_s[2] = '.';
 729:frucd_display.c ****     data_s[5] = 'V';
 730:frucd_display.c ****     data_s[6] = '\0';
 731:frucd_display.c ****     UG_PutColorString(xFont, yFont, data_s, C_BLACK, C_GREEN);
 1841              		.loc 1 731 0
 1842 007c 6A46     		mov	r2, sp
 725:frucd_display.c ****     data_s[3] = data_s[2];
 1843              		.loc 1 725 0
 1844 007e E378     		ldrb	r3, [r4, #3]
 1845              		.loc 1 731 0
 1846 0080 1421     		movs	r1, #20
 1847 0082 515E     		ldrsh	r1, [r2, r1]
 725:frucd_display.c ****     data_s[3] = data_s[2];
 1848              		.loc 1 725 0
ARM GAS  C:\Users\RYANCA~1\AppData\Local\Temp\ccfontiW.s 			page 48


 1849 0084 2371     		strb	r3, [r4, #4]
 726:frucd_display.c ****     // add syntax
 1850              		.loc 1 726 0
 1851 0086 A378     		ldrb	r3, [r4, #2]
 1852              		.loc 1 731 0
 1853 0088 6A46     		mov	r2, sp
 726:frucd_display.c ****     // add syntax
 1854              		.loc 1 726 0
 1855 008a E370     		strb	r3, [r4, #3]
 728:frucd_display.c ****     data_s[5] = 'V';
 1856              		.loc 1 728 0
 1857 008c 2E23     		movs	r3, #46
 1858              		.loc 1 731 0
 1859 008e 1020     		movs	r0, #16
 1860 0090 105E     		ldrsh	r0, [r2, r0]
 728:frucd_display.c ****     data_s[5] = 'V';
 1861              		.loc 1 728 0
 1862 0092 A370     		strb	r3, [r4, #2]
 1863              		.loc 1 731 0
 1864 0094 FF22     		movs	r2, #255
 729:frucd_display.c ****     data_s[6] = '\0';
 1865              		.loc 1 729 0
 1866 0096 2833     		adds	r3, r3, #40
 1867 0098 6371     		strb	r3, [r4, #5]
 730:frucd_display.c ****     UG_PutColorString(xFont, yFont, data_s, C_BLACK, C_GREEN);
 1868              		.loc 1 730 0
 1869 009a 0023     		movs	r3, #0
 1870              		.loc 1 731 0
 1871 009c 1202     		lsls	r2, r2, #8
 730:frucd_display.c ****     UG_PutColorString(xFont, yFont, data_s, C_BLACK, C_GREEN);
 1872              		.loc 1 730 0
 1873 009e A371     		strb	r3, [r4, #6]
 1874              		.loc 1 731 0
 1875 00a0 0092     		str	r2, [sp]
 1876 00a2 2200     		movs	r2, r4
 1877 00a4 FFF7FEFF 		bl	UG_PutColorString
 1878              	.LVL191:
 732:frucd_display.c ****     
 733:frucd_display.c ****     UG_FontSelect(&FONT_12X16);
 1879              		.loc 1 733 0
 1880 00a8 0548     		ldr	r0, .L94+12
 1881 00aa FFF7FEFF 		bl	UG_FontSelect
 1882              	.LVL192:
 734:frucd_display.c **** }
 1883              		.loc 1 734 0
 1884 00ae 09B0     		add	sp, sp, #36
 1885              		@ sp needed
 1886 00b0 F0BD     		pop	{r4, r5, r6, r7, pc}
 1887              	.L95:
 1888 00b2 C046     		.align	2
 1889              	.L94:
 1890 00b4 00000000 		.word	FONT_32X53
 1891 00b8 36000000 		.word	.LC19
 1892 00bc E7030000 		.word	999
 1893 00c0 00000000 		.word	FONT_12X16
 1894              		.cfi_endproc
 1895              	.LFE45:
ARM GAS  C:\Users\RYANCA~1\AppData\Local\Temp\ccfontiW.s 			page 49


 1896              		.size	disp_gen_voltage, .-disp_gen_voltage
 1897              		.comm	last_motor_temp_color,4,4
 1898              		.comm	last_mc_temp_color,4,4
 1899              		.comm	last_glv_v_color,4,4
 1900              		.comm	last_state_color,4,4
 1901              		.comm	last_max_pack_temp_color,4,4
 1902              		.comm	last_SOC_color,4,4
 1903              		.comm	gui1963,120,4
 1904              		.section	.rodata.str1.1,"aMS",%progbits,1
 1905              	.LC0:
 1906 0000 5041434B 		.ascii	"PACK SOC\000"
 1906      20534F43 
 1906      00
 1907              	.LC2:
 1908 0009 4D415820 		.ascii	"MAX PACK T\000"
 1908      5041434B 
 1908      205400
 1909              	.LC4:
 1910 0014 53544154 		.ascii	"STATE:\000"
 1910      453A00
 1911              	.LC6:
 1912 001b 474C5620 		.ascii	"GLV V:\000"
 1912      563A00
 1913              	.LC8:
 1914 0022 4D432054 		.ascii	"MC T:\000"
 1914      3A00
 1915              	.LC10:
 1916 0028 4D4F544F 		.ascii	"MOTOR T:\000"
 1916      5220543A 
 1916      00
 1917              	.LC17:
 1918 0031 31303025 		.ascii	"100%\000"
 1918      00
 1919              	.LC19:
 1920 0036 256400   		.ascii	"%d\000"
 1921              	.LC28:
 1922 0039 20535441 		.ascii	" STARTUP  \000"
 1922      52545550 
 1922      202000
 1923              	.LC30:
 1924 0044 44525620 		.ascii	"DRV FRM LV\000"
 1924      46524D20 
 1924      4C5600
 1925              	.LC32:
 1926 004f 50524520 		.ascii	"PRE TM OUT\000"
 1926      544D204F 
 1926      555400
 1927              	.LC34:
 1928 005a 4252204E 		.ascii	"BR NOT PRS\000"
 1928      4F542050 
 1928      525300
 1929              	.LC36:
 1930 0065 4856204F 		.ascii	"HV OFF DRV\000"
 1930      46462044 
 1930      525600
 1931              	.LC38:
 1932 0070 534E5352 		.ascii	"SNSR DSCRP\000"
ARM GAS  C:\Users\RYANCA~1\AppData\Local\Temp\ccfontiW.s 			page 50


 1932      20445343 
 1932      525000
 1933              	.LC40:
 1934 007b 42535044 		.ascii	"BSPD TRIPD\000"
 1934      20545249 
 1934      504400
 1935              	.LC42:
 1936 0086 53485444 		.ascii	"SHTDWN OPN\000"
 1936      574E204F 
 1936      504E00
 1937              	.LC44:
 1938 0091 20202020 		.ascii	"    LV    \000"
 1938      4C562020 
 1938      202000
 1939              	.LC46:
 1940 009c 50524543 		.ascii	"PRECHARGE \000"
 1940      48415247 
 1940      452000
 1941              	.LC48:
 1942 00a7 48562045 		.ascii	"HV ENABLED\000"
 1942      4E41424C 
 1942      454400
 1943              	.LC50:
 1944 00b2 20204452 		.ascii	"  DRIVE   \000"
 1944      49564520 
 1944      202000
 1945              		.text
 1946              	.Letext0:
 1947              		.file 2 "c:\\program files (x86)\\cypress\\psoc creator\\4.4\\psoc creator\\import\\gnu\\arm\\5.4.
 1948              		.file 3 "c:\\program files (x86)\\cypress\\psoc creator\\4.4\\psoc creator\\import\\gnu\\arm\\5.4.
 1949              		.file 4 "Generated_Source\\PSoC4/cytypes.h"
 1950              		.file 5 "data.h"
 1951              		.file 6 "ugui_config.h"
 1952              		.file 7 "ugui.h"
 1953              		.file 8 "ugui_SSD1963.h"
 1954              		.file 9 "frucd_display.h"
 1955              		.file 10 "Generated_Source\\PSoC4/CyLib.h"
 1956              		.file 11 "c:\\program files (x86)\\cypress\\psoc creator\\4.4\\psoc creator\\import\\gnu\\arm\\5.4