ARM GAS  C:\Users\RYANCA~1\AppData\Local\Temp\cclSRVwE.s 			page 1


   1              		.syntax unified
   2              		.cpu cortex-m0
   3              		.fpu softvfp
   4              		.eabi_attribute 20, 1
   5              		.eabi_attribute 21, 1
   6              		.eabi_attribute 23, 3
   7              		.eabi_attribute 24, 1
   8              		.eabi_attribute 25, 1
   9              		.eabi_attribute 26, 1
  10              		.eabi_attribute 30, 4
  11              		.eabi_attribute 34, 0
  12              		.eabi_attribute 18, 4
  13              		.thumb
  14              		.syntax unified
  15              		.file	"GraphicLCDIntf.c"
  16              		.text
  17              	.Ltext0:
  18              		.cfi_sections	.debug_frame
  19              		.section	.text.GraphicLCDIntf_Enable,"ax",%progbits
  20              		.align	1
  21              		.global	GraphicLCDIntf_Enable
  22              		.code	16
  23              		.thumb_func
  24              		.type	GraphicLCDIntf_Enable, %function
  25              	GraphicLCDIntf_Enable:
  26              	.LFB15:
  27              		.cfi_startproc
  28              		@ args = 0, pretend = 0, frame = 0
  29              		@ frame_needed = 0, uses_anonymous_args = 0
  30              		@ link register save eliminated.
  31              		@ sp needed
  32 0000 7047     		bx	lr
  33              		.cfi_endproc
  34              	.LFE15:
  35              		.size	GraphicLCDIntf_Enable, .-GraphicLCDIntf_Enable
  36              		.section	.text.GraphicLCDIntf_Init,"ax",%progbits
  37              		.align	1
  38              		.global	GraphicLCDIntf_Init
  39              		.code	16
  40              		.thumb_func
  41              		.type	GraphicLCDIntf_Init, %function
  42              	GraphicLCDIntf_Init:
  43              	.LFB1:
  44              		.file 1 "Generated_Source\\PSoC4\\GraphicLCDIntf.c"
   1:Generated_Source\PSoC4/GraphicLCDIntf.c **** /*******************************************************************************
   2:Generated_Source\PSoC4/GraphicLCDIntf.c **** * File Name: GraphicLCDIntf.c  
   3:Generated_Source\PSoC4/GraphicLCDIntf.c **** * Version 1.80
   4:Generated_Source\PSoC4/GraphicLCDIntf.c **** *
   5:Generated_Source\PSoC4/GraphicLCDIntf.c **** * Description:
   6:Generated_Source\PSoC4/GraphicLCDIntf.c **** *  This file contains the setup, control and status commands for the 
   7:Generated_Source\PSoC4/GraphicLCDIntf.c **** *  GraphicLCDIntf component.   
   8:Generated_Source\PSoC4/GraphicLCDIntf.c **** *
   9:Generated_Source\PSoC4/GraphicLCDIntf.c **** *******************************************************************************
  10:Generated_Source\PSoC4/GraphicLCDIntf.c **** * Copyright 2008-2018, Cypress Semiconductor Corporation.  All rights reserved.
  11:Generated_Source\PSoC4/GraphicLCDIntf.c **** * You may use this file only in accordance with the license, terms, conditions, 
  12:Generated_Source\PSoC4/GraphicLCDIntf.c **** * disclaimers, and limitations in the end user license agreement accompanying 
  13:Generated_Source\PSoC4/GraphicLCDIntf.c **** * the software package with which this file was provided.
ARM GAS  C:\Users\RYANCA~1\AppData\Local\Temp\cclSRVwE.s 			page 2


  14:Generated_Source\PSoC4/GraphicLCDIntf.c **** ********************************************************************************/
  15:Generated_Source\PSoC4/GraphicLCDIntf.c **** 
  16:Generated_Source\PSoC4/GraphicLCDIntf.c **** #include "GraphicLCDIntf.h"  
  17:Generated_Source\PSoC4/GraphicLCDIntf.c **** 
  18:Generated_Source\PSoC4/GraphicLCDIntf.c **** uint8 GraphicLCDIntf_initVar = 0u;
  19:Generated_Source\PSoC4/GraphicLCDIntf.c **** 
  20:Generated_Source\PSoC4/GraphicLCDIntf.c **** 
  21:Generated_Source\PSoC4/GraphicLCDIntf.c **** /*******************************************************************************
  22:Generated_Source\PSoC4/GraphicLCDIntf.c **** * Function Name: GraphicLCDIntf_Enable
  23:Generated_Source\PSoC4/GraphicLCDIntf.c **** ********************************************************************************
  24:Generated_Source\PSoC4/GraphicLCDIntf.c **** *
  25:Generated_Source\PSoC4/GraphicLCDIntf.c **** * Summary:
  26:Generated_Source\PSoC4/GraphicLCDIntf.c **** *  There is no need to reset or enable this component.  This component is 
  27:Generated_Source\PSoC4/GraphicLCDIntf.c **** *  naturally a slave that waits for the API calls to perform any 
  28:Generated_Source\PSoC4/GraphicLCDIntf.c **** *  function and after a request is made that request will always complete in 
  29:Generated_Source\PSoC4/GraphicLCDIntf.c **** *  finite time as long as a clock is provided. The only thing provided
  30:Generated_Source\PSoC4/GraphicLCDIntf.c **** *  by this API is setting the Command FIFO to drive at least the half-empty status
  31:Generated_Source\PSoC4/GraphicLCDIntf.c **** *  from the FIFO.
  32:Generated_Source\PSoC4/GraphicLCDIntf.c **** *
  33:Generated_Source\PSoC4/GraphicLCDIntf.c **** *******************************************************************************/
  34:Generated_Source\PSoC4/GraphicLCDIntf.c **** void GraphicLCDIntf_Enable(void) 
  35:Generated_Source\PSoC4/GraphicLCDIntf.c **** {   
  36:Generated_Source\PSoC4/GraphicLCDIntf.c ****     /* Nothing to enable */
  37:Generated_Source\PSoC4/GraphicLCDIntf.c **** }
  38:Generated_Source\PSoC4/GraphicLCDIntf.c **** 
  39:Generated_Source\PSoC4/GraphicLCDIntf.c **** 
  40:Generated_Source\PSoC4/GraphicLCDIntf.c **** /*******************************************************************************
  41:Generated_Source\PSoC4/GraphicLCDIntf.c **** * Function Name: GraphicLCDIntf_Init
  42:Generated_Source\PSoC4/GraphicLCDIntf.c **** ********************************************************************************
  43:Generated_Source\PSoC4/GraphicLCDIntf.c **** *
  44:Generated_Source\PSoC4/GraphicLCDIntf.c **** * Summary:
  45:Generated_Source\PSoC4/GraphicLCDIntf.c **** *  Inits/Restores default GraphicLCDIntf configuration provided with the customizer.
  46:Generated_Source\PSoC4/GraphicLCDIntf.c **** * 
  47:Generated_Source\PSoC4/GraphicLCDIntf.c **** *******************************************************************************/
  48:Generated_Source\PSoC4/GraphicLCDIntf.c **** void GraphicLCDIntf_Init(void) 
  49:Generated_Source\PSoC4/GraphicLCDIntf.c **** {
  45              		.loc 1 49 0
  46              		.cfi_startproc
  47              		@ args = 0, pretend = 0, frame = 0
  48              		@ frame_needed = 0, uses_anonymous_args = 0
  49              		@ link register save eliminated.
  50:Generated_Source\PSoC4/GraphicLCDIntf.c ****     /* Set low and high pulse widths for a read transaction */
  51:Generated_Source\PSoC4/GraphicLCDIntf.c ****     GraphicLCDIntf_READ_LO_PULSE_REG = GraphicLCDIntf_READ_LOW_PULSE;
  50              		.loc 1 51 0
  51 0000 0822     		movs	r2, #8
  52 0002 034B     		ldr	r3, .L3
  52:Generated_Source\PSoC4/GraphicLCDIntf.c ****     GraphicLCDIntf_READ_HI_PULSE_REG = GraphicLCDIntf_READ_HIGH_PULSE;
  53:Generated_Source\PSoC4/GraphicLCDIntf.c **** }
  53              		.loc 1 53 0
  54              		@ sp needed
  51:Generated_Source\PSoC4/GraphicLCDIntf.c ****     GraphicLCDIntf_READ_HI_PULSE_REG = GraphicLCDIntf_READ_HIGH_PULSE;
  55              		.loc 1 51 0
  56 0004 1A70     		strb	r2, [r3]
  52:Generated_Source\PSoC4/GraphicLCDIntf.c ****     GraphicLCDIntf_READ_HI_PULSE_REG = GraphicLCDIntf_READ_HIGH_PULSE;
  57              		.loc 1 52 0
  58 0006 034B     		ldr	r3, .L3+4
  59 0008 0132     		adds	r2, r2, #1
ARM GAS  C:\Users\RYANCA~1\AppData\Local\Temp\cclSRVwE.s 			page 3


  60 000a 1A70     		strb	r2, [r3]
  61              		.loc 1 53 0
  62 000c 7047     		bx	lr
  63              	.L4:
  64 000e C046     		.align	2
  65              	.L3:
  66 0010 23000F40 		.word	1074724899
  67 0014 33000F40 		.word	1074724915
  68              		.cfi_endproc
  69              	.LFE1:
  70              		.size	GraphicLCDIntf_Init, .-GraphicLCDIntf_Init
  71              		.section	.text.GraphicLCDIntf_Start,"ax",%progbits
  72              		.align	1
  73              		.global	GraphicLCDIntf_Start
  74              		.code	16
  75              		.thumb_func
  76              		.type	GraphicLCDIntf_Start, %function
  77              	GraphicLCDIntf_Start:
  78              	.LFB2:
  54:Generated_Source\PSoC4/GraphicLCDIntf.c **** 
  55:Generated_Source\PSoC4/GraphicLCDIntf.c **** 
  56:Generated_Source\PSoC4/GraphicLCDIntf.c **** /*******************************************************************************
  57:Generated_Source\PSoC4/GraphicLCDIntf.c **** * Function Name: GraphicLCDIntf_Start
  58:Generated_Source\PSoC4/GraphicLCDIntf.c **** ********************************************************************************
  59:Generated_Source\PSoC4/GraphicLCDIntf.c **** *
  60:Generated_Source\PSoC4/GraphicLCDIntf.c **** * Summary:
  61:Generated_Source\PSoC4/GraphicLCDIntf.c **** *  Starts the GraphicLCDIntf interface.
  62:Generated_Source\PSoC4/GraphicLCDIntf.c **** *
  63:Generated_Source\PSoC4/GraphicLCDIntf.c **** * Global Variables:
  64:Generated_Source\PSoC4/GraphicLCDIntf.c **** *  GraphicLCDIntf_initVar - Used to check the initial configuration, modified on 
  65:Generated_Source\PSoC4/GraphicLCDIntf.c **** *  the first function call.
  66:Generated_Source\PSoC4/GraphicLCDIntf.c **** *
  67:Generated_Source\PSoC4/GraphicLCDIntf.c **** *******************************************************************************/
  68:Generated_Source\PSoC4/GraphicLCDIntf.c **** void GraphicLCDIntf_Start(void) 
  69:Generated_Source\PSoC4/GraphicLCDIntf.c **** {
  79              		.loc 1 69 0
  80              		.cfi_startproc
  81              		@ args = 0, pretend = 0, frame = 0
  82              		@ frame_needed = 0, uses_anonymous_args = 0
  83 0000 10B5     		push	{r4, lr}
  84              		.cfi_def_cfa_offset 8
  85              		.cfi_offset 4, -8
  86              		.cfi_offset 14, -4
  70:Generated_Source\PSoC4/GraphicLCDIntf.c ****     if (GraphicLCDIntf_initVar == 0u)
  87              		.loc 1 70 0
  88 0002 044C     		ldr	r4, .L8
  89 0004 2378     		ldrb	r3, [r4]
  90 0006 002B     		cmp	r3, #0
  91 0008 03D1     		bne	.L5
  71:Generated_Source\PSoC4/GraphicLCDIntf.c ****     {
  72:Generated_Source\PSoC4/GraphicLCDIntf.c ****         GraphicLCDIntf_Init();
  92              		.loc 1 72 0
  93 000a FFF7FEFF 		bl	GraphicLCDIntf_Init
  94              	.LVL0:
  73:Generated_Source\PSoC4/GraphicLCDIntf.c ****         GraphicLCDIntf_initVar = 1u;
  95              		.loc 1 73 0
  96 000e 0123     		movs	r3, #1
ARM GAS  C:\Users\RYANCA~1\AppData\Local\Temp\cclSRVwE.s 			page 4


  97 0010 2370     		strb	r3, [r4]
  98              	.L5:
  74:Generated_Source\PSoC4/GraphicLCDIntf.c ****     }
  75:Generated_Source\PSoC4/GraphicLCDIntf.c ****       
  76:Generated_Source\PSoC4/GraphicLCDIntf.c ****     GraphicLCDIntf_Enable();
  77:Generated_Source\PSoC4/GraphicLCDIntf.c **** }
  99              		.loc 1 77 0
 100              		@ sp needed
 101 0012 10BD     		pop	{r4, pc}
 102              	.L9:
 103              		.align	2
 104              	.L8:
 105 0014 00000000 		.word	.LANCHOR0
 106              		.cfi_endproc
 107              	.LFE2:
 108              		.size	GraphicLCDIntf_Start, .-GraphicLCDIntf_Start
 109              		.section	.text.GraphicLCDIntf_Stop,"ax",%progbits
 110              		.align	1
 111              		.global	GraphicLCDIntf_Stop
 112              		.code	16
 113              		.thumb_func
 114              		.type	GraphicLCDIntf_Stop, %function
 115              	GraphicLCDIntf_Stop:
 116              	.LFB3:
  78:Generated_Source\PSoC4/GraphicLCDIntf.c **** 
  79:Generated_Source\PSoC4/GraphicLCDIntf.c **** 
  80:Generated_Source\PSoC4/GraphicLCDIntf.c **** /*******************************************************************************
  81:Generated_Source\PSoC4/GraphicLCDIntf.c **** * Function Name: GraphicLCDIntf_Stop
  82:Generated_Source\PSoC4/GraphicLCDIntf.c **** ********************************************************************************
  83:Generated_Source\PSoC4/GraphicLCDIntf.c **** *
  84:Generated_Source\PSoC4/GraphicLCDIntf.c **** * Summary:
  85:Generated_Source\PSoC4/GraphicLCDIntf.c **** *  Disables the GraphicLCDIntf interface.
  86:Generated_Source\PSoC4/GraphicLCDIntf.c **** *
  87:Generated_Source\PSoC4/GraphicLCDIntf.c **** *******************************************************************************/
  88:Generated_Source\PSoC4/GraphicLCDIntf.c **** void GraphicLCDIntf_Stop(void) 
  89:Generated_Source\PSoC4/GraphicLCDIntf.c **** {
 117              		.loc 1 89 0
 118              		.cfi_startproc
 119              		@ args = 0, pretend = 0, frame = 0
 120              		@ frame_needed = 0, uses_anonymous_args = 0
 121              		@ link register save eliminated.
  90:Generated_Source\PSoC4/GraphicLCDIntf.c ****     /* Nothing to stop */
  91:Generated_Source\PSoC4/GraphicLCDIntf.c **** }
 122              		.loc 1 91 0
 123              		@ sp needed
 124 0000 7047     		bx	lr
 125              		.cfi_endproc
 126              	.LFE3:
 127              		.size	GraphicLCDIntf_Stop, .-GraphicLCDIntf_Stop
 128              		.section	.text.GraphicLCDIntf_Write8,"ax",%progbits
 129              		.align	1
 130              		.global	GraphicLCDIntf_Write8
 131              		.code	16
 132              		.thumb_func
 133              		.type	GraphicLCDIntf_Write8, %function
 134              	GraphicLCDIntf_Write8:
 135              	.LFB4:
ARM GAS  C:\Users\RYANCA~1\AppData\Local\Temp\cclSRVwE.s 			page 5


  92:Generated_Source\PSoC4/GraphicLCDIntf.c **** 
  93:Generated_Source\PSoC4/GraphicLCDIntf.c **** 
  94:Generated_Source\PSoC4/GraphicLCDIntf.c **** /*******************************************************************************
  95:Generated_Source\PSoC4/GraphicLCDIntf.c **** * Function Name: GraphicLCDIntf_Write8
  96:Generated_Source\PSoC4/GraphicLCDIntf.c **** ********************************************************************************
  97:Generated_Source\PSoC4/GraphicLCDIntf.c **** *
  98:Generated_Source\PSoC4/GraphicLCDIntf.c **** * Summary:
  99:Generated_Source\PSoC4/GraphicLCDIntf.c **** *  Initiates a write transaction on the 8-bit parallel
 100:Generated_Source\PSoC4/GraphicLCDIntf.c **** *  interface.
 101:Generated_Source\PSoC4/GraphicLCDIntf.c **** *  The write is a posted write, so this function will return before the write 
 102:Generated_Source\PSoC4/GraphicLCDIntf.c **** *  has actually completed on the interface. If the command queue is full, this 
 103:Generated_Source\PSoC4/GraphicLCDIntf.c **** *  function will not return until space is available to queue this write request.
 104:Generated_Source\PSoC4/GraphicLCDIntf.c **** *
 105:Generated_Source\PSoC4/GraphicLCDIntf.c **** * Parameters:
 106:Generated_Source\PSoC4/GraphicLCDIntf.c **** *  d_c:  Data(1) or Command(0) indication. Passed to the d_c pin.
 107:Generated_Source\PSoC4/GraphicLCDIntf.c **** *
 108:Generated_Source\PSoC4/GraphicLCDIntf.c **** *  wrData: Data sent to the do_msb[7:0] (most significant byte) 
 109:Generated_Source\PSoC4/GraphicLCDIntf.c **** *          and do_lsb[7:0] (least significant byte) pins. do_msb[7:0]
 110:Generated_Source\PSoC4/GraphicLCDIntf.c **** *          presents only for the 16-bit interface.
 111:Generated_Source\PSoC4/GraphicLCDIntf.c **** *
 112:Generated_Source\PSoC4/GraphicLCDIntf.c **** *******************************************************************************/
 113:Generated_Source\PSoC4/GraphicLCDIntf.c **** void GraphicLCDIntf_Write8(uint8 d_c, uint8 wrData) 
 114:Generated_Source\PSoC4/GraphicLCDIntf.c **** {
 136              		.loc 1 114 0
 137              		.cfi_startproc
 138              		@ args = 0, pretend = 0, frame = 0
 139              		@ frame_needed = 0, uses_anonymous_args = 0
 140              	.LVL1:
 115:Generated_Source\PSoC4/GraphicLCDIntf.c ****     while((GraphicLCDIntf_STATUS_REG & GraphicLCDIntf_CMD_QUEUE_FULL) != 0u)
 141              		.loc 1 115 0
 142 0000 0123     		movs	r3, #1
 114:Generated_Source\PSoC4/GraphicLCDIntf.c ****     while((GraphicLCDIntf_STATUS_REG & GraphicLCDIntf_CMD_QUEUE_FULL) != 0u)
 143              		.loc 1 114 0
 144 0002 10B5     		push	{r4, lr}
 145              		.cfi_def_cfa_offset 8
 146              		.cfi_offset 4, -8
 147              		.cfi_offset 14, -4
 148              		.loc 1 115 0
 149 0004 044C     		ldr	r4, .L14
 150              	.L12:
 151              		.loc 1 115 0 is_stmt 0 discriminator 1
 152 0006 2278     		ldrb	r2, [r4]
 153 0008 1A42     		tst	r2, r3
 154 000a FCD1     		bne	.L12
 116:Generated_Source\PSoC4/GraphicLCDIntf.c ****     {
 117:Generated_Source\PSoC4/GraphicLCDIntf.c ****         /* The command queue is full */
 118:Generated_Source\PSoC4/GraphicLCDIntf.c ****     }   
 119:Generated_Source\PSoC4/GraphicLCDIntf.c ****     GraphicLCDIntf_CMD_FIFO_REG = d_c;
 155              		.loc 1 119 0 is_stmt 1
 156 000c 034B     		ldr	r3, .L14+4
 120:Generated_Source\PSoC4/GraphicLCDIntf.c ****     #if (GraphicLCDIntf_BUS_WIDTH == 16u)
 121:Generated_Source\PSoC4/GraphicLCDIntf.c ****         CY_SET_REG16(GraphicLCDIntf_DATA_FIFO_PTR, wrData);
 122:Generated_Source\PSoC4/GraphicLCDIntf.c ****     #else /* 8-bit interface */
 123:Generated_Source\PSoC4/GraphicLCDIntf.c ****         GraphicLCDIntf_DATA_FIFO_REG = wrData;
 124:Generated_Source\PSoC4/GraphicLCDIntf.c ****     #endif /* GraphicLCDIntf_BUS_WIDTH == 16u */
 125:Generated_Source\PSoC4/GraphicLCDIntf.c **** }
 157              		.loc 1 125 0
ARM GAS  C:\Users\RYANCA~1\AppData\Local\Temp\cclSRVwE.s 			page 6


 158              		@ sp needed
 119:Generated_Source\PSoC4/GraphicLCDIntf.c ****     #if (GraphicLCDIntf_BUS_WIDTH == 16u)
 159              		.loc 1 119 0
 160 000e 1870     		strb	r0, [r3]
 123:Generated_Source\PSoC4/GraphicLCDIntf.c ****     #endif /* GraphicLCDIntf_BUS_WIDTH == 16u */
 161              		.loc 1 123 0
 162 0010 034B     		ldr	r3, .L14+8
 163 0012 1970     		strb	r1, [r3]
 164              		.loc 1 125 0
 165 0014 10BD     		pop	{r4, pc}
 166              	.L15:
 167 0016 C046     		.align	2
 168              	.L14:
 169 0018 63000F40 		.word	1074724963
 170 001c 43000F40 		.word	1074724931
 171 0020 53000F40 		.word	1074724947
 172              		.cfi_endproc
 173              	.LFE4:
 174              		.size	GraphicLCDIntf_Write8, .-GraphicLCDIntf_Write8
 175              		.section	.text.GraphicLCDIntf_WriteM8,"ax",%progbits
 176              		.align	1
 177              		.global	GraphicLCDIntf_WriteM8
 178              		.code	16
 179              		.thumb_func
 180              		.type	GraphicLCDIntf_WriteM8, %function
 181              	GraphicLCDIntf_WriteM8:
 182              	.LFB5:
 126:Generated_Source\PSoC4/GraphicLCDIntf.c **** 	
 127:Generated_Source\PSoC4/GraphicLCDIntf.c **** 
 128:Generated_Source\PSoC4/GraphicLCDIntf.c **** /*******************************************************************************
 129:Generated_Source\PSoC4/GraphicLCDIntf.c **** * Function Name: GraphicLCDIntf_WriteM8
 130:Generated_Source\PSoC4/GraphicLCDIntf.c **** ********************************************************************************
 131:Generated_Source\PSoC4/GraphicLCDIntf.c **** *
 132:Generated_Source\PSoC4/GraphicLCDIntf.c **** * Summary:
 133:Generated_Source\PSoC4/GraphicLCDIntf.c **** *  Initiates multiple write transactions on the 8-bit 
 134:Generated_Source\PSoC4/GraphicLCDIntf.c **** *  parallel interface. The write is a posted write, so this function will return
 135:Generated_Source\PSoC4/GraphicLCDIntf.c **** *  before the write has actually completed on the interface. If the command 
 136:Generated_Source\PSoC4/GraphicLCDIntf.c **** *  queue is full, this function will not return until space is available to queue
 137:Generated_Source\PSoC4/GraphicLCDIntf.c **** *  this write request.
 138:Generated_Source\PSoC4/GraphicLCDIntf.c **** *
 139:Generated_Source\PSoC4/GraphicLCDIntf.c **** * Parameters:
 140:Generated_Source\PSoC4/GraphicLCDIntf.c **** *  d_c:    The Data(1) or Command(0) indication. Passed to the d_c pin.
 141:Generated_Source\PSoC4/GraphicLCDIntf.c **** *
 142:Generated_Source\PSoC4/GraphicLCDIntf.c **** *  wrData: The pointer to the the first element of a data buffer sent to the do_msb[7:0]
 143:Generated_Source\PSoC4/GraphicLCDIntf.c **** *          (most significant byte) and do_lsb[7:0] (least significant byte) pins. 
 144:Generated_Source\PSoC4/GraphicLCDIntf.c **** *          do_msb[7:0] presents only for the 16-bit interface.
 145:Generated_Source\PSoC4/GraphicLCDIntf.c **** *
 146:Generated_Source\PSoC4/GraphicLCDIntf.c **** *  num:    The number of words/bytes to write.
 147:Generated_Source\PSoC4/GraphicLCDIntf.c **** *
 148:Generated_Source\PSoC4/GraphicLCDIntf.c **** *******************************************************************************/
 149:Generated_Source\PSoC4/GraphicLCDIntf.c **** void GraphicLCDIntf_WriteM8(uint8 d_c, uint8 wrData[], uint16 num) 
 150:Generated_Source\PSoC4/GraphicLCDIntf.c **** {
 183              		.loc 1 150 0
 184              		.cfi_startproc
 185              		@ args = 0, pretend = 0, frame = 0
 186              		@ frame_needed = 0, uses_anonymous_args = 0
 187              	.LVL2:
ARM GAS  C:\Users\RYANCA~1\AppData\Local\Temp\cclSRVwE.s 			page 7


 188 0000 F0B5     		push	{r4, r5, r6, r7, lr}
 189              		.cfi_def_cfa_offset 20
 190              		.cfi_offset 4, -20
 191              		.cfi_offset 5, -16
 192              		.cfi_offset 6, -12
 193              		.cfi_offset 7, -8
 194              		.cfi_offset 14, -4
 151:Generated_Source\PSoC4/GraphicLCDIntf.c ****     uint32 i;
 152:Generated_Source\PSoC4/GraphicLCDIntf.c ****     
 153:Generated_Source\PSoC4/GraphicLCDIntf.c ****     for(i = 0u; i < num; i++)
 154:Generated_Source\PSoC4/GraphicLCDIntf.c ****     {
 155:Generated_Source\PSoC4/GraphicLCDIntf.c ****         while((GraphicLCDIntf_STATUS_REG & GraphicLCDIntf_CMD_QUEUE_FULL) != 0u)
 156:Generated_Source\PSoC4/GraphicLCDIntf.c ****         {
 157:Generated_Source\PSoC4/GraphicLCDIntf.c ****             /* The command queue is full */
 158:Generated_Source\PSoC4/GraphicLCDIntf.c ****         }   
 159:Generated_Source\PSoC4/GraphicLCDIntf.c ****         GraphicLCDIntf_CMD_FIFO_REG = d_c;  
 160:Generated_Source\PSoC4/GraphicLCDIntf.c ****  
 161:Generated_Source\PSoC4/GraphicLCDIntf.c ****         #if (GraphicLCDIntf_BUS_WIDTH == 16u)
 162:Generated_Source\PSoC4/GraphicLCDIntf.c ****             CY_SET_REG16(GraphicLCDIntf_DATA_FIFO_PTR, wrData[i]);
 163:Generated_Source\PSoC4/GraphicLCDIntf.c ****         #else /* 8-bit interface */
 164:Generated_Source\PSoC4/GraphicLCDIntf.c ****             GraphicLCDIntf_DATA_FIFO_REG = wrData[i];
 195              		.loc 1 164 0
 196 0002 094C     		ldr	r4, .L22
 153:Generated_Source\PSoC4/GraphicLCDIntf.c ****     {
 197              		.loc 1 153 0
 198 0004 0B00     		movs	r3, r1
 155:Generated_Source\PSoC4/GraphicLCDIntf.c ****         {
 199              		.loc 1 155 0
 200 0006 0126     		movs	r6, #1
 201              		.loc 1 164 0
 202 0008 A446     		mov	ip, r4
 159:Generated_Source\PSoC4/GraphicLCDIntf.c ****  
 203              		.loc 1 159 0
 204 000a 084F     		ldr	r7, .L22+4
 205              	.LVL3:
 206              	.L17:
 153:Generated_Source\PSoC4/GraphicLCDIntf.c ****     {
 207              		.loc 1 153 0 discriminator 1
 208 000c 5C1A     		subs	r4, r3, r1
 209 000e A242     		cmp	r2, r4
 210 0010 09D9     		bls	.L21
 211              	.L19:
 155:Generated_Source\PSoC4/GraphicLCDIntf.c ****         {
 212              		.loc 1 155 0 discriminator 1
 213 0012 074C     		ldr	r4, .L22+8
 214 0014 2478     		ldrb	r4, [r4]
 215 0016 3442     		tst	r4, r6
 216 0018 FBD1     		bne	.L19
 217              		.loc 1 164 0 discriminator 2
 218 001a 6546     		mov	r5, ip
 159:Generated_Source\PSoC4/GraphicLCDIntf.c ****  
 219              		.loc 1 159 0 discriminator 2
 220 001c 3870     		strb	r0, [r7]
 221              		.loc 1 164 0 discriminator 2
 222 001e 1C78     		ldrb	r4, [r3]
 223 0020 0133     		adds	r3, r3, #1
 224              	.LVL4:
ARM GAS  C:\Users\RYANCA~1\AppData\Local\Temp\cclSRVwE.s 			page 8


 225 0022 2C70     		strb	r4, [r5]
 226              	.LVL5:
 227 0024 F2E7     		b	.L17
 228              	.LVL6:
 229              	.L21:
 165:Generated_Source\PSoC4/GraphicLCDIntf.c ****         #endif /* GraphicLCDIntf_BUS_WIDTH == 16u */
 166:Generated_Source\PSoC4/GraphicLCDIntf.c ****     }
 167:Generated_Source\PSoC4/GraphicLCDIntf.c **** }
 230              		.loc 1 167 0
 231              		@ sp needed
 232 0026 F0BD     		pop	{r4, r5, r6, r7, pc}
 233              	.L23:
 234              		.align	2
 235              	.L22:
 236 0028 53000F40 		.word	1074724947
 237 002c 43000F40 		.word	1074724931
 238 0030 63000F40 		.word	1074724963
 239              		.cfi_endproc
 240              	.LFE5:
 241              		.size	GraphicLCDIntf_WriteM8, .-GraphicLCDIntf_WriteM8
 242              		.section	.text.GraphicLCDIntf_Read8,"ax",%progbits
 243              		.align	1
 244              		.global	GraphicLCDIntf_Read8
 245              		.code	16
 246              		.thumb_func
 247              		.type	GraphicLCDIntf_Read8, %function
 248              	GraphicLCDIntf_Read8:
 249              	.LFB6:
 168:Generated_Source\PSoC4/GraphicLCDIntf.c **** 
 169:Generated_Source\PSoC4/GraphicLCDIntf.c **** 
 170:Generated_Source\PSoC4/GraphicLCDIntf.c **** /*******************************************************************************
 171:Generated_Source\PSoC4/GraphicLCDIntf.c **** * Function Name: GraphicLCDIntf_Read8
 172:Generated_Source\PSoC4/GraphicLCDIntf.c **** ********************************************************************************
 173:Generated_Source\PSoC4/GraphicLCDIntf.c **** *
 174:Generated_Source\PSoC4/GraphicLCDIntf.c **** * Summary:
 175:Generated_Source\PSoC4/GraphicLCDIntf.c **** *  Initiates a read transaction on the 8-bit parallel interface.
 176:Generated_Source\PSoC4/GraphicLCDIntf.c **** *  The read will execute after all currently posted writes have completed. This 
 177:Generated_Source\PSoC4/GraphicLCDIntf.c **** *  function will wait until the read completes and then returns the read value.
 178:Generated_Source\PSoC4/GraphicLCDIntf.c **** *
 179:Generated_Source\PSoC4/GraphicLCDIntf.c **** * Parameters:
 180:Generated_Source\PSoC4/GraphicLCDIntf.c **** *  d_c: Data(1) or Command(0) indication. Passed to the d_c pin.
 181:Generated_Source\PSoC4/GraphicLCDIntf.c **** *
 182:Generated_Source\PSoC4/GraphicLCDIntf.c **** * Return:
 183:Generated_Source\PSoC4/GraphicLCDIntf.c **** *  The 16-bit read value from the di_msb[7:0] (most significant byte) and 
 184:Generated_Source\PSoC4/GraphicLCDIntf.c **** *  di_lsb[7:0] (least significant byte) pins for the 16-bit interface or the 
 185:Generated_Source\PSoC4/GraphicLCDIntf.c **** *  8-bit read value from the di_lsb[7:0] for 8-bit interface.
 186:Generated_Source\PSoC4/GraphicLCDIntf.c **** *
 187:Generated_Source\PSoC4/GraphicLCDIntf.c **** *******************************************************************************/
 188:Generated_Source\PSoC4/GraphicLCDIntf.c **** uint8 GraphicLCDIntf_Read8(uint8 d_c) 
 189:Generated_Source\PSoC4/GraphicLCDIntf.c **** {
 250              		.loc 1 189 0
 251              		.cfi_startproc
 252              		@ args = 0, pretend = 0, frame = 0
 253              		@ frame_needed = 0, uses_anonymous_args = 0
 254              	.LVL7:
 190:Generated_Source\PSoC4/GraphicLCDIntf.c ****     while((GraphicLCDIntf_STATUS_REG & GraphicLCDIntf_CMD_QUEUE_FULL) != 0u)
 255              		.loc 1 190 0
ARM GAS  C:\Users\RYANCA~1\AppData\Local\Temp\cclSRVwE.s 			page 9


 256 0000 0123     		movs	r3, #1
 189:Generated_Source\PSoC4/GraphicLCDIntf.c ****     while((GraphicLCDIntf_STATUS_REG & GraphicLCDIntf_CMD_QUEUE_FULL) != 0u)
 257              		.loc 1 189 0
 258 0002 10B5     		push	{r4, lr}
 259              		.cfi_def_cfa_offset 8
 260              		.cfi_offset 4, -8
 261              		.cfi_offset 14, -4
 262              		.loc 1 190 0
 263 0004 074C     		ldr	r4, .L30
 264              	.L25:
 265              		.loc 1 190 0 is_stmt 0 discriminator 1
 266 0006 2278     		ldrb	r2, [r4]
 267 0008 0649     		ldr	r1, .L30
 268 000a 1A42     		tst	r2, r3
 269 000c FBD1     		bne	.L25
 191:Generated_Source\PSoC4/GraphicLCDIntf.c ****     {
 192:Generated_Source\PSoC4/GraphicLCDIntf.c ****         /* The command queue is full */
 193:Generated_Source\PSoC4/GraphicLCDIntf.c ****     }   
 194:Generated_Source\PSoC4/GraphicLCDIntf.c ****     GraphicLCDIntf_CMD_FIFO_REG = d_c | GraphicLCDIntf_READ_COMMAND;
 270              		.loc 1 194 0 is_stmt 1
 271 000e 0223     		movs	r3, #2
 272 0010 054A     		ldr	r2, .L30+4
 273 0012 1843     		orrs	r0, r3
 274              	.LVL8:
 275 0014 1070     		strb	r0, [r2]
 276              	.L26:
 195:Generated_Source\PSoC4/GraphicLCDIntf.c ****     
 196:Generated_Source\PSoC4/GraphicLCDIntf.c ****     while((GraphicLCDIntf_STATUS_REG & GraphicLCDIntf_DATA_VALID) != GraphicLCDIntf_DATA_VALID)
 277              		.loc 1 196 0 discriminator 1
 278 0016 0A78     		ldrb	r2, [r1]
 279 0018 1A42     		tst	r2, r3
 280 001a FCD0     		beq	.L26
 197:Generated_Source\PSoC4/GraphicLCDIntf.c ****     {
 198:Generated_Source\PSoC4/GraphicLCDIntf.c ****         /* Wait until input data is valid */
 199:Generated_Source\PSoC4/GraphicLCDIntf.c ****     }
 200:Generated_Source\PSoC4/GraphicLCDIntf.c ****     
 201:Generated_Source\PSoC4/GraphicLCDIntf.c ****     #if (GraphicLCDIntf_BUS_WIDTH == 8u)  /* 8-bit interface */
 202:Generated_Source\PSoC4/GraphicLCDIntf.c ****         return (GraphicLCDIntf_DIN_LSB_DATA_REG);
 281              		.loc 1 202 0
 282 001c 034B     		ldr	r3, .L30+8
 203:Generated_Source\PSoC4/GraphicLCDIntf.c ****     #else   /* 16-bit interface */
 204:Generated_Source\PSoC4/GraphicLCDIntf.c ****         return (uint16)((uint16)GraphicLCDIntf_DIN_MSB_DATA_REG << 8u) | GraphicLCDIntf_DIN_LSB_DAT
 205:Generated_Source\PSoC4/GraphicLCDIntf.c ****     #endif /* GraphicLCDIntf_BUS_WIDTH == 8u */
 206:Generated_Source\PSoC4/GraphicLCDIntf.c **** }
 283              		.loc 1 206 0
 284              		@ sp needed
 202:Generated_Source\PSoC4/GraphicLCDIntf.c ****     #else   /* 16-bit interface */
 285              		.loc 1 202 0
 286 001e 1878     		ldrb	r0, [r3]
 287 0020 C0B2     		uxtb	r0, r0
 288              		.loc 1 206 0
 289 0022 10BD     		pop	{r4, pc}
 290              	.L31:
 291              		.align	2
 292              	.L30:
 293 0024 63000F40 		.word	1074724963
 294 0028 43000F40 		.word	1074724931
ARM GAS  C:\Users\RYANCA~1\AppData\Local\Temp\cclSRVwE.s 			page 10


 295 002c 61000F40 		.word	1074724961
 296              		.cfi_endproc
 297              	.LFE6:
 298              		.size	GraphicLCDIntf_Read8, .-GraphicLCDIntf_Read8
 299              		.section	.text.GraphicLCDIntf_ReadM8,"ax",%progbits
 300              		.align	1
 301              		.global	GraphicLCDIntf_ReadM8
 302              		.code	16
 303              		.thumb_func
 304              		.type	GraphicLCDIntf_ReadM8, %function
 305              	GraphicLCDIntf_ReadM8:
 306              	.LFB7:
 207:Generated_Source\PSoC4/GraphicLCDIntf.c **** 
 208:Generated_Source\PSoC4/GraphicLCDIntf.c **** 
 209:Generated_Source\PSoC4/GraphicLCDIntf.c **** /*******************************************************************************
 210:Generated_Source\PSoC4/GraphicLCDIntf.c **** * Function Name: GraphicLCDIntf_ReadM8
 211:Generated_Source\PSoC4/GraphicLCDIntf.c **** ********************************************************************************
 212:Generated_Source\PSoC4/GraphicLCDIntf.c **** *
 213:Generated_Source\PSoC4/GraphicLCDIntf.c **** * Summary:
 214:Generated_Source\PSoC4/GraphicLCDIntf.c **** *  Initiates multiple read transactions on the 8-bit 
 215:Generated_Source\PSoC4/GraphicLCDIntf.c **** *  parallel interface. The read will execute after all currently posted writes 
 216:Generated_Source\PSoC4/GraphicLCDIntf.c **** *  have completed. This function will wait until the read completes and then 
 217:Generated_Source\PSoC4/GraphicLCDIntf.c **** *  returns the read value.
 218:Generated_Source\PSoC4/GraphicLCDIntf.c **** *
 219:Generated_Source\PSoC4/GraphicLCDIntf.c **** * Parameters:
 220:Generated_Source\PSoC4/GraphicLCDIntf.c **** *  d_c:    The Data(1) or Command(0) indication. Passed to the d_c pin.
 221:Generated_Source\PSoC4/GraphicLCDIntf.c **** *
 222:Generated_Source\PSoC4/GraphicLCDIntf.c **** *  rdData: The pointer to the the first element of a data buffer read from the do_msb[7:0]
 223:Generated_Source\PSoC4/GraphicLCDIntf.c **** *          (most significant byte) and do_lsb[7:0] (least significant byte) pins. 
 224:Generated_Source\PSoC4/GraphicLCDIntf.c **** *          do_msb[7:0] presents only for the 16-bit interface.
 225:Generated_Source\PSoC4/GraphicLCDIntf.c **** *
 226:Generated_Source\PSoC4/GraphicLCDIntf.c **** *  num:    The number of words/bytes to read.
 227:Generated_Source\PSoC4/GraphicLCDIntf.c **** *
 228:Generated_Source\PSoC4/GraphicLCDIntf.c **** *******************************************************************************/
 229:Generated_Source\PSoC4/GraphicLCDIntf.c **** void GraphicLCDIntf_ReadM8(uint8 d_c, uint8 rdData[], uint16 num) 
 230:Generated_Source\PSoC4/GraphicLCDIntf.c **** {
 307              		.loc 1 230 0
 308              		.cfi_startproc
 309              		@ args = 0, pretend = 0, frame = 0
 310              		@ frame_needed = 0, uses_anonymous_args = 0
 311              	.LVL9:
 312 0000 F8B5     		push	{r3, r4, r5, r6, r7, lr}
 313              		.cfi_def_cfa_offset 24
 314              		.cfi_offset 3, -24
 315              		.cfi_offset 4, -20
 316              		.cfi_offset 5, -16
 317              		.cfi_offset 6, -12
 318              		.cfi_offset 7, -8
 319              		.cfi_offset 14, -4
 320              		.loc 1 230 0
 321 0002 0700     		movs	r7, r0
 322              	.LVL10:
 323 0004 0D00     		movs	r5, r1
 324 0006 1600     		movs	r6, r2
 231:Generated_Source\PSoC4/GraphicLCDIntf.c ****     uint32 i;
 232:Generated_Source\PSoC4/GraphicLCDIntf.c ****     
 233:Generated_Source\PSoC4/GraphicLCDIntf.c ****     for(i = 0u; i < num; i++)
ARM GAS  C:\Users\RYANCA~1\AppData\Local\Temp\cclSRVwE.s 			page 11


 325              		.loc 1 233 0
 326 0008 0C00     		movs	r4, r1
 327              	.LVL11:
 328              	.L33:
 329              		.loc 1 233 0 is_stmt 0 discriminator 1
 330 000a 631B     		subs	r3, r4, r5
 331 000c 9E42     		cmp	r6, r3
 332 000e 05D9     		bls	.L35
 234:Generated_Source\PSoC4/GraphicLCDIntf.c ****     {
 235:Generated_Source\PSoC4/GraphicLCDIntf.c ****         rdData[i] = GraphicLCDIntf_Read8(d_c);
 333              		.loc 1 235 0 is_stmt 1 discriminator 3
 334 0010 3800     		movs	r0, r7
 335 0012 FFF7FEFF 		bl	GraphicLCDIntf_Read8
 336              	.LVL12:
 337 0016 2070     		strb	r0, [r4]
 338              	.LVL13:
 339 0018 0134     		adds	r4, r4, #1
 340              	.LVL14:
 341 001a F6E7     		b	.L33
 342              	.L35:
 236:Generated_Source\PSoC4/GraphicLCDIntf.c ****     }
 237:Generated_Source\PSoC4/GraphicLCDIntf.c **** }
 343              		.loc 1 237 0
 344              		@ sp needed
 345              	.LVL15:
 346              	.LVL16:
 347 001c F8BD     		pop	{r3, r4, r5, r6, r7, pc}
 348              		.cfi_endproc
 349              	.LFE7:
 350              		.size	GraphicLCDIntf_ReadM8, .-GraphicLCDIntf_ReadM8
 351              		.section	.text.GraphicLCDIntf_Write8_A0,"ax",%progbits
 352              		.align	1
 353              		.global	GraphicLCDIntf_Write8_A0
 354              		.code	16
 355              		.thumb_func
 356              		.type	GraphicLCDIntf_Write8_A0, %function
 357              	GraphicLCDIntf_Write8_A0:
 358              	.LFB8:
 238:Generated_Source\PSoC4/GraphicLCDIntf.c **** 
 239:Generated_Source\PSoC4/GraphicLCDIntf.c **** 
 240:Generated_Source\PSoC4/GraphicLCDIntf.c **** /*******************************************************************************
 241:Generated_Source\PSoC4/GraphicLCDIntf.c **** * Function Name: GraphicLCDIntf_Write8_A0
 242:Generated_Source\PSoC4/GraphicLCDIntf.c **** ********************************************************************************
 243:Generated_Source\PSoC4/GraphicLCDIntf.c **** *
 244:Generated_Source\PSoC4/GraphicLCDIntf.c **** * Summary:
 245:Generated_Source\PSoC4/GraphicLCDIntf.c **** *  Initiates a write transaction on the 8-bit parallel
 246:Generated_Source\PSoC4/GraphicLCDIntf.c **** *  interface with the d_c pin set to 0.
 247:Generated_Source\PSoC4/GraphicLCDIntf.c **** *  The write is a posted write, so this function will return before the write 
 248:Generated_Source\PSoC4/GraphicLCDIntf.c **** *  has actually completed on the interface. If the command queue is full, this 
 249:Generated_Source\PSoC4/GraphicLCDIntf.c **** *  function will not return until space is availale to queue this write request.
 250:Generated_Source\PSoC4/GraphicLCDIntf.c **** *
 251:Generated_Source\PSoC4/GraphicLCDIntf.c **** * Parameters:
 252:Generated_Source\PSoC4/GraphicLCDIntf.c **** *  wrData: Data sent on the do_msb[7:0] (most significant byte) 
 253:Generated_Source\PSoC4/GraphicLCDIntf.c **** *         and do_lsb[7:0] (least significant byte) pins. do_msb[7:0]
 254:Generated_Source\PSoC4/GraphicLCDIntf.c **** *         presents only for 16-bit interface.
 255:Generated_Source\PSoC4/GraphicLCDIntf.c **** *
 256:Generated_Source\PSoC4/GraphicLCDIntf.c **** *******************************************************************************/
ARM GAS  C:\Users\RYANCA~1\AppData\Local\Temp\cclSRVwE.s 			page 12


 257:Generated_Source\PSoC4/GraphicLCDIntf.c **** void GraphicLCDIntf_Write8_A0(uint8 wrData) 
 258:Generated_Source\PSoC4/GraphicLCDIntf.c **** {
 359              		.loc 1 258 0
 360              		.cfi_startproc
 361              		@ args = 0, pretend = 0, frame = 0
 362              		@ frame_needed = 0, uses_anonymous_args = 0
 363              		@ link register save eliminated.
 364              	.LVL17:
 259:Generated_Source\PSoC4/GraphicLCDIntf.c ****     while((GraphicLCDIntf_STATUS_REG & GraphicLCDIntf_CMD_QUEUE_FULL) != 0u)
 365              		.loc 1 259 0
 366 0000 0122     		movs	r2, #1
 367 0002 0449     		ldr	r1, .L39
 368              	.L37:
 369              		.loc 1 259 0 is_stmt 0 discriminator 1
 370 0004 0B78     		ldrb	r3, [r1]
 371 0006 1340     		ands	r3, r2
 372 0008 FCD1     		bne	.L37
 260:Generated_Source\PSoC4/GraphicLCDIntf.c ****     {
 261:Generated_Source\PSoC4/GraphicLCDIntf.c ****         /* Command queue is full */
 262:Generated_Source\PSoC4/GraphicLCDIntf.c ****     }   
 263:Generated_Source\PSoC4/GraphicLCDIntf.c ****     GraphicLCDIntf_CMD_FIFO_REG = 0u;
 373              		.loc 1 263 0 is_stmt 1
 374 000a 034A     		ldr	r2, .L39+4
 264:Generated_Source\PSoC4/GraphicLCDIntf.c ****     #if (GraphicLCDIntf_BUS_WIDTH == 16u)
 265:Generated_Source\PSoC4/GraphicLCDIntf.c ****         CY_SET_REG16(GraphicLCDIntf_DATA_FIFO_PTR, wrData);
 266:Generated_Source\PSoC4/GraphicLCDIntf.c ****     #else /* 8-bit interface */
 267:Generated_Source\PSoC4/GraphicLCDIntf.c ****         GraphicLCDIntf_DATA_FIFO_REG = wrData;
 268:Generated_Source\PSoC4/GraphicLCDIntf.c ****     #endif /* GraphicLCDIntf_BUS_WIDTH == 16u */
 269:Generated_Source\PSoC4/GraphicLCDIntf.c **** }
 375              		.loc 1 269 0
 376              		@ sp needed
 263:Generated_Source\PSoC4/GraphicLCDIntf.c ****     #if (GraphicLCDIntf_BUS_WIDTH == 16u)
 377              		.loc 1 263 0
 378 000c 1370     		strb	r3, [r2]
 267:Generated_Source\PSoC4/GraphicLCDIntf.c ****     #endif /* GraphicLCDIntf_BUS_WIDTH == 16u */
 379              		.loc 1 267 0
 380 000e 034B     		ldr	r3, .L39+8
 381 0010 1870     		strb	r0, [r3]
 382              		.loc 1 269 0
 383 0012 7047     		bx	lr
 384              	.L40:
 385              		.align	2
 386              	.L39:
 387 0014 63000F40 		.word	1074724963
 388 0018 43000F40 		.word	1074724931
 389 001c 53000F40 		.word	1074724947
 390              		.cfi_endproc
 391              	.LFE8:
 392              		.size	GraphicLCDIntf_Write8_A0, .-GraphicLCDIntf_Write8_A0
 393              		.section	.text.GraphicLCDIntf_Write8_A1,"ax",%progbits
 394              		.align	1
 395              		.global	GraphicLCDIntf_Write8_A1
 396              		.code	16
 397              		.thumb_func
 398              		.type	GraphicLCDIntf_Write8_A1, %function
 399              	GraphicLCDIntf_Write8_A1:
 400              	.LFB9:
ARM GAS  C:\Users\RYANCA~1\AppData\Local\Temp\cclSRVwE.s 			page 13


 270:Generated_Source\PSoC4/GraphicLCDIntf.c **** 
 271:Generated_Source\PSoC4/GraphicLCDIntf.c **** 
 272:Generated_Source\PSoC4/GraphicLCDIntf.c **** /*******************************************************************************
 273:Generated_Source\PSoC4/GraphicLCDIntf.c **** * Function Name: GraphicLCDIntf_Write8_A1
 274:Generated_Source\PSoC4/GraphicLCDIntf.c **** ********************************************************************************
 275:Generated_Source\PSoC4/GraphicLCDIntf.c **** *
 276:Generated_Source\PSoC4/GraphicLCDIntf.c **** * Summary:
 277:Generated_Source\PSoC4/GraphicLCDIntf.c **** *  Initiates a write transaction on the 8-bit 
 278:Generated_Source\PSoC4/GraphicLCDIntf.c **** *  parallel interface with the d_c pin set to 1. The write is a posted write, 
 279:Generated_Source\PSoC4/GraphicLCDIntf.c **** *  so this function will return before the write has actually completed on the 
 280:Generated_Source\PSoC4/GraphicLCDIntf.c **** *  interface. If the command queue is full, this function will not return until
 281:Generated_Source\PSoC4/GraphicLCDIntf.c **** *  space is availale to queue this write request.
 282:Generated_Source\PSoC4/GraphicLCDIntf.c **** *
 283:Generated_Source\PSoC4/GraphicLCDIntf.c **** * Parameters:
 284:Generated_Source\PSoC4/GraphicLCDIntf.c **** *  wrData: Data sent on the do_msb[7:0] (most significant byte) 
 285:Generated_Source\PSoC4/GraphicLCDIntf.c **** *          and do_lsb[7:0] (least significant byte) pins. do_msb[7:0]
 286:Generated_Source\PSoC4/GraphicLCDIntf.c **** *          presents only for 16-bit interface.
 287:Generated_Source\PSoC4/GraphicLCDIntf.c **** *
 288:Generated_Source\PSoC4/GraphicLCDIntf.c **** *******************************************************************************/
 289:Generated_Source\PSoC4/GraphicLCDIntf.c **** void GraphicLCDIntf_Write8_A1(uint8 wrData) 
 290:Generated_Source\PSoC4/GraphicLCDIntf.c **** {
 401              		.loc 1 290 0
 402              		.cfi_startproc
 403              		@ args = 0, pretend = 0, frame = 0
 404              		@ frame_needed = 0, uses_anonymous_args = 0
 405              		@ link register save eliminated.
 406              	.LVL18:
 291:Generated_Source\PSoC4/GraphicLCDIntf.c ****     while((GraphicLCDIntf_STATUS_REG & GraphicLCDIntf_CMD_QUEUE_FULL) != 0u)
 407              		.loc 1 291 0
 408 0000 0123     		movs	r3, #1
 409 0002 0549     		ldr	r1, .L44
 410              	.L42:
 411              		.loc 1 291 0 is_stmt 0 discriminator 1
 412 0004 0A78     		ldrb	r2, [r1]
 413 0006 1A42     		tst	r2, r3
 414 0008 FCD1     		bne	.L42
 292:Generated_Source\PSoC4/GraphicLCDIntf.c ****     {
 293:Generated_Source\PSoC4/GraphicLCDIntf.c ****         /* Command queue is full */
 294:Generated_Source\PSoC4/GraphicLCDIntf.c ****     }   
 295:Generated_Source\PSoC4/GraphicLCDIntf.c ****     GraphicLCDIntf_CMD_FIFO_REG = 1u;
 415              		.loc 1 295 0 is_stmt 1
 416 000a 0122     		movs	r2, #1
 417 000c 034B     		ldr	r3, .L44+4
 296:Generated_Source\PSoC4/GraphicLCDIntf.c ****     #if (GraphicLCDIntf_BUS_WIDTH == 16u)
 297:Generated_Source\PSoC4/GraphicLCDIntf.c ****         CY_SET_REG16(GraphicLCDIntf_DATA_FIFO_PTR, wrData);
 298:Generated_Source\PSoC4/GraphicLCDIntf.c ****     #else /* 8-bit interface */
 299:Generated_Source\PSoC4/GraphicLCDIntf.c ****         GraphicLCDIntf_DATA_FIFO_REG = wrData;
 300:Generated_Source\PSoC4/GraphicLCDIntf.c ****     #endif /* GraphicLCDIntf_BUS_WIDTH == 16u */
 301:Generated_Source\PSoC4/GraphicLCDIntf.c **** }
 418              		.loc 1 301 0
 419              		@ sp needed
 295:Generated_Source\PSoC4/GraphicLCDIntf.c ****     #if (GraphicLCDIntf_BUS_WIDTH == 16u)
 420              		.loc 1 295 0
 421 000e 1A70     		strb	r2, [r3]
 299:Generated_Source\PSoC4/GraphicLCDIntf.c ****     #endif /* GraphicLCDIntf_BUS_WIDTH == 16u */
 422              		.loc 1 299 0
 423 0010 034B     		ldr	r3, .L44+8
ARM GAS  C:\Users\RYANCA~1\AppData\Local\Temp\cclSRVwE.s 			page 14


 424 0012 1870     		strb	r0, [r3]
 425              		.loc 1 301 0
 426 0014 7047     		bx	lr
 427              	.L45:
 428 0016 C046     		.align	2
 429              	.L44:
 430 0018 63000F40 		.word	1074724963
 431 001c 43000F40 		.word	1074724931
 432 0020 53000F40 		.word	1074724947
 433              		.cfi_endproc
 434              	.LFE9:
 435              		.size	GraphicLCDIntf_Write8_A1, .-GraphicLCDIntf_Write8_A1
 436              		.section	.text.GraphicLCDIntf_WriteM8_A0,"ax",%progbits
 437              		.align	1
 438              		.global	GraphicLCDIntf_WriteM8_A0
 439              		.code	16
 440              		.thumb_func
 441              		.type	GraphicLCDIntf_WriteM8_A0, %function
 442              	GraphicLCDIntf_WriteM8_A0:
 443              	.LFB10:
 302:Generated_Source\PSoC4/GraphicLCDIntf.c **** 
 303:Generated_Source\PSoC4/GraphicLCDIntf.c **** 
 304:Generated_Source\PSoC4/GraphicLCDIntf.c **** /*******************************************************************************
 305:Generated_Source\PSoC4/GraphicLCDIntf.c **** * Function Name: GraphicLCDIntf_WriteM8_A0
 306:Generated_Source\PSoC4/GraphicLCDIntf.c **** ********************************************************************************
 307:Generated_Source\PSoC4/GraphicLCDIntf.c **** *
 308:Generated_Source\PSoC4/GraphicLCDIntf.c **** * Summary:
 309:Generated_Source\PSoC4/GraphicLCDIntf.c **** *  Initiates multiple write transactions on the 8-bit 
 310:Generated_Source\PSoC4/GraphicLCDIntf.c **** *  parallel interface with the d_c pin set to 0. The write is a posted write, 
 311:Generated_Source\PSoC4/GraphicLCDIntf.c **** *  so this function will return before the write has actually completed on the 
 312:Generated_Source\PSoC4/GraphicLCDIntf.c **** *  interface. If the command queue is full, this function will not return until
 313:Generated_Source\PSoC4/GraphicLCDIntf.c **** *  space is availale to queue this write request.
 314:Generated_Source\PSoC4/GraphicLCDIntf.c **** *
 315:Generated_Source\PSoC4/GraphicLCDIntf.c **** * Parameters:
 316:Generated_Source\PSoC4/GraphicLCDIntf.c **** *  wrData: Pointer to the the first element of a data buffer sent on the 
 317:Generated_Source\PSoC4/GraphicLCDIntf.c **** *          do_msb[7:0] (most significant byte) and do_lsb[7:0] (least significant
 318:Generated_Source\PSoC4/GraphicLCDIntf.c **** *          byte) pins. do_msb[7:0] presents only for 16-bit interface.
 319:Generated_Source\PSoC4/GraphicLCDIntf.c **** *
 320:Generated_Source\PSoC4/GraphicLCDIntf.c **** *  num:  Number of words/bytes to write.
 321:Generated_Source\PSoC4/GraphicLCDIntf.c **** *
 322:Generated_Source\PSoC4/GraphicLCDIntf.c **** *******************************************************************************/
 323:Generated_Source\PSoC4/GraphicLCDIntf.c **** void GraphicLCDIntf_WriteM8_A0(uint8 wrData[], int num) 
 324:Generated_Source\PSoC4/GraphicLCDIntf.c **** {
 444              		.loc 1 324 0
 445              		.cfi_startproc
 446              		@ args = 0, pretend = 0, frame = 0
 447              		@ frame_needed = 0, uses_anonymous_args = 0
 448              	.LVL19:
 449 0000 10B5     		push	{r4, lr}
 450              		.cfi_def_cfa_offset 8
 451              		.cfi_offset 4, -8
 452              		.cfi_offset 14, -4
 325:Generated_Source\PSoC4/GraphicLCDIntf.c ****     GraphicLCDIntf_WriteM8(0u, wrData, (uint16)num);
 453              		.loc 1 325 0
 454 0002 8AB2     		uxth	r2, r1
 455 0004 0100     		movs	r1, r0
 456              	.LVL20:
ARM GAS  C:\Users\RYANCA~1\AppData\Local\Temp\cclSRVwE.s 			page 15


 457 0006 0020     		movs	r0, #0
 458              	.LVL21:
 459 0008 FFF7FEFF 		bl	GraphicLCDIntf_WriteM8
 460              	.LVL22:
 326:Generated_Source\PSoC4/GraphicLCDIntf.c **** }
 461              		.loc 1 326 0
 462              		@ sp needed
 463 000c 10BD     		pop	{r4, pc}
 464              		.cfi_endproc
 465              	.LFE10:
 466              		.size	GraphicLCDIntf_WriteM8_A0, .-GraphicLCDIntf_WriteM8_A0
 467              		.section	.text.GraphicLCDIntf_WriteM8_A1,"ax",%progbits
 468              		.align	1
 469              		.global	GraphicLCDIntf_WriteM8_A1
 470              		.code	16
 471              		.thumb_func
 472              		.type	GraphicLCDIntf_WriteM8_A1, %function
 473              	GraphicLCDIntf_WriteM8_A1:
 474              	.LFB11:
 327:Generated_Source\PSoC4/GraphicLCDIntf.c **** 
 328:Generated_Source\PSoC4/GraphicLCDIntf.c **** 
 329:Generated_Source\PSoC4/GraphicLCDIntf.c **** /*******************************************************************************
 330:Generated_Source\PSoC4/GraphicLCDIntf.c **** * Function Name: GraphicLCDIntf_WriteM8_A1
 331:Generated_Source\PSoC4/GraphicLCDIntf.c **** ********************************************************************************
 332:Generated_Source\PSoC4/GraphicLCDIntf.c **** *
 333:Generated_Source\PSoC4/GraphicLCDIntf.c **** * Summary:
 334:Generated_Source\PSoC4/GraphicLCDIntf.c **** *  Initiates multiple data write transactions on the 8-bit 
 335:Generated_Source\PSoC4/GraphicLCDIntf.c **** *  parallel interface with the d_c pin set to 1. The write is a posted write, 
 336:Generated_Source\PSoC4/GraphicLCDIntf.c **** *  so this function will return before the write has actually completed on the 
 337:Generated_Source\PSoC4/GraphicLCDIntf.c **** *  interface. If the command queue is full, this function will not return until
 338:Generated_Source\PSoC4/GraphicLCDIntf.c **** *  space is availale to queue this write request.
 339:Generated_Source\PSoC4/GraphicLCDIntf.c **** *
 340:Generated_Source\PSoC4/GraphicLCDIntf.c **** * Parameters:
 341:Generated_Source\PSoC4/GraphicLCDIntf.c **** *  wrData: Pointer to the the first element of a data buffer sent on the 
 342:Generated_Source\PSoC4/GraphicLCDIntf.c **** *          do_msb[7:0] (most significant byte) and do_lsb[7:0] (least significant
 343:Generated_Source\PSoC4/GraphicLCDIntf.c **** *          byte) pins. do_msb[7:0] presents only for 16-bit interface.
 344:Generated_Source\PSoC4/GraphicLCDIntf.c **** *
 345:Generated_Source\PSoC4/GraphicLCDIntf.c **** *  num:  Number of words/bytes to write.
 346:Generated_Source\PSoC4/GraphicLCDIntf.c **** *
 347:Generated_Source\PSoC4/GraphicLCDIntf.c **** *******************************************************************************/
 348:Generated_Source\PSoC4/GraphicLCDIntf.c **** void GraphicLCDIntf_WriteM8_A1(uint8 wrData[], int num) 
 349:Generated_Source\PSoC4/GraphicLCDIntf.c **** {
 475              		.loc 1 349 0
 476              		.cfi_startproc
 477              		@ args = 0, pretend = 0, frame = 0
 478              		@ frame_needed = 0, uses_anonymous_args = 0
 479              	.LVL23:
 480 0000 10B5     		push	{r4, lr}
 481              		.cfi_def_cfa_offset 8
 482              		.cfi_offset 4, -8
 483              		.cfi_offset 14, -4
 350:Generated_Source\PSoC4/GraphicLCDIntf.c ****     GraphicLCDIntf_WriteM8(1u, wrData, (uint16)num);
 484              		.loc 1 350 0
 485 0002 8AB2     		uxth	r2, r1
 486 0004 0100     		movs	r1, r0
 487              	.LVL24:
 488 0006 0120     		movs	r0, #1
ARM GAS  C:\Users\RYANCA~1\AppData\Local\Temp\cclSRVwE.s 			page 16


 489              	.LVL25:
 490 0008 FFF7FEFF 		bl	GraphicLCDIntf_WriteM8
 491              	.LVL26:
 351:Generated_Source\PSoC4/GraphicLCDIntf.c **** }
 492              		.loc 1 351 0
 493              		@ sp needed
 494 000c 10BD     		pop	{r4, pc}
 495              		.cfi_endproc
 496              	.LFE11:
 497              		.size	GraphicLCDIntf_WriteM8_A1, .-GraphicLCDIntf_WriteM8_A1
 498              		.section	.text.GraphicLCDIntf_Read8_A1,"ax",%progbits
 499              		.align	1
 500              		.global	GraphicLCDIntf_Read8_A1
 501              		.code	16
 502              		.thumb_func
 503              		.type	GraphicLCDIntf_Read8_A1, %function
 504              	GraphicLCDIntf_Read8_A1:
 505              	.LFB12:
 352:Generated_Source\PSoC4/GraphicLCDIntf.c **** 
 353:Generated_Source\PSoC4/GraphicLCDIntf.c **** 
 354:Generated_Source\PSoC4/GraphicLCDIntf.c **** /*******************************************************************************
 355:Generated_Source\PSoC4/GraphicLCDIntf.c **** * Function Name: GraphicLCDIntf_Read8_A1
 356:Generated_Source\PSoC4/GraphicLCDIntf.c **** ********************************************************************************
 357:Generated_Source\PSoC4/GraphicLCDIntf.c **** *
 358:Generated_Source\PSoC4/GraphicLCDIntf.c **** * Summary:
 359:Generated_Source\PSoC4/GraphicLCDIntf.c **** *  Initiates data read transaction on the 8-bit 
 360:Generated_Source\PSoC4/GraphicLCDIntf.c **** *  parallel interface with the d_c pin set to 1. The read will execute after 
 361:Generated_Source\PSoC4/GraphicLCDIntf.c **** *  all currently posted writes have completed. This function will wait until 
 362:Generated_Source\PSoC4/GraphicLCDIntf.c **** *  the read completes and then returns the read value.
 363:Generated_Source\PSoC4/GraphicLCDIntf.c **** *
 364:Generated_Source\PSoC4/GraphicLCDIntf.c **** * Return:
 365:Generated_Source\PSoC4/GraphicLCDIntf.c **** *  The 16-bit read value from the di_msb[7:0] (most significant byte) and 
 366:Generated_Source\PSoC4/GraphicLCDIntf.c **** *  di_lsb[7:0] (least significant byte) pins for the 16-bit interface or the 
 367:Generated_Source\PSoC4/GraphicLCDIntf.c **** *  8-bit read value from the di_lsb[7:0] for 8-bit interface.
 368:Generated_Source\PSoC4/GraphicLCDIntf.c **** *
 369:Generated_Source\PSoC4/GraphicLCDIntf.c **** *******************************************************************************/
 370:Generated_Source\PSoC4/GraphicLCDIntf.c **** uint8 GraphicLCDIntf_Read8_A1(void) 
 371:Generated_Source\PSoC4/GraphicLCDIntf.c **** {
 506              		.loc 1 371 0
 507              		.cfi_startproc
 508              		@ args = 0, pretend = 0, frame = 0
 509              		@ frame_needed = 0, uses_anonymous_args = 0
 510 0000 10B5     		push	{r4, lr}
 511              		.cfi_def_cfa_offset 8
 512              		.cfi_offset 4, -8
 513              		.cfi_offset 14, -4
 372:Generated_Source\PSoC4/GraphicLCDIntf.c ****     return GraphicLCDIntf_Read8(1u);
 514              		.loc 1 372 0
 515 0002 0120     		movs	r0, #1
 516 0004 FFF7FEFF 		bl	GraphicLCDIntf_Read8
 517              	.LVL27:
 373:Generated_Source\PSoC4/GraphicLCDIntf.c **** }
 518              		.loc 1 373 0
 519              		@ sp needed
 520 0008 10BD     		pop	{r4, pc}
 521              		.cfi_endproc
 522              	.LFE12:
ARM GAS  C:\Users\RYANCA~1\AppData\Local\Temp\cclSRVwE.s 			page 17


 523              		.size	GraphicLCDIntf_Read8_A1, .-GraphicLCDIntf_Read8_A1
 524              		.section	.text.GraphicLCDIntf_ReadM8_A1,"ax",%progbits
 525              		.align	1
 526              		.global	GraphicLCDIntf_ReadM8_A1
 527              		.code	16
 528              		.thumb_func
 529              		.type	GraphicLCDIntf_ReadM8_A1, %function
 530              	GraphicLCDIntf_ReadM8_A1:
 531              	.LFB13:
 374:Generated_Source\PSoC4/GraphicLCDIntf.c **** 
 375:Generated_Source\PSoC4/GraphicLCDIntf.c **** 
 376:Generated_Source\PSoC4/GraphicLCDIntf.c **** /*******************************************************************************
 377:Generated_Source\PSoC4/GraphicLCDIntf.c **** * Function Name: GraphicLCDIntf_ReadM8_A1
 378:Generated_Source\PSoC4/GraphicLCDIntf.c **** ********************************************************************************
 379:Generated_Source\PSoC4/GraphicLCDIntf.c **** *
 380:Generated_Source\PSoC4/GraphicLCDIntf.c **** * Summary:
 381:Generated_Source\PSoC4/GraphicLCDIntf.c **** *  Initiates multiple data read transactions on the 8-bit 
 382:Generated_Source\PSoC4/GraphicLCDIntf.c **** *  parallel interface with the d_c pin set to 1. The read will execute after all 
 383:Generated_Source\PSoC4/GraphicLCDIntf.c **** *  currently posted writes have completed. This function will wait until the 
 384:Generated_Source\PSoC4/GraphicLCDIntf.c **** *  read completes and then returns the read value.
 385:Generated_Source\PSoC4/GraphicLCDIntf.c **** *
 386:Generated_Source\PSoC4/GraphicLCDIntf.c **** * Parameters:
 387:Generated_Source\PSoC4/GraphicLCDIntf.c **** *  rdData: Pointer to the the first element of a data buffer read from the do_msb[7:0]
 388:Generated_Source\PSoC4/GraphicLCDIntf.c **** *        (most significant byte) and do_lsb[7:0] (least significant byte) pins. 
 389:Generated_Source\PSoC4/GraphicLCDIntf.c **** *        do_msb[7:0] presents only for 16-bit interface.
 390:Generated_Source\PSoC4/GraphicLCDIntf.c **** *
 391:Generated_Source\PSoC4/GraphicLCDIntf.c **** *  num:  Number of words/bytes to read.
 392:Generated_Source\PSoC4/GraphicLCDIntf.c **** *
 393:Generated_Source\PSoC4/GraphicLCDIntf.c **** *******************************************************************************/
 394:Generated_Source\PSoC4/GraphicLCDIntf.c **** void GraphicLCDIntf_ReadM8_A1(uint8 rdData[], int num) 
 395:Generated_Source\PSoC4/GraphicLCDIntf.c **** {
 532              		.loc 1 395 0
 533              		.cfi_startproc
 534              		@ args = 0, pretend = 0, frame = 0
 535              		@ frame_needed = 0, uses_anonymous_args = 0
 536              	.LVL28:
 537 0000 10B5     		push	{r4, lr}
 538              		.cfi_def_cfa_offset 8
 539              		.cfi_offset 4, -8
 540              		.cfi_offset 14, -4
 396:Generated_Source\PSoC4/GraphicLCDIntf.c ****     GraphicLCDIntf_ReadM8(1u, rdData, (uint16)num);
 541              		.loc 1 396 0
 542 0002 8AB2     		uxth	r2, r1
 543 0004 0100     		movs	r1, r0
 544              	.LVL29:
 545 0006 0120     		movs	r0, #1
 546              	.LVL30:
 547 0008 FFF7FEFF 		bl	GraphicLCDIntf_ReadM8
 548              	.LVL31:
 397:Generated_Source\PSoC4/GraphicLCDIntf.c **** }
 549              		.loc 1 397 0
 550              		@ sp needed
 551 000c 10BD     		pop	{r4, pc}
 552              		.cfi_endproc
 553              	.LFE13:
 554              		.size	GraphicLCDIntf_ReadM8_A1, .-GraphicLCDIntf_ReadM8_A1
 555              		.global	GraphicLCDIntf_initVar
ARM GAS  C:\Users\RYANCA~1\AppData\Local\Temp\cclSRVwE.s 			page 18


 556              		.bss
 557              		.set	.LANCHOR0,. + 0
 558              		.type	GraphicLCDIntf_initVar, %object
 559              		.size	GraphicLCDIntf_initVar, 1
 560              	GraphicLCDIntf_initVar:
 561 0000 00       		.space	1
 562              		.text
 563              	.Letext0:
 564              		.file 2 "Generated_Source\\PSoC4\\cytypes.h"