ARM GAS  C:\Users\RYANCA~1\AppData\Local\Temp\ccPslA7g.s 			page 1


   1              		.syntax unified
   2              		.cpu cortex-m0
   3              		.fpu softvfp
   4              		.eabi_attribute 20, 1
   5              		.eabi_attribute 21, 1
   6              		.eabi_attribute 23, 3
   7              		.eabi_attribute 24, 1
   8              		.eabi_attribute 25, 1
   9              		.eabi_attribute 26, 1
  10              		.eabi_attribute 30, 4
  11              		.eabi_attribute 34, 0
  12              		.eabi_attribute 18, 4
  13              		.thumb
  14              		.syntax unified
  15              		.file	"ugui_SSD1963.c"
  16              		.text
  17              	.Ltext0:
  18              		.cfi_sections	.debug_frame
  19              		.section	.text.Display_Init,"ax",%progbits
  20              		.align	1
  21              		.global	Display_Init
  22              		.code	16
  23              		.thumb_func
  24              		.type	Display_Init, %function
  25              	Display_Init:
  26              	.LFB38:
  27              		.file 1 "ugui_SSD1963.c"
   1:ugui_SSD1963.c **** /*******************************************************************************
   2:ugui_SSD1963.c **** * File Name: ugui_SSD1963.c
   3:ugui_SSD1963.c **** *
   4:ugui_SSD1963.c **** * Description:
   5:ugui_SSD1963.c **** *  This is a driver for the uGui graphical library developed by 
   6:ugui_SSD1963.c **** *  Achim Döbler.
   7:ugui_SSD1963.c **** *  It is for SSD1963 graphic controller found in a lot of low cost graphics 
   8:ugui_SSD1963.c **** *  chinese displays an to be used with PSoC microcontrollers from Cypress.
   9:ugui_SSD1963.c **** *  Will test it with other PSoC micros as soon as I can.
  10:ugui_SSD1963.c **** *
  11:ugui_SSD1963.c **** * Note:
  12:ugui_SSD1963.c **** *  For more information about uGui...
  13:ugui_SSD1963.c **** *  Website: http://www.embeddedlightning.com/ugui/
  14:ugui_SSD1963.c **** *  Git: https://github.com/achimdoebler/UGUI
  15:ugui_SSD1963.c **** *  Forum: http://www.embeddedlightning.com/forum/
  16:ugui_SSD1963.c **** *  PDF Reference manual (excellent): http://www.embeddedlightning.com/download/reference-guide/?wpd
  17:ugui_SSD1963.c **** *
  18:ugui_SSD1963.c **** *  Thanks to Achim Döbler for such a god job.
  19:ugui_SSD1963.c **** *
  20:ugui_SSD1963.c **** * Log version:
  21:ugui_SSD1963.c **** *  1.0 - June, 2018.       First version.
  22:ugui_SSD1963.c **** *
  23:ugui_SSD1963.c **** ********************************************************************************
  24:ugui_SSD1963.c **** * Copyright (c) 2018 Andres F. Navas
  25:ugui_SSD1963.c **** * This driver follows the same license than the uGui library.
  26:ugui_SSD1963.c **** *******************************************************************************/
  27:ugui_SSD1963.c **** 
  28:ugui_SSD1963.c **** #include <project.h>
  29:ugui_SSD1963.c **** #include "ugui.h"
  30:ugui_SSD1963.c **** #include "ugui_SSD1963.h"
ARM GAS  C:\Users\RYANCA~1\AppData\Local\Temp\ccPslA7g.s 			page 2


  31:ugui_SSD1963.c **** 
  32:ugui_SSD1963.c **** #define HDP (DISPLAY_WIDTH - 1)
  33:ugui_SSD1963.c **** #define VDP (DISPLAY_HEIGHT - 1)
  34:ugui_SSD1963.c **** 
  35:ugui_SSD1963.c **** inline void Display_WriteCommand(uint8_t command)
  36:ugui_SSD1963.c **** {
  37:ugui_SSD1963.c ****     GraphicLCDIntf_Write8(0, command);
  38:ugui_SSD1963.c **** }
  39:ugui_SSD1963.c **** 
  40:ugui_SSD1963.c **** inline void Display_WriteData(uint8_t data)
  41:ugui_SSD1963.c **** {
  42:ugui_SSD1963.c ****     GraphicLCDIntf_Write8(1, data);
  43:ugui_SSD1963.c **** }
  44:ugui_SSD1963.c **** 
  45:ugui_SSD1963.c **** inline void Display_WriteMultiData(uint8_t *data, uint16 size)
  46:ugui_SSD1963.c **** {
  47:ugui_SSD1963.c ****     GraphicLCDIntf_WriteM8(1, data, size);
  48:ugui_SSD1963.c **** }
  49:ugui_SSD1963.c **** 
  50:ugui_SSD1963.c **** inline void Display_Reset()
  51:ugui_SSD1963.c **** {
  52:ugui_SSD1963.c ****     Display_WriteCommand(0x01);         //Software reset
  53:ugui_SSD1963.c ****     CyDelay(10);
  54:ugui_SSD1963.c **** }
  55:ugui_SSD1963.c **** 
  56:ugui_SSD1963.c **** void Display_Init()
  57:ugui_SSD1963.c **** {
  28              		.loc 1 57 0
  29              		.cfi_startproc
  30              		@ args = 0, pretend = 0, frame = 0
  31              		@ frame_needed = 0, uses_anonymous_args = 0
  32 0000 10B5     		push	{r4, lr}
  33              		.cfi_def_cfa_offset 8
  34              		.cfi_offset 4, -8
  35              		.cfi_offset 14, -4
  58:ugui_SSD1963.c ****     int i;
  59:ugui_SSD1963.c ****     
  60:ugui_SSD1963.c ****     CyDelay(100);
  36              		.loc 1 60 0
  37 0002 6420     		movs	r0, #100
  38 0004 FFF7FEFF 		bl	CyDelay
  39              	.LVL0:
  40 0008 0524     		movs	r4, #5
  41              	.LVL1:
  42              	.L2:
  61:ugui_SSD1963.c **** 	
  62:ugui_SSD1963.c ****     for(i = 0; i < 5; i++)              // Hardware reset
  63:ugui_SSD1963.c ****     {
  64:ugui_SSD1963.c ****         D_RST_Write(0);
  43              		.loc 1 64 0 discriminator 3
  44 000a 0020     		movs	r0, #0
  45 000c FFF7FEFF 		bl	D_RST_Write
  46              	.LVL2:
  65:ugui_SSD1963.c **** 		CyDelay(50);
  47              		.loc 1 65 0 discriminator 3
  48 0010 3220     		movs	r0, #50
  49 0012 FFF7FEFF 		bl	CyDelay
ARM GAS  C:\Users\RYANCA~1\AppData\Local\Temp\ccPslA7g.s 			page 3


  50              	.LVL3:
  66:ugui_SSD1963.c ****         D_RST_Write(1);
  51              		.loc 1 66 0 discriminator 3
  52 0016 0120     		movs	r0, #1
  53 0018 FFF7FEFF 		bl	D_RST_Write
  54              	.LVL4:
  55 001c 013C     		subs	r4, r4, #1
  56              	.LVL5:
  67:ugui_SSD1963.c ****         CyDelay(50);
  57              		.loc 1 67 0 discriminator 3
  58 001e 3220     		movs	r0, #50
  59 0020 FFF7FEFF 		bl	CyDelay
  60              	.LVL6:
  62:ugui_SSD1963.c ****     {
  61              		.loc 1 62 0 discriminator 3
  62 0024 002C     		cmp	r4, #0
  63 0026 F0D1     		bne	.L2
  64              	.LVL7:
  65              	.LBB140:
  66              	.LBB141:
  67              	.LBB142:
  68              	.LBB143:
  37:ugui_SSD1963.c **** }
  69              		.loc 1 37 0
  70 0028 0121     		movs	r1, #1
  71 002a 2000     		movs	r0, r4
  72 002c FFF7FEFF 		bl	GraphicLCDIntf_Write8
  73              	.LVL8:
  74              	.LBE143:
  75              	.LBE142:
  53:ugui_SSD1963.c **** }
  76              		.loc 1 53 0
  77 0030 0A20     		movs	r0, #10
  78 0032 FFF7FEFF 		bl	CyDelay
  79              	.LVL9:
  80              	.LBE141:
  81              	.LBE140:
  68:ugui_SSD1963.c **** 	}
  69:ugui_SSD1963.c ****     
  70:ugui_SSD1963.c ****     Display_Reset();                    //Software reset
  71:ugui_SSD1963.c ****     CyDelay(10);
  82              		.loc 1 71 0
  83 0036 0A20     		movs	r0, #10
  84 0038 FFF7FEFF 		bl	CyDelay
  85              	.LVL10:
  86              	.LBB144:
  87              	.LBB145:
  88              	.LBB146:
  89              	.LBB147:
  37:ugui_SSD1963.c **** }
  90              		.loc 1 37 0
  91 003c 0121     		movs	r1, #1
  92 003e 2000     		movs	r0, r4
  93 0040 FFF7FEFF 		bl	GraphicLCDIntf_Write8
  94              	.LVL11:
  95              	.LBE147:
  96              	.LBE146:
ARM GAS  C:\Users\RYANCA~1\AppData\Local\Temp\ccPslA7g.s 			page 4


  53:ugui_SSD1963.c **** }
  97              		.loc 1 53 0
  98 0044 0A20     		movs	r0, #10
  99 0046 FFF7FEFF 		bl	CyDelay
 100              	.LVL12:
 101              	.LBE145:
 102              	.LBE144:
  72:ugui_SSD1963.c ****     Display_Reset();                    //Software reset
  73:ugui_SSD1963.c ****     CyDelay(10);
 103              		.loc 1 73 0
 104 004a 0A20     		movs	r0, #10
 105 004c FFF7FEFF 		bl	CyDelay
 106              	.LVL13:
 107              	.LBB148:
 108              	.LBB149:
 109              	.LBB150:
 110              	.LBB151:
  37:ugui_SSD1963.c **** }
 111              		.loc 1 37 0
 112 0050 0121     		movs	r1, #1
 113 0052 2000     		movs	r0, r4
 114 0054 FFF7FEFF 		bl	GraphicLCDIntf_Write8
 115              	.LVL14:
 116              	.LBE151:
 117              	.LBE150:
  53:ugui_SSD1963.c **** }
 118              		.loc 1 53 0
 119 0058 0A20     		movs	r0, #10
 120 005a FFF7FEFF 		bl	CyDelay
 121              	.LVL15:
 122              	.LBE149:
 123              	.LBE148:
  74:ugui_SSD1963.c ****     Display_Reset();                    //Software reset
  75:ugui_SSD1963.c ****     CyDelay(10);
 124              		.loc 1 75 0
 125 005e 0A20     		movs	r0, #10
 126 0060 FFF7FEFF 		bl	CyDelay
 127              	.LVL16:
 128              	.LBB152:
 129              	.LBB153:
  37:ugui_SSD1963.c **** }
 130              		.loc 1 37 0
 131 0064 2000     		movs	r0, r4
 132 0066 E021     		movs	r1, #224
 133 0068 FFF7FEFF 		bl	GraphicLCDIntf_Write8
 134              	.LVL17:
 135              	.LBE153:
 136              	.LBE152:
 137              	.LBB154:
 138              	.LBB155:
  42:ugui_SSD1963.c **** }
 139              		.loc 1 42 0
 140 006c 0121     		movs	r1, #1
 141 006e 0800     		movs	r0, r1
 142 0070 FFF7FEFF 		bl	GraphicLCDIntf_Write8
 143              	.LVL18:
 144              	.LBE155:
ARM GAS  C:\Users\RYANCA~1\AppData\Local\Temp\ccPslA7g.s 			page 5


 145              	.LBE154:
  76:ugui_SSD1963.c **** 
  77:ugui_SSD1963.c ****     //Display_WriteCommand(0xe2);         //set multiplier and divider of PLL
  78:ugui_SSD1963.c ****     //Display_WriteData(0x23);            //PLL = 120MHz
  79:ugui_SSD1963.c ****     //Display_WriteData(0x02);
  80:ugui_SSD1963.c ****     //Display_WriteData(0x04);
  81:ugui_SSD1963.c ****     
  82:ugui_SSD1963.c ****     Display_WriteCommand(0xe0);
  83:ugui_SSD1963.c ****     Display_WriteData(0x01);            //Enable PLL
  84:ugui_SSD1963.c ****     CyDelay(50);
 146              		.loc 1 84 0
 147 0074 3220     		movs	r0, #50
 148 0076 FFF7FEFF 		bl	CyDelay
 149              	.LVL19:
 150              	.LBB156:
 151              	.LBB157:
  37:ugui_SSD1963.c **** }
 152              		.loc 1 37 0
 153 007a 2000     		movs	r0, r4
 154 007c E021     		movs	r1, #224
 155 007e FFF7FEFF 		bl	GraphicLCDIntf_Write8
 156              	.LVL20:
 157              	.LBE157:
 158              	.LBE156:
 159              	.LBB158:
 160              	.LBB159:
  42:ugui_SSD1963.c **** }
 161              		.loc 1 42 0
 162 0082 0321     		movs	r1, #3
 163 0084 0120     		movs	r0, #1
 164 0086 FFF7FEFF 		bl	GraphicLCDIntf_Write8
 165              	.LVL21:
 166              	.LBE159:
 167              	.LBE158:
  85:ugui_SSD1963.c ****     
  86:ugui_SSD1963.c ****     Display_WriteCommand(0xe0);
  87:ugui_SSD1963.c ****     Display_WriteData(0x03);            //Lock PLL
  88:ugui_SSD1963.c ****     CyDelay(50);
 168              		.loc 1 88 0
 169 008a 3220     		movs	r0, #50
 170 008c FFF7FEFF 		bl	CyDelay
 171              	.LVL22:
 172              	.LBB160:
 173              	.LBB161:
 174              	.LBB162:
 175              	.LBB163:
  37:ugui_SSD1963.c **** }
 176              		.loc 1 37 0
 177 0090 0121     		movs	r1, #1
 178 0092 2000     		movs	r0, r4
 179 0094 FFF7FEFF 		bl	GraphicLCDIntf_Write8
 180              	.LVL23:
 181              	.LBE163:
 182              	.LBE162:
  53:ugui_SSD1963.c **** }
 183              		.loc 1 53 0
 184 0098 0A20     		movs	r0, #10
ARM GAS  C:\Users\RYANCA~1\AppData\Local\Temp\ccPslA7g.s 			page 6


 185 009a FFF7FEFF 		bl	CyDelay
 186              	.LVL24:
 187              	.LBE161:
 188              	.LBE160:
  89:ugui_SSD1963.c ****     Display_Reset();                    //Software reset
  90:ugui_SSD1963.c ****     CyDelay(50);
 189              		.loc 1 90 0
 190 009e 3220     		movs	r0, #50
 191 00a0 FFF7FEFF 		bl	CyDelay
 192              	.LVL25:
 193              	.LBB164:
 194              	.LBB165:
  37:ugui_SSD1963.c **** }
 195              		.loc 1 37 0
 196 00a4 2000     		movs	r0, r4
 197 00a6 B021     		movs	r1, #176
 198 00a8 FFF7FEFF 		bl	GraphicLCDIntf_Write8
 199              	.LVL26:
 200              	.LBE165:
 201              	.LBE164:
 202              	.LBB166:
 203              	.LBB167:
  42:ugui_SSD1963.c **** }
 204              		.loc 1 42 0
 205 00ac 0821     		movs	r1, #8
 206 00ae 0120     		movs	r0, #1
 207 00b0 FFF7FEFF 		bl	GraphicLCDIntf_Write8
 208              	.LVL27:
 209              	.LBE167:
 210              	.LBE166:
 211              	.LBB168:
 212              	.LBB169:
 213 00b4 8021     		movs	r1, #128
 214 00b6 0120     		movs	r0, #1
 215 00b8 FFF7FEFF 		bl	GraphicLCDIntf_Write8
 216              	.LVL28:
 217              	.LBE169:
 218              	.LBE168:
 219              	.LBB170:
 220              	.LBB171:
 221 00bc 0121     		movs	r1, #1
 222 00be 0800     		movs	r0, r1
 223 00c0 FFF7FEFF 		bl	GraphicLCDIntf_Write8
 224              	.LVL29:
 225              	.LBE171:
 226              	.LBE170:
 227              	.LBB172:
 228              	.LBB173:
 229 00c4 DF21     		movs	r1, #223
 230 00c6 0120     		movs	r0, #1
 231 00c8 FFF7FEFF 		bl	GraphicLCDIntf_Write8
 232              	.LVL30:
 233              	.LBE173:
 234              	.LBE172:
 235              	.LBB174:
 236              	.LBB175:
 237 00cc 0121     		movs	r1, #1
ARM GAS  C:\Users\RYANCA~1\AppData\Local\Temp\ccPslA7g.s 			page 7


 238 00ce 0800     		movs	r0, r1
 239 00d0 FFF7FEFF 		bl	GraphicLCDIntf_Write8
 240              	.LVL31:
 241              	.LBE175:
 242              	.LBE174:
 243              	.LBB176:
 244              	.LBB177:
 245 00d4 0F21     		movs	r1, #15
 246 00d6 0120     		movs	r0, #1
 247 00d8 FFF7FEFF 		bl	GraphicLCDIntf_Write8
 248              	.LVL32:
 249              	.LBE177:
 250              	.LBE176:
 251              	.LBB178:
 252              	.LBB179:
 253 00dc 2100     		movs	r1, r4
 254 00de 0120     		movs	r0, #1
 255 00e0 FFF7FEFF 		bl	GraphicLCDIntf_Write8
 256              	.LVL33:
 257              	.LBE179:
 258              	.LBE178:
 259              	.LBB180:
 260              	.LBB181:
  37:ugui_SSD1963.c **** }
 261              		.loc 1 37 0
 262 00e4 2000     		movs	r0, r4
 263 00e6 F021     		movs	r1, #240
 264 00e8 FFF7FEFF 		bl	GraphicLCDIntf_Write8
 265              	.LVL34:
 266              	.LBE181:
 267              	.LBE180:
 268              	.LBB182:
 269              	.LBB183:
  42:ugui_SSD1963.c **** }
 270              		.loc 1 42 0
 271 00ec 2100     		movs	r1, r4
 272 00ee 0120     		movs	r0, #1
 273 00f0 FFF7FEFF 		bl	GraphicLCDIntf_Write8
 274              	.LVL35:
 275              	.LBE183:
 276              	.LBE182:
 277              	.LBB184:
 278              	.LBB185:
  37:ugui_SSD1963.c **** }
 279              		.loc 1 37 0
 280 00f4 2000     		movs	r0, r4
 281 00f6 3A21     		movs	r1, #58
 282 00f8 FFF7FEFF 		bl	GraphicLCDIntf_Write8
 283              	.LVL36:
 284              	.LBE185:
 285              	.LBE184:
 286              	.LBB186:
 287              	.LBB187:
  42:ugui_SSD1963.c **** }
 288              		.loc 1 42 0
 289 00fc 6021     		movs	r1, #96
 290 00fe 0120     		movs	r0, #1
ARM GAS  C:\Users\RYANCA~1\AppData\Local\Temp\ccPslA7g.s 			page 8


 291 0100 FFF7FEFF 		bl	GraphicLCDIntf_Write8
 292              	.LVL37:
 293              	.LBE187:
 294              	.LBE186:
 295              	.LBB188:
 296              	.LBB189:
  37:ugui_SSD1963.c **** }
 297              		.loc 1 37 0
 298 0104 2000     		movs	r0, r4
 299 0106 E621     		movs	r1, #230
 300 0108 FFF7FEFF 		bl	GraphicLCDIntf_Write8
 301              	.LVL38:
 302              	.LBE189:
 303              	.LBE188:
 304              	.LBB190:
 305              	.LBB191:
  42:ugui_SSD1963.c **** }
 306              		.loc 1 42 0
 307 010c 0121     		movs	r1, #1
 308 010e 0800     		movs	r0, r1
 309 0110 FFF7FEFF 		bl	GraphicLCDIntf_Write8
 310              	.LVL39:
 311              	.LBE191:
 312              	.LBE190:
 313              	.LBB192:
 314              	.LBB193:
 315 0114 4521     		movs	r1, #69
 316 0116 0120     		movs	r0, #1
 317 0118 FFF7FEFF 		bl	GraphicLCDIntf_Write8
 318              	.LVL40:
 319              	.LBE193:
 320              	.LBE192:
 321              	.LBB194:
 322              	.LBB195:
 323 011c 4721     		movs	r1, #71
 324 011e 0120     		movs	r0, #1
 325 0120 FFF7FEFF 		bl	GraphicLCDIntf_Write8
 326              	.LVL41:
 327              	.LBE195:
 328              	.LBE194:
 329              	.LBB196:
 330              	.LBB197:
  37:ugui_SSD1963.c **** }
 331              		.loc 1 37 0
 332 0124 2000     		movs	r0, r4
 333 0126 B421     		movs	r1, #180
 334 0128 FFF7FEFF 		bl	GraphicLCDIntf_Write8
 335              	.LVL42:
 336              	.LBE197:
 337              	.LBE196:
 338              	.LBB198:
 339              	.LBB199:
  42:ugui_SSD1963.c **** }
 340              		.loc 1 42 0
 341 012c 0221     		movs	r1, #2
 342 012e 0120     		movs	r0, #1
 343 0130 FFF7FEFF 		bl	GraphicLCDIntf_Write8
ARM GAS  C:\Users\RYANCA~1\AppData\Local\Temp\ccPslA7g.s 			page 9


 344              	.LVL43:
 345              	.LBE199:
 346              	.LBE198:
 347              	.LBB200:
 348              	.LBB201:
 349 0134 0D21     		movs	r1, #13
 350 0136 0120     		movs	r0, #1
 351 0138 FFF7FEFF 		bl	GraphicLCDIntf_Write8
 352              	.LVL44:
 353              	.LBE201:
 354              	.LBE200:
 355              	.LBB202:
 356              	.LBB203:
 357 013c 2100     		movs	r1, r4
 358 013e 0120     		movs	r0, #1
 359 0140 FFF7FEFF 		bl	GraphicLCDIntf_Write8
 360              	.LVL45:
 361              	.LBE203:
 362              	.LBE202:
 363              	.LBB204:
 364              	.LBB205:
 365 0144 2B21     		movs	r1, #43
 366 0146 0120     		movs	r0, #1
 367 0148 FFF7FEFF 		bl	GraphicLCDIntf_Write8
 368              	.LVL46:
 369              	.LBE205:
 370              	.LBE204:
 371              	.LBB206:
 372              	.LBB207:
 373 014c 2821     		movs	r1, #40
 374 014e 0120     		movs	r0, #1
 375 0150 FFF7FEFF 		bl	GraphicLCDIntf_Write8
 376              	.LVL47:
 377              	.LBE207:
 378              	.LBE206:
 379              	.LBB208:
 380              	.LBB209:
 381 0154 2100     		movs	r1, r4
 382 0156 0120     		movs	r0, #1
 383 0158 FFF7FEFF 		bl	GraphicLCDIntf_Write8
 384              	.LVL48:
 385              	.LBE209:
 386              	.LBE208:
 387              	.LBB210:
 388              	.LBB211:
 389 015c 2100     		movs	r1, r4
 390 015e 0120     		movs	r0, #1
 391 0160 FFF7FEFF 		bl	GraphicLCDIntf_Write8
 392              	.LVL49:
 393              	.LBE211:
 394              	.LBE210:
 395              	.LBB212:
 396              	.LBB213:
 397 0164 2100     		movs	r1, r4
 398 0166 0120     		movs	r0, #1
 399 0168 FFF7FEFF 		bl	GraphicLCDIntf_Write8
 400              	.LVL50:
ARM GAS  C:\Users\RYANCA~1\AppData\Local\Temp\ccPslA7g.s 			page 10


 401              	.LBE213:
 402              	.LBE212:
 403              	.LBB214:
 404              	.LBB215:
  37:ugui_SSD1963.c **** }
 405              		.loc 1 37 0
 406 016c 2000     		movs	r0, r4
 407 016e B621     		movs	r1, #182
 408 0170 FFF7FEFF 		bl	GraphicLCDIntf_Write8
 409              	.LVL51:
 410              	.LBE215:
 411              	.LBE214:
 412              	.LBB216:
 413              	.LBB217:
  42:ugui_SSD1963.c **** }
 414              		.loc 1 42 0
 415 0174 0121     		movs	r1, #1
 416 0176 0800     		movs	r0, r1
 417 0178 FFF7FEFF 		bl	GraphicLCDIntf_Write8
 418              	.LVL52:
 419              	.LBE217:
 420              	.LBE216:
 421              	.LBB218:
 422              	.LBB219:
 423 017c 1D21     		movs	r1, #29
 424 017e 0120     		movs	r0, #1
 425 0180 FFF7FEFF 		bl	GraphicLCDIntf_Write8
 426              	.LVL53:
 427              	.LBE219:
 428              	.LBE218:
 429              	.LBB220:
 430              	.LBB221:
 431 0184 2100     		movs	r1, r4
 432 0186 0120     		movs	r0, #1
 433 0188 FFF7FEFF 		bl	GraphicLCDIntf_Write8
 434              	.LVL54:
 435              	.LBE221:
 436              	.LBE220:
 437              	.LBB222:
 438              	.LBB223:
 439 018c 0C21     		movs	r1, #12
 440 018e 0120     		movs	r0, #1
 441 0190 FFF7FEFF 		bl	GraphicLCDIntf_Write8
 442              	.LVL55:
 443              	.LBE223:
 444              	.LBE222:
 445              	.LBB224:
 446              	.LBB225:
 447 0194 0921     		movs	r1, #9
 448 0196 0120     		movs	r0, #1
 449 0198 FFF7FEFF 		bl	GraphicLCDIntf_Write8
 450              	.LVL56:
 451              	.LBE225:
 452              	.LBE224:
 453              	.LBB226:
 454              	.LBB227:
 455 019c 2100     		movs	r1, r4
ARM GAS  C:\Users\RYANCA~1\AppData\Local\Temp\ccPslA7g.s 			page 11


 456 019e 0120     		movs	r0, #1
 457 01a0 FFF7FEFF 		bl	GraphicLCDIntf_Write8
 458              	.LVL57:
 459              	.LBE227:
 460              	.LBE226:
 461              	.LBB228:
 462              	.LBB229:
 463 01a4 2100     		movs	r1, r4
 464 01a6 0120     		movs	r0, #1
 465 01a8 FFF7FEFF 		bl	GraphicLCDIntf_Write8
 466              	.LVL58:
 467              	.LBE229:
 468              	.LBE228:
 469              	.LBB230:
 470              	.LBB231:
  37:ugui_SSD1963.c **** }
 471              		.loc 1 37 0
 472 01ac 2000     		movs	r0, r4
 473 01ae 2A21     		movs	r1, #42
 474 01b0 FFF7FEFF 		bl	GraphicLCDIntf_Write8
 475              	.LVL59:
 476              	.LBE231:
 477              	.LBE230:
 478              	.LBB232:
 479              	.LBB233:
  42:ugui_SSD1963.c **** }
 480              		.loc 1 42 0
 481 01b4 2100     		movs	r1, r4
 482 01b6 0120     		movs	r0, #1
 483 01b8 FFF7FEFF 		bl	GraphicLCDIntf_Write8
 484              	.LVL60:
 485              	.LBE233:
 486              	.LBE232:
 487              	.LBB234:
 488              	.LBB235:
 489 01bc 2100     		movs	r1, r4
 490 01be 0120     		movs	r0, #1
 491 01c0 FFF7FEFF 		bl	GraphicLCDIntf_Write8
 492              	.LVL61:
 493              	.LBE235:
 494              	.LBE234:
 495              	.LBB236:
 496              	.LBB237:
 497 01c4 0121     		movs	r1, #1
 498 01c6 0800     		movs	r0, r1
 499 01c8 FFF7FEFF 		bl	GraphicLCDIntf_Write8
 500              	.LVL62:
 501              	.LBE237:
 502              	.LBE236:
 503              	.LBB238:
 504              	.LBB239:
 505 01cc DF21     		movs	r1, #223
 506 01ce 0120     		movs	r0, #1
 507 01d0 FFF7FEFF 		bl	GraphicLCDIntf_Write8
 508              	.LVL63:
 509              	.LBE239:
 510              	.LBE238:
ARM GAS  C:\Users\RYANCA~1\AppData\Local\Temp\ccPslA7g.s 			page 12


 511              	.LBB240:
 512              	.LBB241:
  37:ugui_SSD1963.c **** }
 513              		.loc 1 37 0
 514 01d4 2000     		movs	r0, r4
 515 01d6 2B21     		movs	r1, #43
 516 01d8 FFF7FEFF 		bl	GraphicLCDIntf_Write8
 517              	.LVL64:
 518              	.LBE241:
 519              	.LBE240:
 520              	.LBB242:
 521              	.LBB243:
  42:ugui_SSD1963.c **** }
 522              		.loc 1 42 0
 523 01dc 2100     		movs	r1, r4
 524 01de 0120     		movs	r0, #1
 525 01e0 FFF7FEFF 		bl	GraphicLCDIntf_Write8
 526              	.LVL65:
 527              	.LBE243:
 528              	.LBE242:
 529              	.LBB244:
 530              	.LBB245:
 531 01e4 2100     		movs	r1, r4
 532 01e6 0120     		movs	r0, #1
 533 01e8 FFF7FEFF 		bl	GraphicLCDIntf_Write8
 534              	.LVL66:
 535              	.LBE245:
 536              	.LBE244:
 537              	.LBB246:
 538              	.LBB247:
 539 01ec 0121     		movs	r1, #1
 540 01ee 0800     		movs	r0, r1
 541 01f0 FFF7FEFF 		bl	GraphicLCDIntf_Write8
 542              	.LVL67:
 543              	.LBE247:
 544              	.LBE246:
 545              	.LBB248:
 546              	.LBB249:
 547 01f4 0F21     		movs	r1, #15
 548 01f6 0120     		movs	r0, #1
 549 01f8 FFF7FEFF 		bl	GraphicLCDIntf_Write8
 550              	.LVL68:
 551              	.LBE249:
 552              	.LBE248:
 553              	.LBB250:
 554              	.LBB251:
  37:ugui_SSD1963.c **** }
 555              		.loc 1 37 0
 556 01fc 2000     		movs	r0, r4
 557 01fe 1321     		movs	r1, #19
 558 0200 FFF7FEFF 		bl	GraphicLCDIntf_Write8
 559              	.LVL69:
 560              	.LBE251:
 561              	.LBE250:
 562              	.LBB252:
 563              	.LBB253:
 564 0204 2000     		movs	r0, r4
ARM GAS  C:\Users\RYANCA~1\AppData\Local\Temp\ccPslA7g.s 			page 13


 565 0206 3821     		movs	r1, #56
 566 0208 FFF7FEFF 		bl	GraphicLCDIntf_Write8
 567              	.LVL70:
 568              	.LBE253:
 569              	.LBE252:
 570              	.LBB254:
 571              	.LBB255:
 572 020c 2000     		movs	r0, r4
 573 020e 2921     		movs	r1, #41
 574 0210 FFF7FEFF 		bl	GraphicLCDIntf_Write8
 575              	.LVL71:
 576              	.LBE255:
 577              	.LBE254:
  91:ugui_SSD1963.c ****     
  92:ugui_SSD1963.c ****     Display_WriteCommand(0xb0);  //set LCD mode set TFT 18Bits mode
  93:ugui_SSD1963.c ****     
  94:ugui_SSD1963.c **** 	Display_WriteData(0x08); //set TFT Mode - 0x0c
  95:ugui_SSD1963.c ****     Display_WriteData(0x80); //set TFT mode and hsync + vsync + DEN mode
  96:ugui_SSD1963.c ****     Display_WriteData(0x01); //set horizontal size = 480 - 1 hightbyte
  97:ugui_SSD1963.c ****     Display_WriteData(0xdf); //set horizontal size = 480 - 1 lowbyte
  98:ugui_SSD1963.c ****     Display_WriteData(0x01); //set vertical sive = 272 - 1 hightbyte
  99:ugui_SSD1963.c ****     Display_WriteData(0x0f); //set vertical size = 272 - 1 lowbyte
 100:ugui_SSD1963.c ****     Display_WriteData(0x00); //set even/odd line RGB seq
 101:ugui_SSD1963.c **** 
 102:ugui_SSD1963.c ****     Display_WriteCommand(0xf0); //set pixel data I/F format = 8 bit
 103:ugui_SSD1963.c ****     Display_WriteData(0x00);
 104:ugui_SSD1963.c ****     
 105:ugui_SSD1963.c ****     Display_WriteCommand(0x3a); //set RGB format = 6 6 6
 106:ugui_SSD1963.c ****     Display_WriteData(0x60);
 107:ugui_SSD1963.c ****     
 108:ugui_SSD1963.c ****     Display_WriteCommand(0xe6); //set PCLK freq = 4.94 MHz; pixel clock frequency
 109:ugui_SSD1963.c ****     Display_WriteData(0x01);    //02
 110:ugui_SSD1963.c ****     Display_WriteData(0x45);    //ff
 111:ugui_SSD1963.c ****     Display_WriteData(0x47);    //ff
 112:ugui_SSD1963.c ****     
 113:ugui_SSD1963.c ****     Display_WriteCommand(0xb4); //set HBP
 114:ugui_SSD1963.c ****     Display_WriteData(0x02); //set Hsync = 600
 115:ugui_SSD1963.c ****     Display_WriteData(0x0d);
 116:ugui_SSD1963.c ****     Display_WriteData(0x00);    //set HBP 68
 117:ugui_SSD1963.c ****     Display_WriteData(0x2b);
 118:ugui_SSD1963.c ****     Display_WriteData(0x28);    //set VBP 16
 119:ugui_SSD1963.c ****     Display_WriteData(0x00);    //Set Hsync start position
 120:ugui_SSD1963.c ****     Display_WriteData(0x00);    
 121:ugui_SSD1963.c ****     Display_WriteData(0x00);    //set Hsync pulse subpixel start pos
 122:ugui_SSD1963.c ****     
 123:ugui_SSD1963.c ****     Display_WriteCommand(0xb6); //set VBP  
 124:ugui_SSD1963.c ****     Display_WriteData(0x01);    //set Vsync total 360
 125:ugui_SSD1963.c ****     Display_WriteData(0x1d);    
 126:ugui_SSD1963.c ****     Display_WriteData(0x00);    //set VBP = 19
 127:ugui_SSD1963.c ****     Display_WriteData(0x0c);    
 128:ugui_SSD1963.c ****     Display_WriteData(0x09);    //set Vsync pulse 8
 129:ugui_SSD1963.c ****     Display_WriteData(0x00);    //set Vsync pulse start pos
 130:ugui_SSD1963.c ****     Display_WriteData(0x00);
 131:ugui_SSD1963.c ****     
 132:ugui_SSD1963.c ****     Display_WriteCommand(0x2a); //set column address
 133:ugui_SSD1963.c ****     Display_WriteData(0x00);    //set start column address 0
 134:ugui_SSD1963.c ****     Display_WriteData(0x00);    
ARM GAS  C:\Users\RYANCA~1\AppData\Local\Temp\ccPslA7g.s 			page 14


 135:ugui_SSD1963.c ****     Display_WriteData(0x01);    //set end column address = 479
 136:ugui_SSD1963.c ****     Display_WriteData(0xdf);
 137:ugui_SSD1963.c ****     
 138:ugui_SSD1963.c ****     Display_WriteCommand(0x2b); //set page address
 139:ugui_SSD1963.c ****     Display_WriteData(0x00);    //set start page address = 0
 140:ugui_SSD1963.c ****     Display_WriteData(0x00);    
 141:ugui_SSD1963.c ****     Display_WriteData(0x01);    //set end column address = 479
 142:ugui_SSD1963.c ****     Display_WriteData(0x0f);
 143:ugui_SSD1963.c ****     
 144:ugui_SSD1963.c ****     Display_WriteCommand(0x13); //set normal mode
 145:ugui_SSD1963.c ****     Display_WriteCommand(0x38); //set normal mode
 146:ugui_SSD1963.c ****     Display_WriteCommand(0x29); //set display on
 147:ugui_SSD1963.c ****     
 148:ugui_SSD1963.c ****     // Initialize global structure and set PSET to this.PSET. 
 149:ugui_SSD1963.c ****     UG_Init(&gui1963, Display_PSet, DISPLAY_WIDTH, DISPLAY_HEIGHT); 
 578              		.loc 1 149 0
 579 0214 8823     		movs	r3, #136
 580 0216 F022     		movs	r2, #240
 581 0218 5B00     		lsls	r3, r3, #1
 582 021a 5200     		lsls	r2, r2, #1
 583 021c 0849     		ldr	r1, .L5
 584 021e 0948     		ldr	r0, .L5+4
 585 0220 FFF7FEFF 		bl	UG_Init
 586              	.LVL72:
 150:ugui_SSD1963.c ****     
 151:ugui_SSD1963.c ****     // Register acceleratos.
 152:ugui_SSD1963.c ****     UG_DriverRegister(DRIVER_FILL_FRAME, (void*)HW_FillFrame);
 587              		.loc 1 152 0
 588 0224 0849     		ldr	r1, .L5+8
 589 0226 0120     		movs	r0, #1
 590 0228 FFF7FEFF 		bl	UG_DriverRegister
 591              	.LVL73:
 153:ugui_SSD1963.c ****     UG_DriverRegister(DRIVER_DRAW_LINE, (void*)HW_DrawLine);
 592              		.loc 1 153 0
 593 022c 2000     		movs	r0, r4
 594 022e 0749     		ldr	r1, .L5+12
 595 0230 FFF7FEFF 		bl	UG_DriverRegister
 596              	.LVL74:
 154:ugui_SSD1963.c ****     UG_DriverRegister(DRIVER_DRAW_IMAGE, (void*)HW_DrawImage);
 597              		.loc 1 154 0
 598 0234 0649     		ldr	r1, .L5+16
 599 0236 0320     		movs	r0, #3
 600 0238 FFF7FEFF 		bl	UG_DriverRegister
 601              	.LVL75:
 155:ugui_SSD1963.c ****     
 156:ugui_SSD1963.c **** }
 602              		.loc 1 156 0
 603              		@ sp needed
 604 023c 10BD     		pop	{r4, pc}
 605              	.L6:
 606 023e C046     		.align	2
 607              	.L5:
 608 0240 00000000 		.word	Display_PSet
 609 0244 00000000 		.word	gui1963
 610 0248 00000000 		.word	HW_FillFrame
 611 024c 00000000 		.word	HW_DrawLine
 612 0250 00000000 		.word	HW_DrawImage
ARM GAS  C:\Users\RYANCA~1\AppData\Local\Temp\ccPslA7g.s 			page 15


 613              		.cfi_endproc
 614              	.LFE38:
 615              		.size	Display_Init, .-Display_Init
 616              		.section	.text.Display_WindowSet,"ax",%progbits
 617              		.align	1
 618              		.global	Display_WindowSet
 619              		.code	16
 620              		.thumb_func
 621              		.type	Display_WindowSet, %function
 622              	Display_WindowSet:
 623              	.LFB39:
 157:ugui_SSD1963.c **** 
 158:ugui_SSD1963.c **** void Display_WindowSet(unsigned int s_x,unsigned int e_x,unsigned int s_y,unsigned int e_y)
 159:ugui_SSD1963.c **** {
 624              		.loc 1 159 0
 625              		.cfi_startproc
 626              		@ args = 0, pretend = 0, frame = 8
 627              		@ frame_needed = 0, uses_anonymous_args = 0
 628              	.LVL76:
 629 0000 73B5     		push	{r0, r1, r4, r5, r6, lr}
 630              		.cfi_def_cfa_offset 24
 631              		.cfi_offset 0, -24
 632              		.cfi_offset 1, -20
 633              		.cfi_offset 4, -16
 634              		.cfi_offset 5, -12
 635              		.cfi_offset 6, -8
 636              		.cfi_offset 14, -4
 637              		.loc 1 159 0
 638 0002 1600     		movs	r6, r2
 639 0004 1D00     		movs	r5, r3
 160:ugui_SSD1963.c ****     uint8_t data[4];
 161:ugui_SSD1963.c ****     
 162:ugui_SSD1963.c ****     data[0] = ((s_x)>>8);                   //SET start column address
 640              		.loc 1 162 0
 641 0006 01AC     		add	r4, sp, #4
 642 0008 030A     		lsrs	r3, r0, #8
 643              	.LVL77:
 644 000a 2370     		strb	r3, [r4]
 163:ugui_SSD1963.c ****     data[1] = (s_x);
 645              		.loc 1 163 0
 646 000c 6070     		strb	r0, [r4, #1]
 164:ugui_SSD1963.c ****     data[2] = ((e_x)>>8);			        //SET end column address
 647              		.loc 1 164 0
 648 000e 0B0A     		lsrs	r3, r1, #8
 165:ugui_SSD1963.c ****     data[3] = (e_x);
 649              		.loc 1 165 0
 650 0010 E170     		strb	r1, [r4, #3]
 651              	.LVL78:
 652              	.LBB256:
 653              	.LBB257:
  37:ugui_SSD1963.c **** }
 654              		.loc 1 37 0
 655 0012 0020     		movs	r0, #0
 656              	.LVL79:
 657 0014 2A21     		movs	r1, #42
 658              	.LVL80:
 659              	.LBE257:
ARM GAS  C:\Users\RYANCA~1\AppData\Local\Temp\ccPslA7g.s 			page 16


 660              	.LBE256:
 164:ugui_SSD1963.c ****     data[2] = ((e_x)>>8);			        //SET end column address
 661              		.loc 1 164 0
 662 0016 A370     		strb	r3, [r4, #2]
 663              	.LBB259:
 664              	.LBB258:
  37:ugui_SSD1963.c **** }
 665              		.loc 1 37 0
 666 0018 FFF7FEFF 		bl	GraphicLCDIntf_Write8
 667              	.LVL81:
 668              	.LBE258:
 669              	.LBE259:
 670              	.LBB260:
 671              	.LBB261:
  47:ugui_SSD1963.c **** }
 672              		.loc 1 47 0
 673 001c 0422     		movs	r2, #4
 674 001e 2100     		movs	r1, r4
 675 0020 0120     		movs	r0, #1
 676 0022 FFF7FEFF 		bl	GraphicLCDIntf_WriteM8
 677              	.LVL82:
 678              	.LBE261:
 679              	.LBE260:
 166:ugui_SSD1963.c **** 	Display_WriteCommand(0x2a);		        //SET column address
 167:ugui_SSD1963.c ****     Display_WriteMultiData(data, 4);
 168:ugui_SSD1963.c **** 
 169:ugui_SSD1963.c **** 	
 170:ugui_SSD1963.c ****     data[0] = ((s_y)>>8);                   //SET start row address
 680              		.loc 1 170 0
 681 0026 330A     		lsrs	r3, r6, #8
 682 0028 2370     		strb	r3, [r4]
 683              	.LBB262:
 684              	.LBB263:
  37:ugui_SSD1963.c **** }
 685              		.loc 1 37 0
 686 002a 2B21     		movs	r1, #43
 687              	.LBE263:
 688              	.LBE262:
 171:ugui_SSD1963.c ****     data[1] = (s_y);
 172:ugui_SSD1963.c ****     data[2] = ((e_y)>>8);			        //SET end row address
 689              		.loc 1 172 0
 690 002c 2B0A     		lsrs	r3, r5, #8
 691              	.LBB266:
 692              	.LBB264:
  37:ugui_SSD1963.c **** }
 693              		.loc 1 37 0
 694 002e 0020     		movs	r0, #0
 695              	.LBE264:
 696              	.LBE266:
 171:ugui_SSD1963.c ****     data[1] = (s_y);
 697              		.loc 1 171 0
 698 0030 6670     		strb	r6, [r4, #1]
 699              		.loc 1 172 0
 700 0032 A370     		strb	r3, [r4, #2]
 173:ugui_SSD1963.c ****     data[3] = (e_y);
 701              		.loc 1 173 0
 702 0034 E570     		strb	r5, [r4, #3]
ARM GAS  C:\Users\RYANCA~1\AppData\Local\Temp\ccPslA7g.s 			page 17


 703              	.LVL83:
 704              	.LBB267:
 705              	.LBB265:
  37:ugui_SSD1963.c **** }
 706              		.loc 1 37 0
 707 0036 FFF7FEFF 		bl	GraphicLCDIntf_Write8
 708              	.LVL84:
 709              	.LBE265:
 710              	.LBE267:
 711              	.LBB268:
 712              	.LBB269:
  47:ugui_SSD1963.c **** }
 713              		.loc 1 47 0
 714 003a 0422     		movs	r2, #4
 715 003c 2100     		movs	r1, r4
 716 003e 0120     		movs	r0, #1
 717 0040 FFF7FEFF 		bl	GraphicLCDIntf_WriteM8
 718              	.LVL85:
 719              	.LBE269:
 720              	.LBE268:
 174:ugui_SSD1963.c **** 	Display_WriteCommand(0x2b);		        //SET row address
 175:ugui_SSD1963.c ****     Display_WriteMultiData(data, 4);
 176:ugui_SSD1963.c **** }
 721              		.loc 1 176 0
 722              		@ sp needed
 723              	.LVL86:
 724              	.LVL87:
 725 0044 73BD     		pop	{r0, r1, r4, r5, r6, pc}
 726              		.cfi_endproc
 727              	.LFE39:
 728              		.size	Display_WindowSet, .-Display_WindowSet
 729              		.section	.text.Display_PSet,"ax",%progbits
 730              		.align	1
 731              		.global	Display_PSet
 732              		.code	16
 733              		.thumb_func
 734              		.type	Display_PSet, %function
 735              	Display_PSet:
 736              	.LFB40:
 177:ugui_SSD1963.c **** 
 178:ugui_SSD1963.c **** void Display_PSet(UG_S16 x, UG_S16 y, UG_COLOR c)
 179:ugui_SSD1963.c **** {    
 737              		.loc 1 179 0
 738              		.cfi_startproc
 739              		@ args = 0, pretend = 0, frame = 8
 740              		@ frame_needed = 0, uses_anonymous_args = 0
 741              	.LVL88:
 742 0000 37B5     		push	{r0, r1, r2, r4, r5, lr}
 743              		.cfi_def_cfa_offset 24
 744              		.cfi_offset 0, -24
 745              		.cfi_offset 1, -20
 746              		.cfi_offset 2, -16
 747              		.cfi_offset 4, -12
 748              		.cfi_offset 5, -8
 749              		.cfi_offset 14, -4
 180:ugui_SSD1963.c ****     uint8_t data[3];
 181:ugui_SSD1963.c ****     
ARM GAS  C:\Users\RYANCA~1\AppData\Local\Temp\ccPslA7g.s 			page 18


 182:ugui_SSD1963.c ****     data[0] = (c >> 16);
 750              		.loc 1 182 0
 751 0002 130C     		lsrs	r3, r2, #16
 752 0004 01AC     		add	r4, sp, #4
 753 0006 2370     		strb	r3, [r4]
 183:ugui_SSD1963.c ****     data[1] = (c >> 8);
 754              		.loc 1 183 0
 755 0008 130A     		lsrs	r3, r2, #8
 756 000a 6370     		strb	r3, [r4, #1]
 184:ugui_SSD1963.c ****     data[2] = (c);
 185:ugui_SSD1963.c ****     
 186:ugui_SSD1963.c ****     if((x < 0) ||(x >= DISPLAY_WIDTH) || (y < 0) || (y >= DISPLAY_HEIGHT)) return;
 757              		.loc 1 186 0
 758 000c E023     		movs	r3, #224
 184:ugui_SSD1963.c ****     data[2] = (c);
 759              		.loc 1 184 0
 760 000e A270     		strb	r2, [r4, #2]
 761              		.loc 1 186 0
 762 0010 FF33     		adds	r3, r3, #255
 763 0012 82B2     		uxth	r2, r0
 764              	.LVL89:
 765 0014 9A42     		cmp	r2, r3
 766 0016 13D8     		bhi	.L8
 767              		.loc 1 186 0 is_stmt 0 discriminator 2
 768 0018 1023     		movs	r3, #16
 769 001a 8AB2     		uxth	r2, r1
 770 001c FF33     		adds	r3, r3, #255
 771 001e 9A42     		cmp	r2, r3
 772 0020 0ED8     		bhi	.L8
 187:ugui_SSD1963.c ****  
 188:ugui_SSD1963.c ****     Display_WindowSet(x, x + 1, y, y + 1);    
 773              		.loc 1 188 0 is_stmt 1
 774 0022 451C     		adds	r5, r0, #1
 775 0024 0A00     		movs	r2, r1
 776 0026 4B1C     		adds	r3, r1, #1
 777 0028 2900     		movs	r1, r5
 778              	.LVL90:
 779 002a FFF7FEFF 		bl	Display_WindowSet
 780              	.LVL91:
 781              	.LBB270:
 782              	.LBB271:
  37:ugui_SSD1963.c **** }
 783              		.loc 1 37 0
 784 002e 2C21     		movs	r1, #44
 785 0030 0020     		movs	r0, #0
 786 0032 FFF7FEFF 		bl	GraphicLCDIntf_Write8
 787              	.LVL92:
 788              	.LBE271:
 789              	.LBE270:
 790              	.LBB272:
 791              	.LBB273:
  47:ugui_SSD1963.c **** }
 792              		.loc 1 47 0
 793 0036 0322     		movs	r2, #3
 794 0038 2100     		movs	r1, r4
 795 003a 0120     		movs	r0, #1
 796 003c FFF7FEFF 		bl	GraphicLCDIntf_WriteM8
ARM GAS  C:\Users\RYANCA~1\AppData\Local\Temp\ccPslA7g.s 			page 19


 797              	.LVL93:
 798              	.L8:
 799              	.LBE273:
 800              	.LBE272:
 189:ugui_SSD1963.c ****     Display_WriteCommand(0x2c);
 190:ugui_SSD1963.c ****     Display_WriteMultiData(data, 3);
 191:ugui_SSD1963.c **** 
 192:ugui_SSD1963.c **** }
 801              		.loc 1 192 0
 802              		@ sp needed
 803 0040 37BD     		pop	{r0, r1, r2, r4, r5, pc}
 804              		.cfi_endproc
 805              	.LFE40:
 806              		.size	Display_PSet, .-Display_PSet
 807              		.section	.text.HW_FillFrame,"ax",%progbits
 808              		.align	1
 809              		.global	HW_FillFrame
 810              		.code	16
 811              		.thumb_func
 812              		.type	HW_FillFrame, %function
 813              	HW_FillFrame:
 814              	.LFB41:
 193:ugui_SSD1963.c **** 
 194:ugui_SSD1963.c **** UG_RESULT HW_FillFrame(UG_S16 x1, UG_S16 y1, UG_S16 x2, UG_S16 y2, UG_COLOR c)
 195:ugui_SSD1963.c **** {
 815              		.loc 1 195 0
 816              		.cfi_startproc
 817              		@ args = 4, pretend = 0, frame = 16
 818              		@ frame_needed = 0, uses_anonymous_args = 0
 819              	.LVL94:
 820 0000 F0B5     		push	{r4, r5, r6, r7, lr}
 821              		.cfi_def_cfa_offset 20
 822              		.cfi_offset 4, -20
 823              		.cfi_offset 5, -16
 824              		.cfi_offset 6, -12
 825              		.cfi_offset 7, -8
 826              		.cfi_offset 14, -4
 827 0002 85B0     		sub	sp, sp, #20
 828              		.cfi_def_cfa_offset 40
 829              		.loc 1 195 0
 830 0004 1F00     		movs	r7, r3
 831 0006 0A9B     		ldr	r3, [sp, #40]
 832              	.LVL95:
 196:ugui_SSD1963.c ****     uint16 loopx, loopy;
 197:ugui_SSD1963.c ****     uint8_t data[3];
 198:ugui_SSD1963.c ****     
 199:ugui_SSD1963.c ****     data[0] = (c >> 16);
 833              		.loc 1 199 0
 834 0008 03AD     		add	r5, sp, #12
 195:ugui_SSD1963.c ****     uint16 loopx, loopy;
 835              		.loc 1 195 0
 836 000a 0092     		str	r2, [sp]
 837              		.loc 1 199 0
 838 000c 1A0C     		lsrs	r2, r3, #16
 839              	.LVL96:
 840 000e 2A70     		strb	r2, [r5]
 200:ugui_SSD1963.c ****     data[1] = (c >> 8);
ARM GAS  C:\Users\RYANCA~1\AppData\Local\Temp\ccPslA7g.s 			page 20


 841              		.loc 1 200 0
 842 0010 1A0A     		lsrs	r2, r3, #8
 843 0012 6A70     		strb	r2, [r5, #1]
 201:ugui_SSD1963.c ****     data[2] = (c);
 202:ugui_SSD1963.c ****     
 203:ugui_SSD1963.c ****     if((x1 < 0) ||(x1 >= DISPLAY_WIDTH) || (y1 < 0) || (y1 >= DISPLAY_HEIGHT)) return UG_RESULT_FAI
 844              		.loc 1 203 0
 845 0014 E022     		movs	r2, #224
 846 0016 86B2     		uxth	r6, r0
 847 0018 FF32     		adds	r2, r2, #255
 201:ugui_SSD1963.c ****     data[2] = (c);
 848              		.loc 1 201 0
 849 001a AB70     		strb	r3, [r5, #2]
 850              		.loc 1 203 0
 851 001c 9642     		cmp	r6, r2
 852 001e 27D8     		bhi	.L19
 853              		.loc 1 203 0 is_stmt 0 discriminator 4
 854 0020 8BB2     		uxth	r3, r1
 855 0022 0193     		str	r3, [sp, #4]
 856 0024 1023     		movs	r3, #16
 857 0026 8CB2     		uxth	r4, r1
 858 0028 FF33     		adds	r3, r3, #255
 859 002a 9C42     		cmp	r4, r3
 860 002c 20D8     		bhi	.L19
 204:ugui_SSD1963.c ****     if((x2 < 0) ||(x2 >= DISPLAY_WIDTH) || (y2 < 0) || (y2 >= DISPLAY_HEIGHT)) return UG_RESULT_FAI
 861              		.loc 1 204 0 is_stmt 1
 862 002e 6C46     		mov	r4, sp
 863 0030 2488     		ldrh	r4, [r4]
 864 0032 9442     		cmp	r4, r2
 865 0034 1CD8     		bhi	.L19
 866              		.loc 1 204 0 is_stmt 0 discriminator 4
 867 0036 BAB2     		uxth	r2, r7
 868 0038 9A42     		cmp	r2, r3
 869 003a 19D8     		bhi	.L19
 205:ugui_SSD1963.c **** 
 206:ugui_SSD1963.c ****     Display_WindowSet(x1,x2,y1,y2);
 870              		.loc 1 206 0 is_stmt 1
 871 003c 0A00     		movs	r2, r1
 872 003e 3B00     		movs	r3, r7
 873 0040 0099     		ldr	r1, [sp]
 874              	.LVL97:
 875 0042 FFF7FEFF 		bl	Display_WindowSet
 876              	.LVL98:
 877              	.LBB274:
 878              	.LBB275:
  37:ugui_SSD1963.c **** }
 879              		.loc 1 37 0
 880 0046 2C21     		movs	r1, #44
 881 0048 0020     		movs	r0, #0
 882 004a FFF7FEFF 		bl	GraphicLCDIntf_Write8
 883              	.LVL99:
 884              	.L13:
 885              	.LBE275:
 886              	.LBE274:
 207:ugui_SSD1963.c **** 
 208:ugui_SSD1963.c ****     Display_WriteCommand(0x2c);            
 209:ugui_SSD1963.c ****     for (loopx = x1; loopx < x2 + 1; loopx++)
ARM GAS  C:\Users\RYANCA~1\AppData\Local\Temp\ccPslA7g.s 			page 21


 887              		.loc 1 209 0 discriminator 1
 888 004e 009B     		ldr	r3, [sp]
 889 0050 B342     		cmp	r3, r6
 890 0052 10DB     		blt	.L20
 891 0054 019C     		ldr	r4, [sp, #4]
 892              	.L15:
 893              	.LVL100:
 210:ugui_SSD1963.c ****     {
 211:ugui_SSD1963.c ****         for (loopy = y1; loopy < y2 + 1; loopy++)
 894              		.loc 1 211 0 discriminator 1
 895 0056 A742     		cmp	r7, r4
 896 0058 07DB     		blt	.L21
 897              	.LVL101:
 898              	.LBB276:
 899              	.LBB277:
  47:ugui_SSD1963.c **** }
 900              		.loc 1 47 0
 901 005a 0322     		movs	r2, #3
 902 005c 2900     		movs	r1, r5
 903 005e 0120     		movs	r0, #1
 904              	.LBE277:
 905              	.LBE276:
 906              		.loc 1 211 0
 907 0060 0134     		adds	r4, r4, #1
 908              	.LVL102:
 909              	.LBB279:
 910              	.LBB278:
  47:ugui_SSD1963.c **** }
 911              		.loc 1 47 0
 912 0062 FFF7FEFF 		bl	GraphicLCDIntf_WriteM8
 913              	.LVL103:
 914              	.LBE278:
 915              	.LBE279:
 916              		.loc 1 211 0
 917 0066 A4B2     		uxth	r4, r4
 918              	.LVL104:
 919 0068 F5E7     		b	.L15
 920              	.L21:
 209:ugui_SSD1963.c ****     {
 921              		.loc 1 209 0 discriminator 2
 922 006a 731C     		adds	r3, r6, #1
 923 006c 9EB2     		uxth	r6, r3
 924              	.LVL105:
 925 006e EEE7     		b	.L13
 926              	.LVL106:
 927              	.L19:
 203:ugui_SSD1963.c ****     if((x2 < 0) ||(x2 >= DISPLAY_WIDTH) || (y2 < 0) || (y2 >= DISPLAY_HEIGHT)) return UG_RESULT_FAI
 928              		.loc 1 203 0
 929 0070 0120     		movs	r0, #1
 930              	.LVL107:
 931 0072 4042     		rsbs	r0, r0, #0
 932 0074 00E0     		b	.L12
 933              	.LVL108:
 934              	.L20:
 212:ugui_SSD1963.c ****         {
 213:ugui_SSD1963.c ****             Display_WriteMultiData(data, 3);
 214:ugui_SSD1963.c ****         }
ARM GAS  C:\Users\RYANCA~1\AppData\Local\Temp\ccPslA7g.s 			page 22


 215:ugui_SSD1963.c ****     } 
 216:ugui_SSD1963.c ****     
 217:ugui_SSD1963.c ****     return UG_RESULT_OK;
 935              		.loc 1 217 0
 936 0076 0020     		movs	r0, #0
 937              	.LVL109:
 938              	.L12:
 218:ugui_SSD1963.c **** }
 939              		.loc 1 218 0
 940 0078 05B0     		add	sp, sp, #20
 941              		@ sp needed
 942 007a F0BD     		pop	{r4, r5, r6, r7, pc}
 943              		.cfi_endproc
 944              	.LFE41:
 945              		.size	HW_FillFrame, .-HW_FillFrame
 946              		.section	.text.HW_DrawLine,"ax",%progbits
 947              		.align	1
 948              		.global	HW_DrawLine
 949              		.code	16
 950              		.thumb_func
 951              		.type	HW_DrawLine, %function
 952              	HW_DrawLine:
 953              	.LFB42:
 219:ugui_SSD1963.c **** 
 220:ugui_SSD1963.c **** UG_RESULT HW_DrawLine( UG_S16 x1 , UG_S16 y1 , UG_S16 x2 , UG_S16 y2 , UG_COLOR c )
 221:ugui_SSD1963.c **** {
 954              		.loc 1 221 0
 955              		.cfi_startproc
 956              		@ args = 4, pretend = 0, frame = 0
 957              		@ frame_needed = 0, uses_anonymous_args = 0
 958              	.LVL110:
 959 0000 73B5     		push	{r0, r1, r4, r5, r6, lr}
 960              		.cfi_def_cfa_offset 24
 961              		.cfi_offset 0, -24
 962              		.cfi_offset 1, -20
 963              		.cfi_offset 4, -16
 964              		.cfi_offset 5, -12
 965              		.cfi_offset 6, -8
 966              		.cfi_offset 14, -4
 222:ugui_SSD1963.c ****     if((x1 < 0) ||(x1 >= DISPLAY_WIDTH) || (y1 < 0) || (y1 >= DISPLAY_HEIGHT)) return UG_RESULT_FAI
 967              		.loc 1 222 0
 968 0002 E025     		movs	r5, #224
 969 0004 84B2     		uxth	r4, r0
 970 0006 FF35     		adds	r5, r5, #255
 971 0008 AC42     		cmp	r4, r5
 972 000a 14D8     		bhi	.L29
 973              		.loc 1 222 0 is_stmt 0 discriminator 4
 974 000c 1024     		movs	r4, #16
 975 000e 8EB2     		uxth	r6, r1
 976 0010 FF34     		adds	r4, r4, #255
 977 0012 A642     		cmp	r6, r4
 978 0014 0FD8     		bhi	.L29
 223:ugui_SSD1963.c ****     if((x2 < 0) ||(x2 >= DISPLAY_WIDTH) || (y2 < 0) || (y2 >= DISPLAY_HEIGHT)) return UG_RESULT_FAI
 979              		.loc 1 223 0 is_stmt 1
 980 0016 96B2     		uxth	r6, r2
 981 0018 AE42     		cmp	r6, r5
 982 001a 0CD8     		bhi	.L29
ARM GAS  C:\Users\RYANCA~1\AppData\Local\Temp\ccPslA7g.s 			page 23


 983              		.loc 1 223 0 is_stmt 0 discriminator 4
 984 001c 9DB2     		uxth	r5, r3
 985 001e A542     		cmp	r5, r4
 986 0020 09D8     		bhi	.L29
 224:ugui_SSD1963.c ****     
 225:ugui_SSD1963.c ****     // If it is a vertical or a horizontal line, draw it.
 226:ugui_SSD1963.c ****     // If not, then use original drawline routine.
 227:ugui_SSD1963.c ****     if ((x1 == x2) || (y1 == y2)) 
 987              		.loc 1 227 0 is_stmt 1
 988 0022 9042     		cmp	r0, r2
 989 0024 01D0     		beq	.L24
 990              		.loc 1 227 0 is_stmt 0 discriminator 1
 991 0026 9942     		cmp	r1, r3
 992 0028 05D1     		bne	.L29
 993              	.L24:
 228:ugui_SSD1963.c ****     {
 229:ugui_SSD1963.c ****         HW_FillFrame(x1, y1, x2, y2, c);
 994              		.loc 1 229 0 is_stmt 1
 995 002a 069C     		ldr	r4, [sp, #24]
 996 002c 0094     		str	r4, [sp]
 997 002e FFF7FEFF 		bl	HW_FillFrame
 998              	.LVL111:
 230:ugui_SSD1963.c ****         return UG_RESULT_OK;
 999              		.loc 1 230 0
 1000 0032 0020     		movs	r0, #0
 1001 0034 01E0     		b	.L23
 1002              	.LVL112:
 1003              	.L29:
 222:ugui_SSD1963.c ****     if((x2 < 0) ||(x2 >= DISPLAY_WIDTH) || (y2 < 0) || (y2 >= DISPLAY_HEIGHT)) return UG_RESULT_FAI
 1004              		.loc 1 222 0
 1005 0036 0120     		movs	r0, #1
 1006              	.LVL113:
 1007 0038 4042     		rsbs	r0, r0, #0
 1008              	.LVL114:
 1009              	.L23:
 231:ugui_SSD1963.c ****     }
 232:ugui_SSD1963.c ****     
 233:ugui_SSD1963.c ****     return UG_RESULT_FAIL;
 234:ugui_SSD1963.c **** }
 1010              		.loc 1 234 0
 1011              		@ sp needed
 1012 003a 76BD     		pop	{r1, r2, r4, r5, r6, pc}
 1013              		.cfi_endproc
 1014              	.LFE42:
 1015              		.size	HW_DrawLine, .-HW_DrawLine
 1016              		.section	.text.HW_DrawImage,"ax",%progbits
 1017              		.align	1
 1018              		.global	HW_DrawImage
 1019              		.code	16
 1020              		.thumb_func
 1021              		.type	HW_DrawImage, %function
 1022              	HW_DrawImage:
 1023              	.LFB43:
 235:ugui_SSD1963.c **** 
 236:ugui_SSD1963.c **** UG_RESULT HW_DrawImage(UG_S16 x1, UG_S16 y1, UG_S16 x2, UG_S16 y2, uint8_t *image, uint16_t pSize)
 237:ugui_SSD1963.c **** {
 1024              		.loc 1 237 0
ARM GAS  C:\Users\RYANCA~1\AppData\Local\Temp\ccPslA7g.s 			page 24


 1025              		.cfi_startproc
 1026              		@ args = 8, pretend = 0, frame = 0
 1027              		@ frame_needed = 0, uses_anonymous_args = 0
 1028              	.LVL115:
 1029 0000 F8B5     		push	{r3, r4, r5, r6, r7, lr}
 1030              		.cfi_def_cfa_offset 24
 1031              		.cfi_offset 3, -24
 1032              		.cfi_offset 4, -20
 1033              		.cfi_offset 5, -16
 1034              		.cfi_offset 6, -12
 1035              		.cfi_offset 7, -8
 1036              		.cfi_offset 14, -4
 238:ugui_SSD1963.c ****         
 239:ugui_SSD1963.c ****     if((x1 < 0) ||(x1 >= DISPLAY_WIDTH) || (y1 < 0) || (y1 >= DISPLAY_HEIGHT)) return UG_RESULT_FAI
 1037              		.loc 1 239 0
 1038 0002 E027     		movs	r7, #224
 237:ugui_SSD1963.c ****         
 1039              		.loc 1 237 0
 1040 0004 0E00     		movs	r6, r1
 1041 0006 1100     		movs	r1, r2
 1042              	.LVL116:
 1043 0008 06AA     		add	r2, sp, #24
 1044              	.LVL117:
 1045 000a 10CA     		ldmia	r2!, {r4}
 1046              	.LVL118:
 1047              		.loc 1 239 0
 1048 000c FF37     		adds	r7, r7, #255
 237:ugui_SSD1963.c ****         
 1049              		.loc 1 237 0
 1050 000e 1588     		ldrh	r5, [r2]
 1051              		.loc 1 239 0
 1052 0010 82B2     		uxth	r2, r0
 1053              	.LVL119:
 1054 0012 BA42     		cmp	r2, r7
 1055 0014 1DD8     		bhi	.L35
 1056              		.loc 1 239 0 is_stmt 0 discriminator 4
 1057 0016 B2B2     		uxth	r2, r6
 1058 0018 9446     		mov	ip, r2
 1059 001a 1022     		movs	r2, #16
 1060 001c FF32     		adds	r2, r2, #255
 1061 001e 9445     		cmp	ip, r2
 1062 0020 17D8     		bhi	.L35
 240:ugui_SSD1963.c ****     if((x2 < 0) ||(x2 >= DISPLAY_WIDTH) || (y2 < 0) || (y2 >= DISPLAY_HEIGHT)) return UG_RESULT_FAI
 1063              		.loc 1 240 0 is_stmt 1
 1064 0022 8AB2     		uxth	r2, r1
 1065 0024 BA42     		cmp	r2, r7
 1066 0026 14D8     		bhi	.L35
 1067              		.loc 1 240 0 is_stmt 0 discriminator 4
 1068 0028 1022     		movs	r2, #16
 1069 002a 9FB2     		uxth	r7, r3
 1070 002c FF32     		adds	r2, r2, #255
 1071 002e 9742     		cmp	r7, r2
 1072 0030 0FD8     		bhi	.L35
 241:ugui_SSD1963.c **** 
 242:ugui_SSD1963.c ****     Display_WindowSet(x1,x2,y1,y2);
 1073              		.loc 1 242 0 is_stmt 1
 1074 0032 3200     		movs	r2, r6
ARM GAS  C:\Users\RYANCA~1\AppData\Local\Temp\ccPslA7g.s 			page 25


 1075 0034 FFF7FEFF 		bl	Display_WindowSet
 1076              	.LVL120:
 1077              	.LBB280:
 1078              	.LBB281:
  37:ugui_SSD1963.c **** }
 1079              		.loc 1 37 0
 1080 0038 2C21     		movs	r1, #44
 1081 003a 0020     		movs	r0, #0
 1082 003c FFF7FEFF 		bl	GraphicLCDIntf_Write8
 1083              	.LVL121:
 1084              	.LBE281:
 1085              	.LBE280:
 1086              	.LBB282:
 1087              	.LBB283:
  47:ugui_SSD1963.c **** }
 1088              		.loc 1 47 0
 1089 0040 0322     		movs	r2, #3
 1090 0042 6A43     		muls	r2, r5
 1091 0044 0120     		movs	r0, #1
 1092 0046 92B2     		uxth	r2, r2
 1093 0048 2100     		movs	r1, r4
 1094 004a FFF7FEFF 		bl	GraphicLCDIntf_WriteM8
 1095              	.LVL122:
 1096              	.LBE283:
 1097              	.LBE282:
 243:ugui_SSD1963.c **** 
 244:ugui_SSD1963.c ****     Display_WriteCommand(0x2c);            
 245:ugui_SSD1963.c ****     Display_WriteMultiData(image, pSize*3);
 246:ugui_SSD1963.c ****     
 247:ugui_SSD1963.c ****     return UG_RESULT_OK;
 1098              		.loc 1 247 0
 1099 004e 0020     		movs	r0, #0
 1100 0050 01E0     		b	.L31
 1101              	.LVL123:
 1102              	.L35:
 239:ugui_SSD1963.c ****     if((x2 < 0) ||(x2 >= DISPLAY_WIDTH) || (y2 < 0) || (y2 >= DISPLAY_HEIGHT)) return UG_RESULT_FAI
 1103              		.loc 1 239 0
 1104 0052 0120     		movs	r0, #1
 1105              	.LVL124:
 1106 0054 4042     		rsbs	r0, r0, #0
 1107              	.LVL125:
 1108              	.L31:
 248:ugui_SSD1963.c **** }
 1109              		.loc 1 248 0
 1110              		@ sp needed
 1111 0056 F8BD     		pop	{r3, r4, r5, r6, r7, pc}
 1112              		.cfi_endproc
 1113              	.LFE43:
 1114              		.size	HW_DrawImage, .-HW_DrawImage
 1115              		.comm	gui1963,120,4
 1116              		.text
 1117              	.Letext0:
 1118              		.file 2 "c:\\program files (x86)\\cypress\\psoc creator\\4.4\\psoc creator\\import\\gnu\\arm\\5.4.
 1119              		.file 3 "c:\\program files (x86)\\cypress\\psoc creator\\4.4\\psoc creator\\import\\gnu\\arm\\5.4.
 1120              		.file 4 "Generated_Source\\PSoC4/cytypes.h"
 1121              		.file 5 "ugui_config.h"
 1122              		.file 6 "ugui.h"
ARM GAS  C:\Users\RYANCA~1\AppData\Local\Temp\ccPslA7g.s 			page 26


 1123              		.file 7 "Generated_Source\\PSoC4/GraphicLCDIntf.h"
 1124              		.file 8 "Generated_Source\\PSoC4/CyLib.h"
 1125              		.file 9 "Generated_Source\\PSoC4/D_RST.h"
 1126              		.file 10 "ugui_SSD1963.h"