ARM GAS  C:\Users\RYANCA~1\AppData\Local\Temp\cclc5Gbi.s 			page 1


   1              		.syntax unified
   2              		.cpu cortex-m3
   3              		.fpu softvfp
   4              		.eabi_attribute 20, 1
   5              		.eabi_attribute 21, 1
   6              		.eabi_attribute 23, 3
   7              		.eabi_attribute 24, 1
   8              		.eabi_attribute 25, 1
   9              		.eabi_attribute 26, 1
  10              		.eabi_attribute 30, 1
  11              		.eabi_attribute 34, 1
  12              		.eabi_attribute 18, 4
  13              		.thumb
  14              		.syntax unified
  15              		.file	"frucd_display.c"
  16              		.text
  17              	.Ltext0:
  18              		.cfi_sections	.debug_frame
  19              		.section	.text.calibrateScreen,"ax",%progbits
  20              		.align	2
  21              		.global	calibrateScreen
  22              		.thumb
  23              		.thumb_func
  24              		.type	calibrateScreen, %function
  25              	calibrateScreen:
  26              	.LFB64:
  27              		.file 1 "frucd_display.c"
   1:frucd_display.c **** /* ========================================
   2:frucd_display.c ****  *
   3:frucd_display.c ****  * APIs for updating FRUCD Dashboard display
   4:frucd_display.c ****  *
   5:frucd_display.c ****  * ========================================
   6:frucd_display.c **** */
   7:frucd_display.c **** #include "frucd_display.h"
   8:frucd_display.c **** 
   9:frucd_display.c **** // Just a test function that displays elements at the supposed corners of the screen
  10:frucd_display.c **** void calibrateScreen() {
  28              		.loc 1 10 0
  29              		.cfi_startproc
  30              		@ args = 0, pretend = 0, frame = 0
  31              		@ frame_needed = 0, uses_anonymous_args = 0
  32 0000 00B5     		push	{lr}
  33              		.cfi_def_cfa_offset 4
  34              		.cfi_offset 14, -4
  35 0002 83B0     		sub	sp, sp, #12
  36              		.cfi_def_cfa_offset 16
  11:frucd_display.c ****     UG_FillScreen(C_WHITE);
  37              		.loc 1 11 0
  38 0004 6FF07F40 		mvn	r0, #-16777216
  39 0008 FFF7FEFF 		bl	UG_FillScreen
  40              	.LVL0:
  12:frucd_display.c ****     //libTFT_FillRectangle(0, 0, 10, 10, RED);
  13:frucd_display.c ****     UG_FillFrame(0, 0, 10, 10, C_RED);
  41              		.loc 1 13 0
  42 000c 4FF47F03 		mov	r3, #16711680
  43 0010 0093     		str	r3, [sp]
  44 0012 0A23     		movs	r3, #10
ARM GAS  C:\Users\RYANCA~1\AppData\Local\Temp\cclc5Gbi.s 			page 2


  45 0014 1A46     		mov	r2, r3
  46 0016 0021     		movs	r1, #0
  47 0018 0846     		mov	r0, r1
  48 001a FFF7FEFF 		bl	UG_FillFrame
  49              	.LVL1:
  14:frucd_display.c ****     //libTFT_FillRectangle(0, 262, 10, 10, BLUE);
  15:frucd_display.c ****     UG_FillFrame(0, 262, 10, 272, C_BLUE);
  50              		.loc 1 15 0
  51 001e FF23     		movs	r3, #255
  52 0020 0093     		str	r3, [sp]
  53 0022 4FF48873 		mov	r3, #272
  54 0026 0A22     		movs	r2, #10
  55 0028 4FF48371 		mov	r1, #262
  56 002c 0020     		movs	r0, #0
  57 002e FFF7FEFF 		bl	UG_FillFrame
  58              	.LVL2:
  16:frucd_display.c ****     //libTFT_FillRectangle(470, 0, 10, 10, GREEN);
  17:frucd_display.c ****     UG_FillFrame(470, 0, 480, 10, C_GREEN);
  59              		.loc 1 17 0
  60 0032 4FF47F43 		mov	r3, #65280
  61 0036 0093     		str	r3, [sp]
  62 0038 0A23     		movs	r3, #10
  63 003a 4FF4F072 		mov	r2, #480
  64 003e 0021     		movs	r1, #0
  65 0040 4FF4EB70 		mov	r0, #470
  66 0044 FFF7FEFF 		bl	UG_FillFrame
  67              	.LVL3:
  18:frucd_display.c ****     //libTFT_FillRectangle(470, 262, 10, 10, YELLOW);
  19:frucd_display.c ****     UG_FillFrame(470, 262, 480, 272, C_YELLOW);
  68              		.loc 1 19 0
  69 0048 094B     		ldr	r3, .L3
  70 004a 0093     		str	r3, [sp]
  71 004c 4FF48873 		mov	r3, #272
  72 0050 4FF4F072 		mov	r2, #480
  73 0054 4FF48371 		mov	r1, #262
  74 0058 4FF4EB70 		mov	r0, #470
  75 005c FFF7FEFF 		bl	UG_FillFrame
  76              	.LVL4:
  20:frucd_display.c ****     CyDelay(300);
  77              		.loc 1 20 0
  78 0060 4FF49670 		mov	r0, #300
  79 0064 FFF7FEFF 		bl	CyDelay
  80              	.LVL5:
  21:frucd_display.c **** }
  81              		.loc 1 21 0
  82 0068 03B0     		add	sp, sp, #12
  83              		.cfi_def_cfa_offset 4
  84              		@ sp needed
  85 006a 5DF804FB 		ldr	pc, [sp], #4
  86              	.L4:
  87 006e 00BF     		.align	2
  88              	.L3:
  89 0070 00FFFF00 		.word	16776960
  90              		.cfi_endproc
  91              	.LFE64:
  92              		.size	calibrateScreen, .-calibrateScreen
  93              		.section	.text.debugTemplate,"ax",%progbits
ARM GAS  C:\Users\RYANCA~1\AppData\Local\Temp\cclc5Gbi.s 			page 3


  94              		.align	2
  95              		.global	debugTemplate
  96              		.thumb
  97              		.thumb_func
  98              		.type	debugTemplate, %function
  99              	debugTemplate:
 100              	.LFB65:
  22:frucd_display.c **** 
  23:frucd_display.c **** // Initializes dashboard layout/labels
  24:frucd_display.c **** /*
  25:frucd_display.c **** void initDashTemplate() {
  26:frucd_display.c ****     UG_FillScreen(C_BLACK);
  27:frucd_display.c ****     UG_PutString(68, 10, "PACK SOC");
  28:frucd_display.c ****     UG_PutString(297, 10, "MAX PACK T");
  29:frucd_display.c ****     UG_PutString(10, 195, "STATE:");
  30:frucd_display.c ****     UG_PutString(10, 240, "GLV V:");
  31:frucd_display.c ****     UG_PutString(339, 195, "MC T:");
  32:frucd_display.c ****     UG_PutString(300, 240, "MOTOR T:");
  33:frucd_display.c **** }
  34:frucd_display.c **** */
  35:frucd_display.c **** 
  36:frucd_display.c **** void debugTemplate(){
 101              		.loc 1 36 0
 102              		.cfi_startproc
 103              		@ args = 0, pretend = 0, frame = 0
 104              		@ frame_needed = 0, uses_anonymous_args = 0
 105 0000 08B5     		push	{r3, lr}
 106              		.cfi_def_cfa_offset 8
 107              		.cfi_offset 3, -8
 108              		.cfi_offset 14, -4
  37:frucd_display.c ****     UG_FillScreen(C_BLACK);
 109              		.loc 1 37 0
 110 0002 0020     		movs	r0, #0
 111 0004 FFF7FEFF 		bl	UG_FillScreen
 112              	.LVL6:
  38:frucd_display.c ****     UG_PutString(68, 10, "PACK SOC");
 113              		.loc 1 38 0
 114 0008 104A     		ldr	r2, .L7
 115 000a 0A21     		movs	r1, #10
 116 000c 4420     		movs	r0, #68
 117 000e FFF7FEFF 		bl	UG_PutString
 118              	.LVL7:
  39:frucd_display.c ****     UG_PutString(297, 10, "MAX PACK T");
 119              		.loc 1 39 0
 120 0012 0F4A     		ldr	r2, .L7+4
 121 0014 0A21     		movs	r1, #10
 122 0016 40F22910 		movw	r0, #297
 123 001a FFF7FEFF 		bl	UG_PutString
 124              	.LVL8:
  40:frucd_display.c ****     UG_PutString(10, 195, "STATE:");
 125              		.loc 1 40 0
 126 001e 0D4A     		ldr	r2, .L7+8
 127 0020 C321     		movs	r1, #195
 128 0022 0A20     		movs	r0, #10
 129 0024 FFF7FEFF 		bl	UG_PutString
 130              	.LVL9:
  41:frucd_display.c ****     UG_PutString(10, 240, "GLV V:");
ARM GAS  C:\Users\RYANCA~1\AppData\Local\Temp\cclc5Gbi.s 			page 4


 131              		.loc 1 41 0
 132 0028 0B4A     		ldr	r2, .L7+12
 133 002a F021     		movs	r1, #240
 134 002c 0A20     		movs	r0, #10
 135 002e FFF7FEFF 		bl	UG_PutString
 136              	.LVL10:
  42:frucd_display.c ****     UG_PutString(339, 195, "MC T:");
 137              		.loc 1 42 0
 138 0032 0A4A     		ldr	r2, .L7+16
 139 0034 C321     		movs	r1, #195
 140 0036 40F25310 		movw	r0, #339
 141 003a FFF7FEFF 		bl	UG_PutString
 142              	.LVL11:
  43:frucd_display.c ****     UG_PutString(300, 240, "MOTOR T:");
 143              		.loc 1 43 0
 144 003e 084A     		ldr	r2, .L7+20
 145 0040 F021     		movs	r1, #240
 146 0042 4FF49670 		mov	r0, #300
 147 0046 FFF7FEFF 		bl	UG_PutString
 148              	.LVL12:
 149 004a 08BD     		pop	{r3, pc}
 150              	.L8:
 151              		.align	2
 152              	.L7:
 153 004c 00000000 		.word	.LC0
 154 0050 0C000000 		.word	.LC1
 155 0054 18000000 		.word	.LC2
 156 0058 20000000 		.word	.LC3
 157 005c 28000000 		.word	.LC4
 158 0060 30000000 		.word	.LC5
 159              		.cfi_endproc
 160              	.LFE65:
 161              		.size	debugTemplate, .-debugTemplate
 162              		.section	.text.driveTemplate,"ax",%progbits
 163              		.align	2
 164              		.global	driveTemplate
 165              		.thumb
 166              		.thumb_func
 167              		.type	driveTemplate, %function
 168              	driveTemplate:
 169              	.LFB66:
  44:frucd_display.c ****     
  45:frucd_display.c ****     
  46:frucd_display.c ****     
  47:frucd_display.c **** }
  48:frucd_display.c **** void driveTemplate(){
 170              		.loc 1 48 0
 171              		.cfi_startproc
 172              		@ args = 0, pretend = 0, frame = 0
 173              		@ frame_needed = 0, uses_anonymous_args = 0
 174 0000 08B5     		push	{r3, lr}
 175              		.cfi_def_cfa_offset 8
 176              		.cfi_offset 3, -8
 177              		.cfi_offset 14, -4
  49:frucd_display.c ****     UG_FillScreen(C_BLACK);
 178              		.loc 1 49 0
 179 0002 0020     		movs	r0, #0
ARM GAS  C:\Users\RYANCA~1\AppData\Local\Temp\cclc5Gbi.s 			page 5


 180 0004 FFF7FEFF 		bl	UG_FillScreen
 181              	.LVL13:
  50:frucd_display.c ****     UG_PutString(68, 10, "PACK SOC");
 182              		.loc 1 50 0
 183 0008 084A     		ldr	r2, .L11
 184 000a 0A21     		movs	r1, #10
 185 000c 4420     		movs	r0, #68
 186 000e FFF7FEFF 		bl	UG_PutString
 187              	.LVL14:
  51:frucd_display.c ****     UG_PutString(297, 10, "MAX PACK T");
 188              		.loc 1 51 0
 189 0012 074A     		ldr	r2, .L11+4
 190 0014 0A21     		movs	r1, #10
 191 0016 40F22910 		movw	r0, #297
 192 001a FFF7FEFF 		bl	UG_PutString
 193              	.LVL15:
  52:frucd_display.c ****     UG_PutString(35, 225, "STATE:");
 194              		.loc 1 52 0
 195 001e 054A     		ldr	r2, .L11+8
 196 0020 E121     		movs	r1, #225
 197 0022 2320     		movs	r0, #35
 198 0024 FFF7FEFF 		bl	UG_PutString
 199              	.LVL16:
 200 0028 08BD     		pop	{r3, pc}
 201              	.L12:
 202 002a 00BF     		.align	2
 203              	.L11:
 204 002c 00000000 		.word	.LC0
 205 0030 0C000000 		.word	.LC1
 206 0034 18000000 		.word	.LC2
 207              		.cfi_endproc
 208              	.LFE66:
 209              		.size	driveTemplate, .-driveTemplate
 210              		.section	.text.disp_SOC,"ax",%progbits
 211              		.align	2
 212              		.global	disp_SOC
 213              		.thumb
 214              		.thumb_func
 215              		.type	disp_SOC, %function
 216              	disp_SOC:
 217              	.LFB67:
  53:frucd_display.c ****     
  54:frucd_display.c **** }
  55:frucd_display.c **** /*
  56:frucd_display.c ****  * BEGIN: functions to show data on dash
  57:frucd_display.c ****  * - handle variety of digit counts
  58:frucd_display.c ****  * - color decision logic is in here
  59:frucd_display.c ****  */
  60:frucd_display.c **** 
  61:frucd_display.c **** /*
  62:frucd_display.c **** void disp_SOC(uint8_t data) {
  63:frucd_display.c ****     UG_FontSelect(&FONT_32X53);
  64:frucd_display.c ****     UG_COLOR color;
  65:frucd_display.c ****     if (data == 100) {
  66:frucd_display.c ****         // handle 100% case
  67:frucd_display.c ****         color = C_GREEN;
  68:frucd_display.c ****         if (color != last_SOC_color) {
ARM GAS  C:\Users\RYANCA~1\AppData\Local\Temp\cclc5Gbi.s 			page 6


  69:frucd_display.c ****             // only draw rectangle if color changed
  70:frucd_display.c ****             UG_FillFrame(30, 35, 210, 170, color);
  71:frucd_display.c ****             last_SOC_color = color;
  72:frucd_display.c ****         }
  73:frucd_display.c ****         UG_PutColorString(55, 80, "100%", C_BLACK, C_GREEN);
  74:frucd_display.c ****     } else {
  75:frucd_display.c ****         // handle other cases
  76:frucd_display.c ****         char data_s[4];
  77:frucd_display.c ****         sprintf(data_s, "%d", data);
  78:frucd_display.c ****         if (data >= 10) {
  79:frucd_display.c ****             // handle 2 digit cases
  80:frucd_display.c ****             // choose color
  81:frucd_display.c ****             if (data > 75) {
  82:frucd_display.c ****                 color = C_GREEN;
  83:frucd_display.c ****             } else if (data > 50) {
  84:frucd_display.c ****                 color = C_YELLOW;
  85:frucd_display.c ****             } else if (data > 25) {
  86:frucd_display.c ****                 color = C_ORANGE;
  87:frucd_display.c ****             } else {
  88:frucd_display.c ****                 color = C_RED;
  89:frucd_display.c ****             }
  90:frucd_display.c ****             data_s[2] = '%';
  91:frucd_display.c ****             data_s[3] = '\0';
  92:frucd_display.c ****             if (color != last_SOC_color) {
  93:frucd_display.c ****                 // only draw rectangle if color changed
  94:frucd_display.c ****                 UG_FillFrame(30, 35, 210, 170, color);
  95:frucd_display.c ****                 last_SOC_color = color;
  96:frucd_display.c ****             }
  97:frucd_display.c ****             UG_PutColorString(70, 80, data_s, C_BLACK, color);
  98:frucd_display.c ****         } else {
  99:frucd_display.c ****             // handle 1 digit cases
 100:frucd_display.c ****             data_s[1] = '%';
 101:frucd_display.c ****             data_s[2] = '\0';
 102:frucd_display.c ****             color = C_RED;
 103:frucd_display.c ****             
 104:frucd_display.c ****             
 105:frucd_display.c ****             
 106:frucd_display.c ****             
 107:frucd_display.c ****             //why is this here?
 108:frucd_display.c ****             UG_FillFrame(30, 35, 210, 170, C_BLACK);
 109:frucd_display.c ****             
 110:frucd_display.c ****             
 111:frucd_display.c ****             
 112:frucd_display.c ****             
 113:frucd_display.c ****             
 114:frucd_display.c ****             
 115:frucd_display.c ****             
 116:frucd_display.c ****             UG_FillFrame(30, 35, 210, 170, color);
 117:frucd_display.c ****             UG_PutColorString(90, 80, data_s, C_BLACK, color);
 118:frucd_display.c ****         }   
 119:frucd_display.c ****     }
 120:frucd_display.c ****     UG_FontSelect(&FONT_12X16);
 121:frucd_display.c **** }
 122:frucd_display.c **** 
 123:frucd_display.c **** 
 124:frucd_display.c **** */
 125:frucd_display.c **** 
ARM GAS  C:\Users\RYANCA~1\AppData\Local\Temp\cclc5Gbi.s 			page 7


 126:frucd_display.c **** 
 127:frucd_display.c **** // size is big if 1, small if not
 128:frucd_display.c **** void disp_SOC(uint8_t data, uint8_t x1, uint8_t y1, uint8_t x2, uint8_t y2, uint8_t size) {
 218              		.loc 1 128 0
 219              		.cfi_startproc
 220              		@ args = 8, pretend = 0, frame = 8
 221              		@ frame_needed = 0, uses_anonymous_args = 0
 222              	.LVL17:
 223 0000 2DE9F04F 		push	{r4, r5, r6, r7, r8, r9, r10, fp, lr}
 224              		.cfi_def_cfa_offset 36
 225              		.cfi_offset 4, -36
 226              		.cfi_offset 5, -32
 227              		.cfi_offset 6, -28
 228              		.cfi_offset 7, -24
 229              		.cfi_offset 8, -20
 230              		.cfi_offset 9, -16
 231              		.cfi_offset 10, -12
 232              		.cfi_offset 11, -8
 233              		.cfi_offset 14, -4
 234 0004 85B0     		sub	sp, sp, #20
 235              		.cfi_def_cfa_offset 56
 236 0006 0546     		mov	r5, r0
 237 0008 0E46     		mov	r6, r1
 238 000a 1746     		mov	r7, r2
 239 000c 9846     		mov	r8, r3
 240 000e 9DF83890 		ldrb	r9, [sp, #56]	@ zero_extendqisi2
 241 0012 9DF83C30 		ldrb	r3, [sp, #60]	@ zero_extendqisi2
 242              	.LVL18:
 129:frucd_display.c ****     int stringSize;
 130:frucd_display.c ****     int xFont, yFont;
 131:frucd_display.c ****     int horizFontSize = 12 + 20*size;
 243              		.loc 1 131 0
 244 0016 03EB8302 		add	r2, r3, r3, lsl #2
 245              	.LVL19:
 246 001a 9400     		lsls	r4, r2, #2
 247 001c 0C34     		adds	r4, r4, #12
 248              	.LVL20:
 132:frucd_display.c ****     if (data >= 100) {
 249              		.loc 1 132 0
 250 001e 6328     		cmp	r0, #99
 251 0020 03D8     		bhi	.L23
 133:frucd_display.c ****         stringSize = 4;
 134:frucd_display.c ****     }else if (data >= 10){
 252              		.loc 1 134 0
 253 0022 0928     		cmp	r0, #9
 254 0024 03D9     		bls	.L24
 135:frucd_display.c ****         stringSize = 3;
 255              		.loc 1 135 0
 256 0026 0321     		movs	r1, #3
 257              	.LVL21:
 258 0028 02E0     		b	.L14
 259              	.LVL22:
 260              	.L23:
 133:frucd_display.c ****         stringSize = 4;
 261              		.loc 1 133 0
 262 002a 0421     		movs	r1, #4
 263              	.LVL23:
ARM GAS  C:\Users\RYANCA~1\AppData\Local\Temp\cclc5Gbi.s 			page 8


 264 002c 00E0     		b	.L14
 265              	.LVL24:
 266              	.L24:
 136:frucd_display.c ****     }else{
 137:frucd_display.c ****         stringSize = 2;
 267              		.loc 1 137 0
 268 002e 0221     		movs	r1, #2
 269              	.LVL25:
 270              	.L14:
 138:frucd_display.c ****     }
 139:frucd_display.c ****     
 140:frucd_display.c ****     xFont = (x1 + x2)/2 - ((horizFontSize*stringSize)/2);
 271              		.loc 1 140 0
 272 0030 06EB0802 		add	r2, r6, r8
 273 0034 04FB01F4 		mul	r4, r4, r1
 274              	.LVL26:
 275 0038 6410     		asrs	r4, r4, #1
 276 003a C4EB6204 		rsb	r4, r4, r2, asr #1
 277              	.LVL27:
 141:frucd_display.c ****     yFont = (y1 + y2)/2 - 5 - (size*17);    
 278              		.loc 1 141 0
 279 003e 07EB0902 		add	r2, r7, r9
 280 0042 5210     		asrs	r2, r2, #1
 281 0044 053A     		subs	r2, r2, #5
 282 0046 C3EB0371 		rsb	r1, r3, r3, lsl #28
 283              	.LVL28:
 284 004a C3EB0111 		rsb	r1, r3, r1, lsl #4
 285 004e 02EB010A 		add	r10, r2, r1
 286              	.LVL29:
 142:frucd_display.c ****     if(size == 1){
 287              		.loc 1 142 0
 288 0052 012B     		cmp	r3, #1
 289 0054 02D1     		bne	.L15
 143:frucd_display.c ****         UG_FontSelect(&FONT_32X53);
 290              		.loc 1 143 0
 291 0056 3F48     		ldr	r0, .L29
 292              	.LVL30:
 293 0058 FFF7FEFF 		bl	UG_FontSelect
 294              	.LVL31:
 295              	.L15:
 144:frucd_display.c ****        
 145:frucd_display.c ****     }
 146:frucd_display.c ****         
 147:frucd_display.c ****     UG_COLOR color;
 148:frucd_display.c ****     if (data == 100) {
 296              		.loc 1 148 0
 297 005c 642D     		cmp	r5, #100
 298 005e 1AD1     		bne	.L16
 299              	.LVL32:
 149:frucd_display.c ****         // handle 100% case
 150:frucd_display.c ****         color = C_GREEN;
 151:frucd_display.c ****         if (color != last_SOC_color) {
 300              		.loc 1 151 0
 301 0060 3D4B     		ldr	r3, .L29+4
 302 0062 1B68     		ldr	r3, [r3]
 303 0064 B3F57F4F 		cmp	r3, #65280
 304 0068 0AD0     		beq	.L17
ARM GAS  C:\Users\RYANCA~1\AppData\Local\Temp\cclc5Gbi.s 			page 9


 152:frucd_display.c ****             // only draw rectangle if color changed
 153:frucd_display.c ****             UG_FillFrame(x1, y1, x2, y2, color);
 305              		.loc 1 153 0
 306 006a 4FF47F45 		mov	r5, #65280
 307 006e 0095     		str	r5, [sp]
 308 0070 4B46     		mov	r3, r9
 309 0072 4246     		mov	r2, r8
 310 0074 3946     		mov	r1, r7
 311 0076 3046     		mov	r0, r6
 312 0078 FFF7FEFF 		bl	UG_FillFrame
 313              	.LVL33:
 154:frucd_display.c ****             last_SOC_color = color;
 314              		.loc 1 154 0
 315 007c 364B     		ldr	r3, .L29+4
 316 007e 1D60     		str	r5, [r3]
 317              	.L17:
 155:frucd_display.c ****         }
 156:frucd_display.c ****         
 157:frucd_display.c ****         UG_PutColorString(xFont, yFont, "100%", C_BLACK, C_GREEN);
 318              		.loc 1 157 0
 319 0080 4FF47F43 		mov	r3, #65280
 320 0084 0093     		str	r3, [sp]
 321 0086 0023     		movs	r3, #0
 322 0088 344A     		ldr	r2, .L29+8
 323 008a 0FFA8AF1 		sxth	r1, r10
 324 008e 20B2     		sxth	r0, r4
 325 0090 FFF7FEFF 		bl	UG_PutColorString
 326              	.LVL34:
 327 0094 57E0     		b	.L18
 328              	.LVL35:
 329              	.L16:
 330              	.LBB2:
 158:frucd_display.c ****     } else {
 159:frucd_display.c ****         // handle other cases
 160:frucd_display.c ****         char data_s[4];
 161:frucd_display.c ****         sprintf(data_s, "%d", data);
 331              		.loc 1 161 0
 332 0096 2A46     		mov	r2, r5
 333 0098 3149     		ldr	r1, .L29+12
 334 009a 03A8     		add	r0, sp, #12
 335 009c FFF7FEFF 		bl	sprintf
 336              	.LVL36:
 162:frucd_display.c ****         if (data >= 10) {
 337              		.loc 1 162 0
 338 00a0 092D     		cmp	r5, #9
 339 00a2 2AD9     		bls	.L19
 163:frucd_display.c ****             // handle 2 digit cases
 164:frucd_display.c ****             // choose color
 165:frucd_display.c ****             if (data > 75) {
 340              		.loc 1 165 0
 341 00a4 4B2D     		cmp	r5, #75
 342 00a6 05D8     		bhi	.L25
 166:frucd_display.c ****                 color = C_GREEN;
 167:frucd_display.c ****             } else if (data > 50) {
 343              		.loc 1 167 0
 344 00a8 322D     		cmp	r5, #50
 345 00aa 06D8     		bhi	.L26
ARM GAS  C:\Users\RYANCA~1\AppData\Local\Temp\cclc5Gbi.s 			page 10


 168:frucd_display.c ****                 color = C_YELLOW;
 169:frucd_display.c ****             } else if (data > 25) {
 346              		.loc 1 169 0
 347 00ac 192D     		cmp	r5, #25
 348 00ae 06D9     		bls	.L27
 170:frucd_display.c ****                 color = C_ORANGE;
 349              		.loc 1 170 0
 350 00b0 2C4D     		ldr	r5, .L29+16
 351 00b2 06E0     		b	.L20
 352              	.L25:
 166:frucd_display.c ****                 color = C_GREEN;
 353              		.loc 1 166 0
 354 00b4 4FF47F45 		mov	r5, #65280
 355 00b8 03E0     		b	.L20
 356              	.L26:
 168:frucd_display.c ****                 color = C_YELLOW;
 357              		.loc 1 168 0
 358 00ba 2B4D     		ldr	r5, .L29+20
 359 00bc 01E0     		b	.L20
 360              	.L27:
 171:frucd_display.c ****             } else {
 172:frucd_display.c ****                 color = C_RED;
 361              		.loc 1 172 0
 362 00be 4FF47F05 		mov	r5, #16711680
 363              	.L20:
 364              	.LVL37:
 173:frucd_display.c ****             }
 174:frucd_display.c ****             data_s[2] = '%';
 365              		.loc 1 174 0
 366 00c2 2523     		movs	r3, #37
 367 00c4 8DF80E30 		strb	r3, [sp, #14]
 175:frucd_display.c ****             data_s[3] = '\0';
 368              		.loc 1 175 0
 369 00c8 0023     		movs	r3, #0
 370 00ca 8DF80F30 		strb	r3, [sp, #15]
 176:frucd_display.c ****             if (color != last_SOC_color) {
 371              		.loc 1 176 0
 372 00ce 224B     		ldr	r3, .L29+4
 373 00d0 1B68     		ldr	r3, [r3]
 374 00d2 9D42     		cmp	r5, r3
 375 00d4 08D0     		beq	.L21
 177:frucd_display.c ****                 // only draw rectangle if color changed
 178:frucd_display.c ****                 UG_FillFrame(x1, y1, x2, y2, color);
 376              		.loc 1 178 0
 377 00d6 0095     		str	r5, [sp]
 378 00d8 4B46     		mov	r3, r9
 379 00da 4246     		mov	r2, r8
 380 00dc 3946     		mov	r1, r7
 381 00de 3046     		mov	r0, r6
 382 00e0 FFF7FEFF 		bl	UG_FillFrame
 383              	.LVL38:
 179:frucd_display.c ****                 last_SOC_color = color;
 384              		.loc 1 179 0
 385 00e4 1C4B     		ldr	r3, .L29+4
 386 00e6 1D60     		str	r5, [r3]
 387              	.L21:
 180:frucd_display.c ****             }
ARM GAS  C:\Users\RYANCA~1\AppData\Local\Temp\cclc5Gbi.s 			page 11


 181:frucd_display.c ****             UG_PutColorString(xFont, yFont, data_s, C_BLACK, color);
 388              		.loc 1 181 0
 389 00e8 0095     		str	r5, [sp]
 390 00ea 0023     		movs	r3, #0
 391 00ec 03AA     		add	r2, sp, #12
 392 00ee 0FFA8AF1 		sxth	r1, r10
 393 00f2 20B2     		sxth	r0, r4
 394 00f4 FFF7FEFF 		bl	UG_PutColorString
 395              	.LVL39:
 396 00f8 25E0     		b	.L18
 397              	.LVL40:
 398              	.L19:
 182:frucd_display.c ****         } else {
 183:frucd_display.c ****             // handle 1 digit cases
 184:frucd_display.c ****             data_s[1] = '%';
 399              		.loc 1 184 0
 400 00fa 2523     		movs	r3, #37
 401 00fc 8DF80D30 		strb	r3, [sp, #13]
 185:frucd_display.c ****             data_s[2] = '\0';
 402              		.loc 1 185 0
 403 0100 0025     		movs	r5, #0
 404 0102 8DF80E50 		strb	r5, [sp, #14]
 405              	.LVL41:
 186:frucd_display.c ****             color = C_RED;
 187:frucd_display.c ****             UG_FillFrame(x1, y1, x2, y2, C_BLACK);
 406              		.loc 1 187 0
 407 0106 36B2     		sxth	r6, r6
 408 0108 3FB2     		sxth	r7, r7
 409 010a 0FFA88F8 		sxth	r8, r8
 410 010e 0FFA89F9 		sxth	r9, r9
 411 0112 0095     		str	r5, [sp]
 412 0114 4B46     		mov	r3, r9
 413 0116 4246     		mov	r2, r8
 414 0118 3946     		mov	r1, r7
 415 011a 3046     		mov	r0, r6
 416 011c FFF7FEFF 		bl	UG_FillFrame
 417              	.LVL42:
 188:frucd_display.c ****             UG_FillFrame(x1, y1, x2, y2, color);
 418              		.loc 1 188 0
 419 0120 4FF47F0B 		mov	fp, #16711680
 420 0124 CDF800B0 		str	fp, [sp]
 421 0128 4B46     		mov	r3, r9
 422 012a 4246     		mov	r2, r8
 423 012c 3946     		mov	r1, r7
 424 012e 3046     		mov	r0, r6
 425 0130 FFF7FEFF 		bl	UG_FillFrame
 426              	.LVL43:
 189:frucd_display.c ****             UG_PutColorString(xFont, yFont, data_s, C_BLACK, color);
 427              		.loc 1 189 0
 428 0134 CDF800B0 		str	fp, [sp]
 429 0138 2B46     		mov	r3, r5
 430 013a 03AA     		add	r2, sp, #12
 431 013c 0FFA8AF1 		sxth	r1, r10
 432 0140 20B2     		sxth	r0, r4
 433 0142 FFF7FEFF 		bl	UG_PutColorString
 434              	.LVL44:
 435              	.L18:
ARM GAS  C:\Users\RYANCA~1\AppData\Local\Temp\cclc5Gbi.s 			page 12


 436              	.LBE2:
 190:frucd_display.c ****         }   
 191:frucd_display.c ****     }
 192:frucd_display.c ****     UG_FontSelect(&FONT_12X16);
 437              		.loc 1 192 0
 438 0146 0948     		ldr	r0, .L29+24
 439 0148 FFF7FEFF 		bl	UG_FontSelect
 440              	.LVL45:
 193:frucd_display.c **** }
 441              		.loc 1 193 0
 442 014c 05B0     		add	sp, sp, #20
 443              		.cfi_def_cfa_offset 36
 444              		@ sp needed
 445 014e BDE8F08F 		pop	{r4, r5, r6, r7, r8, r9, r10, fp, pc}
 446              	.LVL46:
 447              	.L30:
 448 0152 00BF     		.align	2
 449              	.L29:
 450 0154 00000000 		.word	FONT_32X53
 451 0158 00000000 		.word	last_SOC_color
 452 015c 3C000000 		.word	.LC6
 453 0160 44000000 		.word	.LC7
 454 0164 00A5FF00 		.word	16753920
 455 0168 00FFFF00 		.word	16776960
 456 016c 00000000 		.word	FONT_12X16
 457              		.cfi_endproc
 458              	.LFE67:
 459              		.size	disp_SOC, .-disp_SOC
 460              		.section	.text.disp_max_pack_temp,"ax",%progbits
 461              		.align	2
 462              		.global	disp_max_pack_temp
 463              		.thumb
 464              		.thumb_func
 465              		.type	disp_max_pack_temp, %function
 466              	disp_max_pack_temp:
 467              	.LFB68:
 194:frucd_display.c **** 
 195:frucd_display.c **** /*
 196:frucd_display.c **** 
 197:frucd_display.c **** void disp_max_pack_temp(uint8_t data) {
 198:frucd_display.c ****     // choose color
 199:frucd_display.c ****     UG_COLOR color;
 200:frucd_display.c ****     if (data < 45) {
 201:frucd_display.c ****         color = C_GREEN;
 202:frucd_display.c ****     } else if (data < 50) {
 203:frucd_display.c ****         color = C_YELLOW;
 204:frucd_display.c ****     } else if (data < 55) {
 205:frucd_display.c ****         color = C_ORANGE;
 206:frucd_display.c ****     } else {
 207:frucd_display.c ****         color = C_RED;
 208:frucd_display.c ****         
 209:frucd_display.c ****         
 210:frucd_display.c ****         
 211:frucd_display.c ****         
 212:frucd_display.c ****         //whats up with the first line here?
 213:frucd_display.c ****         UG_FillFrame(270, 35, 450, 170, C_BLACK);
 214:frucd_display.c ****         UG_FillFrame(270, 35, 450, 170, color);
ARM GAS  C:\Users\RYANCA~1\AppData\Local\Temp\cclc5Gbi.s 			page 13


 215:frucd_display.c ****         
 216:frucd_display.c ****         
 217:frucd_display.c ****         
 218:frucd_display.c ****         
 219:frucd_display.c ****         
 220:frucd_display.c ****         
 221:frucd_display.c ****         
 222:frucd_display.c ****     }
 223:frucd_display.c ****     
 224:frucd_display.c ****     if (color != last_max_pack_temp_color) {
 225:frucd_display.c ****         // only draw rectangle if color changed
 226:frucd_display.c ****         UG_FillFrame(270, 35, 450, 170, color);
 227:frucd_display.c ****         last_max_pack_temp_color = color;
 228:frucd_display.c ****     }
 229:frucd_display.c ****     UG_FontSelect(&FONT_32X53);
 230:frucd_display.c ****     char data_s[4];
 231:frucd_display.c ****     sprintf(data_s, "%d", data);
 232:frucd_display.c ****     data_s[2] = 'C';
 233:frucd_display.c ****     data_s[3] = '\0';
 234:frucd_display.c ****     UG_PutColorString(310, 80, data_s, C_BLACK, color);
 235:frucd_display.c ****     UG_FontSelect(&FONT_12X16);
 236:frucd_display.c **** }
 237:frucd_display.c **** 
 238:frucd_display.c **** */
 239:frucd_display.c **** 
 240:frucd_display.c **** 
 241:frucd_display.c **** void disp_max_pack_temp(uint8_t data, uint8_t x1, uint8_t y1, uint8_t x2, uint8_t y2, uint8_t size)
 468              		.loc 1 241 0
 469              		.cfi_startproc
 470              		@ args = 8, pretend = 0, frame = 24
 471              		@ frame_needed = 0, uses_anonymous_args = 0
 472              	.LVL47:
 473 0000 2DE9F04F 		push	{r4, r5, r6, r7, r8, r9, r10, fp, lr}
 474              		.cfi_def_cfa_offset 36
 475              		.cfi_offset 4, -36
 476              		.cfi_offset 5, -32
 477              		.cfi_offset 6, -28
 478              		.cfi_offset 7, -24
 479              		.cfi_offset 8, -20
 480              		.cfi_offset 9, -16
 481              		.cfi_offset 10, -12
 482              		.cfi_offset 11, -8
 483              		.cfi_offset 14, -4
 484 0004 89B0     		sub	sp, sp, #36
 485              		.cfi_def_cfa_offset 72
 486 0006 0746     		mov	r7, r0
 487 0008 8846     		mov	r8, r1
 488 000a 9146     		mov	r9, r2
 489 000c 9A46     		mov	r10, r3
 490 000e 9DF848B0 		ldrb	fp, [sp, #72]	@ zero_extendqisi2
 491 0012 9DF84C20 		ldrb	r2, [sp, #76]	@ zero_extendqisi2
 492              	.LVL48:
 242:frucd_display.c ****     int xFont, yFont;
 243:frucd_display.c ****     int horizFontSize = 12 + 20*size;
 493              		.loc 1 243 0
 494 0016 02EB8201 		add	r1, r2, r2, lsl #2
 495              	.LVL49:
ARM GAS  C:\Users\RYANCA~1\AppData\Local\Temp\cclc5Gbi.s 			page 14


 496 001a 8B00     		lsls	r3, r1, #2
 497              	.LVL50:
 498 001c 0C33     		adds	r3, r3, #12
 499              	.LVL51:
 244:frucd_display.c ****     int stringSize;
 245:frucd_display.c ****     stringSize = 3;
 246:frucd_display.c ****     xFont = (x1 + x2)/2 - ((horizFontSize*stringSize)/2);
 500              		.loc 1 246 0
 501 001e 08EB0A04 		add	r4, r8, r10
 502 0022 03EB4303 		add	r3, r3, r3, lsl #1
 503              	.LVL52:
 504 0026 5B10     		asrs	r3, r3, #1
 505 0028 C3EB6404 		rsb	r4, r3, r4, asr #1
 506              	.LVL53:
 247:frucd_display.c ****     yFont = (y1 + y2)/2 - 5 - (size*17);    
 507              		.loc 1 247 0
 508 002c 09EB0B05 		add	r5, r9, fp
 509 0030 6D10     		asrs	r5, r5, #1
 510 0032 6B1F     		subs	r3, r5, #5
 511 0034 C2EB0275 		rsb	r5, r2, r2, lsl #28
 512 0038 C2EB0515 		rsb	r5, r2, r5, lsl #4
 513 003c 1D44     		add	r5, r5, r3
 514              	.LVL54:
 248:frucd_display.c ****     if(size == 1){
 515              		.loc 1 248 0
 516 003e 012A     		cmp	r2, #1
 517 0040 02D1     		bne	.L32
 249:frucd_display.c ****         UG_FontSelect(&FONT_32X53);
 518              		.loc 1 249 0
 519 0042 2648     		ldr	r0, .L39
 520              	.LVL55:
 521 0044 FFF7FEFF 		bl	UG_FontSelect
 522              	.LVL56:
 523              	.L32:
 250:frucd_display.c ****     }
 251:frucd_display.c ****     
 252:frucd_display.c ****     // choose color
 253:frucd_display.c ****     UG_COLOR color;
 254:frucd_display.c ****     if (data < 45) {
 524              		.loc 1 254 0
 525 0048 2C2F     		cmp	r7, #44
 526 004a 1DD9     		bls	.L35
 255:frucd_display.c ****         color = C_GREEN;
 256:frucd_display.c ****     } else if (data < 50) {
 527              		.loc 1 256 0
 528 004c 312F     		cmp	r7, #49
 529 004e 1ED9     		bls	.L36
 257:frucd_display.c ****         color = C_YELLOW;
 258:frucd_display.c ****     } else if (data < 55) {
 530              		.loc 1 258 0
 531 0050 362F     		cmp	r7, #54
 532 0052 1ED9     		bls	.L37
 533              	.LVL57:
 259:frucd_display.c ****         color = C_ORANGE;
 260:frucd_display.c ****     } else {
 261:frucd_display.c ****         color = C_RED; 
 262:frucd_display.c ****         UG_FillFrame(x1, y1, x2, y2, C_BLACK);
ARM GAS  C:\Users\RYANCA~1\AppData\Local\Temp\cclc5Gbi.s 			page 15


 534              		.loc 1 262 0
 535 0054 0FFA88F0 		sxth	r0, r8
 536 0058 0FFA89F1 		sxth	r1, r9
 537 005c 0FFA8AF2 		sxth	r2, r10
 538 0060 0FFA8BF3 		sxth	r3, fp
 539 0064 0026     		movs	r6, #0
 540 0066 0096     		str	r6, [sp]
 541 0068 0593     		str	r3, [sp, #20]
 542 006a 0492     		str	r2, [sp, #16]
 543 006c 0391     		str	r1, [sp, #12]
 544 006e 0290     		str	r0, [sp, #8]
 545 0070 FFF7FEFF 		bl	UG_FillFrame
 546              	.LVL58:
 263:frucd_display.c ****         UG_FillFrame(x1, y1, x2, y2, color);
 547              		.loc 1 263 0
 548 0074 4FF47F06 		mov	r6, #16711680
 549 0078 0096     		str	r6, [sp]
 550 007a 059B     		ldr	r3, [sp, #20]
 551 007c 049A     		ldr	r2, [sp, #16]
 552 007e 0399     		ldr	r1, [sp, #12]
 553 0080 0298     		ldr	r0, [sp, #8]
 554 0082 FFF7FEFF 		bl	UG_FillFrame
 555              	.LVL59:
 556 0086 05E0     		b	.L33
 557              	.LVL60:
 558              	.L35:
 255:frucd_display.c ****     } else if (data < 50) {
 559              		.loc 1 255 0
 560 0088 4FF47F46 		mov	r6, #65280
 561 008c 02E0     		b	.L33
 562              	.L36:
 257:frucd_display.c ****     } else if (data < 55) {
 563              		.loc 1 257 0
 564 008e 144E     		ldr	r6, .L39+4
 565 0090 00E0     		b	.L33
 566              	.L37:
 259:frucd_display.c ****     } else {
 567              		.loc 1 259 0
 568 0092 144E     		ldr	r6, .L39+8
 569              	.L33:
 570              	.LVL61:
 264:frucd_display.c ****     
 265:frucd_display.c ****     }
 266:frucd_display.c ****     
 267:frucd_display.c ****     if (color != last_max_pack_temp_color) {
 571              		.loc 1 267 0
 572 0094 144B     		ldr	r3, .L39+12
 573 0096 1B68     		ldr	r3, [r3]
 574 0098 9E42     		cmp	r6, r3
 575 009a 08D0     		beq	.L34
 268:frucd_display.c ****         // only draw rectangle if color changed
 269:frucd_display.c ****         UG_FillFrame(x1, y1, x2, y2, color);
 576              		.loc 1 269 0
 577 009c 0096     		str	r6, [sp]
 578 009e 5B46     		mov	r3, fp
 579 00a0 5246     		mov	r2, r10
 580 00a2 4946     		mov	r1, r9
ARM GAS  C:\Users\RYANCA~1\AppData\Local\Temp\cclc5Gbi.s 			page 16


 581 00a4 4046     		mov	r0, r8
 582 00a6 FFF7FEFF 		bl	UG_FillFrame
 583              	.LVL62:
 270:frucd_display.c ****         last_max_pack_temp_color = color;
 584              		.loc 1 270 0
 585 00aa 0F4B     		ldr	r3, .L39+12
 586 00ac 1E60     		str	r6, [r3]
 587              	.L34:
 271:frucd_display.c ****     }
 272:frucd_display.c **** 
 273:frucd_display.c ****     char data_s[4];
 274:frucd_display.c ****     sprintf(data_s, "%d", data);
 588              		.loc 1 274 0
 589 00ae 3A46     		mov	r2, r7
 590 00b0 0E49     		ldr	r1, .L39+16
 591 00b2 07A8     		add	r0, sp, #28
 592 00b4 FFF7FEFF 		bl	sprintf
 593              	.LVL63:
 275:frucd_display.c ****     data_s[2] = 'C';
 594              		.loc 1 275 0
 595 00b8 4323     		movs	r3, #67
 596 00ba 8DF81E30 		strb	r3, [sp, #30]
 276:frucd_display.c ****     data_s[3] = '\0';
 597              		.loc 1 276 0
 598 00be 0023     		movs	r3, #0
 599 00c0 8DF81F30 		strb	r3, [sp, #31]
 277:frucd_display.c ****     UG_PutColorString(xFont, yFont, data_s, C_BLACK, color);
 600              		.loc 1 277 0
 601 00c4 0096     		str	r6, [sp]
 602 00c6 07AA     		add	r2, sp, #28
 603 00c8 29B2     		sxth	r1, r5
 604 00ca 20B2     		sxth	r0, r4
 605 00cc FFF7FEFF 		bl	UG_PutColorString
 606              	.LVL64:
 278:frucd_display.c ****     UG_FontSelect(&FONT_12X16);
 607              		.loc 1 278 0
 608 00d0 0748     		ldr	r0, .L39+20
 609 00d2 FFF7FEFF 		bl	UG_FontSelect
 610              	.LVL65:
 279:frucd_display.c **** }
 611              		.loc 1 279 0
 612 00d6 09B0     		add	sp, sp, #36
 613              		.cfi_def_cfa_offset 36
 614              		@ sp needed
 615 00d8 BDE8F08F 		pop	{r4, r5, r6, r7, r8, r9, r10, fp, pc}
 616              	.LVL66:
 617              	.L40:
 618              		.align	2
 619              	.L39:
 620 00dc 00000000 		.word	FONT_32X53
 621 00e0 00FFFF00 		.word	16776960
 622 00e4 00A5FF00 		.word	16753920
 623 00e8 00000000 		.word	last_max_pack_temp_color
 624 00ec 44000000 		.word	.LC7
 625 00f0 00000000 		.word	FONT_12X16
 626              		.cfi_endproc
 627              	.LFE68:
ARM GAS  C:\Users\RYANCA~1\AppData\Local\Temp\cclc5Gbi.s 			page 17


 628              		.size	disp_max_pack_temp, .-disp_max_pack_temp
 629              		.section	.text.disp_state,"ax",%progbits
 630              		.align	2
 631              		.global	disp_state
 632              		.thumb
 633              		.thumb_func
 634              		.type	disp_state, %function
 635              	disp_state:
 636              	.LFB69:
 280:frucd_display.c **** 
 281:frucd_display.c **** 
 282:frucd_display.c **** /*
 283:frucd_display.c **** 
 284:frucd_display.c **** void disp_state(uint8_t state) { // TODO
 285:frucd_display.c ****     UG_COLOR color;
 286:frucd_display.c ****     // check fault bit
 287:frucd_display.c ****     if (state & 0x80) {
 288:frucd_display.c ****         // *************** FAULTS ***************
 289:frucd_display.c ****         uint8 fault = state & 0x7f; // mask off fault bit
 290:frucd_display.c ****         switch(fault) {
 291:frucd_display.c ****             case NONE: // STARTUP (effectively)
 292:frucd_display.c ****                 // not obtainable via CAN
 293:frucd_display.c ****                 // would only show when hardcoded on startup
 294:frucd_display.c ****                 color = C_YELLOW;
 295:frucd_display.c ****                 if (color != last_state_color) {
 296:frucd_display.c ****                     // only draw rectangle if color changed
 297:frucd_display.c ****                     UG_FillFrame(95, 185, 240, 215, color);
 298:frucd_display.c ****                     last_state_color = color;
 299:frucd_display.c ****                 }
 300:frucd_display.c ****                 UG_PutColorString(100, 195, " STARTUP  ", C_BLACK, color);
 301:frucd_display.c ****                 break;
 302:frucd_display.c ****             case DRIVE_REQUEST_FROM_LV:
 303:frucd_display.c ****                 color = C_RED;
 304:frucd_display.c ****                 if (color != last_state_color) {
 305:frucd_display.c ****                     // only draw rectangle if color changed
 306:frucd_display.c ****                     UG_FillFrame(95, 185, 240, 215, color);
 307:frucd_display.c ****                     last_state_color = color;
 308:frucd_display.c ****                 }
 309:frucd_display.c ****                 UG_PutColorString(100, 195, "DRV FRM LV", C_BLACK, color);
 310:frucd_display.c ****                 break;
 311:frucd_display.c ****             case CONSERVATIVE_TIMER_MAXED:
 312:frucd_display.c ****                 color = C_RED;
 313:frucd_display.c ****                 if (color != last_state_color) {
 314:frucd_display.c ****                     // only draw rectangle if color changed
 315:frucd_display.c ****                     UG_FillFrame(95, 185, 240, 215, color);
 316:frucd_display.c ****                     last_state_color = color;
 317:frucd_display.c ****                 }
 318:frucd_display.c ****                 UG_PutColorString(100, 195, "PRE TM OUT", C_BLACK, color);
 319:frucd_display.c ****                 break;
 320:frucd_display.c ****             case BRAKE_NOT_PRESSED:
 321:frucd_display.c ****                 color = C_RED;
 322:frucd_display.c ****                 if (color != last_state_color) {
 323:frucd_display.c ****                     // only draw rectangle if color changed
 324:frucd_display.c ****                     UG_FillFrame(95, 185, 240, 215, color);
 325:frucd_display.c ****                     last_state_color = color;
 326:frucd_display.c ****                 }
 327:frucd_display.c ****                 UG_PutColorString(100, 195, "BR NOT PRS", C_BLACK, color);
ARM GAS  C:\Users\RYANCA~1\AppData\Local\Temp\cclc5Gbi.s 			page 18


 328:frucd_display.c ****                 break;
 329:frucd_display.c ****             case HV_DISABLED_WHILE_DRIVING:
 330:frucd_display.c ****                 color = C_RED;
 331:frucd_display.c ****                 if (color != last_state_color) {
 332:frucd_display.c ****                     // only draw rectangle if color changed
 333:frucd_display.c ****                     UG_FillFrame(95, 185, 240, 215, color);
 334:frucd_display.c ****                     last_state_color = color;
 335:frucd_display.c ****                 }
 336:frucd_display.c ****                 UG_PutColorString(100, 195, "HV OFF DRV", C_BLACK, color);
 337:frucd_display.c ****                 break;
 338:frucd_display.c ****             case SENSOR_DISCREPANCY:
 339:frucd_display.c ****                 color = C_RED;
 340:frucd_display.c ****                 if (color != last_state_color) {
 341:frucd_display.c ****                     // only draw rectangle if color changed
 342:frucd_display.c ****                     UG_FillFrame(95, 185, 240, 215, color);
 343:frucd_display.c ****                     last_state_color = color;
 344:frucd_display.c ****                 }
 345:frucd_display.c ****                 UG_PutColorString(100, 195, "SNSR DSCRP", C_BLACK, color);
 346:frucd_display.c ****                 break;
 347:frucd_display.c ****             case BRAKE_IMPLAUSIBLE:
 348:frucd_display.c ****                 color = C_YELLOW;
 349:frucd_display.c ****                 if (color != last_state_color) {
 350:frucd_display.c ****                     // only draw rectangle if color changed
 351:frucd_display.c ****                     UG_FillFrame(95, 185, 240, 215, color);
 352:frucd_display.c ****                     last_state_color = color;
 353:frucd_display.c ****                 }
 354:frucd_display.c ****                 UG_PutColorString(100, 195, "BSPD TRIPD", C_BLACK, color); //whitespace to clear
 355:frucd_display.c ****                 break;
 356:frucd_display.c ****             case ESTOP:
 357:frucd_display.c ****                 color = C_RED;
 358:frucd_display.c ****                 if (color != last_state_color) {
 359:frucd_display.c ****                     // only draw rectangle if color changed
 360:frucd_display.c ****                     UG_FillFrame(95, 185, 240, 215, color);
 361:frucd_display.c ****                     last_state_color = color;
 362:frucd_display.c ****                 }
 363:frucd_display.c ****                 UG_PutColorString(100, 195, "SHTDWN OPN", C_BLACK, color); //whitespace to clear
 364:frucd_display.c ****                 break;
 365:frucd_display.c ****         }
 366:frucd_display.c ****         
 367:frucd_display.c ****     } else {
 368:frucd_display.c ****         // *************** NO FAULTS ***************
 369:frucd_display.c ****         color = C_GREEN;
 370:frucd_display.c ****         if (color != last_state_color) {
 371:frucd_display.c ****             // only draw rectangle if color changed
 372:frucd_display.c ****             UG_FillFrame(95, 185, 240, 215, color);
 373:frucd_display.c ****             last_state_color = color;
 374:frucd_display.c ****         }
 375:frucd_display.c ****         switch(state) {
 376:frucd_display.c ****             case LV:
 377:frucd_display.c ****                 UG_PutColorString(100, 195, "    LV    ", C_BLACK, color);
 378:frucd_display.c ****                 break;
 379:frucd_display.c ****             case PRECHARGING:
 380:frucd_display.c ****                 UG_PutColorString(100, 195, "PRECHARGE ", C_BLACK, color);
 381:frucd_display.c ****                 break;
 382:frucd_display.c ****             case HV_ENABLED:
 383:frucd_display.c ****                 UG_PutColorString(100, 195, "HV ENABLED", C_BLACK, color);
 384:frucd_display.c ****                 break;
ARM GAS  C:\Users\RYANCA~1\AppData\Local\Temp\cclc5Gbi.s 			page 19


 385:frucd_display.c ****             case DRIVE:
 386:frucd_display.c ****                 UG_PutColorString(100, 195, "  DRIVE   ", C_BLACK, color);
 387:frucd_display.c ****                 break;
 388:frucd_display.c ****         }
 389:frucd_display.c ****     }
 390:frucd_display.c **** }
 391:frucd_display.c **** 
 392:frucd_display.c **** 
 393:frucd_display.c **** */
 394:frucd_display.c **** 
 395:frucd_display.c **** 
 396:frucd_display.c **** void disp_state(uint8_t state, uint8_t x1, uint8_t y1, uint8_t x2, uint8_t y2, uint8_t size) { // T
 637              		.loc 1 396 0
 638              		.cfi_startproc
 639              		@ args = 8, pretend = 0, frame = 0
 640              		@ frame_needed = 0, uses_anonymous_args = 0
 641              	.LVL67:
 642 0000 2DE9F04F 		push	{r4, r5, r6, r7, r8, r9, r10, fp, lr}
 643              		.cfi_def_cfa_offset 36
 644              		.cfi_offset 4, -36
 645              		.cfi_offset 5, -32
 646              		.cfi_offset 6, -28
 647              		.cfi_offset 7, -24
 648              		.cfi_offset 8, -20
 649              		.cfi_offset 9, -16
 650              		.cfi_offset 10, -12
 651              		.cfi_offset 11, -8
 652              		.cfi_offset 14, -4
 653 0004 83B0     		sub	sp, sp, #12
 654              		.cfi_def_cfa_offset 48
 655 0006 0446     		mov	r4, r0
 656 0008 0D46     		mov	r5, r1
 657 000a 1646     		mov	r6, r2
 658 000c 1F46     		mov	r7, r3
 659 000e 9DF83080 		ldrb	r8, [sp, #48]	@ zero_extendqisi2
 660 0012 9DF83420 		ldrb	r2, [sp, #52]	@ zero_extendqisi2
 661              	.LVL68:
 397:frucd_display.c ****     int xFont, yFont;
 398:frucd_display.c ****     int horizFontSize = 12 + 20*size;
 662              		.loc 1 398 0
 663 0016 02EB8201 		add	r1, r2, r2, lsl #2
 664              	.LVL69:
 665 001a 8B00     		lsls	r3, r1, #2
 666              	.LVL70:
 667 001c 0C33     		adds	r3, r3, #12
 668              	.LVL71:
 399:frucd_display.c ****     int stringSize;
 400:frucd_display.c ****     stringSize = 10;
 401:frucd_display.c ****     xFont = (x1 + x2)/2 - ((horizFontSize*stringSize)/2);
 669              		.loc 1 401 0
 670 001e 05EB0709 		add	r9, r5, r7
 671 0022 03EB8303 		add	r3, r3, r3, lsl #2
 672              	.LVL72:
 673 0026 5900     		lsls	r1, r3, #1
 674              	.LVL73:
 675 0028 4910     		asrs	r1, r1, #1
 676 002a C1EB6909 		rsb	r9, r1, r9, asr #1
ARM GAS  C:\Users\RYANCA~1\AppData\Local\Temp\cclc5Gbi.s 			page 20


 677              	.LVL74:
 402:frucd_display.c ****     yFont = (y1 + y2)/2 - 5 - (size*17);    
 678              		.loc 1 402 0
 679 002e 06EB0803 		add	r3, r6, r8
 680 0032 5B10     		asrs	r3, r3, #1
 681 0034 053B     		subs	r3, r3, #5
 682 0036 C2EB0271 		rsb	r1, r2, r2, lsl #28
 683 003a C2EB0111 		rsb	r1, r2, r1, lsl #4
 684 003e 03EB010A 		add	r10, r3, r1
 685              	.LVL75:
 403:frucd_display.c ****     if(size == 1){
 686              		.loc 1 403 0
 687 0042 012A     		cmp	r2, #1
 688 0044 02D1     		bne	.L42
 404:frucd_display.c ****         UG_FontSelect(&FONT_32X53);
 689              		.loc 1 404 0
 690 0046 9D48     		ldr	r0, .L69
 691              	.LVL76:
 692 0048 FFF7FEFF 		bl	UG_FontSelect
 693              	.LVL77:
 694              	.L42:
 405:frucd_display.c ****         
 406:frucd_display.c ****     }
 407:frucd_display.c ****     UG_COLOR color;
 408:frucd_display.c ****     // check fault bit
 409:frucd_display.c ****     if (state & 0x80) {
 695              		.loc 1 409 0
 696 004c 14F0800F 		tst	r4, #128
 697 0050 00F0E780 		beq	.L43
 698              	.LBB3:
 410:frucd_display.c ****         // *************** FAULTS ***************
 411:frucd_display.c ****         uint8 fault = state & 0x7f; // mask off fault bit
 699              		.loc 1 411 0
 700 0054 04F07F04 		and	r4, r4, #127
 701              	.LVL78:
 412:frucd_display.c ****         switch(fault) {
 702              		.loc 1 412 0
 703 0058 072C     		cmp	r4, #7
 704 005a 00F22981 		bhi	.L44
 705 005e DFE804F0 		tbb	[pc, r4]
 706              	.L46:
 707 0062 04       		.byte	(.L45-.L46)/2
 708 0063 1E       		.byte	(.L47-.L46)/2
 709 0064 3A       		.byte	(.L48-.L46)/2
 710 0065 56       		.byte	(.L49-.L46)/2
 711 0066 72       		.byte	(.L50-.L46)/2
 712 0067 8E       		.byte	(.L51-.L46)/2
 713 0068 AA       		.byte	(.L52-.L46)/2
 714 0069 C4       		.byte	(.L53-.L46)/2
 715              		.p2align 1
 716              	.L45:
 717              	.LVL79:
 413:frucd_display.c ****             case NONE: // STARTUP (effectively)
 414:frucd_display.c ****                 // not obtainable via CAN
 415:frucd_display.c ****                 // would only show when hardcoded on startup
 416:frucd_display.c ****                 color = C_YELLOW;
 417:frucd_display.c ****                 if (color != last_state_color) {
ARM GAS  C:\Users\RYANCA~1\AppData\Local\Temp\cclc5Gbi.s 			page 21


 718              		.loc 1 417 0
 719 006a 954B     		ldr	r3, .L69+4
 720 006c 1A68     		ldr	r2, [r3]
 721 006e 954B     		ldr	r3, .L69+8
 722 0070 9A42     		cmp	r2, r3
 723 0072 09D0     		beq	.L54
 418:frucd_display.c ****                     // only draw rectangle if color changed
 419:frucd_display.c ****                     UG_FillFrame(x1, y1, x2, y2, color);
 724              		.loc 1 419 0
 725 0074 1C46     		mov	r4, r3
 726              	.LVL80:
 727 0076 0093     		str	r3, [sp]
 728 0078 4346     		mov	r3, r8
 729 007a 3A46     		mov	r2, r7
 730 007c 3146     		mov	r1, r6
 731 007e 2846     		mov	r0, r5
 732 0080 FFF7FEFF 		bl	UG_FillFrame
 733              	.LVL81:
 420:frucd_display.c ****                     last_state_color = color;
 734              		.loc 1 420 0
 735 0084 8E4B     		ldr	r3, .L69+4
 736 0086 1C60     		str	r4, [r3]
 737              	.L54:
 421:frucd_display.c ****                 }
 422:frucd_display.c ****                 UG_PutColorString(xFont, yFont, " STARTUP  ", C_BLACK, color);
 738              		.loc 1 422 0
 739 0088 8E4B     		ldr	r3, .L69+8
 740 008a 0093     		str	r3, [sp]
 741 008c 0023     		movs	r3, #0
 742 008e 8E4A     		ldr	r2, .L69+12
 743 0090 0FFA8AF1 		sxth	r1, r10
 744 0094 0FFA89F0 		sxth	r0, r9
 745 0098 FFF7FEFF 		bl	UG_PutColorString
 746              	.LVL82:
 423:frucd_display.c ****                 break;
 747              		.loc 1 423 0
 748 009c 08E1     		b	.L44
 749              	.LVL83:
 750              	.L47:
 424:frucd_display.c ****             case DRIVE_REQUEST_FROM_LV:
 425:frucd_display.c ****                 color = C_RED;
 426:frucd_display.c ****                 if (color != last_state_color) {
 751              		.loc 1 426 0
 752 009e 884B     		ldr	r3, .L69+4
 753 00a0 1B68     		ldr	r3, [r3]
 754 00a2 B3F57F0F 		cmp	r3, #16711680
 755 00a6 0AD0     		beq	.L55
 427:frucd_display.c ****                     // only draw rectangle if color changed
 428:frucd_display.c ****                     UG_FillFrame(x1, y1, x2, y2, color);
 756              		.loc 1 428 0
 757 00a8 4FF47F04 		mov	r4, #16711680
 758              	.LVL84:
 759 00ac 0094     		str	r4, [sp]
 760 00ae 4346     		mov	r3, r8
 761 00b0 3A46     		mov	r2, r7
 762 00b2 3146     		mov	r1, r6
 763 00b4 2846     		mov	r0, r5
ARM GAS  C:\Users\RYANCA~1\AppData\Local\Temp\cclc5Gbi.s 			page 22


 764 00b6 FFF7FEFF 		bl	UG_FillFrame
 765              	.LVL85:
 429:frucd_display.c ****                     last_state_color = color;
 766              		.loc 1 429 0
 767 00ba 814B     		ldr	r3, .L69+4
 768 00bc 1C60     		str	r4, [r3]
 769              	.L55:
 430:frucd_display.c ****                 }
 431:frucd_display.c ****                 UG_PutColorString(xFont, yFont, "DRV FRM LV", C_BLACK, color);
 770              		.loc 1 431 0
 771 00be 4FF47F03 		mov	r3, #16711680
 772 00c2 0093     		str	r3, [sp]
 773 00c4 0023     		movs	r3, #0
 774 00c6 814A     		ldr	r2, .L69+16
 775 00c8 0FFA8AF1 		sxth	r1, r10
 776 00cc 0FFA89F0 		sxth	r0, r9
 777 00d0 FFF7FEFF 		bl	UG_PutColorString
 778              	.LVL86:
 432:frucd_display.c ****                 break;
 779              		.loc 1 432 0
 780 00d4 ECE0     		b	.L44
 781              	.LVL87:
 782              	.L48:
 433:frucd_display.c ****             case CONSERVATIVE_TIMER_MAXED:
 434:frucd_display.c ****                 color = C_RED;
 435:frucd_display.c ****                 if (color != last_state_color) {
 783              		.loc 1 435 0
 784 00d6 7A4B     		ldr	r3, .L69+4
 785 00d8 1B68     		ldr	r3, [r3]
 786 00da B3F57F0F 		cmp	r3, #16711680
 787 00de 0AD0     		beq	.L56
 436:frucd_display.c ****                     // only draw rectangle if color changed
 437:frucd_display.c ****                     UG_FillFrame(x1, y1, x2, y2, color);
 788              		.loc 1 437 0
 789 00e0 4FF47F04 		mov	r4, #16711680
 790              	.LVL88:
 791 00e4 0094     		str	r4, [sp]
 792 00e6 4346     		mov	r3, r8
 793 00e8 3A46     		mov	r2, r7
 794 00ea 3146     		mov	r1, r6
 795 00ec 2846     		mov	r0, r5
 796 00ee FFF7FEFF 		bl	UG_FillFrame
 797              	.LVL89:
 438:frucd_display.c ****                     last_state_color = color;
 798              		.loc 1 438 0
 799 00f2 734B     		ldr	r3, .L69+4
 800 00f4 1C60     		str	r4, [r3]
 801              	.L56:
 439:frucd_display.c ****                 }
 440:frucd_display.c ****                 UG_PutColorString(xFont, yFont, "PRE TM OUT", C_BLACK, color);
 802              		.loc 1 440 0
 803 00f6 4FF47F03 		mov	r3, #16711680
 804 00fa 0093     		str	r3, [sp]
 805 00fc 0023     		movs	r3, #0
 806 00fe 744A     		ldr	r2, .L69+20
 807 0100 0FFA8AF1 		sxth	r1, r10
 808 0104 0FFA89F0 		sxth	r0, r9
ARM GAS  C:\Users\RYANCA~1\AppData\Local\Temp\cclc5Gbi.s 			page 23


 809 0108 FFF7FEFF 		bl	UG_PutColorString
 810              	.LVL90:
 441:frucd_display.c ****                 break;
 811              		.loc 1 441 0
 812 010c D0E0     		b	.L44
 813              	.LVL91:
 814              	.L49:
 442:frucd_display.c ****             case BRAKE_NOT_PRESSED:
 443:frucd_display.c ****                 color = C_RED;
 444:frucd_display.c ****                 if (color != last_state_color) {
 815              		.loc 1 444 0
 816 010e 6C4B     		ldr	r3, .L69+4
 817 0110 1B68     		ldr	r3, [r3]
 818 0112 B3F57F0F 		cmp	r3, #16711680
 819 0116 0AD0     		beq	.L57
 445:frucd_display.c ****                     // only draw rectangle if color changed
 446:frucd_display.c ****                     UG_FillFrame(x1, y1, x2, y2, color);
 820              		.loc 1 446 0
 821 0118 4FF47F04 		mov	r4, #16711680
 822              	.LVL92:
 823 011c 0094     		str	r4, [sp]
 824 011e 4346     		mov	r3, r8
 825 0120 3A46     		mov	r2, r7
 826 0122 3146     		mov	r1, r6
 827 0124 2846     		mov	r0, r5
 828 0126 FFF7FEFF 		bl	UG_FillFrame
 829              	.LVL93:
 447:frucd_display.c ****                     last_state_color = color;
 830              		.loc 1 447 0
 831 012a 654B     		ldr	r3, .L69+4
 832 012c 1C60     		str	r4, [r3]
 833              	.L57:
 448:frucd_display.c ****                 }
 449:frucd_display.c ****                 UG_PutColorString(xFont, yFont, "BR NOT PRS", C_BLACK, color);
 834              		.loc 1 449 0
 835 012e 4FF47F03 		mov	r3, #16711680
 836 0132 0093     		str	r3, [sp]
 837 0134 0023     		movs	r3, #0
 838 0136 674A     		ldr	r2, .L69+24
 839 0138 0FFA8AF1 		sxth	r1, r10
 840 013c 0FFA89F0 		sxth	r0, r9
 841 0140 FFF7FEFF 		bl	UG_PutColorString
 842              	.LVL94:
 450:frucd_display.c ****                 break;
 843              		.loc 1 450 0
 844 0144 B4E0     		b	.L44
 845              	.LVL95:
 846              	.L50:
 451:frucd_display.c ****             case HV_DISABLED_WHILE_DRIVING:
 452:frucd_display.c ****                 color = C_RED;
 453:frucd_display.c ****                 if (color != last_state_color) {
 847              		.loc 1 453 0
 848 0146 5E4B     		ldr	r3, .L69+4
 849 0148 1B68     		ldr	r3, [r3]
 850 014a B3F57F0F 		cmp	r3, #16711680
 851 014e 0AD0     		beq	.L58
 454:frucd_display.c ****                     // only draw rectangle if color changed
ARM GAS  C:\Users\RYANCA~1\AppData\Local\Temp\cclc5Gbi.s 			page 24


 455:frucd_display.c ****                     UG_FillFrame(x1, y1, x2, y2, color);
 852              		.loc 1 455 0
 853 0150 4FF47F04 		mov	r4, #16711680
 854              	.LVL96:
 855 0154 0094     		str	r4, [sp]
 856 0156 4346     		mov	r3, r8
 857 0158 3A46     		mov	r2, r7
 858 015a 3146     		mov	r1, r6
 859 015c 2846     		mov	r0, r5
 860 015e FFF7FEFF 		bl	UG_FillFrame
 861              	.LVL97:
 456:frucd_display.c ****                     last_state_color = color;
 862              		.loc 1 456 0
 863 0162 574B     		ldr	r3, .L69+4
 864 0164 1C60     		str	r4, [r3]
 865              	.L58:
 457:frucd_display.c ****                 }
 458:frucd_display.c ****                 UG_PutColorString(xFont, yFont, "HV OFF DRV", C_BLACK, color);
 866              		.loc 1 458 0
 867 0166 4FF47F03 		mov	r3, #16711680
 868 016a 0093     		str	r3, [sp]
 869 016c 0023     		movs	r3, #0
 870 016e 5A4A     		ldr	r2, .L69+28
 871 0170 0FFA8AF1 		sxth	r1, r10
 872 0174 0FFA89F0 		sxth	r0, r9
 873 0178 FFF7FEFF 		bl	UG_PutColorString
 874              	.LVL98:
 459:frucd_display.c ****                 break;
 875              		.loc 1 459 0
 876 017c 98E0     		b	.L44
 877              	.LVL99:
 878              	.L51:
 460:frucd_display.c ****             case SENSOR_DISCREPANCY:
 461:frucd_display.c ****                 color = C_RED;
 462:frucd_display.c ****                 if (color != last_state_color) {
 879              		.loc 1 462 0
 880 017e 504B     		ldr	r3, .L69+4
 881 0180 1B68     		ldr	r3, [r3]
 882 0182 B3F57F0F 		cmp	r3, #16711680
 883 0186 0AD0     		beq	.L59
 463:frucd_display.c ****                     // only draw rectangle if color changed
 464:frucd_display.c ****                     UG_FillFrame(x1, y1, x2, y2, color);
 884              		.loc 1 464 0
 885 0188 4FF47F04 		mov	r4, #16711680
 886              	.LVL100:
 887 018c 0094     		str	r4, [sp]
 888 018e 4346     		mov	r3, r8
 889 0190 3A46     		mov	r2, r7
 890 0192 3146     		mov	r1, r6
 891 0194 2846     		mov	r0, r5
 892 0196 FFF7FEFF 		bl	UG_FillFrame
 893              	.LVL101:
 465:frucd_display.c ****                     last_state_color = color;
 894              		.loc 1 465 0
 895 019a 494B     		ldr	r3, .L69+4
 896 019c 1C60     		str	r4, [r3]
 897              	.L59:
ARM GAS  C:\Users\RYANCA~1\AppData\Local\Temp\cclc5Gbi.s 			page 25


 466:frucd_display.c ****                 }
 467:frucd_display.c ****                 UG_PutColorString(xFont, yFont, "SNSR DSCRP", C_BLACK, color);
 898              		.loc 1 467 0
 899 019e 4FF47F03 		mov	r3, #16711680
 900 01a2 0093     		str	r3, [sp]
 901 01a4 0023     		movs	r3, #0
 902 01a6 4D4A     		ldr	r2, .L69+32
 903 01a8 0FFA8AF1 		sxth	r1, r10
 904 01ac 0FFA89F0 		sxth	r0, r9
 905 01b0 FFF7FEFF 		bl	UG_PutColorString
 906              	.LVL102:
 468:frucd_display.c ****                 break;
 907              		.loc 1 468 0
 908 01b4 7CE0     		b	.L44
 909              	.LVL103:
 910              	.L52:
 469:frucd_display.c ****             case BRAKE_IMPLAUSIBLE:
 470:frucd_display.c ****                 color = C_YELLOW;
 471:frucd_display.c ****                 if (color != last_state_color) {
 911              		.loc 1 471 0
 912 01b6 424B     		ldr	r3, .L69+4
 913 01b8 1A68     		ldr	r2, [r3]
 914 01ba 424B     		ldr	r3, .L69+8
 915 01bc 9A42     		cmp	r2, r3
 916 01be 09D0     		beq	.L60
 472:frucd_display.c ****                     // only draw rectangle if color changed
 473:frucd_display.c ****                     UG_FillFrame(x1, y1, x2, y2, color);
 917              		.loc 1 473 0
 918 01c0 1C46     		mov	r4, r3
 919              	.LVL104:
 920 01c2 0093     		str	r3, [sp]
 921 01c4 4346     		mov	r3, r8
 922 01c6 3A46     		mov	r2, r7
 923 01c8 3146     		mov	r1, r6
 924 01ca 2846     		mov	r0, r5
 925 01cc FFF7FEFF 		bl	UG_FillFrame
 926              	.LVL105:
 474:frucd_display.c ****                     last_state_color = color;
 927              		.loc 1 474 0
 928 01d0 3B4B     		ldr	r3, .L69+4
 929 01d2 1C60     		str	r4, [r3]
 930              	.L60:
 475:frucd_display.c ****                 }
 476:frucd_display.c ****                 UG_PutColorString(xFont, yFont, "BSPD TRIPD", C_BLACK, color); //whitespace to clea
 931              		.loc 1 476 0
 932 01d4 3B4B     		ldr	r3, .L69+8
 933 01d6 0093     		str	r3, [sp]
 934 01d8 0023     		movs	r3, #0
 935 01da 414A     		ldr	r2, .L69+36
 936 01dc 0FFA8AF1 		sxth	r1, r10
 937 01e0 0FFA89F0 		sxth	r0, r9
 938 01e4 FFF7FEFF 		bl	UG_PutColorString
 939              	.LVL106:
 477:frucd_display.c ****                 break;
 940              		.loc 1 477 0
 941 01e8 62E0     		b	.L44
 942              	.LVL107:
ARM GAS  C:\Users\RYANCA~1\AppData\Local\Temp\cclc5Gbi.s 			page 26


 943              	.L53:
 478:frucd_display.c ****             case ESTOP:
 479:frucd_display.c ****                 color = C_RED;
 480:frucd_display.c ****                 if (color != last_state_color) {
 944              		.loc 1 480 0
 945 01ea 354B     		ldr	r3, .L69+4
 946 01ec 1B68     		ldr	r3, [r3]
 947 01ee B3F57F0F 		cmp	r3, #16711680
 948 01f2 0AD0     		beq	.L61
 481:frucd_display.c ****                     // only draw rectangle if color changed
 482:frucd_display.c ****                     UG_FillFrame(x1, y1, x2, y2, color);
 949              		.loc 1 482 0
 950 01f4 4FF47F04 		mov	r4, #16711680
 951              	.LVL108:
 952 01f8 0094     		str	r4, [sp]
 953 01fa 4346     		mov	r3, r8
 954 01fc 3A46     		mov	r2, r7
 955 01fe 3146     		mov	r1, r6
 956 0200 2846     		mov	r0, r5
 957 0202 FFF7FEFF 		bl	UG_FillFrame
 958              	.LVL109:
 483:frucd_display.c ****                     last_state_color = color;
 959              		.loc 1 483 0
 960 0206 2E4B     		ldr	r3, .L69+4
 961 0208 1C60     		str	r4, [r3]
 962              	.L61:
 484:frucd_display.c ****                 }
 485:frucd_display.c ****                 UG_PutColorString(xFont, yFont, "SHTDWN OPN", C_BLACK, color); //whitespace to clea
 963              		.loc 1 485 0
 964 020a 4FF47F03 		mov	r3, #16711680
 965 020e 0093     		str	r3, [sp]
 966 0210 0023     		movs	r3, #0
 967 0212 344A     		ldr	r2, .L69+40
 968 0214 0FFA8AF1 		sxth	r1, r10
 969 0218 0FFA89F0 		sxth	r0, r9
 970 021c FFF7FEFF 		bl	UG_PutColorString
 971              	.LVL110:
 486:frucd_display.c ****                 break;
 972              		.loc 1 486 0
 973 0220 46E0     		b	.L44
 974              	.LVL111:
 975              	.L43:
 976              	.LBE3:
 487:frucd_display.c ****         }
 488:frucd_display.c ****         
 489:frucd_display.c ****     } else {
 490:frucd_display.c ****         // *************** NO FAULTS ***************
 491:frucd_display.c ****         color = C_GREEN;
 492:frucd_display.c ****         if (color != last_state_color) {
 977              		.loc 1 492 0
 978 0222 274B     		ldr	r3, .L69+4
 979 0224 1B68     		ldr	r3, [r3]
 980 0226 B3F57F4F 		cmp	r3, #65280
 981 022a 0CD0     		beq	.L62
 493:frucd_display.c ****             // only draw rectangle if color changed
 494:frucd_display.c ****             UG_FillFrame(x1, y1, x2, y2, color);
 982              		.loc 1 494 0
ARM GAS  C:\Users\RYANCA~1\AppData\Local\Temp\cclc5Gbi.s 			page 27


 983 022c 4FF47F4B 		mov	fp, #65280
 984 0230 CDF800B0 		str	fp, [sp]
 985 0234 4346     		mov	r3, r8
 986 0236 3A46     		mov	r2, r7
 987 0238 3146     		mov	r1, r6
 988 023a 2846     		mov	r0, r5
 989 023c FFF7FEFF 		bl	UG_FillFrame
 990              	.LVL112:
 495:frucd_display.c ****             last_state_color = color;
 991              		.loc 1 495 0
 992 0240 1F4B     		ldr	r3, .L69+4
 993 0242 C3F800B0 		str	fp, [r3]
 994              	.L62:
 496:frucd_display.c ****         }
 497:frucd_display.c ****         switch(state) {
 995              		.loc 1 497 0
 996 0246 032C     		cmp	r4, #3
 997 0248 32D8     		bhi	.L44
 998 024a DFE804F0 		tbb	[pc, r4]
 999              	.L64:
 1000 024e 02       		.byte	(.L63-.L64)/2
 1001 024f 0E       		.byte	(.L65-.L64)/2
 1002 0250 1A       		.byte	(.L66-.L64)/2
 1003 0251 26       		.byte	(.L67-.L64)/2
 1004              		.p2align 1
 1005              	.L63:
 498:frucd_display.c ****             case LV:
 499:frucd_display.c ****                 UG_PutColorString(xFont, yFont, "    LV    ", C_BLACK, color);
 1006              		.loc 1 499 0
 1007 0252 4FF47F43 		mov	r3, #65280
 1008 0256 0093     		str	r3, [sp]
 1009 0258 0023     		movs	r3, #0
 1010 025a 234A     		ldr	r2, .L69+44
 1011 025c 0FFA8AF1 		sxth	r1, r10
 1012 0260 0FFA89F0 		sxth	r0, r9
 1013 0264 FFF7FEFF 		bl	UG_PutColorString
 1014              	.LVL113:
 500:frucd_display.c ****                 break;
 1015              		.loc 1 500 0
 1016 0268 22E0     		b	.L44
 1017              	.L65:
 501:frucd_display.c ****             case PRECHARGING:
 502:frucd_display.c ****                 UG_PutColorString(xFont, yFont, "PRECHARGE ", C_BLACK, color);
 1018              		.loc 1 502 0
 1019 026a 4FF47F43 		mov	r3, #65280
 1020 026e 0093     		str	r3, [sp]
 1021 0270 0023     		movs	r3, #0
 1022 0272 1E4A     		ldr	r2, .L69+48
 1023 0274 0FFA8AF1 		sxth	r1, r10
 1024 0278 0FFA89F0 		sxth	r0, r9
 1025 027c FFF7FEFF 		bl	UG_PutColorString
 1026              	.LVL114:
 503:frucd_display.c ****                 break;
 1027              		.loc 1 503 0
 1028 0280 16E0     		b	.L44
 1029              	.L66:
 504:frucd_display.c ****             case HV_ENABLED:
ARM GAS  C:\Users\RYANCA~1\AppData\Local\Temp\cclc5Gbi.s 			page 28


 505:frucd_display.c ****                 UG_PutColorString(xFont, yFont, "HV ENABLED", C_BLACK, color);
 1030              		.loc 1 505 0
 1031 0282 4FF47F43 		mov	r3, #65280
 1032 0286 0093     		str	r3, [sp]
 1033 0288 0023     		movs	r3, #0
 1034 028a 194A     		ldr	r2, .L69+52
 1035 028c 0FFA8AF1 		sxth	r1, r10
 1036 0290 0FFA89F0 		sxth	r0, r9
 1037 0294 FFF7FEFF 		bl	UG_PutColorString
 1038              	.LVL115:
 506:frucd_display.c ****                 break;
 1039              		.loc 1 506 0
 1040 0298 0AE0     		b	.L44
 1041              	.L67:
 507:frucd_display.c ****             case DRIVE:
 508:frucd_display.c ****                 UG_PutColorString(xFont, yFont, "  DRIVE   ", C_BLACK, color);
 1042              		.loc 1 508 0
 1043 029a 4FF47F43 		mov	r3, #65280
 1044 029e 0093     		str	r3, [sp]
 1045 02a0 0023     		movs	r3, #0
 1046 02a2 144A     		ldr	r2, .L69+56
 1047 02a4 0FFA8AF1 		sxth	r1, r10
 1048 02a8 0FFA89F0 		sxth	r0, r9
 1049 02ac FFF7FEFF 		bl	UG_PutColorString
 1050              	.LVL116:
 1051              	.L44:
 509:frucd_display.c ****                 break;
 510:frucd_display.c ****         }
 511:frucd_display.c ****     }
 512:frucd_display.c ****      UG_FontSelect(&FONT_12X16);
 1052              		.loc 1 512 0
 1053 02b0 1148     		ldr	r0, .L69+60
 1054 02b2 FFF7FEFF 		bl	UG_FontSelect
 1055              	.LVL117:
 513:frucd_display.c **** }
 1056              		.loc 1 513 0
 1057 02b6 03B0     		add	sp, sp, #12
 1058              		.cfi_def_cfa_offset 36
 1059              		@ sp needed
 1060 02b8 BDE8F08F 		pop	{r4, r5, r6, r7, r8, r9, r10, fp, pc}
 1061              	.LVL118:
 1062              	.L70:
 1063              		.align	2
 1064              	.L69:
 1065 02bc 00000000 		.word	FONT_32X53
 1066 02c0 00000000 		.word	last_state_color
 1067 02c4 00FFFF00 		.word	16776960
 1068 02c8 48000000 		.word	.LC8
 1069 02cc 54000000 		.word	.LC9
 1070 02d0 60000000 		.word	.LC10
 1071 02d4 6C000000 		.word	.LC11
 1072 02d8 78000000 		.word	.LC12
 1073 02dc 84000000 		.word	.LC13
 1074 02e0 90000000 		.word	.LC14
 1075 02e4 9C000000 		.word	.LC15
 1076 02e8 A8000000 		.word	.LC16
 1077 02ec B4000000 		.word	.LC17
ARM GAS  C:\Users\RYANCA~1\AppData\Local\Temp\cclc5Gbi.s 			page 29


 1078 02f0 C0000000 		.word	.LC18
 1079 02f4 CC000000 		.word	.LC19
 1080 02f8 00000000 		.word	FONT_12X16
 1081              		.cfi_endproc
 1082              	.LFE69:
 1083              		.size	disp_state, .-disp_state
 1084              		.section	.text.disp_glv_v,"ax",%progbits
 1085              		.align	2
 1086              		.global	disp_glv_v
 1087              		.thumb
 1088              		.thumb_func
 1089              		.type	disp_glv_v, %function
 1090              	disp_glv_v:
 1091              	.LFB70:
 514:frucd_display.c **** 
 515:frucd_display.c **** /*
 516:frucd_display.c **** 
 517:frucd_display.c **** void disp_glv_v(uint32_t data) {
 518:frucd_display.c ****     // translate from voltage divider measurement to true voltage
 519:frucd_display.c ****     // y = 0.4295x + 18.254
 520:frucd_display.c ****     data *= 859;
 521:frucd_display.c ****     data /= 2000; // 0.4295
 522:frucd_display.c ****     data += 18;
 523:frucd_display.c ****     UG_COLOR color;
 524:frucd_display.c ****     if (data > 1150) {
 525:frucd_display.c ****         color = C_GREEN;
 526:frucd_display.c ****     } else if (data > 1100) {
 527:frucd_display.c ****         color = C_YELLOW;
 528:frucd_display.c ****     } else if (data > 1050) {
 529:frucd_display.c ****         color = C_ORANGE;
 530:frucd_display.c ****     } else {
 531:frucd_display.c ****         color = C_RED;
 532:frucd_display.c ****     }
 533:frucd_display.c ****     if (color != last_glv_v_color) {
 534:frucd_display.c ****         // only draw rectangle if color changed
 535:frucd_display.c ****         UG_FillFrame(95, 230, 182, 260, color);
 536:frucd_display.c ****         last_glv_v_color = color;
 537:frucd_display.c ****     }
 538:frucd_display.c ****     char data_s[7];
 539:frucd_display.c ****     sprintf(data_s, "%d", data);
 540:frucd_display.c ****     // handle 3 digit cases; 2 and 1 are practically impossible
 541:frucd_display.c ****     if (data < 1000) {
 542:frucd_display.c ****         data_s[3] = data_s[2];
 543:frucd_display.c ****         data_s[2] = data_s[1];
 544:frucd_display.c ****         data_s[1] = data_s[0];  
 545:frucd_display.c ****         data_s[0] = ' ';
 546:frucd_display.c ****     }
 547:frucd_display.c ****     // shift over fractional part
 548:frucd_display.c ****     data_s[4] = data_s[3];
 549:frucd_display.c ****     data_s[3] = data_s[2];
 550:frucd_display.c ****     // add syntax
 551:frucd_display.c ****     data_s[2] = '.';
 552:frucd_display.c ****     data_s[5] = 'V';
 553:frucd_display.c ****     data_s[6] = '\0';
 554:frucd_display.c ****     UG_PutColorString(100, 240, data_s, C_BLACK, color);
 555:frucd_display.c **** }
 556:frucd_display.c **** 
ARM GAS  C:\Users\RYANCA~1\AppData\Local\Temp\cclc5Gbi.s 			page 30


 557:frucd_display.c **** */
 558:frucd_display.c **** 
 559:frucd_display.c **** 
 560:frucd_display.c **** void disp_glv_v(uint32_t data, uint8_t x1, uint8_t y1, uint8_t x2, uint8_t y2, uint8_t size) {   
 1092              		.loc 1 560 0
 1093              		.cfi_startproc
 1094              		@ args = 8, pretend = 0, frame = 8
 1095              		@ frame_needed = 0, uses_anonymous_args = 0
 1096              	.LVL119:
 1097 0000 2DE9F04F 		push	{r4, r5, r6, r7, r8, r9, r10, fp, lr}
 1098              		.cfi_def_cfa_offset 36
 1099              		.cfi_offset 4, -36
 1100              		.cfi_offset 5, -32
 1101              		.cfi_offset 6, -28
 1102              		.cfi_offset 7, -24
 1103              		.cfi_offset 8, -20
 1104              		.cfi_offset 9, -16
 1105              		.cfi_offset 10, -12
 1106              		.cfi_offset 11, -8
 1107              		.cfi_offset 14, -4
 1108 0004 85B0     		sub	sp, sp, #20
 1109              		.cfi_def_cfa_offset 56
 1110 0006 0446     		mov	r4, r0
 1111 0008 8846     		mov	r8, r1
 1112 000a 9146     		mov	r9, r2
 1113 000c 9A46     		mov	r10, r3
 1114 000e 9DF838B0 		ldrb	fp, [sp, #56]	@ zero_extendqisi2
 1115 0012 9DF83C70 		ldrb	r7, [sp, #60]	@ zero_extendqisi2
 561:frucd_display.c ****     int xFont, yFont;
 562:frucd_display.c ****     int horizFontSize = 12 + 20*size;
 1116              		.loc 1 562 0
 1117 0016 07EB8702 		add	r2, r7, r7, lsl #2
 1118              	.LVL120:
 1119 001a 9300     		lsls	r3, r2, #2
 1120              	.LVL121:
 1121 001c 0C33     		adds	r3, r3, #12
 1122              	.LVL122:
 563:frucd_display.c ****     int stringSize;
 564:frucd_display.c ****     stringSize = 6;
 565:frucd_display.c ****     xFont = (x1 + x2)/2 - ((horizFontSize*stringSize)/2);
 1123              		.loc 1 565 0
 1124 001e 01EB0A06 		add	r6, r1, r10
 1125 0022 03EB4303 		add	r3, r3, r3, lsl #1
 1126              	.LVL123:
 1127 0026 5A00     		lsls	r2, r3, #1
 1128              	.LVL124:
 1129 0028 5210     		asrs	r2, r2, #1
 1130 002a C2EB6606 		rsb	r6, r2, r6, asr #1
 1131              	.LVL125:
 566:frucd_display.c ****     yFont = (y1 + y2)/2 - 5 - (size*17);    
 1132              		.loc 1 566 0
 1133 002e 09EB0B05 		add	r5, r9, fp
 1134 0032 6D10     		asrs	r5, r5, #1
 1135 0034 053D     		subs	r5, r5, #5
 1136 0036 C7EB0773 		rsb	r3, r7, r7, lsl #28
 1137 003a C7EB0313 		rsb	r3, r7, r3, lsl #4
 1138 003e 1D44     		add	r5, r5, r3
ARM GAS  C:\Users\RYANCA~1\AppData\Local\Temp\cclc5Gbi.s 			page 31


 1139              	.LVL126:
 567:frucd_display.c ****     
 568:frucd_display.c ****     UG_PutString(x1 - 85, yFont, "GLV V:");
 1140              		.loc 1 568 0
 1141 0040 2DB2     		sxth	r5, r5
 1142              	.LVL127:
 1143 0042 354A     		ldr	r2, .L80
 1144 0044 2946     		mov	r1, r5
 1145              	.LVL128:
 1146 0046 A8F15500 		sub	r0, r8, #85
 1147              	.LVL129:
 1148 004a FFF7FEFF 		bl	UG_PutString
 1149              	.LVL130:
 569:frucd_display.c ****     
 570:frucd_display.c ****     if(size == 1){
 1150              		.loc 1 570 0
 1151 004e 012F     		cmp	r7, #1
 1152 0050 02D1     		bne	.L72
 571:frucd_display.c ****         UG_FontSelect(&FONT_32X53);  
 1153              		.loc 1 571 0
 1154 0052 3248     		ldr	r0, .L80+4
 1155 0054 FFF7FEFF 		bl	UG_FontSelect
 1156              	.LVL131:
 1157              	.L72:
 572:frucd_display.c ****     }
 573:frucd_display.c ****     // translate from voltage divider measurement to true voltage
 574:frucd_display.c ****     // y = 0.4295x + 18.254
 575:frucd_display.c ****     data *= 859;
 1158              		.loc 1 575 0
 1159 0058 40F25B33 		movw	r3, #859
 1160 005c 03FB04F4 		mul	r4, r3, r4
 1161              	.LVL132:
 576:frucd_display.c ****     data /= 2000; // 0.4295
 1162              		.loc 1 576 0
 1163 0060 2F4B     		ldr	r3, .L80+8
 1164 0062 A3FB0434 		umull	r3, r4, r3, r4
 1165              	.LVL133:
 1166 0066 E409     		lsrs	r4, r4, #7
 1167              	.LVL134:
 577:frucd_display.c ****     data += 18;
 1168              		.loc 1 577 0
 1169 0068 1234     		adds	r4, r4, #18
 1170              	.LVL135:
 578:frucd_display.c ****     UG_COLOR color;
 579:frucd_display.c ****     if (data > 1150) {
 1171              		.loc 1 579 0
 1172 006a 40F27E43 		movw	r3, #1150
 1173 006e 9C42     		cmp	r4, r3
 1174 0070 09D8     		bhi	.L76
 580:frucd_display.c ****         color = C_GREEN;
 581:frucd_display.c ****     } else if (data > 1100) {
 1175              		.loc 1 581 0
 1176 0072 40F24C43 		movw	r3, #1100
 1177 0076 9C42     		cmp	r4, r3
 1178 0078 08D8     		bhi	.L77
 582:frucd_display.c ****         color = C_YELLOW;
 583:frucd_display.c ****     } else if (data > 1050) {
ARM GAS  C:\Users\RYANCA~1\AppData\Local\Temp\cclc5Gbi.s 			page 32


 1179              		.loc 1 583 0
 1180 007a 40F21A43 		movw	r3, #1050
 1181 007e 9C42     		cmp	r4, r3
 1182 0080 06D9     		bls	.L78
 584:frucd_display.c ****         color = C_ORANGE;
 1183              		.loc 1 584 0
 1184 0082 284F     		ldr	r7, .L80+12
 1185              	.LVL136:
 1186 0084 06E0     		b	.L73
 1187              	.LVL137:
 1188              	.L76:
 580:frucd_display.c ****         color = C_GREEN;
 1189              		.loc 1 580 0
 1190 0086 4FF47F47 		mov	r7, #65280
 1191              	.LVL138:
 1192 008a 03E0     		b	.L73
 1193              	.LVL139:
 1194              	.L77:
 582:frucd_display.c ****         color = C_YELLOW;
 1195              		.loc 1 582 0
 1196 008c 264F     		ldr	r7, .L80+16
 1197              	.LVL140:
 1198 008e 01E0     		b	.L73
 1199              	.LVL141:
 1200              	.L78:
 585:frucd_display.c ****     } else {
 586:frucd_display.c ****         color = C_RED;
 1201              		.loc 1 586 0
 1202 0090 4FF47F07 		mov	r7, #16711680
 1203              	.LVL142:
 1204              	.L73:
 587:frucd_display.c ****     }
 588:frucd_display.c ****     if (color != last_glv_v_color) {
 1205              		.loc 1 588 0
 1206 0094 254B     		ldr	r3, .L80+20
 1207 0096 1B68     		ldr	r3, [r3]
 1208 0098 9F42     		cmp	r7, r3
 1209 009a 08D0     		beq	.L74
 589:frucd_display.c ****         // only draw rectangle if color changed
 590:frucd_display.c ****         UG_FillFrame(x1, y1, x2, y2, color);
 1210              		.loc 1 590 0
 1211 009c 0097     		str	r7, [sp]
 1212 009e 5B46     		mov	r3, fp
 1213 00a0 5246     		mov	r2, r10
 1214 00a2 4946     		mov	r1, r9
 1215 00a4 4046     		mov	r0, r8
 1216 00a6 FFF7FEFF 		bl	UG_FillFrame
 1217              	.LVL143:
 591:frucd_display.c ****         last_glv_v_color = color;
 1218              		.loc 1 591 0
 1219 00aa 204B     		ldr	r3, .L80+20
 1220 00ac 1F60     		str	r7, [r3]
 1221              	.L74:
 592:frucd_display.c ****     }
 593:frucd_display.c ****     char data_s[7];
 594:frucd_display.c ****     sprintf(data_s, "%d", data);
 1222              		.loc 1 594 0
ARM GAS  C:\Users\RYANCA~1\AppData\Local\Temp\cclc5Gbi.s 			page 33


 1223 00ae 2246     		mov	r2, r4
 1224 00b0 1F49     		ldr	r1, .L80+24
 1225 00b2 02A8     		add	r0, sp, #8
 1226 00b4 FFF7FEFF 		bl	sprintf
 1227              	.LVL144:
 595:frucd_display.c ****     // handle 3 digit cases; 2 and 1 are practically impossible
 596:frucd_display.c ****     if (data < 1000) {
 1228              		.loc 1 596 0
 1229 00b8 B4F57A7F 		cmp	r4, #1000
 1230 00bc 0ED2     		bcs	.L75
 597:frucd_display.c ****         data_s[3] = data_s[2];
 1231              		.loc 1 597 0
 1232 00be 9DF80A30 		ldrb	r3, [sp, #10]	@ zero_extendqisi2
 1233 00c2 8DF80B30 		strb	r3, [sp, #11]
 598:frucd_display.c ****         data_s[2] = data_s[1];
 1234              		.loc 1 598 0
 1235 00c6 9DF80930 		ldrb	r3, [sp, #9]	@ zero_extendqisi2
 1236 00ca 8DF80A30 		strb	r3, [sp, #10]
 599:frucd_display.c ****         data_s[1] = data_s[0];  
 1237              		.loc 1 599 0
 1238 00ce 9DF80830 		ldrb	r3, [sp, #8]	@ zero_extendqisi2
 1239 00d2 8DF80930 		strb	r3, [sp, #9]
 600:frucd_display.c ****         data_s[0] = ' ';
 1240              		.loc 1 600 0
 1241 00d6 2023     		movs	r3, #32
 1242 00d8 8DF80830 		strb	r3, [sp, #8]
 1243              	.L75:
 601:frucd_display.c ****     }
 602:frucd_display.c ****     // shift over fractional part
 603:frucd_display.c ****     data_s[4] = data_s[3];
 1244              		.loc 1 603 0
 1245 00dc 9DF80B30 		ldrb	r3, [sp, #11]	@ zero_extendqisi2
 1246 00e0 8DF80C30 		strb	r3, [sp, #12]
 604:frucd_display.c ****     data_s[3] = data_s[2];
 1247              		.loc 1 604 0
 1248 00e4 9DF80A30 		ldrb	r3, [sp, #10]	@ zero_extendqisi2
 1249 00e8 8DF80B30 		strb	r3, [sp, #11]
 605:frucd_display.c ****     // add syntax
 606:frucd_display.c ****     data_s[2] = '.';
 1250              		.loc 1 606 0
 1251 00ec 2E23     		movs	r3, #46
 1252 00ee 8DF80A30 		strb	r3, [sp, #10]
 607:frucd_display.c ****     data_s[5] = 'V';
 1253              		.loc 1 607 0
 1254 00f2 5623     		movs	r3, #86
 1255 00f4 8DF80D30 		strb	r3, [sp, #13]
 608:frucd_display.c ****     data_s[6] = '\0';
 1256              		.loc 1 608 0
 1257 00f8 0023     		movs	r3, #0
 1258 00fa 8DF80E30 		strb	r3, [sp, #14]
 609:frucd_display.c ****     UG_PutColorString(xFont, yFont, data_s, C_BLACK, color);
 1259              		.loc 1 609 0
 1260 00fe 0097     		str	r7, [sp]
 1261 0100 02AA     		add	r2, sp, #8
 1262 0102 2946     		mov	r1, r5
 1263 0104 30B2     		sxth	r0, r6
 1264 0106 FFF7FEFF 		bl	UG_PutColorString
ARM GAS  C:\Users\RYANCA~1\AppData\Local\Temp\cclc5Gbi.s 			page 34


 1265              	.LVL145:
 610:frucd_display.c ****     UG_FontSelect(&FONT_12X16);
 1266              		.loc 1 610 0
 1267 010a 0A48     		ldr	r0, .L80+28
 1268 010c FFF7FEFF 		bl	UG_FontSelect
 1269              	.LVL146:
 611:frucd_display.c **** }
 1270              		.loc 1 611 0
 1271 0110 05B0     		add	sp, sp, #20
 1272              		.cfi_def_cfa_offset 36
 1273              		@ sp needed
 1274 0112 BDE8F08F 		pop	{r4, r5, r6, r7, r8, r9, r10, fp, pc}
 1275              	.LVL147:
 1276              	.L81:
 1277 0116 00BF     		.align	2
 1278              	.L80:
 1279 0118 20000000 		.word	.LC3
 1280 011c 00000000 		.word	FONT_32X53
 1281 0120 D34D6210 		.word	274877907
 1282 0124 00A5FF00 		.word	16753920
 1283 0128 00FFFF00 		.word	16776960
 1284 012c 00000000 		.word	last_glv_v_color
 1285 0130 44000000 		.word	.LC7
 1286 0134 00000000 		.word	FONT_12X16
 1287              		.cfi_endproc
 1288              	.LFE70:
 1289              		.size	disp_glv_v, .-disp_glv_v
 1290              		.section	.text.disp_gen_temp,"ax",%progbits
 1291              		.align	2
 1292              		.global	disp_gen_temp
 1293              		.thumb
 1294              		.thumb_func
 1295              		.type	disp_gen_temp, %function
 1296              	disp_gen_temp:
 1297              	.LFB73:
 612:frucd_display.c **** 
 613:frucd_display.c **** 
 614:frucd_display.c **** /*
 615:frucd_display.c **** void disp_mc_temp(uint16_t data) {
 616:frucd_display.c ****     if (data >= 100) {
 617:frucd_display.c ****         // handle 3 digit cases
 618:frucd_display.c ****         UG_FillFrame(410, 185, 470, 215, C_GREEN);
 619:frucd_display.c ****         char data_s[5];
 620:frucd_display.c ****         sprintf(data_s, "%d", data);
 621:frucd_display.c ****         data_s[3] = 'C';
 622:frucd_display.c ****         data_s[4] = '\0';
 623:frucd_display.c ****         UG_PutColorString(415, 195, data_s, C_BLACK, C_GREEN);
 624:frucd_display.c ****     } else {
 625:frucd_display.c ****         // handle 2 digit cases
 626:frucd_display.c ****         UG_FillFrame(410, 185, 470, 215, C_GREEN);
 627:frucd_display.c ****         char data_s[4];
 628:frucd_display.c ****         sprintf(data_s, "%d", data);
 629:frucd_display.c ****         data_s[2] = 'C';
 630:frucd_display.c ****         data_s[3] = '\0';
 631:frucd_display.c ****         UG_PutColorString(422, 195, data_s, C_BLACK, C_GREEN);
 632:frucd_display.c ****     }
 633:frucd_display.c **** }
ARM GAS  C:\Users\RYANCA~1\AppData\Local\Temp\cclc5Gbi.s 			page 35


 634:frucd_display.c **** */
 635:frucd_display.c **** 
 636:frucd_display.c **** void disp_mc_temp(uint16_t data, uint8_t x1, uint8_t y1, uint8_t x2, uint8_t y2, uint8_t size){
 637:frucd_display.c ****     disp_gen_temp(data, x1, y1, x2, y2, size);
 638:frucd_display.c **** }
 639:frucd_display.c **** /*
 640:frucd_display.c **** void disp_motor_temp(uint16_t data) {
 641:frucd_display.c ****     if (data >= 100) {
 642:frucd_display.c ****         // handle 3 digit cases
 643:frucd_display.c ****         UG_FillFrame(410, 230, 470, 260, C_GREEN);
 644:frucd_display.c ****         char data_s[5];
 645:frucd_display.c ****         sprintf(data_s, "%d", data);
 646:frucd_display.c ****         data_s[3] = 'C';
 647:frucd_display.c ****         data_s[4] = '\0';
 648:frucd_display.c ****         UG_PutColorString(415, 240, data_s, C_BLACK, C_GREEN);
 649:frucd_display.c ****     } else {
 650:frucd_display.c ****         // handle 2 digit cases
 651:frucd_display.c ****         UG_FillFrame(410, 230, 470, 260, C_GREEN);
 652:frucd_display.c ****         char data_s[4];
 653:frucd_display.c ****         sprintf(data_s, "%d", data);
 654:frucd_display.c ****         data_s[2] = 'C';
 655:frucd_display.c ****         data_s[3] = '\0';
 656:frucd_display.c ****         UG_PutColorString(422, 240, data_s, C_BLACK, C_GREEN);
 657:frucd_display.c ****     }
 658:frucd_display.c **** }
 659:frucd_display.c **** */
 660:frucd_display.c **** 
 661:frucd_display.c **** void disp_motor_temp(uint16_t data, uint8_t x1, uint8_t y1, uint8_t x2, uint8_t y2, uint8_t size){
 662:frucd_display.c ****     disp_gen_temp(data, x1, y1, x2, y2, size);
 663:frucd_display.c **** }
 664:frucd_display.c **** 
 665:frucd_display.c **** 
 666:frucd_display.c **** 
 667:frucd_display.c **** void disp_gen_temp(uint16_t data, uint8_t x1, uint8_t y1, uint8_t x2, uint8_t y2, uint8_t size){
 1298              		.loc 1 667 0
 1299              		.cfi_startproc
 1300              		@ args = 8, pretend = 0, frame = 8
 1301              		@ frame_needed = 0, uses_anonymous_args = 0
 1302              	.LVL148:
 1303 0000 2DE9F04F 		push	{r4, r5, r6, r7, r8, r9, r10, fp, lr}
 1304              		.cfi_def_cfa_offset 36
 1305              		.cfi_offset 4, -36
 1306              		.cfi_offset 5, -32
 1307              		.cfi_offset 6, -28
 1308              		.cfi_offset 7, -24
 1309              		.cfi_offset 8, -20
 1310              		.cfi_offset 9, -16
 1311              		.cfi_offset 10, -12
 1312              		.cfi_offset 11, -8
 1313              		.cfi_offset 14, -4
 1314 0004 85B0     		sub	sp, sp, #20
 1315              		.cfi_def_cfa_offset 56
 1316 0006 0546     		mov	r5, r0
 1317 0008 0E46     		mov	r6, r1
 1318 000a 1746     		mov	r7, r2
 1319 000c 9846     		mov	r8, r3
 1320 000e 9DF83890 		ldrb	r9, [sp, #56]	@ zero_extendqisi2
ARM GAS  C:\Users\RYANCA~1\AppData\Local\Temp\cclc5Gbi.s 			page 36


 1321 0012 9DF83C20 		ldrb	r2, [sp, #60]	@ zero_extendqisi2
 1322              	.LVL149:
 668:frucd_display.c ****     int xFont, yFont;
 669:frucd_display.c ****     int horizFontSize = 12 + 20*size;
 1323              		.loc 1 669 0
 1324 0016 02EB8201 		add	r1, r2, r2, lsl #2
 1325              	.LVL150:
 1326 001a 8B00     		lsls	r3, r1, #2
 1327              	.LVL151:
 1328 001c 0C33     		adds	r3, r3, #12
 1329              	.LVL152:
 670:frucd_display.c ****     int stringSize;
 671:frucd_display.c ****     if (data >= 100) {
 1330              		.loc 1 671 0
 1331 001e 6328     		cmp	r0, #99
 1332 0020 01D9     		bls	.L87
 672:frucd_display.c ****         stringSize = 4;
 1333              		.loc 1 672 0
 1334 0022 0421     		movs	r1, #4
 1335 0024 00E0     		b	.L83
 1336              	.L87:
 673:frucd_display.c ****     }else{
 674:frucd_display.c ****         stringSize = 3;
 1337              		.loc 1 674 0
 1338 0026 0321     		movs	r1, #3
 1339              	.L83:
 1340              	.LVL153:
 675:frucd_display.c ****     }
 676:frucd_display.c ****     xFont = (x1 + x2)/2 - ((horizFontSize*stringSize)/2);
 1341              		.loc 1 676 0
 1342 0028 06EB0804 		add	r4, r6, r8
 1343 002c 03FB01F3 		mul	r3, r3, r1
 1344              	.LVL154:
 1345 0030 5B10     		asrs	r3, r3, #1
 1346 0032 C3EB6404 		rsb	r4, r3, r4, asr #1
 1347              	.LVL155:
 677:frucd_display.c ****     yFont = (y1 + y2)/2 - 5 - (size*17);    
 1348              		.loc 1 677 0
 1349 0036 07EB090A 		add	r10, r7, r9
 1350 003a 4FEA6A0A 		asr	r10, r10, #1
 1351 003e AAF10503 		sub	r3, r10, #5
 1352 0042 C2EB027A 		rsb	r10, r2, r2, lsl #28
 1353 0046 C2EB0A1A 		rsb	r10, r2, r10, lsl #4
 1354 004a 9A44     		add	r10, r10, r3
 1355              	.LVL156:
 678:frucd_display.c ****     if(size == 1){
 1356              		.loc 1 678 0
 1357 004c 012A     		cmp	r2, #1
 1358 004e 02D1     		bne	.L84
 679:frucd_display.c ****         UG_FontSelect(&FONT_32X53);
 1359              		.loc 1 679 0
 1360 0050 2248     		ldr	r0, .L89
 1361              	.LVL157:
 1362 0052 FFF7FEFF 		bl	UG_FontSelect
 1363              	.LVL158:
 1364              	.L84:
 680:frucd_display.c ****         
ARM GAS  C:\Users\RYANCA~1\AppData\Local\Temp\cclc5Gbi.s 			page 37


 681:frucd_display.c ****     }
 682:frucd_display.c ****     if (data >= 100) {
 1365              		.loc 1 682 0
 1366 0056 632D     		cmp	r5, #99
 1367 0058 1DD9     		bls	.L85
 1368              	.LBB4:
 683:frucd_display.c ****         // handle 3 digit cases
 684:frucd_display.c ****         UG_FillFrame(x1, y1, x2, y2, C_GREEN);
 1369              		.loc 1 684 0
 1370 005a 4FF47F4B 		mov	fp, #65280
 1371 005e CDF800B0 		str	fp, [sp]
 1372 0062 4B46     		mov	r3, r9
 1373 0064 4246     		mov	r2, r8
 1374 0066 3946     		mov	r1, r7
 1375 0068 3046     		mov	r0, r6
 1376 006a FFF7FEFF 		bl	UG_FillFrame
 1377              	.LVL159:
 685:frucd_display.c ****         char data_s[5];
 686:frucd_display.c ****         sprintf(data_s, "%d", data);
 1378              		.loc 1 686 0
 1379 006e 2A46     		mov	r2, r5
 1380 0070 1B49     		ldr	r1, .L89+4
 1381 0072 02A8     		add	r0, sp, #8
 1382 0074 FFF7FEFF 		bl	sprintf
 1383              	.LVL160:
 687:frucd_display.c ****         data_s[3] = 'C';
 1384              		.loc 1 687 0
 1385 0078 4323     		movs	r3, #67
 1386 007a 8DF80B30 		strb	r3, [sp, #11]
 688:frucd_display.c ****         data_s[4] = '\0';
 1387              		.loc 1 688 0
 1388 007e 0023     		movs	r3, #0
 1389 0080 8DF80C30 		strb	r3, [sp, #12]
 689:frucd_display.c ****         UG_PutColorString(xFont, yFont, data_s, C_BLACK, C_GREEN);
 1390              		.loc 1 689 0
 1391 0084 CDF800B0 		str	fp, [sp]
 1392 0088 02AA     		add	r2, sp, #8
 1393 008a 0FFA8AF1 		sxth	r1, r10
 1394 008e 20B2     		sxth	r0, r4
 1395 0090 FFF7FEFF 		bl	UG_PutColorString
 1396              	.LVL161:
 1397              	.LBE4:
 1398 0094 1CE0     		b	.L86
 1399              	.L85:
 1400              	.LBB5:
 690:frucd_display.c ****     } else {
 691:frucd_display.c ****         // handle 2 digit cases
 692:frucd_display.c ****         UG_FillFrame(x1, y1, x2, y2, C_GREEN);
 1401              		.loc 1 692 0
 1402 0096 4FF47F4B 		mov	fp, #65280
 1403 009a CDF800B0 		str	fp, [sp]
 1404 009e 4B46     		mov	r3, r9
 1405 00a0 4246     		mov	r2, r8
 1406 00a2 3946     		mov	r1, r7
 1407 00a4 3046     		mov	r0, r6
 1408 00a6 FFF7FEFF 		bl	UG_FillFrame
 1409              	.LVL162:
ARM GAS  C:\Users\RYANCA~1\AppData\Local\Temp\cclc5Gbi.s 			page 38


 693:frucd_display.c ****         char data_s[4];
 694:frucd_display.c ****         sprintf(data_s, "%d", data);
 1410              		.loc 1 694 0
 1411 00aa 2A46     		mov	r2, r5
 1412 00ac 0C49     		ldr	r1, .L89+4
 1413 00ae 02A8     		add	r0, sp, #8
 1414 00b0 FFF7FEFF 		bl	sprintf
 1415              	.LVL163:
 695:frucd_display.c ****         data_s[2] = 'C';
 1416              		.loc 1 695 0
 1417 00b4 4323     		movs	r3, #67
 1418 00b6 8DF80A30 		strb	r3, [sp, #10]
 696:frucd_display.c ****         data_s[3] = '\0';
 1419              		.loc 1 696 0
 1420 00ba 0023     		movs	r3, #0
 1421 00bc 8DF80B30 		strb	r3, [sp, #11]
 697:frucd_display.c ****         UG_PutColorString(xFont, yFont, data_s, C_BLACK, C_GREEN);
 1422              		.loc 1 697 0
 1423 00c0 CDF800B0 		str	fp, [sp]
 1424 00c4 02AA     		add	r2, sp, #8
 1425 00c6 0FFA8AF1 		sxth	r1, r10
 1426 00ca 20B2     		sxth	r0, r4
 1427 00cc FFF7FEFF 		bl	UG_PutColorString
 1428              	.LVL164:
 1429              	.L86:
 1430              	.LBE5:
 698:frucd_display.c ****     }
 699:frucd_display.c ****      UG_FontSelect(&FONT_12X16);
 1431              		.loc 1 699 0
 1432 00d0 0448     		ldr	r0, .L89+8
 1433 00d2 FFF7FEFF 		bl	UG_FontSelect
 1434              	.LVL165:
 700:frucd_display.c **** }
 1435              		.loc 1 700 0
 1436 00d6 05B0     		add	sp, sp, #20
 1437              		.cfi_def_cfa_offset 36
 1438              		@ sp needed
 1439 00d8 BDE8F08F 		pop	{r4, r5, r6, r7, r8, r9, r10, fp, pc}
 1440              	.LVL166:
 1441              	.L90:
 1442              		.align	2
 1443              	.L89:
 1444 00dc 00000000 		.word	FONT_32X53
 1445 00e0 44000000 		.word	.LC7
 1446 00e4 00000000 		.word	FONT_12X16
 1447              		.cfi_endproc
 1448              	.LFE73:
 1449              		.size	disp_gen_temp, .-disp_gen_temp
 1450              		.section	.text.disp_mc_temp,"ax",%progbits
 1451              		.align	2
 1452              		.global	disp_mc_temp
 1453              		.thumb
 1454              		.thumb_func
 1455              		.type	disp_mc_temp, %function
 1456              	disp_mc_temp:
 1457              	.LFB71:
 636:frucd_display.c ****     disp_gen_temp(data, x1, y1, x2, y2, size);
ARM GAS  C:\Users\RYANCA~1\AppData\Local\Temp\cclc5Gbi.s 			page 39


 1458              		.loc 1 636 0
 1459              		.cfi_startproc
 1460              		@ args = 8, pretend = 0, frame = 0
 1461              		@ frame_needed = 0, uses_anonymous_args = 0
 1462              	.LVL167:
 1463 0000 10B5     		push	{r4, lr}
 1464              		.cfi_def_cfa_offset 8
 1465              		.cfi_offset 4, -8
 1466              		.cfi_offset 14, -4
 1467 0002 82B0     		sub	sp, sp, #8
 1468              		.cfi_def_cfa_offset 16
 637:frucd_display.c **** }
 1469              		.loc 1 637 0
 1470 0004 9DF81440 		ldrb	r4, [sp, #20]	@ zero_extendqisi2
 1471 0008 0194     		str	r4, [sp, #4]
 1472 000a 9DF81040 		ldrb	r4, [sp, #16]	@ zero_extendqisi2
 1473 000e 0094     		str	r4, [sp]
 1474 0010 FFF7FEFF 		bl	disp_gen_temp
 1475              	.LVL168:
 638:frucd_display.c **** /*
 1476              		.loc 1 638 0
 1477 0014 02B0     		add	sp, sp, #8
 1478              		.cfi_def_cfa_offset 8
 1479              		@ sp needed
 1480 0016 10BD     		pop	{r4, pc}
 1481              		.cfi_endproc
 1482              	.LFE71:
 1483              		.size	disp_mc_temp, .-disp_mc_temp
 1484              		.section	.text.disp_motor_temp,"ax",%progbits
 1485              		.align	2
 1486              		.global	disp_motor_temp
 1487              		.thumb
 1488              		.thumb_func
 1489              		.type	disp_motor_temp, %function
 1490              	disp_motor_temp:
 1491              	.LFB72:
 661:frucd_display.c ****     disp_gen_temp(data, x1, y1, x2, y2, size);
 1492              		.loc 1 661 0
 1493              		.cfi_startproc
 1494              		@ args = 8, pretend = 0, frame = 0
 1495              		@ frame_needed = 0, uses_anonymous_args = 0
 1496              	.LVL169:
 1497 0000 10B5     		push	{r4, lr}
 1498              		.cfi_def_cfa_offset 8
 1499              		.cfi_offset 4, -8
 1500              		.cfi_offset 14, -4
 1501 0002 82B0     		sub	sp, sp, #8
 1502              		.cfi_def_cfa_offset 16
 662:frucd_display.c **** }
 1503              		.loc 1 662 0
 1504 0004 9DF81440 		ldrb	r4, [sp, #20]	@ zero_extendqisi2
 1505 0008 0194     		str	r4, [sp, #4]
 1506 000a 9DF81040 		ldrb	r4, [sp, #16]	@ zero_extendqisi2
 1507 000e 0094     		str	r4, [sp]
 1508 0010 FFF7FEFF 		bl	disp_gen_temp
 1509              	.LVL170:
 663:frucd_display.c **** 
ARM GAS  C:\Users\RYANCA~1\AppData\Local\Temp\cclc5Gbi.s 			page 40


 1510              		.loc 1 663 0
 1511 0014 02B0     		add	sp, sp, #8
 1512              		.cfi_def_cfa_offset 8
 1513              		@ sp needed
 1514 0016 10BD     		pop	{r4, pc}
 1515              		.cfi_endproc
 1516              	.LFE72:
 1517              		.size	disp_motor_temp, .-disp_motor_temp
 1518              		.section	.text.disp_gen_voltage,"ax",%progbits
 1519              		.align	2
 1520              		.global	disp_gen_voltage
 1521              		.thumb
 1522              		.thumb_func
 1523              		.type	disp_gen_voltage, %function
 1524              	disp_gen_voltage:
 1525              	.LFB74:
 701:frucd_display.c **** 
 702:frucd_display.c **** void disp_gen_voltage(uint16_t data, uint8_t x1, uint8_t y1, uint8_t x2, uint8_t y2, uint8_t size){
 1526              		.loc 1 702 0
 1527              		.cfi_startproc
 1528              		@ args = 8, pretend = 0, frame = 8
 1529              		@ frame_needed = 0, uses_anonymous_args = 0
 1530              	.LVL171:
 1531 0000 2DE9F047 		push	{r4, r5, r6, r7, r8, r9, r10, lr}
 1532              		.cfi_def_cfa_offset 32
 1533              		.cfi_offset 4, -32
 1534              		.cfi_offset 5, -28
 1535              		.cfi_offset 6, -24
 1536              		.cfi_offset 7, -20
 1537              		.cfi_offset 8, -16
 1538              		.cfi_offset 9, -12
 1539              		.cfi_offset 10, -8
 1540              		.cfi_offset 14, -4
 1541 0004 84B0     		sub	sp, sp, #16
 1542              		.cfi_def_cfa_offset 48
 1543 0006 0446     		mov	r4, r0
 1544 0008 0D46     		mov	r5, r1
 1545 000a 1646     		mov	r6, r2
 1546 000c 1F46     		mov	r7, r3
 1547 000e 9DF83080 		ldrb	r8, [sp, #48]	@ zero_extendqisi2
 1548 0012 9DF83420 		ldrb	r2, [sp, #52]	@ zero_extendqisi2
 1549              	.LVL172:
 703:frucd_display.c ****     int xFont, yFont;
 704:frucd_display.c ****     int horizFontSize = 12 + 20*size;
 1550              		.loc 1 704 0
 1551 0016 02EB8201 		add	r1, r2, r2, lsl #2
 1552              	.LVL173:
 1553 001a 8B00     		lsls	r3, r1, #2
 1554              	.LVL174:
 1555 001c 0C33     		adds	r3, r3, #12
 1556              	.LVL175:
 705:frucd_display.c ****     int stringSize;
 706:frucd_display.c ****     stringSize = 6;
 707:frucd_display.c ****    
 708:frucd_display.c ****     xFont = (x1 + x2)/2 - ((horizFontSize*stringSize)/2);
 1557              		.loc 1 708 0
 1558 001e 05EB0709 		add	r9, r5, r7
ARM GAS  C:\Users\RYANCA~1\AppData\Local\Temp\cclc5Gbi.s 			page 41


 1559 0022 03EB4303 		add	r3, r3, r3, lsl #1
 1560              	.LVL176:
 1561 0026 5900     		lsls	r1, r3, #1
 1562              	.LVL177:
 1563 0028 4910     		asrs	r1, r1, #1
 1564 002a C1EB6909 		rsb	r9, r1, r9, asr #1
 1565              	.LVL178:
 709:frucd_display.c ****     yFont = (y1 + y2)/2 - 5 - (size*17);    
 1566              		.loc 1 709 0
 1567 002e 06EB080A 		add	r10, r6, r8
 1568 0032 4FEA6A0A 		asr	r10, r10, #1
 1569 0036 AAF10503 		sub	r3, r10, #5
 1570 003a C2EB027A 		rsb	r10, r2, r2, lsl #28
 1571 003e C2EB0A1A 		rsb	r10, r2, r10, lsl #4
 1572 0042 9A44     		add	r10, r10, r3
 1573              	.LVL179:
 710:frucd_display.c ****     if(size == 1){
 1574              		.loc 1 710 0
 1575 0044 012A     		cmp	r2, #1
 1576 0046 02D1     		bne	.L96
 711:frucd_display.c ****         UG_FontSelect(&FONT_32X53);
 1577              		.loc 1 711 0
 1578 0048 2148     		ldr	r0, .L99
 1579              	.LVL180:
 1580 004a FFF7FEFF 		bl	UG_FontSelect
 1581              	.LVL181:
 1582              	.L96:
 712:frucd_display.c ****         
 713:frucd_display.c ****     }
 714:frucd_display.c ****     UG_FillFrame(x1, y1, x2, y2, C_GREEN);
 1583              		.loc 1 714 0
 1584 004e 4FF47F43 		mov	r3, #65280
 1585 0052 0093     		str	r3, [sp]
 1586 0054 4346     		mov	r3, r8
 1587 0056 3A46     		mov	r2, r7
 1588 0058 3146     		mov	r1, r6
 1589 005a 2846     		mov	r0, r5
 1590 005c FFF7FEFF 		bl	UG_FillFrame
 1591              	.LVL182:
 715:frucd_display.c ****     char data_s[7];
 716:frucd_display.c ****     sprintf(data_s, "%d", data);
 1592              		.loc 1 716 0
 1593 0060 2246     		mov	r2, r4
 1594 0062 1C49     		ldr	r1, .L99+4
 1595 0064 02A8     		add	r0, sp, #8
 1596 0066 FFF7FEFF 		bl	sprintf
 1597              	.LVL183:
 717:frucd_display.c ****     // handle 3 digit cases; 2 and 1 are practically impossible
 718:frucd_display.c ****     if (data < 1000) {
 1598              		.loc 1 718 0
 1599 006a B4F57A7F 		cmp	r4, #1000
 1600 006e 0ED2     		bcs	.L97
 719:frucd_display.c ****         data_s[3] = data_s[2];
 1601              		.loc 1 719 0
 1602 0070 9DF80A30 		ldrb	r3, [sp, #10]	@ zero_extendqisi2
 1603 0074 8DF80B30 		strb	r3, [sp, #11]
 720:frucd_display.c ****         data_s[2] = data_s[1];
ARM GAS  C:\Users\RYANCA~1\AppData\Local\Temp\cclc5Gbi.s 			page 42


 1604              		.loc 1 720 0
 1605 0078 9DF80930 		ldrb	r3, [sp, #9]	@ zero_extendqisi2
 1606 007c 8DF80A30 		strb	r3, [sp, #10]
 721:frucd_display.c ****         data_s[1] = data_s[0];  
 1607              		.loc 1 721 0
 1608 0080 9DF80830 		ldrb	r3, [sp, #8]	@ zero_extendqisi2
 1609 0084 8DF80930 		strb	r3, [sp, #9]
 722:frucd_display.c ****         data_s[0] = ' ';
 1610              		.loc 1 722 0
 1611 0088 2023     		movs	r3, #32
 1612 008a 8DF80830 		strb	r3, [sp, #8]
 1613              	.L97:
 723:frucd_display.c ****     }
 724:frucd_display.c ****     // shift over fractional part
 725:frucd_display.c ****     data_s[4] = data_s[3];
 1614              		.loc 1 725 0
 1615 008e 9DF80B30 		ldrb	r3, [sp, #11]	@ zero_extendqisi2
 1616 0092 8DF80C30 		strb	r3, [sp, #12]
 726:frucd_display.c ****     data_s[3] = data_s[2];
 1617              		.loc 1 726 0
 1618 0096 9DF80A30 		ldrb	r3, [sp, #10]	@ zero_extendqisi2
 1619 009a 8DF80B30 		strb	r3, [sp, #11]
 727:frucd_display.c ****     // add syntax
 728:frucd_display.c ****     data_s[2] = '.';
 1620              		.loc 1 728 0
 1621 009e 2E23     		movs	r3, #46
 1622 00a0 8DF80A30 		strb	r3, [sp, #10]
 729:frucd_display.c ****     data_s[5] = 'V';
 1623              		.loc 1 729 0
 1624 00a4 5623     		movs	r3, #86
 1625 00a6 8DF80D30 		strb	r3, [sp, #13]
 730:frucd_display.c ****     data_s[6] = '\0';
 1626              		.loc 1 730 0
 1627 00aa 0023     		movs	r3, #0
 1628 00ac 8DF80E30 		strb	r3, [sp, #14]
 731:frucd_display.c ****     UG_PutColorString(xFont, yFont, data_s, C_BLACK, C_GREEN);
 1629              		.loc 1 731 0
 1630 00b0 4FF47F42 		mov	r2, #65280
 1631 00b4 0092     		str	r2, [sp]
 1632 00b6 02AA     		add	r2, sp, #8
 1633 00b8 0FFA8AF1 		sxth	r1, r10
 1634 00bc 0FFA89F0 		sxth	r0, r9
 1635 00c0 FFF7FEFF 		bl	UG_PutColorString
 1636              	.LVL184:
 732:frucd_display.c ****     
 733:frucd_display.c ****     UG_FontSelect(&FONT_12X16);
 1637              		.loc 1 733 0
 1638 00c4 0448     		ldr	r0, .L99+8
 1639 00c6 FFF7FEFF 		bl	UG_FontSelect
 1640              	.LVL185:
 734:frucd_display.c **** }
 1641              		.loc 1 734 0
 1642 00ca 04B0     		add	sp, sp, #16
 1643              		.cfi_def_cfa_offset 32
 1644              		@ sp needed
 1645 00cc BDE8F087 		pop	{r4, r5, r6, r7, r8, r9, r10, pc}
 1646              	.LVL186:
ARM GAS  C:\Users\RYANCA~1\AppData\Local\Temp\cclc5Gbi.s 			page 43


 1647              	.L100:
 1648              		.align	2
 1649              	.L99:
 1650 00d0 00000000 		.word	FONT_32X53
 1651 00d4 44000000 		.word	.LC7
 1652 00d8 00000000 		.word	FONT_12X16
 1653              		.cfi_endproc
 1654              	.LFE74:
 1655              		.size	disp_gen_voltage, .-disp_gen_voltage
 1656              		.comm	last_motor_temp_color,4,4
 1657              		.comm	last_mc_temp_color,4,4
 1658              		.comm	last_glv_v_color,4,4
 1659              		.comm	last_state_color,4,4
 1660              		.comm	last_max_pack_temp_color,4,4
 1661              		.comm	last_SOC_color,4,4
 1662              		.comm	gui1963,120,4
 1663              		.section	.rodata.str1.4,"aMS",%progbits,1
 1664              		.align	2
 1665              	.LC0:
 1666 0000 5041434B 		.ascii	"PACK SOC\000"
 1666      20534F43 
 1666      00
 1667 0009 000000   		.space	3
 1668              	.LC1:
 1669 000c 4D415820 		.ascii	"MAX PACK T\000"
 1669      5041434B 
 1669      205400
 1670 0017 00       		.space	1
 1671              	.LC2:
 1672 0018 53544154 		.ascii	"STATE:\000"
 1672      453A00
 1673 001f 00       		.space	1
 1674              	.LC3:
 1675 0020 474C5620 		.ascii	"GLV V:\000"
 1675      563A00
 1676 0027 00       		.space	1
 1677              	.LC4:
 1678 0028 4D432054 		.ascii	"MC T:\000"
 1678      3A00
 1679 002e 0000     		.space	2
 1680              	.LC5:
 1681 0030 4D4F544F 		.ascii	"MOTOR T:\000"
 1681      5220543A 
 1681      00
 1682 0039 000000   		.space	3
 1683              	.LC6:
 1684 003c 31303025 		.ascii	"100%\000"
 1684      00
 1685 0041 000000   		.space	3
 1686              	.LC7:
 1687 0044 256400   		.ascii	"%d\000"
 1688 0047 00       		.space	1
 1689              	.LC8:
 1690 0048 20535441 		.ascii	" STARTUP  \000"
 1690      52545550 
 1690      202000
 1691 0053 00       		.space	1
ARM GAS  C:\Users\RYANCA~1\AppData\Local\Temp\cclc5Gbi.s 			page 44


 1692              	.LC9:
 1693 0054 44525620 		.ascii	"DRV FRM LV\000"
 1693      46524D20 
 1693      4C5600
 1694 005f 00       		.space	1
 1695              	.LC10:
 1696 0060 50524520 		.ascii	"PRE TM OUT\000"
 1696      544D204F 
 1696      555400
 1697 006b 00       		.space	1
 1698              	.LC11:
 1699 006c 4252204E 		.ascii	"BR NOT PRS\000"
 1699      4F542050 
 1699      525300
 1700 0077 00       		.space	1
 1701              	.LC12:
 1702 0078 4856204F 		.ascii	"HV OFF DRV\000"
 1702      46462044 
 1702      525600
 1703 0083 00       		.space	1
 1704              	.LC13:
 1705 0084 534E5352 		.ascii	"SNSR DSCRP\000"
 1705      20445343 
 1705      525000
 1706 008f 00       		.space	1
 1707              	.LC14:
 1708 0090 42535044 		.ascii	"BSPD TRIPD\000"
 1708      20545249 
 1708      504400
 1709 009b 00       		.space	1
 1710              	.LC15:
 1711 009c 53485444 		.ascii	"SHTDWN OPN\000"
 1711      574E204F 
 1711      504E00
 1712 00a7 00       		.space	1
 1713              	.LC16:
 1714 00a8 20202020 		.ascii	"    LV    \000"
 1714      4C562020 
 1714      202000
 1715 00b3 00       		.space	1
 1716              	.LC17:
 1717 00b4 50524543 		.ascii	"PRECHARGE \000"
 1717      48415247 
 1717      452000
 1718 00bf 00       		.space	1
 1719              	.LC18:
 1720 00c0 48562045 		.ascii	"HV ENABLED\000"
 1720      4E41424C 
 1720      454400
 1721 00cb 00       		.space	1
 1722              	.LC19:
 1723 00cc 20204452 		.ascii	"  DRIVE   \000"
 1723      49564520 
 1723      202000
 1724              		.text
 1725              	.Letext0:
 1726              		.file 2 "c:\\program files (x86)\\cypress\\psoc creator\\4.4\\psoc creator\\import\\gnu\\arm\\5.4.
ARM GAS  C:\Users\RYANCA~1\AppData\Local\Temp\cclc5Gbi.s 			page 45


 1727              		.file 3 "c:\\program files (x86)\\cypress\\psoc creator\\4.4\\psoc creator\\import\\gnu\\arm\\5.4.
 1728              		.file 4 "Generated_Source\\PSoC5/cytypes.h"
 1729              		.file 5 "data.h"
 1730              		.file 6 "ugui_config.h"
 1731              		.file 7 "ugui.h"
 1732              		.file 8 "Generated_Source\\PSoC5/core_cm3.h"
 1733              		.file 9 "ugui_SSD1963.h"
 1734              		.file 10 "frucd_display.h"
 1735              		.file 11 "Generated_Source\\PSoC5/CyLib.h"
 1736              		.file 12 "c:\\program files (x86)\\cypress\\psoc creator\\4.4\\psoc creator\\import\\gnu\\arm\\5.4
 1737              		.section	.debug_info,"",%progbits
 1738              	.Ldebug_info0:
 1739 0000 1E190000 		.4byte	0x191e
 1740 0004 0400     		.2byte	0x4
 1741 0006 00000000 		.4byte	.Ldebug_abbrev0
 1742 000a 04       		.byte	0x4
 1743 000b 01       		.uleb128 0x1
 1744 000c ED010000 		.4byte	.LASF139
 1745 0010 0C       		.byte	0xc
 1746 0011 19060000 		.4byte	.LASF140
 1747 0015 2C000000 		.4byte	.LASF141
 1748 0019 00000000 		.4byte	.Ldebug_ranges0+0
 1749 001d 00000000 		.4byte	0
 1750 0021 00000000 		.4byte	.Ldebug_line0
 1751 0025 02       		.uleb128 0x2
 1752 0026 08       		.byte	0x8
 1753 0027 07       		.byte	0x7
 1754 0028 88010000 		.4byte	.LASF0
 1755 002c 02       		.uleb128 0x2
 1756 002d 04       		.byte	0x4
 1757 002e 07       		.byte	0x7
 1758 002f 93000000 		.4byte	.LASF1
 1759 0033 03       		.uleb128 0x3
 1760 0034 23040000 		.4byte	.LASF3
 1761 0038 02       		.byte	0x2
 1762 0039 1B       		.byte	0x1b
 1763 003a 3E000000 		.4byte	0x3e
 1764 003e 02       		.uleb128 0x2
 1765 003f 01       		.byte	0x1
 1766 0040 06       		.byte	0x6
 1767 0041 FA050000 		.4byte	.LASF2
 1768 0045 03       		.uleb128 0x3
 1769 0046 E6040000 		.4byte	.LASF4
 1770 004a 02       		.byte	0x2
 1771 004b 1D       		.byte	0x1d
 1772 004c 50000000 		.4byte	0x50
 1773 0050 02       		.uleb128 0x2
 1774 0051 01       		.byte	0x1
 1775 0052 08       		.byte	0x8
 1776 0053 6E050000 		.4byte	.LASF5
 1777 0057 03       		.uleb128 0x3
 1778 0058 C9030000 		.4byte	.LASF6
 1779 005c 02       		.byte	0x2
 1780 005d 29       		.byte	0x29
 1781 005e 62000000 		.4byte	0x62
 1782 0062 02       		.uleb128 0x2
 1783 0063 02       		.byte	0x2
ARM GAS  C:\Users\RYANCA~1\AppData\Local\Temp\cclc5Gbi.s 			page 46


 1784 0064 05       		.byte	0x5
 1785 0065 8A040000 		.4byte	.LASF7
 1786 0069 03       		.uleb128 0x3
 1787 006a AF010000 		.4byte	.LASF8
 1788 006e 02       		.byte	0x2
 1789 006f 2B       		.byte	0x2b
 1790 0070 74000000 		.4byte	0x74
 1791 0074 02       		.uleb128 0x2
 1792 0075 02       		.byte	0x2
 1793 0076 07       		.byte	0x7
 1794 0077 06060000 		.4byte	.LASF9
 1795 007b 03       		.uleb128 0x3
 1796 007c B2000000 		.4byte	.LASF10
 1797 0080 02       		.byte	0x2
 1798 0081 3F       		.byte	0x3f
 1799 0082 86000000 		.4byte	0x86
 1800 0086 02       		.uleb128 0x2
 1801 0087 04       		.byte	0x4
 1802 0088 05       		.byte	0x5
 1803 0089 A5040000 		.4byte	.LASF11
 1804 008d 03       		.uleb128 0x3
 1805 008e 7C050000 		.4byte	.LASF12
 1806 0092 02       		.byte	0x2
 1807 0093 41       		.byte	0x41
 1808 0094 98000000 		.4byte	0x98
 1809 0098 02       		.uleb128 0x2
 1810 0099 04       		.byte	0x4
 1811 009a 07       		.byte	0x7
 1812 009b 04050000 		.4byte	.LASF13
 1813 009f 02       		.uleb128 0x2
 1814 00a0 08       		.byte	0x8
 1815 00a1 05       		.byte	0x5
 1816 00a2 A2030000 		.4byte	.LASF14
 1817 00a6 04       		.uleb128 0x4
 1818 00a7 04       		.byte	0x4
 1819 00a8 05       		.byte	0x5
 1820 00a9 696E7400 		.ascii	"int\000"
 1821 00ad 03       		.uleb128 0x3
 1822 00ae 38010000 		.4byte	.LASF15
 1823 00b2 03       		.byte	0x3
 1824 00b3 14       		.byte	0x14
 1825 00b4 33000000 		.4byte	0x33
 1826 00b8 03       		.uleb128 0x3
 1827 00b9 74030000 		.4byte	.LASF16
 1828 00bd 03       		.byte	0x3
 1829 00be 18       		.byte	0x18
 1830 00bf 45000000 		.4byte	0x45
 1831 00c3 03       		.uleb128 0x3
 1832 00c4 75010000 		.4byte	.LASF17
 1833 00c8 03       		.byte	0x3
 1834 00c9 20       		.byte	0x20
 1835 00ca 57000000 		.4byte	0x57
 1836 00ce 03       		.uleb128 0x3
 1837 00cf 54040000 		.4byte	.LASF18
 1838 00d3 03       		.byte	0x3
 1839 00d4 24       		.byte	0x24
 1840 00d5 69000000 		.4byte	0x69
ARM GAS  C:\Users\RYANCA~1\AppData\Local\Temp\cclc5Gbi.s 			page 47


 1841 00d9 03       		.uleb128 0x3
 1842 00da 2F050000 		.4byte	.LASF19
 1843 00de 03       		.byte	0x3
 1844 00df 2C       		.byte	0x2c
 1845 00e0 7B000000 		.4byte	0x7b
 1846 00e4 03       		.uleb128 0x3
 1847 00e5 2F010000 		.4byte	.LASF20
 1848 00e9 03       		.byte	0x3
 1849 00ea 30       		.byte	0x30
 1850 00eb 8D000000 		.4byte	0x8d
 1851 00ef 05       		.uleb128 0x5
 1852 00f0 29060000 		.4byte	.LASF21
 1853 00f4 04       		.byte	0x4
 1854 00f5 E901     		.2byte	0x1e9
 1855 00f7 50000000 		.4byte	0x50
 1856 00fb 02       		.uleb128 0x2
 1857 00fc 04       		.byte	0x4
 1858 00fd 04       		.byte	0x4
 1859 00fe 4C010000 		.4byte	.LASF22
 1860 0102 02       		.uleb128 0x2
 1861 0103 08       		.byte	0x8
 1862 0104 04       		.byte	0x4
 1863 0105 2F060000 		.4byte	.LASF23
 1864 0109 02       		.uleb128 0x2
 1865 010a 01       		.byte	0x1
 1866 010b 08       		.byte	0x8
 1867 010c 2E030000 		.4byte	.LASF24
 1868 0110 02       		.uleb128 0x2
 1869 0111 08       		.byte	0x8
 1870 0112 04       		.byte	0x4
 1871 0113 40040000 		.4byte	.LASF25
 1872 0117 02       		.uleb128 0x2
 1873 0118 04       		.byte	0x4
 1874 0119 07       		.byte	0x7
 1875 011a FB040000 		.4byte	.LASF26
 1876 011e 06       		.uleb128 0x6
 1877 011f 04       		.byte	0x4
 1878 0120 07       		.uleb128 0x7
 1879 0121 04       		.byte	0x4
 1880 0122 09010000 		.4byte	0x109
 1881 0126 07       		.uleb128 0x7
 1882 0127 04       		.byte	0x4
 1883 0128 50000000 		.4byte	0x50
 1884 012c 08       		.uleb128 0x8
 1885 012d 01       		.byte	0x1
 1886 012e 50000000 		.4byte	0x50
 1887 0132 05       		.byte	0x5
 1888 0133 09       		.byte	0x9
 1889 0134 56010000 		.4byte	0x156
 1890 0138 09       		.uleb128 0x9
 1891 0139 4C5600   		.ascii	"LV\000"
 1892 013c 00       		.byte	0
 1893 013d 0A       		.uleb128 0xa
 1894 013e 11040000 		.4byte	.LASF27
 1895 0142 01       		.byte	0x1
 1896 0143 0A       		.uleb128 0xa
 1897 0144 13030000 		.4byte	.LASF28
ARM GAS  C:\Users\RYANCA~1\AppData\Local\Temp\cclc5Gbi.s 			page 48


 1898 0148 02       		.byte	0x2
 1899 0149 0A       		.uleb128 0xa
 1900 014a 6F010000 		.4byte	.LASF29
 1901 014e 03       		.byte	0x3
 1902 014f 0A       		.uleb128 0xa
 1903 0150 A5050000 		.4byte	.LASF30
 1904 0154 80       		.byte	0x80
 1905 0155 00       		.byte	0
 1906 0156 08       		.uleb128 0x8
 1907 0157 01       		.byte	0x1
 1908 0158 50000000 		.4byte	0x50
 1909 015c 05       		.byte	0x5
 1910 015d 11       		.byte	0x11
 1911 015e 93010000 		.4byte	0x193
 1912 0162 0A       		.uleb128 0xa
 1913 0163 AD000000 		.4byte	.LASF31
 1914 0167 00       		.byte	0
 1915 0168 0A       		.uleb128 0xa
 1916 0169 44060000 		.4byte	.LASF32
 1917 016d 01       		.byte	0x1
 1918 016e 0A       		.uleb128 0xa
 1919 016f 33030000 		.4byte	.LASF33
 1920 0173 02       		.byte	0x2
 1921 0174 0A       		.uleb128 0xa
 1922 0175 8D020000 		.4byte	.LASF34
 1923 0179 03       		.byte	0x3
 1924 017a 0A       		.uleb128 0xa
 1925 017b C7020000 		.4byte	.LASF35
 1926 017f 04       		.byte	0x4
 1927 0180 0A       		.uleb128 0xa
 1928 0181 CD000000 		.4byte	.LASF36
 1929 0185 05       		.byte	0x5
 1930 0186 0A       		.uleb128 0xa
 1931 0187 F7000000 		.4byte	.LASF37
 1932 018b 06       		.byte	0x6
 1933 018c 0A       		.uleb128 0xa
 1934 018d E1020000 		.4byte	.LASF38
 1935 0191 07       		.byte	0x7
 1936 0192 00       		.byte	0
 1937 0193 03       		.uleb128 0x3
 1938 0194 1D040000 		.4byte	.LASF39
 1939 0198 06       		.byte	0x6
 1940 0199 26       		.byte	0x26
 1941 019a B8000000 		.4byte	0xb8
 1942 019e 03       		.uleb128 0x3
 1943 019f 89030000 		.4byte	.LASF40
 1944 01a3 06       		.byte	0x6
 1945 01a4 27       		.byte	0x27
 1946 01a5 AD000000 		.4byte	0xad
 1947 01a9 03       		.uleb128 0x3
 1948 01aa 8C000000 		.4byte	.LASF41
 1949 01ae 06       		.byte	0x6
 1950 01af 28       		.byte	0x28
 1951 01b0 CE000000 		.4byte	0xce
 1952 01b4 03       		.uleb128 0x3
 1953 01b5 CF010000 		.4byte	.LASF42
 1954 01b9 06       		.byte	0x6
ARM GAS  C:\Users\RYANCA~1\AppData\Local\Temp\cclc5Gbi.s 			page 49


 1955 01ba 29       		.byte	0x29
 1956 01bb C3000000 		.4byte	0xc3
 1957 01bf 03       		.uleb128 0x3
 1958 01c0 3F010000 		.4byte	.LASF43
 1959 01c4 06       		.byte	0x6
 1960 01c5 2A       		.byte	0x2a
 1961 01c6 E4000000 		.4byte	0xe4
 1962 01ca 08       		.uleb128 0x8
 1963 01cb 01       		.byte	0x1
 1964 01cc 50000000 		.4byte	0x50
 1965 01d0 07       		.byte	0x7
 1966 01d1 1F       		.byte	0x1f
 1967 01d2 E3010000 		.4byte	0x1e3
 1968 01d6 0A       		.uleb128 0xa
 1969 01d7 75060000 		.4byte	.LASF44
 1970 01db 00       		.byte	0
 1971 01dc 0A       		.uleb128 0xa
 1972 01dd 0F000000 		.4byte	.LASF45
 1973 01e1 01       		.byte	0x1
 1974 01e2 00       		.byte	0
 1975 01e3 03       		.uleb128 0x3
 1976 01e4 ED000000 		.4byte	.LASF46
 1977 01e8 07       		.byte	0x7
 1978 01e9 22       		.byte	0x22
 1979 01ea CA010000 		.4byte	0x1ca
 1980 01ee 0B       		.uleb128 0xb
 1981 01ef 14       		.byte	0x14
 1982 01f0 07       		.byte	0x7
 1983 01f1 24       		.byte	0x24
 1984 01f2 49020000 		.4byte	0x249
 1985 01f6 0C       		.uleb128 0xc
 1986 01f7 7000     		.ascii	"p\000"
 1987 01f9 07       		.byte	0x7
 1988 01fa 26       		.byte	0x26
 1989 01fb 26010000 		.4byte	0x126
 1990 01ff 00       		.byte	0
 1991 0200 0D       		.uleb128 0xd
 1992 0201 52030000 		.4byte	.LASF47
 1993 0205 07       		.byte	0x7
 1994 0206 27       		.byte	0x27
 1995 0207 E3010000 		.4byte	0x1e3
 1996 020b 04       		.byte	0x4
 1997 020c 0D       		.uleb128 0xd
 1998 020d BC020000 		.4byte	.LASF48
 1999 0211 07       		.byte	0x7
 2000 0212 28       		.byte	0x28
 2001 0213 B4010000 		.4byte	0x1b4
 2002 0217 06       		.byte	0x6
 2003 0218 0D       		.uleb128 0xd
 2004 0219 7E040000 		.4byte	.LASF49
 2005 021d 07       		.byte	0x7
 2006 021e 29       		.byte	0x29
 2007 021f B4010000 		.4byte	0x1b4
 2008 0223 08       		.byte	0x8
 2009 0224 0D       		.uleb128 0xd
 2010 0225 06040000 		.4byte	.LASF50
 2011 0229 07       		.byte	0x7
ARM GAS  C:\Users\RYANCA~1\AppData\Local\Temp\cclc5Gbi.s 			page 50


 2012 022a 2A       		.byte	0x2a
 2013 022b A9010000 		.4byte	0x1a9
 2014 022f 0A       		.byte	0xa
 2015 0230 0D       		.uleb128 0xd
 2016 0231 D5040000 		.4byte	.LASF51
 2017 0235 07       		.byte	0x7
 2018 0236 2B       		.byte	0x2b
 2019 0237 A9010000 		.4byte	0x1a9
 2020 023b 0C       		.byte	0xc
 2021 023c 0D       		.uleb128 0xd
 2022 023d 2C040000 		.4byte	.LASF52
 2023 0241 07       		.byte	0x7
 2024 0242 2C       		.byte	0x2c
 2025 0243 49020000 		.4byte	0x249
 2026 0247 10       		.byte	0x10
 2027 0248 00       		.byte	0
 2028 0249 07       		.uleb128 0x7
 2029 024a 04       		.byte	0x4
 2030 024b 93010000 		.4byte	0x193
 2031 024f 03       		.uleb128 0x3
 2032 0250 DE040000 		.4byte	.LASF53
 2033 0254 07       		.byte	0x7
 2034 0255 2D       		.byte	0x2d
 2035 0256 EE010000 		.4byte	0x1ee
 2036 025a 03       		.uleb128 0x3
 2037 025b D3030000 		.4byte	.LASF54
 2038 025f 07       		.byte	0x7
 2039 0260 66       		.byte	0x66
 2040 0261 65020000 		.4byte	0x265
 2041 0265 0E       		.uleb128 0xe
 2042 0266 5A060000 		.4byte	.LASF64
 2043 026a 20       		.byte	0x20
 2044 026b 07       		.byte	0x7
 2045 026c F7       		.byte	0xf7
 2046 026d DF020000 		.4byte	0x2df
 2047 0271 0D       		.uleb128 0xd
 2048 0272 CA050000 		.4byte	.LASF55
 2049 0276 07       		.byte	0x7
 2050 0277 F9       		.byte	0xf9
 2051 0278 93010000 		.4byte	0x193
 2052 027c 00       		.byte	0
 2053 027d 0D       		.uleb128 0xd
 2054 027e 77000000 		.4byte	.LASF56
 2055 0282 07       		.byte	0x7
 2056 0283 FA       		.byte	0xfa
 2057 0284 93010000 		.4byte	0x193
 2058 0288 01       		.byte	0x1
 2059 0289 0D       		.uleb128 0xd
 2060 028a E0000000 		.4byte	.LASF57
 2061 028e 07       		.byte	0x7
 2062 028f FB       		.byte	0xfb
 2063 0290 84040000 		.4byte	0x484
 2064 0294 04       		.byte	0x4
 2065 0295 0D       		.uleb128 0xd
 2066 0296 69060000 		.4byte	.LASF58
 2067 029a 07       		.byte	0x7
 2068 029b FC       		.byte	0xfc
ARM GAS  C:\Users\RYANCA~1\AppData\Local\Temp\cclc5Gbi.s 			page 51


 2069 029c CD030000 		.4byte	0x3cd
 2070 02a0 08       		.byte	0x8
 2071 02a1 0D       		.uleb128 0xd
 2072 02a2 EB050000 		.4byte	.LASF59
 2073 02a6 07       		.byte	0x7
 2074 02a7 FD       		.byte	0xfd
 2075 02a8 CD030000 		.4byte	0x3cd
 2076 02ac 10       		.byte	0x10
 2077 02ad 0D       		.uleb128 0xd
 2078 02ae 69050000 		.4byte	.LASF60
 2079 02b2 07       		.byte	0x7
 2080 02b3 FE       		.byte	0xfe
 2081 02b4 93010000 		.4byte	0x193
 2082 02b8 18       		.byte	0x18
 2083 02b9 0C       		.uleb128 0xc
 2084 02ba 696400   		.ascii	"id\000"
 2085 02bd 07       		.byte	0x7
 2086 02be FF       		.byte	0xff
 2087 02bf 93010000 		.4byte	0x193
 2088 02c3 19       		.byte	0x19
 2089 02c4 0F       		.uleb128 0xf
 2090 02c5 52010000 		.4byte	.LASF61
 2091 02c9 07       		.byte	0x7
 2092 02ca 0001     		.2byte	0x100
 2093 02cc 93010000 		.4byte	0x193
 2094 02d0 1A       		.byte	0x1a
 2095 02d1 0F       		.uleb128 0xf
 2096 02d2 6F030000 		.4byte	.LASF62
 2097 02d6 07       		.byte	0x7
 2098 02d7 0101     		.2byte	0x101
 2099 02d9 1E010000 		.4byte	0x11e
 2100 02dd 1C       		.byte	0x1c
 2101 02de 00       		.byte	0
 2102 02df 03       		.uleb128 0x3
 2103 02e0 AE040000 		.4byte	.LASF63
 2104 02e4 07       		.byte	0x7
 2105 02e5 67       		.byte	0x67
 2106 02e6 EA020000 		.4byte	0x2ea
 2107 02ea 10       		.uleb128 0x10
 2108 02eb C4000000 		.4byte	.LASF65
 2109 02ef 44       		.byte	0x44
 2110 02f0 07       		.byte	0x7
 2111 02f1 4101     		.2byte	0x141
 2112 02f3 8D030000 		.4byte	0x38d
 2113 02f7 0F       		.uleb128 0xf
 2114 02f8 C8010000 		.4byte	.LASF66
 2115 02fc 07       		.byte	0x7
 2116 02fd 4301     		.2byte	0x143
 2117 02ff 93010000 		.4byte	0x193
 2118 0303 00       		.byte	0
 2119 0304 0F       		.uleb128 0xf
 2120 0305 16010000 		.4byte	.LASF67
 2121 0309 07       		.byte	0x7
 2122 030a 4401     		.2byte	0x144
 2123 030c 7E040000 		.4byte	0x47e
 2124 0310 04       		.byte	0x4
 2125 0311 0F       		.uleb128 0xf
ARM GAS  C:\Users\RYANCA~1\AppData\Local\Temp\cclc5Gbi.s 			page 52


 2126 0312 CA050000 		.4byte	.LASF55
 2127 0316 07       		.byte	0x7
 2128 0317 4501     		.2byte	0x145
 2129 0319 93010000 		.4byte	0x193
 2130 031d 08       		.byte	0x8
 2131 031e 11       		.uleb128 0x11
 2132 031f 666300   		.ascii	"fc\000"
 2133 0322 07       		.byte	0x7
 2134 0323 4601     		.2byte	0x146
 2135 0325 8D030000 		.4byte	0x38d
 2136 0329 0C       		.byte	0xc
 2137 032a 11       		.uleb128 0x11
 2138 032b 626300   		.ascii	"bc\000"
 2139 032e 07       		.byte	0x7
 2140 032f 4701     		.2byte	0x147
 2141 0331 8D030000 		.4byte	0x38d
 2142 0335 10       		.byte	0x10
 2143 0336 11       		.uleb128 0x11
 2144 0337 787300   		.ascii	"xs\000"
 2145 033a 07       		.byte	0x7
 2146 033b 4801     		.2byte	0x148
 2147 033d B4010000 		.4byte	0x1b4
 2148 0341 14       		.byte	0x14
 2149 0342 11       		.uleb128 0x11
 2150 0343 797300   		.ascii	"ys\000"
 2151 0346 07       		.byte	0x7
 2152 0347 4901     		.2byte	0x149
 2153 0349 B4010000 		.4byte	0x1b4
 2154 034d 16       		.byte	0x16
 2155 034e 11       		.uleb128 0x11
 2156 034f 786500   		.ascii	"xe\000"
 2157 0352 07       		.byte	0x7
 2158 0353 4A01     		.2byte	0x14a
 2159 0355 B4010000 		.4byte	0x1b4
 2160 0359 18       		.byte	0x18
 2161 035a 11       		.uleb128 0x11
 2162 035b 796500   		.ascii	"ye\000"
 2163 035e 07       		.byte	0x7
 2164 035f 4B01     		.2byte	0x14b
 2165 0361 B4010000 		.4byte	0x1b4
 2166 0365 1A       		.byte	0x1a
 2167 0366 0F       		.uleb128 0xf
 2168 0367 C4050000 		.4byte	.LASF68
 2169 036b 07       		.byte	0x7
 2170 036c 4C01     		.2byte	0x14c
 2171 036e 93010000 		.4byte	0x193
 2172 0372 1C       		.byte	0x1c
 2173 0373 0F       		.uleb128 0xf
 2174 0374 29010000 		.4byte	.LASF69
 2175 0378 07       		.byte	0x7
 2176 0379 4D01     		.2byte	0x14d
 2177 037b 14050000 		.4byte	0x514
 2178 037f 20       		.byte	0x20
 2179 0380 11       		.uleb128 0x11
 2180 0381 636200   		.ascii	"cb\000"
 2181 0384 07       		.byte	0x7
 2182 0385 4E01     		.2byte	0x14e
ARM GAS  C:\Users\RYANCA~1\AppData\Local\Temp\cclc5Gbi.s 			page 53


 2183 0387 31050000 		.4byte	0x531
 2184 038b 40       		.byte	0x40
 2185 038c 00       		.byte	0
 2186 038d 03       		.uleb128 0x3
 2187 038e 83000000 		.4byte	.LASF70
 2188 0392 07       		.byte	0x7
 2189 0393 6A       		.byte	0x6a
 2190 0394 BF010000 		.4byte	0x1bf
 2191 0398 0B       		.uleb128 0xb
 2192 0399 08       		.byte	0x8
 2193 039a 07       		.byte	0x7
 2194 039b A7       		.byte	0xa7
 2195 039c CD030000 		.4byte	0x3cd
 2196 03a0 0C       		.uleb128 0xc
 2197 03a1 787300   		.ascii	"xs\000"
 2198 03a4 07       		.byte	0x7
 2199 03a5 A9       		.byte	0xa9
 2200 03a6 B4010000 		.4byte	0x1b4
 2201 03aa 00       		.byte	0
 2202 03ab 0C       		.uleb128 0xc
 2203 03ac 797300   		.ascii	"ys\000"
 2204 03af 07       		.byte	0x7
 2205 03b0 AA       		.byte	0xaa
 2206 03b1 B4010000 		.4byte	0x1b4
 2207 03b5 02       		.byte	0x2
 2208 03b6 0C       		.uleb128 0xc
 2209 03b7 786500   		.ascii	"xe\000"
 2210 03ba 07       		.byte	0x7
 2211 03bb AB       		.byte	0xab
 2212 03bc B4010000 		.4byte	0x1b4
 2213 03c0 04       		.byte	0x4
 2214 03c1 0C       		.uleb128 0xc
 2215 03c2 796500   		.ascii	"ye\000"
 2216 03c5 07       		.byte	0x7
 2217 03c6 AC       		.byte	0xac
 2218 03c7 B4010000 		.4byte	0x1b4
 2219 03cb 06       		.byte	0x6
 2220 03cc 00       		.byte	0
 2221 03cd 03       		.uleb128 0x3
 2222 03ce 5C030000 		.4byte	.LASF71
 2223 03d2 07       		.byte	0x7
 2224 03d3 AD       		.byte	0xad
 2225 03d4 98030000 		.4byte	0x398
 2226 03d8 07       		.uleb128 0x7
 2227 03d9 04       		.byte	0x4
 2228 03da DE030000 		.4byte	0x3de
 2229 03de 12       		.uleb128 0x12
 2230 03df 4F020000 		.4byte	0x24f
 2231 03e3 0B       		.uleb128 0xb
 2232 03e4 08       		.byte	0x8
 2233 03e5 07       		.byte	0x7
 2234 03e6 D6       		.byte	0xd6
 2235 03e7 27040000 		.4byte	0x427
 2236 03eb 0D       		.uleb128 0xd
 2237 03ec 69050000 		.4byte	.LASF60
 2238 03f0 07       		.byte	0x7
 2239 03f1 D8       		.byte	0xd8
ARM GAS  C:\Users\RYANCA~1\AppData\Local\Temp\cclc5Gbi.s 			page 54


 2240 03f2 93010000 		.4byte	0x193
 2241 03f6 00       		.byte	0
 2242 03f7 0C       		.uleb128 0xc
 2243 03f8 696400   		.ascii	"id\000"
 2244 03fb 07       		.byte	0x7
 2245 03fc D9       		.byte	0xd9
 2246 03fd 93010000 		.4byte	0x193
 2247 0401 01       		.byte	0x1
 2248 0402 0D       		.uleb128 0xd
 2249 0403 E2030000 		.4byte	.LASF72
 2250 0407 07       		.byte	0x7
 2251 0408 DA       		.byte	0xda
 2252 0409 93010000 		.4byte	0x193
 2253 040d 02       		.byte	0x2
 2254 040e 0D       		.uleb128 0xd
 2255 040f 52010000 		.4byte	.LASF61
 2256 0413 07       		.byte	0x7
 2257 0414 DB       		.byte	0xdb
 2258 0415 93010000 		.4byte	0x193
 2259 0419 03       		.byte	0x3
 2260 041a 0C       		.uleb128 0xc
 2261 041b 73726300 		.ascii	"src\000"
 2262 041f 07       		.byte	0x7
 2263 0420 DC       		.byte	0xdc
 2264 0421 1E010000 		.4byte	0x11e
 2265 0425 04       		.byte	0x4
 2266 0426 00       		.byte	0
 2267 0427 03       		.uleb128 0x3
 2268 0428 64030000 		.4byte	.LASF73
 2269 042c 07       		.byte	0x7
 2270 042d DD       		.byte	0xdd
 2271 042e E3030000 		.4byte	0x3e3
 2272 0432 0B       		.uleb128 0xb
 2273 0433 06       		.byte	0x6
 2274 0434 07       		.byte	0x7
 2275 0435 E8       		.byte	0xe8
 2276 0436 5D040000 		.4byte	0x45d
 2277 043a 0D       		.uleb128 0xd
 2278 043b CA050000 		.4byte	.LASF55
 2279 043f 07       		.byte	0x7
 2280 0440 EA       		.byte	0xea
 2281 0441 93010000 		.4byte	0x193
 2282 0445 00       		.byte	0
 2283 0446 0C       		.uleb128 0xc
 2284 0447 787000   		.ascii	"xp\000"
 2285 044a 07       		.byte	0x7
 2286 044b EB       		.byte	0xeb
 2287 044c B4010000 		.4byte	0x1b4
 2288 0450 02       		.byte	0x2
 2289 0451 0C       		.uleb128 0xc
 2290 0452 797000   		.ascii	"yp\000"
 2291 0455 07       		.byte	0x7
 2292 0456 EC       		.byte	0xec
 2293 0457 B4010000 		.4byte	0x1b4
 2294 045b 04       		.byte	0x4
 2295 045c 00       		.byte	0
 2296 045d 03       		.uleb128 0x3
ARM GAS  C:\Users\RYANCA~1\AppData\Local\Temp\cclc5Gbi.s 			page 55


 2297 045e F1050000 		.4byte	.LASF74
 2298 0462 07       		.byte	0x7
 2299 0463 ED       		.byte	0xed
 2300 0464 32040000 		.4byte	0x432
 2301 0468 13       		.uleb128 0x13
 2302 0469 78040000 		.4byte	0x478
 2303 046d 14       		.uleb128 0x14
 2304 046e 78040000 		.4byte	0x478
 2305 0472 14       		.uleb128 0x14
 2306 0473 7E040000 		.4byte	0x47e
 2307 0477 00       		.byte	0
 2308 0478 07       		.uleb128 0x7
 2309 0479 04       		.byte	0x4
 2310 047a DF020000 		.4byte	0x2df
 2311 047e 07       		.uleb128 0x7
 2312 047f 04       		.byte	0x4
 2313 0480 5A020000 		.4byte	0x25a
 2314 0484 07       		.uleb128 0x7
 2315 0485 04       		.byte	0x4
 2316 0486 68040000 		.4byte	0x468
 2317 048a 15       		.uleb128 0x15
 2318 048b 20       		.byte	0x20
 2319 048c 07       		.byte	0x7
 2320 048d 3201     		.2byte	0x132
 2321 048f 14050000 		.4byte	0x514
 2322 0493 11       		.uleb128 0x11
 2323 0494 73747200 		.ascii	"str\000"
 2324 0498 07       		.byte	0x7
 2325 0499 3401     		.2byte	0x134
 2326 049b 20010000 		.4byte	0x120
 2327 049f 00       		.byte	0
 2328 04a0 0F       		.uleb128 0xf
 2329 04a1 F6040000 		.4byte	.LASF75
 2330 04a5 07       		.byte	0x7
 2331 04a6 3501     		.2byte	0x135
 2332 04a8 D8030000 		.4byte	0x3d8
 2333 04ac 04       		.byte	0x4
 2334 04ad 0F       		.uleb128 0xf
 2335 04ae 87050000 		.4byte	.LASF76
 2336 04b2 07       		.byte	0x7
 2337 04b3 3601     		.2byte	0x136
 2338 04b5 9E010000 		.4byte	0x19e
 2339 04b9 08       		.byte	0x8
 2340 04ba 0F       		.uleb128 0xf
 2341 04bb 26030000 		.4byte	.LASF77
 2342 04bf 07       		.byte	0x7
 2343 04c0 3701     		.2byte	0x137
 2344 04c2 9E010000 		.4byte	0x19e
 2345 04c6 09       		.byte	0x9
 2346 04c7 0F       		.uleb128 0xf
 2347 04c8 63060000 		.4byte	.LASF78
 2348 04cc 07       		.byte	0x7
 2349 04cd 3801     		.2byte	0x138
 2350 04cf 93010000 		.4byte	0x193
 2351 04d3 0A       		.byte	0xa
 2352 04d4 11       		.uleb128 0x11
 2353 04d5 666300   		.ascii	"fc\000"
ARM GAS  C:\Users\RYANCA~1\AppData\Local\Temp\cclc5Gbi.s 			page 56


 2354 04d8 07       		.byte	0x7
 2355 04d9 3901     		.2byte	0x139
 2356 04db 8D030000 		.4byte	0x38d
 2357 04df 0C       		.byte	0xc
 2358 04e0 11       		.uleb128 0x11
 2359 04e1 626300   		.ascii	"bc\000"
 2360 04e4 07       		.byte	0x7
 2361 04e5 3A01     		.2byte	0x13a
 2362 04e7 8D030000 		.4byte	0x38d
 2363 04eb 10       		.byte	0x10
 2364 04ec 11       		.uleb128 0x11
 2365 04ed 69666300 		.ascii	"ifc\000"
 2366 04f1 07       		.byte	0x7
 2367 04f2 3B01     		.2byte	0x13b
 2368 04f4 8D030000 		.4byte	0x38d
 2369 04f8 14       		.byte	0x14
 2370 04f9 11       		.uleb128 0x11
 2371 04fa 69626300 		.ascii	"ibc\000"
 2372 04fe 07       		.byte	0x7
 2373 04ff 3C01     		.2byte	0x13c
 2374 0501 8D030000 		.4byte	0x38d
 2375 0505 18       		.byte	0x18
 2376 0506 0F       		.uleb128 0xf
 2377 0507 FF030000 		.4byte	.LASF79
 2378 050b 07       		.byte	0x7
 2379 050c 3D01     		.2byte	0x13d
 2380 050e 93010000 		.4byte	0x193
 2381 0512 1C       		.byte	0x1c
 2382 0513 00       		.byte	0
 2383 0514 05       		.uleb128 0x5
 2384 0515 65040000 		.4byte	.LASF80
 2385 0519 07       		.byte	0x7
 2386 051a 3E01     		.2byte	0x13e
 2387 051c 8A040000 		.4byte	0x48a
 2388 0520 13       		.uleb128 0x13
 2389 0521 2B050000 		.4byte	0x52b
 2390 0525 14       		.uleb128 0x14
 2391 0526 2B050000 		.4byte	0x52b
 2392 052a 00       		.byte	0
 2393 052b 07       		.uleb128 0x7
 2394 052c 04       		.byte	0x4
 2395 052d 27040000 		.4byte	0x427
 2396 0531 07       		.uleb128 0x7
 2397 0532 04       		.byte	0x4
 2398 0533 20050000 		.4byte	0x520
 2399 0537 15       		.uleb128 0x15
 2400 0538 08       		.byte	0x8
 2401 0539 07       		.byte	0x7
 2402 053a 2002     		.2byte	0x220
 2403 053c 5B050000 		.4byte	0x55b
 2404 0540 0F       		.uleb128 0xf
 2405 0541 82030000 		.4byte	.LASF81
 2406 0545 07       		.byte	0x7
 2407 0546 2202     		.2byte	0x222
 2408 0548 1E010000 		.4byte	0x11e
 2409 054c 00       		.byte	0
 2410 054d 0F       		.uleb128 0xf
ARM GAS  C:\Users\RYANCA~1\AppData\Local\Temp\cclc5Gbi.s 			page 57


 2411 054e CA050000 		.4byte	.LASF55
 2412 0552 07       		.byte	0x7
 2413 0553 2302     		.2byte	0x223
 2414 0555 93010000 		.4byte	0x193
 2415 0559 04       		.byte	0x4
 2416 055a 00       		.byte	0
 2417 055b 05       		.uleb128 0x5
 2418 055c 6E040000 		.4byte	.LASF82
 2419 0560 07       		.byte	0x7
 2420 0561 2402     		.2byte	0x224
 2421 0563 37050000 		.4byte	0x537
 2422 0567 15       		.uleb128 0x15
 2423 0568 14       		.byte	0x14
 2424 0569 07       		.byte	0x7
 2425 056a 3C02     		.2byte	0x23c
 2426 056c D9050000 		.4byte	0x5d9
 2427 0570 0F       		.uleb128 0xf
 2428 0571 78040000 		.4byte	.LASF83
 2429 0575 07       		.byte	0x7
 2430 0576 3E02     		.2byte	0x23e
 2431 0578 B4010000 		.4byte	0x1b4
 2432 057c 00       		.byte	0
 2433 057d 0F       		.uleb128 0xf
 2434 057e E1010000 		.4byte	.LASF84
 2435 0582 07       		.byte	0x7
 2436 0583 3F02     		.2byte	0x23f
 2437 0585 B4010000 		.4byte	0x1b4
 2438 0589 02       		.byte	0x2
 2439 058a 0F       		.uleb128 0xf
 2440 058b 9D050000 		.4byte	.LASF85
 2441 058f 07       		.byte	0x7
 2442 0590 4002     		.2byte	0x240
 2443 0592 B4010000 		.4byte	0x1b4
 2444 0596 04       		.byte	0x4
 2445 0597 0F       		.uleb128 0xf
 2446 0598 1E030000 		.4byte	.LASF86
 2447 059c 07       		.byte	0x7
 2448 059d 4102     		.2byte	0x241
 2449 059f B4010000 		.4byte	0x1b4
 2450 05a3 06       		.byte	0x6
 2451 05a4 0F       		.uleb128 0xf
 2452 05a5 46010000 		.4byte	.LASF87
 2453 05a9 07       		.byte	0x7
 2454 05aa 4202     		.2byte	0x242
 2455 05ac B4010000 		.4byte	0x1b4
 2456 05b0 08       		.byte	0x8
 2457 05b1 0F       		.uleb128 0xf
 2458 05b2 AB050000 		.4byte	.LASF88
 2459 05b6 07       		.byte	0x7
 2460 05b7 4302     		.2byte	0x243
 2461 05b9 B4010000 		.4byte	0x1b4
 2462 05bd 0A       		.byte	0xa
 2463 05be 0F       		.uleb128 0xf
 2464 05bf D6010000 		.4byte	.LASF89
 2465 05c3 07       		.byte	0x7
 2466 05c4 4402     		.2byte	0x244
 2467 05c6 8D030000 		.4byte	0x38d
ARM GAS  C:\Users\RYANCA~1\AppData\Local\Temp\cclc5Gbi.s 			page 58


 2468 05ca 0C       		.byte	0xc
 2469 05cb 0F       		.uleb128 0xf
 2470 05cc 64010000 		.4byte	.LASF90
 2471 05d0 07       		.byte	0x7
 2472 05d1 4502     		.2byte	0x245
 2473 05d3 8D030000 		.4byte	0x38d
 2474 05d7 10       		.byte	0x10
 2475 05d8 00       		.byte	0
 2476 05d9 15       		.uleb128 0x15
 2477 05da 78       		.byte	0x78
 2478 05db 07       		.byte	0x7
 2479 05dc 3302     		.2byte	0x233
 2480 05de B3060000 		.4byte	0x6b3
 2481 05e2 0F       		.uleb128 0xf
 2482 05e3 DD030000 		.4byte	.LASF91
 2483 05e7 07       		.byte	0x7
 2484 05e8 3502     		.2byte	0x235
 2485 05ea C8060000 		.4byte	0x6c8
 2486 05ee 00       		.byte	0
 2487 05ef 0F       		.uleb128 0xf
 2488 05f0 9C030000 		.4byte	.LASF92
 2489 05f4 07       		.byte	0x7
 2490 05f5 3602     		.2byte	0x236
 2491 05f7 B4010000 		.4byte	0x1b4
 2492 05fb 04       		.byte	0x4
 2493 05fc 0F       		.uleb128 0xf
 2494 05fd E7000000 		.4byte	.LASF93
 2495 0601 07       		.byte	0x7
 2496 0602 3702     		.2byte	0x237
 2497 0604 B4010000 		.4byte	0x1b4
 2498 0608 06       		.byte	0x6
 2499 0609 0F       		.uleb128 0xf
 2500 060a 7C030000 		.4byte	.LASF94
 2501 060e 07       		.byte	0x7
 2502 060f 3802     		.2byte	0x238
 2503 0611 5D040000 		.4byte	0x45d
 2504 0615 08       		.byte	0x8
 2505 0616 0F       		.uleb128 0xf
 2506 0617 1D010000 		.4byte	.LASF95
 2507 061b 07       		.byte	0x7
 2508 061c 3902     		.2byte	0x239
 2509 061e 78040000 		.4byte	0x478
 2510 0622 10       		.byte	0x10
 2511 0623 0F       		.uleb128 0xf
 2512 0624 BA010000 		.4byte	.LASF96
 2513 0628 07       		.byte	0x7
 2514 0629 3A02     		.2byte	0x23a
 2515 062b 78040000 		.4byte	0x478
 2516 062f 14       		.byte	0x14
 2517 0630 0F       		.uleb128 0xf
 2518 0631 58010000 		.4byte	.LASF97
 2519 0635 07       		.byte	0x7
 2520 0636 3B02     		.2byte	0x23b
 2521 0638 78040000 		.4byte	0x478
 2522 063c 18       		.byte	0x18
 2523 063d 0F       		.uleb128 0xf
 2524 063e BC000000 		.4byte	.LASF98
ARM GAS  C:\Users\RYANCA~1\AppData\Local\Temp\cclc5Gbi.s 			page 59


 2525 0642 07       		.byte	0x7
 2526 0643 4602     		.2byte	0x246
 2527 0645 67050000 		.4byte	0x567
 2528 0649 1C       		.byte	0x1c
 2529 064a 0F       		.uleb128 0xf
 2530 064b F6040000 		.4byte	.LASF75
 2531 064f 07       		.byte	0x7
 2532 0650 4702     		.2byte	0x247
 2533 0652 4F020000 		.4byte	0x24f
 2534 0656 30       		.byte	0x30
 2535 0657 0F       		.uleb128 0xf
 2536 0658 92060000 		.4byte	.LASF99
 2537 065c 07       		.byte	0x7
 2538 065d 4802     		.2byte	0x248
 2539 065f 9E010000 		.4byte	0x19e
 2540 0663 44       		.byte	0x44
 2541 0664 0F       		.uleb128 0xf
 2542 0665 A0000000 		.4byte	.LASF100
 2543 0669 07       		.byte	0x7
 2544 066a 4902     		.2byte	0x249
 2545 066c 9E010000 		.4byte	0x19e
 2546 0670 45       		.byte	0x45
 2547 0671 0F       		.uleb128 0xf
 2548 0672 D6010000 		.4byte	.LASF89
 2549 0676 07       		.byte	0x7
 2550 0677 4A02     		.2byte	0x24a
 2551 0679 8D030000 		.4byte	0x38d
 2552 067d 48       		.byte	0x48
 2553 067e 0F       		.uleb128 0xf
 2554 067f 64010000 		.4byte	.LASF90
 2555 0683 07       		.byte	0x7
 2556 0684 4B02     		.2byte	0x24b
 2557 0686 8D030000 		.4byte	0x38d
 2558 068a 4C       		.byte	0x4c
 2559 068b 0F       		.uleb128 0xf
 2560 068c 1E000000 		.4byte	.LASF101
 2561 0690 07       		.byte	0x7
 2562 0691 4C02     		.2byte	0x24c
 2563 0693 8D030000 		.4byte	0x38d
 2564 0697 50       		.byte	0x50
 2565 0698 0F       		.uleb128 0xf
 2566 0699 CA050000 		.4byte	.LASF55
 2567 069d 07       		.byte	0x7
 2568 069e 4D02     		.2byte	0x24d
 2569 06a0 93010000 		.4byte	0x193
 2570 06a4 54       		.byte	0x54
 2571 06a5 0F       		.uleb128 0xf
 2572 06a6 82030000 		.4byte	.LASF81
 2573 06aa 07       		.byte	0x7
 2574 06ab 4E02     		.2byte	0x24e
 2575 06ad CE060000 		.4byte	0x6ce
 2576 06b1 58       		.byte	0x58
 2577 06b2 00       		.byte	0
 2578 06b3 13       		.uleb128 0x13
 2579 06b4 C8060000 		.4byte	0x6c8
 2580 06b8 14       		.uleb128 0x14
 2581 06b9 B4010000 		.4byte	0x1b4
ARM GAS  C:\Users\RYANCA~1\AppData\Local\Temp\cclc5Gbi.s 			page 60


 2582 06bd 14       		.uleb128 0x14
 2583 06be B4010000 		.4byte	0x1b4
 2584 06c2 14       		.uleb128 0x14
 2585 06c3 8D030000 		.4byte	0x38d
 2586 06c7 00       		.byte	0
 2587 06c8 07       		.uleb128 0x7
 2588 06c9 04       		.byte	0x4
 2589 06ca B3060000 		.4byte	0x6b3
 2590 06ce 16       		.uleb128 0x16
 2591 06cf 5B050000 		.4byte	0x55b
 2592 06d3 DE060000 		.4byte	0x6de
 2593 06d7 17       		.uleb128 0x17
 2594 06d8 17010000 		.4byte	0x117
 2595 06dc 03       		.byte	0x3
 2596 06dd 00       		.byte	0
 2597 06de 05       		.uleb128 0x5
 2598 06df E4050000 		.4byte	.LASF102
 2599 06e3 07       		.byte	0x7
 2600 06e4 4F02     		.2byte	0x24f
 2601 06e6 D9050000 		.4byte	0x5d9
 2602 06ea 18       		.uleb128 0x18
 2603 06eb 9F010000 		.4byte	.LASF103
 2604 06ef 01       		.byte	0x1
 2605 06f0 0A       		.byte	0xa
 2606 06f1 00000000 		.4byte	.LFB64
 2607 06f5 74000000 		.4byte	.LFE64-.LFB64
 2608 06f9 01       		.uleb128 0x1
 2609 06fa 9C       		.byte	0x9c
 2610 06fb E2070000 		.4byte	0x7e2
 2611 06ff 19       		.uleb128 0x19
 2612 0700 0C000000 		.4byte	.LVL0
 2613 0704 CF180000 		.4byte	0x18cf
 2614 0708 16070000 		.4byte	0x716
 2615 070c 1A       		.uleb128 0x1a
 2616 070d 01       		.uleb128 0x1
 2617 070e 50       		.byte	0x50
 2618 070f 05       		.uleb128 0x5
 2619 0710 0C       		.byte	0xc
 2620 0711 FFFFFF00 		.4byte	0xffffff
 2621 0715 00       		.byte	0
 2622 0716 19       		.uleb128 0x19
 2623 0717 1E000000 		.4byte	.LVL1
 2624 071b DB180000 		.4byte	0x18db
 2625 071f 41070000 		.4byte	0x741
 2626 0723 1A       		.uleb128 0x1a
 2627 0724 01       		.uleb128 0x1
 2628 0725 50       		.byte	0x50
 2629 0726 01       		.uleb128 0x1
 2630 0727 30       		.byte	0x30
 2631 0728 1A       		.uleb128 0x1a
 2632 0729 01       		.uleb128 0x1
 2633 072a 51       		.byte	0x51
 2634 072b 01       		.uleb128 0x1
 2635 072c 30       		.byte	0x30
 2636 072d 1A       		.uleb128 0x1a
 2637 072e 01       		.uleb128 0x1
 2638 072f 52       		.byte	0x52
ARM GAS  C:\Users\RYANCA~1\AppData\Local\Temp\cclc5Gbi.s 			page 61


 2639 0730 01       		.uleb128 0x1
 2640 0731 3A       		.byte	0x3a
 2641 0732 1A       		.uleb128 0x1a
 2642 0733 01       		.uleb128 0x1
 2643 0734 53       		.byte	0x53
 2644 0735 01       		.uleb128 0x1
 2645 0736 3A       		.byte	0x3a
 2646 0737 1A       		.uleb128 0x1a
 2647 0738 02       		.uleb128 0x2
 2648 0739 7D       		.byte	0x7d
 2649 073a 00       		.sleb128 0
 2650 073b 04       		.uleb128 0x4
 2651 073c 08       		.byte	0x8
 2652 073d FF       		.byte	0xff
 2653 073e 40       		.byte	0x40
 2654 073f 24       		.byte	0x24
 2655 0740 00       		.byte	0
 2656 0741 19       		.uleb128 0x19
 2657 0742 32000000 		.4byte	.LVL2
 2658 0746 DB180000 		.4byte	0x18db
 2659 074a 6E070000 		.4byte	0x76e
 2660 074e 1A       		.uleb128 0x1a
 2661 074f 01       		.uleb128 0x1
 2662 0750 50       		.byte	0x50
 2663 0751 01       		.uleb128 0x1
 2664 0752 30       		.byte	0x30
 2665 0753 1A       		.uleb128 0x1a
 2666 0754 01       		.uleb128 0x1
 2667 0755 51       		.byte	0x51
 2668 0756 03       		.uleb128 0x3
 2669 0757 0A       		.byte	0xa
 2670 0758 0601     		.2byte	0x106
 2671 075a 1A       		.uleb128 0x1a
 2672 075b 01       		.uleb128 0x1
 2673 075c 52       		.byte	0x52
 2674 075d 01       		.uleb128 0x1
 2675 075e 3A       		.byte	0x3a
 2676 075f 1A       		.uleb128 0x1a
 2677 0760 01       		.uleb128 0x1
 2678 0761 53       		.byte	0x53
 2679 0762 03       		.uleb128 0x3
 2680 0763 0A       		.byte	0xa
 2681 0764 1001     		.2byte	0x110
 2682 0766 1A       		.uleb128 0x1a
 2683 0767 02       		.uleb128 0x2
 2684 0768 7D       		.byte	0x7d
 2685 0769 00       		.sleb128 0
 2686 076a 02       		.uleb128 0x2
 2687 076b 08       		.byte	0x8
 2688 076c FF       		.byte	0xff
 2689 076d 00       		.byte	0
 2690 076e 19       		.uleb128 0x19
 2691 076f 48000000 		.4byte	.LVL3
 2692 0773 DB180000 		.4byte	0x18db
 2693 0777 9C070000 		.4byte	0x79c
 2694 077b 1A       		.uleb128 0x1a
 2695 077c 01       		.uleb128 0x1
ARM GAS  C:\Users\RYANCA~1\AppData\Local\Temp\cclc5Gbi.s 			page 62


 2696 077d 50       		.byte	0x50
 2697 077e 03       		.uleb128 0x3
 2698 077f 0A       		.byte	0xa
 2699 0780 D601     		.2byte	0x1d6
 2700 0782 1A       		.uleb128 0x1a
 2701 0783 01       		.uleb128 0x1
 2702 0784 51       		.byte	0x51
 2703 0785 01       		.uleb128 0x1
 2704 0786 30       		.byte	0x30
 2705 0787 1A       		.uleb128 0x1a
 2706 0788 01       		.uleb128 0x1
 2707 0789 52       		.byte	0x52
 2708 078a 03       		.uleb128 0x3
 2709 078b 0A       		.byte	0xa
 2710 078c E001     		.2byte	0x1e0
 2711 078e 1A       		.uleb128 0x1a
 2712 078f 01       		.uleb128 0x1
 2713 0790 53       		.byte	0x53
 2714 0791 01       		.uleb128 0x1
 2715 0792 3A       		.byte	0x3a
 2716 0793 1A       		.uleb128 0x1a
 2717 0794 02       		.uleb128 0x2
 2718 0795 7D       		.byte	0x7d
 2719 0796 00       		.sleb128 0
 2720 0797 03       		.uleb128 0x3
 2721 0798 0A       		.byte	0xa
 2722 0799 00FF     		.2byte	0xff00
 2723 079b 00       		.byte	0
 2724 079c 19       		.uleb128 0x19
 2725 079d 60000000 		.4byte	.LVL4
 2726 07a1 DB180000 		.4byte	0x18db
 2727 07a5 D0070000 		.4byte	0x7d0
 2728 07a9 1A       		.uleb128 0x1a
 2729 07aa 01       		.uleb128 0x1
 2730 07ab 50       		.byte	0x50
 2731 07ac 03       		.uleb128 0x3
 2732 07ad 0A       		.byte	0xa
 2733 07ae D601     		.2byte	0x1d6
 2734 07b0 1A       		.uleb128 0x1a
 2735 07b1 01       		.uleb128 0x1
 2736 07b2 51       		.byte	0x51
 2737 07b3 03       		.uleb128 0x3
 2738 07b4 0A       		.byte	0xa
 2739 07b5 0601     		.2byte	0x106
 2740 07b7 1A       		.uleb128 0x1a
 2741 07b8 01       		.uleb128 0x1
 2742 07b9 52       		.byte	0x52
 2743 07ba 03       		.uleb128 0x3
 2744 07bb 0A       		.byte	0xa
 2745 07bc E001     		.2byte	0x1e0
 2746 07be 1A       		.uleb128 0x1a
 2747 07bf 01       		.uleb128 0x1
 2748 07c0 53       		.byte	0x53
 2749 07c1 03       		.uleb128 0x3
 2750 07c2 0A       		.byte	0xa
 2751 07c3 1001     		.2byte	0x110
 2752 07c5 1A       		.uleb128 0x1a
ARM GAS  C:\Users\RYANCA~1\AppData\Local\Temp\cclc5Gbi.s 			page 63


 2753 07c6 02       		.uleb128 0x2
 2754 07c7 7D       		.byte	0x7d
 2755 07c8 00       		.sleb128 0
 2756 07c9 05       		.uleb128 0x5
 2757 07ca 0C       		.byte	0xc
 2758 07cb 00FFFF00 		.4byte	0xffff00
 2759 07cf 00       		.byte	0
 2760 07d0 1B       		.uleb128 0x1b
 2761 07d1 68000000 		.4byte	.LVL5
 2762 07d5 E7180000 		.4byte	0x18e7
 2763 07d9 1A       		.uleb128 0x1a
 2764 07da 01       		.uleb128 0x1
 2765 07db 50       		.byte	0x50
 2766 07dc 03       		.uleb128 0x3
 2767 07dd 0A       		.byte	0xa
 2768 07de 2C01     		.2byte	0x12c
 2769 07e0 00       		.byte	0
 2770 07e1 00       		.byte	0
 2771 07e2 18       		.uleb128 0x18
 2772 07e3 16050000 		.4byte	.LASF104
 2773 07e7 01       		.byte	0x1
 2774 07e8 24       		.byte	0x24
 2775 07e9 00000000 		.4byte	.LFB65
 2776 07ed 64000000 		.4byte	.LFE65-.LFB65
 2777 07f1 01       		.uleb128 0x1
 2778 07f2 9C       		.byte	0x9c
 2779 07f3 D8080000 		.4byte	0x8d8
 2780 07f7 19       		.uleb128 0x19
 2781 07f8 08000000 		.4byte	.LVL6
 2782 07fc CF180000 		.4byte	0x18cf
 2783 0800 0A080000 		.4byte	0x80a
 2784 0804 1A       		.uleb128 0x1a
 2785 0805 01       		.uleb128 0x1
 2786 0806 50       		.byte	0x50
 2787 0807 01       		.uleb128 0x1
 2788 0808 30       		.byte	0x30
 2789 0809 00       		.byte	0
 2790 080a 19       		.uleb128 0x19
 2791 080b 12000000 		.4byte	.LVL7
 2792 080f F2180000 		.4byte	0x18f2
 2793 0813 2C080000 		.4byte	0x82c
 2794 0817 1A       		.uleb128 0x1a
 2795 0818 01       		.uleb128 0x1
 2796 0819 50       		.byte	0x50
 2797 081a 02       		.uleb128 0x2
 2798 081b 08       		.byte	0x8
 2799 081c 44       		.byte	0x44
 2800 081d 1A       		.uleb128 0x1a
 2801 081e 01       		.uleb128 0x1
 2802 081f 51       		.byte	0x51
 2803 0820 01       		.uleb128 0x1
 2804 0821 3A       		.byte	0x3a
 2805 0822 1A       		.uleb128 0x1a
 2806 0823 01       		.uleb128 0x1
 2807 0824 52       		.byte	0x52
 2808 0825 05       		.uleb128 0x5
 2809 0826 03       		.byte	0x3
ARM GAS  C:\Users\RYANCA~1\AppData\Local\Temp\cclc5Gbi.s 			page 64


 2810 0827 00000000 		.4byte	.LC0
 2811 082b 00       		.byte	0
 2812 082c 19       		.uleb128 0x19
 2813 082d 1E000000 		.4byte	.LVL8
 2814 0831 F2180000 		.4byte	0x18f2
 2815 0835 4F080000 		.4byte	0x84f
 2816 0839 1A       		.uleb128 0x1a
 2817 083a 01       		.uleb128 0x1
 2818 083b 50       		.byte	0x50
 2819 083c 03       		.uleb128 0x3
 2820 083d 0A       		.byte	0xa
 2821 083e 2901     		.2byte	0x129
 2822 0840 1A       		.uleb128 0x1a
 2823 0841 01       		.uleb128 0x1
 2824 0842 51       		.byte	0x51
 2825 0843 01       		.uleb128 0x1
 2826 0844 3A       		.byte	0x3a
 2827 0845 1A       		.uleb128 0x1a
 2828 0846 01       		.uleb128 0x1
 2829 0847 52       		.byte	0x52
 2830 0848 05       		.uleb128 0x5
 2831 0849 03       		.byte	0x3
 2832 084a 0C000000 		.4byte	.LC1
 2833 084e 00       		.byte	0
 2834 084f 19       		.uleb128 0x19
 2835 0850 28000000 		.4byte	.LVL9
 2836 0854 F2180000 		.4byte	0x18f2
 2837 0858 71080000 		.4byte	0x871
 2838 085c 1A       		.uleb128 0x1a
 2839 085d 01       		.uleb128 0x1
 2840 085e 50       		.byte	0x50
 2841 085f 01       		.uleb128 0x1
 2842 0860 3A       		.byte	0x3a
 2843 0861 1A       		.uleb128 0x1a
 2844 0862 01       		.uleb128 0x1
 2845 0863 51       		.byte	0x51
 2846 0864 02       		.uleb128 0x2
 2847 0865 08       		.byte	0x8
 2848 0866 C3       		.byte	0xc3
 2849 0867 1A       		.uleb128 0x1a
 2850 0868 01       		.uleb128 0x1
 2851 0869 52       		.byte	0x52
 2852 086a 05       		.uleb128 0x5
 2853 086b 03       		.byte	0x3
 2854 086c 18000000 		.4byte	.LC2
 2855 0870 00       		.byte	0
 2856 0871 19       		.uleb128 0x19
 2857 0872 32000000 		.4byte	.LVL10
 2858 0876 F2180000 		.4byte	0x18f2
 2859 087a 93080000 		.4byte	0x893
 2860 087e 1A       		.uleb128 0x1a
 2861 087f 01       		.uleb128 0x1
 2862 0880 50       		.byte	0x50
 2863 0881 01       		.uleb128 0x1
 2864 0882 3A       		.byte	0x3a
 2865 0883 1A       		.uleb128 0x1a
 2866 0884 01       		.uleb128 0x1
ARM GAS  C:\Users\RYANCA~1\AppData\Local\Temp\cclc5Gbi.s 			page 65


 2867 0885 51       		.byte	0x51
 2868 0886 02       		.uleb128 0x2
 2869 0887 08       		.byte	0x8
 2870 0888 F0       		.byte	0xf0
 2871 0889 1A       		.uleb128 0x1a
 2872 088a 01       		.uleb128 0x1
 2873 088b 52       		.byte	0x52
 2874 088c 05       		.uleb128 0x5
 2875 088d 03       		.byte	0x3
 2876 088e 20000000 		.4byte	.LC3
 2877 0892 00       		.byte	0
 2878 0893 19       		.uleb128 0x19
 2879 0894 3E000000 		.4byte	.LVL11
 2880 0898 F2180000 		.4byte	0x18f2
 2881 089c B7080000 		.4byte	0x8b7
 2882 08a0 1A       		.uleb128 0x1a
 2883 08a1 01       		.uleb128 0x1
 2884 08a2 50       		.byte	0x50
 2885 08a3 03       		.uleb128 0x3
 2886 08a4 0A       		.byte	0xa
 2887 08a5 5301     		.2byte	0x153
 2888 08a7 1A       		.uleb128 0x1a
 2889 08a8 01       		.uleb128 0x1
 2890 08a9 51       		.byte	0x51
 2891 08aa 02       		.uleb128 0x2
 2892 08ab 08       		.byte	0x8
 2893 08ac C3       		.byte	0xc3
 2894 08ad 1A       		.uleb128 0x1a
 2895 08ae 01       		.uleb128 0x1
 2896 08af 52       		.byte	0x52
 2897 08b0 05       		.uleb128 0x5
 2898 08b1 03       		.byte	0x3
 2899 08b2 28000000 		.4byte	.LC4
 2900 08b6 00       		.byte	0
 2901 08b7 1B       		.uleb128 0x1b
 2902 08b8 4A000000 		.4byte	.LVL12
 2903 08bc F2180000 		.4byte	0x18f2
 2904 08c0 1A       		.uleb128 0x1a
 2905 08c1 01       		.uleb128 0x1
 2906 08c2 50       		.byte	0x50
 2907 08c3 03       		.uleb128 0x3
 2908 08c4 0A       		.byte	0xa
 2909 08c5 2C01     		.2byte	0x12c
 2910 08c7 1A       		.uleb128 0x1a
 2911 08c8 01       		.uleb128 0x1
 2912 08c9 51       		.byte	0x51
 2913 08ca 02       		.uleb128 0x2
 2914 08cb 08       		.byte	0x8
 2915 08cc F0       		.byte	0xf0
 2916 08cd 1A       		.uleb128 0x1a
 2917 08ce 01       		.uleb128 0x1
 2918 08cf 52       		.byte	0x52
 2919 08d0 05       		.uleb128 0x5
 2920 08d1 03       		.byte	0x3
 2921 08d2 30000000 		.4byte	.LC5
 2922 08d6 00       		.byte	0
 2923 08d7 00       		.byte	0
ARM GAS  C:\Users\RYANCA~1\AppData\Local\Temp\cclc5Gbi.s 			page 66


 2924 08d8 18       		.uleb128 0x18
 2925 08d9 8F050000 		.4byte	.LASF105
 2926 08dd 01       		.byte	0x1
 2927 08de 30       		.byte	0x30
 2928 08df 00000000 		.4byte	.LFB66
 2929 08e3 38000000 		.4byte	.LFE66-.LFB66
 2930 08e7 01       		.uleb128 0x1
 2931 08e8 9C       		.byte	0x9c
 2932 08e9 65090000 		.4byte	0x965
 2933 08ed 19       		.uleb128 0x19
 2934 08ee 08000000 		.4byte	.LVL13
 2935 08f2 CF180000 		.4byte	0x18cf
 2936 08f6 00090000 		.4byte	0x900
 2937 08fa 1A       		.uleb128 0x1a
 2938 08fb 01       		.uleb128 0x1
 2939 08fc 50       		.byte	0x50
 2940 08fd 01       		.uleb128 0x1
 2941 08fe 30       		.byte	0x30
 2942 08ff 00       		.byte	0
 2943 0900 19       		.uleb128 0x19
 2944 0901 12000000 		.4byte	.LVL14
 2945 0905 F2180000 		.4byte	0x18f2
 2946 0909 22090000 		.4byte	0x922
 2947 090d 1A       		.uleb128 0x1a
 2948 090e 01       		.uleb128 0x1
 2949 090f 50       		.byte	0x50
 2950 0910 02       		.uleb128 0x2
 2951 0911 08       		.byte	0x8
 2952 0912 44       		.byte	0x44
 2953 0913 1A       		.uleb128 0x1a
 2954 0914 01       		.uleb128 0x1
 2955 0915 51       		.byte	0x51
 2956 0916 01       		.uleb128 0x1
 2957 0917 3A       		.byte	0x3a
 2958 0918 1A       		.uleb128 0x1a
 2959 0919 01       		.uleb128 0x1
 2960 091a 52       		.byte	0x52
 2961 091b 05       		.uleb128 0x5
 2962 091c 03       		.byte	0x3
 2963 091d 00000000 		.4byte	.LC0
 2964 0921 00       		.byte	0
 2965 0922 19       		.uleb128 0x19
 2966 0923 1E000000 		.4byte	.LVL15
 2967 0927 F2180000 		.4byte	0x18f2
 2968 092b 45090000 		.4byte	0x945
 2969 092f 1A       		.uleb128 0x1a
 2970 0930 01       		.uleb128 0x1
 2971 0931 50       		.byte	0x50
 2972 0932 03       		.uleb128 0x3
 2973 0933 0A       		.byte	0xa
 2974 0934 2901     		.2byte	0x129
 2975 0936 1A       		.uleb128 0x1a
 2976 0937 01       		.uleb128 0x1
 2977 0938 51       		.byte	0x51
 2978 0939 01       		.uleb128 0x1
 2979 093a 3A       		.byte	0x3a
 2980 093b 1A       		.uleb128 0x1a
ARM GAS  C:\Users\RYANCA~1\AppData\Local\Temp\cclc5Gbi.s 			page 67


 2981 093c 01       		.uleb128 0x1
 2982 093d 52       		.byte	0x52
 2983 093e 05       		.uleb128 0x5
 2984 093f 03       		.byte	0x3
 2985 0940 0C000000 		.4byte	.LC1
 2986 0944 00       		.byte	0
 2987 0945 1B       		.uleb128 0x1b
 2988 0946 28000000 		.4byte	.LVL16
 2989 094a F2180000 		.4byte	0x18f2
 2990 094e 1A       		.uleb128 0x1a
 2991 094f 01       		.uleb128 0x1
 2992 0950 50       		.byte	0x50
 2993 0951 02       		.uleb128 0x2
 2994 0952 08       		.byte	0x8
 2995 0953 23       		.byte	0x23
 2996 0954 1A       		.uleb128 0x1a
 2997 0955 01       		.uleb128 0x1
 2998 0956 51       		.byte	0x51
 2999 0957 02       		.uleb128 0x2
 3000 0958 08       		.byte	0x8
 3001 0959 E1       		.byte	0xe1
 3002 095a 1A       		.uleb128 0x1a
 3003 095b 01       		.uleb128 0x1
 3004 095c 52       		.byte	0x52
 3005 095d 05       		.uleb128 0x5
 3006 095e 03       		.byte	0x3
 3007 095f 18000000 		.4byte	.LC2
 3008 0963 00       		.byte	0
 3009 0964 00       		.byte	0
 3010 0965 1C       		.uleb128 0x1c
 3011 0966 D0050000 		.4byte	.LASF113
 3012 096a 01       		.byte	0x1
 3013 096b 80       		.byte	0x80
 3014 096c 00000000 		.4byte	.LFB67
 3015 0970 70010000 		.4byte	.LFE67-.LFB67
 3016 0974 01       		.uleb128 0x1
 3017 0975 9C       		.byte	0x9c
 3018 0976 A60B0000 		.4byte	0xba6
 3019 097a 1D       		.uleb128 0x1d
 3020 097b 6F030000 		.4byte	.LASF62
 3021 097f 01       		.byte	0x1
 3022 0980 80       		.byte	0x80
 3023 0981 B8000000 		.4byte	0xb8
 3024 0985 00000000 		.4byte	.LLST0
 3025 0989 1E       		.uleb128 0x1e
 3026 098a 783100   		.ascii	"x1\000"
 3027 098d 01       		.byte	0x1
 3028 098e 80       		.byte	0x80
 3029 098f B8000000 		.4byte	0xb8
 3030 0993 21000000 		.4byte	.LLST1
 3031 0997 1E       		.uleb128 0x1e
 3032 0998 793100   		.ascii	"y1\000"
 3033 099b 01       		.byte	0x1
 3034 099c 80       		.byte	0x80
 3035 099d B8000000 		.4byte	0xb8
 3036 09a1 74000000 		.4byte	.LLST2
 3037 09a5 1E       		.uleb128 0x1e
ARM GAS  C:\Users\RYANCA~1\AppData\Local\Temp\cclc5Gbi.s 			page 68


 3038 09a6 783200   		.ascii	"x2\000"
 3039 09a9 01       		.byte	0x1
 3040 09aa 80       		.byte	0x80
 3041 09ab B8000000 		.4byte	0xb8
 3042 09af 95000000 		.4byte	.LLST3
 3043 09b3 1E       		.uleb128 0x1e
 3044 09b4 793200   		.ascii	"y2\000"
 3045 09b7 01       		.byte	0x1
 3046 09b8 80       		.byte	0x80
 3047 09b9 B8000000 		.4byte	0xb8
 3048 09bd B6000000 		.4byte	.LLST4
 3049 09c1 1D       		.uleb128 0x1d
 3050 09c2 E9030000 		.4byte	.LASF106
 3051 09c6 01       		.byte	0x1
 3052 09c7 80       		.byte	0x80
 3053 09c8 B8000000 		.4byte	0xb8
 3054 09cc D6000000 		.4byte	.LLST5
 3055 09d0 1F       		.uleb128 0x1f
 3056 09d1 D9050000 		.4byte	.LASF107
 3057 09d5 01       		.byte	0x1
 3058 09d6 81       		.byte	0x81
 3059 09d7 A6000000 		.4byte	0xa6
 3060 09db F6000000 		.4byte	.LLST6
 3061 09df 1F       		.uleb128 0x1f
 3062 09e0 F0040000 		.4byte	.LASF108
 3063 09e4 01       		.byte	0x1
 3064 09e5 82       		.byte	0x82
 3065 09e6 A6000000 		.4byte	0xa6
 3066 09ea 09010000 		.4byte	.LLST7
 3067 09ee 1F       		.uleb128 0x1f
 3068 09ef 4C030000 		.4byte	.LASF109
 3069 09f3 01       		.byte	0x1
 3070 09f4 82       		.byte	0x82
 3071 09f5 A6000000 		.4byte	0xa6
 3072 09f9 1C010000 		.4byte	.LLST8
 3073 09fd 1F       		.uleb128 0x1f
 3074 09fe 4A050000 		.4byte	.LASF110
 3075 0a02 01       		.byte	0x1
 3076 0a03 83       		.byte	0x83
 3077 0a04 A6000000 		.4byte	0xa6
 3078 0a08 2F010000 		.4byte	.LLST9
 3079 0a0c 1F       		.uleb128 0x1f
 3080 0a0d E7010000 		.4byte	.LASF111
 3081 0a11 01       		.byte	0x1
 3082 0a12 93       		.byte	0x93
 3083 0a13 8D030000 		.4byte	0x38d
 3084 0a17 88010000 		.4byte	.LLST10
 3085 0a1b 20       		.uleb128 0x20
 3086 0a1c 96000000 		.4byte	.LBB2
 3087 0a20 B0000000 		.4byte	.LBE2-.LBB2
 3088 0a24 360B0000 		.4byte	0xb36
 3089 0a28 21       		.uleb128 0x21
 3090 0a29 08000000 		.4byte	.LASF112
 3091 0a2d 01       		.byte	0x1
 3092 0a2e A0       		.byte	0xa0
 3093 0a2f A60B0000 		.4byte	0xba6
 3094 0a33 02       		.uleb128 0x2
ARM GAS  C:\Users\RYANCA~1\AppData\Local\Temp\cclc5Gbi.s 			page 69


 3095 0a34 91       		.byte	0x91
 3096 0a35 54       		.sleb128 -44
 3097 0a36 19       		.uleb128 0x19
 3098 0a37 A0000000 		.4byte	.LVL36
 3099 0a3b FE180000 		.4byte	0x18fe
 3100 0a3f 590A0000 		.4byte	0xa59
 3101 0a43 1A       		.uleb128 0x1a
 3102 0a44 01       		.uleb128 0x1
 3103 0a45 50       		.byte	0x50
 3104 0a46 02       		.uleb128 0x2
 3105 0a47 91       		.byte	0x91
 3106 0a48 54       		.sleb128 -44
 3107 0a49 1A       		.uleb128 0x1a
 3108 0a4a 01       		.uleb128 0x1
 3109 0a4b 51       		.byte	0x51
 3110 0a4c 05       		.uleb128 0x5
 3111 0a4d 03       		.byte	0x3
 3112 0a4e 44000000 		.4byte	.LC7
 3113 0a52 1A       		.uleb128 0x1a
 3114 0a53 01       		.uleb128 0x1
 3115 0a54 52       		.byte	0x52
 3116 0a55 02       		.uleb128 0x2
 3117 0a56 75       		.byte	0x75
 3118 0a57 00       		.sleb128 0
 3119 0a58 00       		.byte	0
 3120 0a59 19       		.uleb128 0x19
 3121 0a5a E4000000 		.4byte	.LVL38
 3122 0a5e DB180000 		.4byte	0x18db
 3123 0a62 860A0000 		.4byte	0xa86
 3124 0a66 1A       		.uleb128 0x1a
 3125 0a67 01       		.uleb128 0x1
 3126 0a68 50       		.byte	0x50
 3127 0a69 02       		.uleb128 0x2
 3128 0a6a 76       		.byte	0x76
 3129 0a6b 00       		.sleb128 0
 3130 0a6c 1A       		.uleb128 0x1a
 3131 0a6d 01       		.uleb128 0x1
 3132 0a6e 51       		.byte	0x51
 3133 0a6f 02       		.uleb128 0x2
 3134 0a70 77       		.byte	0x77
 3135 0a71 00       		.sleb128 0
 3136 0a72 1A       		.uleb128 0x1a
 3137 0a73 01       		.uleb128 0x1
 3138 0a74 52       		.byte	0x52
 3139 0a75 02       		.uleb128 0x2
 3140 0a76 78       		.byte	0x78
 3141 0a77 00       		.sleb128 0
 3142 0a78 1A       		.uleb128 0x1a
 3143 0a79 01       		.uleb128 0x1
 3144 0a7a 53       		.byte	0x53
 3145 0a7b 02       		.uleb128 0x2
 3146 0a7c 79       		.byte	0x79
 3147 0a7d 00       		.sleb128 0
 3148 0a7e 1A       		.uleb128 0x1a
 3149 0a7f 02       		.uleb128 0x2
 3150 0a80 7D       		.byte	0x7d
 3151 0a81 00       		.sleb128 0
ARM GAS  C:\Users\RYANCA~1\AppData\Local\Temp\cclc5Gbi.s 			page 70


 3152 0a82 02       		.uleb128 0x2
 3153 0a83 75       		.byte	0x75
 3154 0a84 00       		.sleb128 0
 3155 0a85 00       		.byte	0
 3156 0a86 19       		.uleb128 0x19
 3157 0a87 F8000000 		.4byte	.LVL39
 3158 0a8b 09190000 		.4byte	0x1909
 3159 0a8f B20A0000 		.4byte	0xab2
 3160 0a93 1A       		.uleb128 0x1a
 3161 0a94 01       		.uleb128 0x1
 3162 0a95 50       		.byte	0x50
 3163 0a96 02       		.uleb128 0x2
 3164 0a97 74       		.byte	0x74
 3165 0a98 00       		.sleb128 0
 3166 0a99 1A       		.uleb128 0x1a
 3167 0a9a 01       		.uleb128 0x1
 3168 0a9b 51       		.byte	0x51
 3169 0a9c 02       		.uleb128 0x2
 3170 0a9d 7A       		.byte	0x7a
 3171 0a9e 00       		.sleb128 0
 3172 0a9f 1A       		.uleb128 0x1a
 3173 0aa0 01       		.uleb128 0x1
 3174 0aa1 52       		.byte	0x52
 3175 0aa2 02       		.uleb128 0x2
 3176 0aa3 91       		.byte	0x91
 3177 0aa4 54       		.sleb128 -44
 3178 0aa5 1A       		.uleb128 0x1a
 3179 0aa6 01       		.uleb128 0x1
 3180 0aa7 53       		.byte	0x53
 3181 0aa8 01       		.uleb128 0x1
 3182 0aa9 30       		.byte	0x30
 3183 0aaa 1A       		.uleb128 0x1a
 3184 0aab 02       		.uleb128 0x2
 3185 0aac 7D       		.byte	0x7d
 3186 0aad 00       		.sleb128 0
 3187 0aae 02       		.uleb128 0x2
 3188 0aaf 75       		.byte	0x75
 3189 0ab0 00       		.sleb128 0
 3190 0ab1 00       		.byte	0
 3191 0ab2 19       		.uleb128 0x19
 3192 0ab3 20010000 		.4byte	.LVL42
 3193 0ab7 DB180000 		.4byte	0x18db
 3194 0abb DF0A0000 		.4byte	0xadf
 3195 0abf 1A       		.uleb128 0x1a
 3196 0ac0 01       		.uleb128 0x1
 3197 0ac1 50       		.byte	0x50
 3198 0ac2 02       		.uleb128 0x2
 3199 0ac3 76       		.byte	0x76
 3200 0ac4 00       		.sleb128 0
 3201 0ac5 1A       		.uleb128 0x1a
 3202 0ac6 01       		.uleb128 0x1
 3203 0ac7 51       		.byte	0x51
 3204 0ac8 02       		.uleb128 0x2
 3205 0ac9 77       		.byte	0x77
 3206 0aca 00       		.sleb128 0
 3207 0acb 1A       		.uleb128 0x1a
 3208 0acc 01       		.uleb128 0x1
ARM GAS  C:\Users\RYANCA~1\AppData\Local\Temp\cclc5Gbi.s 			page 71


 3209 0acd 52       		.byte	0x52
 3210 0ace 02       		.uleb128 0x2
 3211 0acf 78       		.byte	0x78
 3212 0ad0 00       		.sleb128 0
 3213 0ad1 1A       		.uleb128 0x1a
 3214 0ad2 01       		.uleb128 0x1
 3215 0ad3 53       		.byte	0x53
 3216 0ad4 02       		.uleb128 0x2
 3217 0ad5 79       		.byte	0x79
 3218 0ad6 00       		.sleb128 0
 3219 0ad7 1A       		.uleb128 0x1a
 3220 0ad8 02       		.uleb128 0x2
 3221 0ad9 7D       		.byte	0x7d
 3222 0ada 00       		.sleb128 0
 3223 0adb 02       		.uleb128 0x2
 3224 0adc 75       		.byte	0x75
 3225 0add 00       		.sleb128 0
 3226 0ade 00       		.byte	0
 3227 0adf 19       		.uleb128 0x19
 3228 0ae0 34010000 		.4byte	.LVL43
 3229 0ae4 DB180000 		.4byte	0x18db
 3230 0ae8 0C0B0000 		.4byte	0xb0c
 3231 0aec 1A       		.uleb128 0x1a
 3232 0aed 01       		.uleb128 0x1
 3233 0aee 50       		.byte	0x50
 3234 0aef 02       		.uleb128 0x2
 3235 0af0 76       		.byte	0x76
 3236 0af1 00       		.sleb128 0
 3237 0af2 1A       		.uleb128 0x1a
 3238 0af3 01       		.uleb128 0x1
 3239 0af4 51       		.byte	0x51
 3240 0af5 02       		.uleb128 0x2
 3241 0af6 77       		.byte	0x77
 3242 0af7 00       		.sleb128 0
 3243 0af8 1A       		.uleb128 0x1a
 3244 0af9 01       		.uleb128 0x1
 3245 0afa 52       		.byte	0x52
 3246 0afb 02       		.uleb128 0x2
 3247 0afc 78       		.byte	0x78
 3248 0afd 00       		.sleb128 0
 3249 0afe 1A       		.uleb128 0x1a
 3250 0aff 01       		.uleb128 0x1
 3251 0b00 53       		.byte	0x53
 3252 0b01 02       		.uleb128 0x2
 3253 0b02 79       		.byte	0x79
 3254 0b03 00       		.sleb128 0
 3255 0b04 1A       		.uleb128 0x1a
 3256 0b05 02       		.uleb128 0x2
 3257 0b06 7D       		.byte	0x7d
 3258 0b07 00       		.sleb128 0
 3259 0b08 02       		.uleb128 0x2
 3260 0b09 7B       		.byte	0x7b
 3261 0b0a 00       		.sleb128 0
 3262 0b0b 00       		.byte	0
 3263 0b0c 1B       		.uleb128 0x1b
 3264 0b0d 46010000 		.4byte	.LVL44
 3265 0b11 09190000 		.4byte	0x1909
ARM GAS  C:\Users\RYANCA~1\AppData\Local\Temp\cclc5Gbi.s 			page 72


 3266 0b15 1A       		.uleb128 0x1a
 3267 0b16 01       		.uleb128 0x1
 3268 0b17 50       		.byte	0x50
 3269 0b18 02       		.uleb128 0x2
 3270 0b19 74       		.byte	0x74
 3271 0b1a 00       		.sleb128 0
 3272 0b1b 1A       		.uleb128 0x1a
 3273 0b1c 01       		.uleb128 0x1
 3274 0b1d 51       		.byte	0x51
 3275 0b1e 02       		.uleb128 0x2
 3276 0b1f 7A       		.byte	0x7a
 3277 0b20 00       		.sleb128 0
 3278 0b21 1A       		.uleb128 0x1a
 3279 0b22 01       		.uleb128 0x1
 3280 0b23 52       		.byte	0x52
 3281 0b24 02       		.uleb128 0x2
 3282 0b25 91       		.byte	0x91
 3283 0b26 54       		.sleb128 -44
 3284 0b27 1A       		.uleb128 0x1a
 3285 0b28 01       		.uleb128 0x1
 3286 0b29 53       		.byte	0x53
 3287 0b2a 02       		.uleb128 0x2
 3288 0b2b 75       		.byte	0x75
 3289 0b2c 00       		.sleb128 0
 3290 0b2d 1A       		.uleb128 0x1a
 3291 0b2e 02       		.uleb128 0x2
 3292 0b2f 7D       		.byte	0x7d
 3293 0b30 00       		.sleb128 0
 3294 0b31 02       		.uleb128 0x2
 3295 0b32 7B       		.byte	0x7b
 3296 0b33 00       		.sleb128 0
 3297 0b34 00       		.byte	0
 3298 0b35 00       		.byte	0
 3299 0b36 22       		.uleb128 0x22
 3300 0b37 5C000000 		.4byte	.LVL31
 3301 0b3b 15190000 		.4byte	0x1915
 3302 0b3f 19       		.uleb128 0x19
 3303 0b40 7C000000 		.4byte	.LVL33
 3304 0b44 DB180000 		.4byte	0x18db
 3305 0b48 6C0B0000 		.4byte	0xb6c
 3306 0b4c 1A       		.uleb128 0x1a
 3307 0b4d 01       		.uleb128 0x1
 3308 0b4e 50       		.byte	0x50
 3309 0b4f 02       		.uleb128 0x2
 3310 0b50 76       		.byte	0x76
 3311 0b51 00       		.sleb128 0
 3312 0b52 1A       		.uleb128 0x1a
 3313 0b53 01       		.uleb128 0x1
 3314 0b54 51       		.byte	0x51
 3315 0b55 02       		.uleb128 0x2
 3316 0b56 77       		.byte	0x77
 3317 0b57 00       		.sleb128 0
 3318 0b58 1A       		.uleb128 0x1a
 3319 0b59 01       		.uleb128 0x1
 3320 0b5a 52       		.byte	0x52
 3321 0b5b 02       		.uleb128 0x2
 3322 0b5c 78       		.byte	0x78
ARM GAS  C:\Users\RYANCA~1\AppData\Local\Temp\cclc5Gbi.s 			page 73


 3323 0b5d 00       		.sleb128 0
 3324 0b5e 1A       		.uleb128 0x1a
 3325 0b5f 01       		.uleb128 0x1
 3326 0b60 53       		.byte	0x53
 3327 0b61 02       		.uleb128 0x2
 3328 0b62 79       		.byte	0x79
 3329 0b63 00       		.sleb128 0
 3330 0b64 1A       		.uleb128 0x1a
 3331 0b65 02       		.uleb128 0x2
 3332 0b66 7D       		.byte	0x7d
 3333 0b67 00       		.sleb128 0
 3334 0b68 02       		.uleb128 0x2
 3335 0b69 75       		.byte	0x75
 3336 0b6a 00       		.sleb128 0
 3337 0b6b 00       		.byte	0
 3338 0b6c 19       		.uleb128 0x19
 3339 0b6d 94000000 		.4byte	.LVL34
 3340 0b71 09190000 		.4byte	0x1909
 3341 0b75 9C0B0000 		.4byte	0xb9c
 3342 0b79 1A       		.uleb128 0x1a
 3343 0b7a 01       		.uleb128 0x1
 3344 0b7b 50       		.byte	0x50
 3345 0b7c 02       		.uleb128 0x2
 3346 0b7d 74       		.byte	0x74
 3347 0b7e 00       		.sleb128 0
 3348 0b7f 1A       		.uleb128 0x1a
 3349 0b80 01       		.uleb128 0x1
 3350 0b81 51       		.byte	0x51
 3351 0b82 02       		.uleb128 0x2
 3352 0b83 7A       		.byte	0x7a
 3353 0b84 00       		.sleb128 0
 3354 0b85 1A       		.uleb128 0x1a
 3355 0b86 01       		.uleb128 0x1
 3356 0b87 52       		.byte	0x52
 3357 0b88 05       		.uleb128 0x5
 3358 0b89 03       		.byte	0x3
 3359 0b8a 3C000000 		.4byte	.LC6
 3360 0b8e 1A       		.uleb128 0x1a
 3361 0b8f 01       		.uleb128 0x1
 3362 0b90 53       		.byte	0x53
 3363 0b91 01       		.uleb128 0x1
 3364 0b92 30       		.byte	0x30
 3365 0b93 1A       		.uleb128 0x1a
 3366 0b94 02       		.uleb128 0x2
 3367 0b95 7D       		.byte	0x7d
 3368 0b96 00       		.sleb128 0
 3369 0b97 03       		.uleb128 0x3
 3370 0b98 0A       		.byte	0xa
 3371 0b99 00FF     		.2byte	0xff00
 3372 0b9b 00       		.byte	0
 3373 0b9c 22       		.uleb128 0x22
 3374 0b9d 4C010000 		.4byte	.LVL45
 3375 0ba1 15190000 		.4byte	0x1915
 3376 0ba5 00       		.byte	0
 3377 0ba6 16       		.uleb128 0x16
 3378 0ba7 09010000 		.4byte	0x109
 3379 0bab B60B0000 		.4byte	0xbb6
ARM GAS  C:\Users\RYANCA~1\AppData\Local\Temp\cclc5Gbi.s 			page 74


 3380 0baf 17       		.uleb128 0x17
 3381 0bb0 17010000 		.4byte	0x117
 3382 0bb4 03       		.byte	0x3
 3383 0bb5 00       		.byte	0
 3384 0bb6 1C       		.uleb128 0x1c
 3385 0bb7 37050000 		.4byte	.LASF114
 3386 0bbb 01       		.byte	0x1
 3387 0bbc F1       		.byte	0xf1
 3388 0bbd 00000000 		.4byte	.LFB68
 3389 0bc1 F4000000 		.4byte	.LFE68-.LFB68
 3390 0bc5 01       		.uleb128 0x1
 3391 0bc6 9C       		.byte	0x9c
 3392 0bc7 710D0000 		.4byte	0xd71
 3393 0bcb 1D       		.uleb128 0x1d
 3394 0bcc 6F030000 		.4byte	.LASF62
 3395 0bd0 01       		.byte	0x1
 3396 0bd1 F1       		.byte	0xf1
 3397 0bd2 B8000000 		.4byte	0xb8
 3398 0bd6 B8010000 		.4byte	.LLST11
 3399 0bda 1E       		.uleb128 0x1e
 3400 0bdb 783100   		.ascii	"x1\000"
 3401 0bde 01       		.byte	0x1
 3402 0bdf F1       		.byte	0xf1
 3403 0be0 B8000000 		.4byte	0xb8
 3404 0be4 D9010000 		.4byte	.LLST12
 3405 0be8 1E       		.uleb128 0x1e
 3406 0be9 793100   		.ascii	"y1\000"
 3407 0bec 01       		.byte	0x1
 3408 0bed F1       		.byte	0xf1
 3409 0bee B8000000 		.4byte	0xb8
 3410 0bf2 FA010000 		.4byte	.LLST13
 3411 0bf6 1E       		.uleb128 0x1e
 3412 0bf7 783200   		.ascii	"x2\000"
 3413 0bfa 01       		.byte	0x1
 3414 0bfb F1       		.byte	0xf1
 3415 0bfc B8000000 		.4byte	0xb8
 3416 0c00 1B020000 		.4byte	.LLST14
 3417 0c04 1E       		.uleb128 0x1e
 3418 0c05 793200   		.ascii	"y2\000"
 3419 0c08 01       		.byte	0x1
 3420 0c09 F1       		.byte	0xf1
 3421 0c0a B8000000 		.4byte	0xb8
 3422 0c0e 3C020000 		.4byte	.LLST15
 3423 0c12 1D       		.uleb128 0x1d
 3424 0c13 E9030000 		.4byte	.LASF106
 3425 0c17 01       		.byte	0x1
 3426 0c18 F1       		.byte	0xf1
 3427 0c19 B8000000 		.4byte	0xb8
 3428 0c1d 5C020000 		.4byte	.LLST16
 3429 0c21 1F       		.uleb128 0x1f
 3430 0c22 F0040000 		.4byte	.LASF108
 3431 0c26 01       		.byte	0x1
 3432 0c27 F2       		.byte	0xf2
 3433 0c28 A6000000 		.4byte	0xa6
 3434 0c2c 7C020000 		.4byte	.LLST17
 3435 0c30 1F       		.uleb128 0x1f
 3436 0c31 4C030000 		.4byte	.LASF109
ARM GAS  C:\Users\RYANCA~1\AppData\Local\Temp\cclc5Gbi.s 			page 75


 3437 0c35 01       		.byte	0x1
 3438 0c36 F2       		.byte	0xf2
 3439 0c37 A6000000 		.4byte	0xa6
 3440 0c3b 8F020000 		.4byte	.LLST18
 3441 0c3f 1F       		.uleb128 0x1f
 3442 0c40 4A050000 		.4byte	.LASF110
 3443 0c44 01       		.byte	0x1
 3444 0c45 F3       		.byte	0xf3
 3445 0c46 A6000000 		.4byte	0xa6
 3446 0c4a A2020000 		.4byte	.LLST19
 3447 0c4e 23       		.uleb128 0x23
 3448 0c4f D9050000 		.4byte	.LASF107
 3449 0c53 01       		.byte	0x1
 3450 0c54 F4       		.byte	0xf4
 3451 0c55 A6000000 		.4byte	0xa6
 3452 0c59 03       		.byte	0x3
 3453 0c5a 1F       		.uleb128 0x1f
 3454 0c5b E7010000 		.4byte	.LASF111
 3455 0c5f 01       		.byte	0x1
 3456 0c60 FD       		.byte	0xfd
 3457 0c61 8D030000 		.4byte	0x38d
 3458 0c65 F6020000 		.4byte	.LLST20
 3459 0c69 24       		.uleb128 0x24
 3460 0c6a 08000000 		.4byte	.LASF112
 3461 0c6e 01       		.byte	0x1
 3462 0c6f 1101     		.2byte	0x111
 3463 0c71 A60B0000 		.4byte	0xba6
 3464 0c75 02       		.uleb128 0x2
 3465 0c76 91       		.byte	0x91
 3466 0c77 54       		.sleb128 -44
 3467 0c78 22       		.uleb128 0x22
 3468 0c79 48000000 		.4byte	.LVL56
 3469 0c7d 15190000 		.4byte	0x1915
 3470 0c81 19       		.uleb128 0x19
 3471 0c82 74000000 		.4byte	.LVL58
 3472 0c86 DB180000 		.4byte	0x18db
 3473 0c8a B60C0000 		.4byte	0xcb6
 3474 0c8e 1A       		.uleb128 0x1a
 3475 0c8f 01       		.uleb128 0x1
 3476 0c90 50       		.byte	0x50
 3477 0c91 04       		.uleb128 0x4
 3478 0c92 91       		.byte	0x91
 3479 0c93 40       		.sleb128 -64
 3480 0c94 94       		.byte	0x94
 3481 0c95 02       		.byte	0x2
 3482 0c96 1A       		.uleb128 0x1a
 3483 0c97 01       		.uleb128 0x1
 3484 0c98 51       		.byte	0x51
 3485 0c99 04       		.uleb128 0x4
 3486 0c9a 91       		.byte	0x91
 3487 0c9b 44       		.sleb128 -60
 3488 0c9c 94       		.byte	0x94
 3489 0c9d 02       		.byte	0x2
 3490 0c9e 1A       		.uleb128 0x1a
 3491 0c9f 01       		.uleb128 0x1
 3492 0ca0 52       		.byte	0x52
 3493 0ca1 04       		.uleb128 0x4
ARM GAS  C:\Users\RYANCA~1\AppData\Local\Temp\cclc5Gbi.s 			page 76


 3494 0ca2 91       		.byte	0x91
 3495 0ca3 48       		.sleb128 -56
 3496 0ca4 94       		.byte	0x94
 3497 0ca5 02       		.byte	0x2
 3498 0ca6 1A       		.uleb128 0x1a
 3499 0ca7 01       		.uleb128 0x1
 3500 0ca8 53       		.byte	0x53
 3501 0ca9 04       		.uleb128 0x4
 3502 0caa 91       		.byte	0x91
 3503 0cab 4C       		.sleb128 -52
 3504 0cac 94       		.byte	0x94
 3505 0cad 02       		.byte	0x2
 3506 0cae 1A       		.uleb128 0x1a
 3507 0caf 02       		.uleb128 0x2
 3508 0cb0 7D       		.byte	0x7d
 3509 0cb1 00       		.sleb128 0
 3510 0cb2 02       		.uleb128 0x2
 3511 0cb3 76       		.byte	0x76
 3512 0cb4 00       		.sleb128 0
 3513 0cb5 00       		.byte	0
 3514 0cb6 19       		.uleb128 0x19
 3515 0cb7 86000000 		.4byte	.LVL59
 3516 0cbb DB180000 		.4byte	0x18db
 3517 0cbf EB0C0000 		.4byte	0xceb
 3518 0cc3 1A       		.uleb128 0x1a
 3519 0cc4 01       		.uleb128 0x1
 3520 0cc5 50       		.byte	0x50
 3521 0cc6 04       		.uleb128 0x4
 3522 0cc7 91       		.byte	0x91
 3523 0cc8 40       		.sleb128 -64
 3524 0cc9 94       		.byte	0x94
 3525 0cca 02       		.byte	0x2
 3526 0ccb 1A       		.uleb128 0x1a
 3527 0ccc 01       		.uleb128 0x1
 3528 0ccd 51       		.byte	0x51
 3529 0cce 04       		.uleb128 0x4
 3530 0ccf 91       		.byte	0x91
 3531 0cd0 44       		.sleb128 -60
 3532 0cd1 94       		.byte	0x94
 3533 0cd2 02       		.byte	0x2
 3534 0cd3 1A       		.uleb128 0x1a
 3535 0cd4 01       		.uleb128 0x1
 3536 0cd5 52       		.byte	0x52
 3537 0cd6 04       		.uleb128 0x4
 3538 0cd7 91       		.byte	0x91
 3539 0cd8 48       		.sleb128 -56
 3540 0cd9 94       		.byte	0x94
 3541 0cda 02       		.byte	0x2
 3542 0cdb 1A       		.uleb128 0x1a
 3543 0cdc 01       		.uleb128 0x1
 3544 0cdd 53       		.byte	0x53
 3545 0cde 04       		.uleb128 0x4
 3546 0cdf 91       		.byte	0x91
 3547 0ce0 4C       		.sleb128 -52
 3548 0ce1 94       		.byte	0x94
 3549 0ce2 02       		.byte	0x2
 3550 0ce3 1A       		.uleb128 0x1a
ARM GAS  C:\Users\RYANCA~1\AppData\Local\Temp\cclc5Gbi.s 			page 77


 3551 0ce4 02       		.uleb128 0x2
 3552 0ce5 7D       		.byte	0x7d
 3553 0ce6 00       		.sleb128 0
 3554 0ce7 02       		.uleb128 0x2
 3555 0ce8 76       		.byte	0x76
 3556 0ce9 00       		.sleb128 0
 3557 0cea 00       		.byte	0
 3558 0ceb 19       		.uleb128 0x19
 3559 0cec AA000000 		.4byte	.LVL62
 3560 0cf0 DB180000 		.4byte	0x18db
 3561 0cf4 180D0000 		.4byte	0xd18
 3562 0cf8 1A       		.uleb128 0x1a
 3563 0cf9 01       		.uleb128 0x1
 3564 0cfa 50       		.byte	0x50
 3565 0cfb 02       		.uleb128 0x2
 3566 0cfc 78       		.byte	0x78
 3567 0cfd 00       		.sleb128 0
 3568 0cfe 1A       		.uleb128 0x1a
 3569 0cff 01       		.uleb128 0x1
 3570 0d00 51       		.byte	0x51
 3571 0d01 02       		.uleb128 0x2
 3572 0d02 79       		.byte	0x79
 3573 0d03 00       		.sleb128 0
 3574 0d04 1A       		.uleb128 0x1a
 3575 0d05 01       		.uleb128 0x1
 3576 0d06 52       		.byte	0x52
 3577 0d07 02       		.uleb128 0x2
 3578 0d08 7A       		.byte	0x7a
 3579 0d09 00       		.sleb128 0
 3580 0d0a 1A       		.uleb128 0x1a
 3581 0d0b 01       		.uleb128 0x1
 3582 0d0c 53       		.byte	0x53
 3583 0d0d 02       		.uleb128 0x2
 3584 0d0e 7B       		.byte	0x7b
 3585 0d0f 00       		.sleb128 0
 3586 0d10 1A       		.uleb128 0x1a
 3587 0d11 02       		.uleb128 0x2
 3588 0d12 7D       		.byte	0x7d
 3589 0d13 00       		.sleb128 0
 3590 0d14 02       		.uleb128 0x2
 3591 0d15 76       		.byte	0x76
 3592 0d16 00       		.sleb128 0
 3593 0d17 00       		.byte	0
 3594 0d18 19       		.uleb128 0x19
 3595 0d19 B8000000 		.4byte	.LVL63
 3596 0d1d FE180000 		.4byte	0x18fe
 3597 0d21 3B0D0000 		.4byte	0xd3b
 3598 0d25 1A       		.uleb128 0x1a
 3599 0d26 01       		.uleb128 0x1
 3600 0d27 50       		.byte	0x50
 3601 0d28 02       		.uleb128 0x2
 3602 0d29 91       		.byte	0x91
 3603 0d2a 54       		.sleb128 -44
 3604 0d2b 1A       		.uleb128 0x1a
 3605 0d2c 01       		.uleb128 0x1
 3606 0d2d 51       		.byte	0x51
 3607 0d2e 05       		.uleb128 0x5
ARM GAS  C:\Users\RYANCA~1\AppData\Local\Temp\cclc5Gbi.s 			page 78


 3608 0d2f 03       		.byte	0x3
 3609 0d30 44000000 		.4byte	.LC7
 3610 0d34 1A       		.uleb128 0x1a
 3611 0d35 01       		.uleb128 0x1
 3612 0d36 52       		.byte	0x52
 3613 0d37 02       		.uleb128 0x2
 3614 0d38 77       		.byte	0x77
 3615 0d39 00       		.sleb128 0
 3616 0d3a 00       		.byte	0
 3617 0d3b 19       		.uleb128 0x19
 3618 0d3c D0000000 		.4byte	.LVL64
 3619 0d40 09190000 		.4byte	0x1909
 3620 0d44 670D0000 		.4byte	0xd67
 3621 0d48 1A       		.uleb128 0x1a
 3622 0d49 01       		.uleb128 0x1
 3623 0d4a 50       		.byte	0x50
 3624 0d4b 02       		.uleb128 0x2
 3625 0d4c 74       		.byte	0x74
 3626 0d4d 00       		.sleb128 0
 3627 0d4e 1A       		.uleb128 0x1a
 3628 0d4f 01       		.uleb128 0x1
 3629 0d50 51       		.byte	0x51
 3630 0d51 02       		.uleb128 0x2
 3631 0d52 75       		.byte	0x75
 3632 0d53 00       		.sleb128 0
 3633 0d54 1A       		.uleb128 0x1a
 3634 0d55 01       		.uleb128 0x1
 3635 0d56 52       		.byte	0x52
 3636 0d57 02       		.uleb128 0x2
 3637 0d58 91       		.byte	0x91
 3638 0d59 54       		.sleb128 -44
 3639 0d5a 1A       		.uleb128 0x1a
 3640 0d5b 01       		.uleb128 0x1
 3641 0d5c 53       		.byte	0x53
 3642 0d5d 01       		.uleb128 0x1
 3643 0d5e 30       		.byte	0x30
 3644 0d5f 1A       		.uleb128 0x1a
 3645 0d60 02       		.uleb128 0x2
 3646 0d61 7D       		.byte	0x7d
 3647 0d62 00       		.sleb128 0
 3648 0d63 02       		.uleb128 0x2
 3649 0d64 76       		.byte	0x76
 3650 0d65 00       		.sleb128 0
 3651 0d66 00       		.byte	0
 3652 0d67 22       		.uleb128 0x22
 3653 0d68 D6000000 		.4byte	.LVL65
 3654 0d6c 15190000 		.4byte	0x1915
 3655 0d70 00       		.byte	0
 3656 0d71 25       		.uleb128 0x25
 3657 0d72 F2020000 		.4byte	.LASF115
 3658 0d76 01       		.byte	0x1
 3659 0d77 8C01     		.2byte	0x18c
 3660 0d79 00000000 		.4byte	.LFB69
 3661 0d7d FC020000 		.4byte	.LFE69-.LFB69
 3662 0d81 01       		.uleb128 0x1
 3663 0d82 9C       		.byte	0x9c
 3664 0d83 3C120000 		.4byte	0x123c
ARM GAS  C:\Users\RYANCA~1\AppData\Local\Temp\cclc5Gbi.s 			page 79


 3665 0d87 26       		.uleb128 0x26
 3666 0d88 CA050000 		.4byte	.LASF55
 3667 0d8c 01       		.byte	0x1
 3668 0d8d 8C01     		.2byte	0x18c
 3669 0d8f B8000000 		.4byte	0xb8
 3670 0d93 18030000 		.4byte	.LLST21
 3671 0d97 27       		.uleb128 0x27
 3672 0d98 783100   		.ascii	"x1\000"
 3673 0d9b 01       		.byte	0x1
 3674 0d9c 8C01     		.2byte	0x18c
 3675 0d9e B8000000 		.4byte	0xb8
 3676 0da2 39030000 		.4byte	.LLST22
 3677 0da6 27       		.uleb128 0x27
 3678 0da7 793100   		.ascii	"y1\000"
 3679 0daa 01       		.byte	0x1
 3680 0dab 8C01     		.2byte	0x18c
 3681 0dad B8000000 		.4byte	0xb8
 3682 0db1 5A030000 		.4byte	.LLST23
 3683 0db5 27       		.uleb128 0x27
 3684 0db6 783200   		.ascii	"x2\000"
 3685 0db9 01       		.byte	0x1
 3686 0dba 8C01     		.2byte	0x18c
 3687 0dbc B8000000 		.4byte	0xb8
 3688 0dc0 7B030000 		.4byte	.LLST24
 3689 0dc4 27       		.uleb128 0x27
 3690 0dc5 793200   		.ascii	"y2\000"
 3691 0dc8 01       		.byte	0x1
 3692 0dc9 8C01     		.2byte	0x18c
 3693 0dcb B8000000 		.4byte	0xb8
 3694 0dcf 9C030000 		.4byte	.LLST25
 3695 0dd3 26       		.uleb128 0x26
 3696 0dd4 E9030000 		.4byte	.LASF106
 3697 0dd8 01       		.byte	0x1
 3698 0dd9 8C01     		.2byte	0x18c
 3699 0ddb B8000000 		.4byte	0xb8
 3700 0ddf BC030000 		.4byte	.LLST26
 3701 0de3 28       		.uleb128 0x28
 3702 0de4 F0040000 		.4byte	.LASF108
 3703 0de8 01       		.byte	0x1
 3704 0de9 8D01     		.2byte	0x18d
 3705 0deb A6000000 		.4byte	0xa6
 3706 0def DC030000 		.4byte	.LLST27
 3707 0df3 28       		.uleb128 0x28
 3708 0df4 4C030000 		.4byte	.LASF109
 3709 0df8 01       		.byte	0x1
 3710 0df9 8D01     		.2byte	0x18d
 3711 0dfb A6000000 		.4byte	0xa6
 3712 0dff EF030000 		.4byte	.LLST28
 3713 0e03 28       		.uleb128 0x28
 3714 0e04 4A050000 		.4byte	.LASF110
 3715 0e08 01       		.byte	0x1
 3716 0e09 8E01     		.2byte	0x18e
 3717 0e0b A6000000 		.4byte	0xa6
 3718 0e0f 02040000 		.4byte	.LLST29
 3719 0e13 29       		.uleb128 0x29
 3720 0e14 D9050000 		.4byte	.LASF107
 3721 0e18 01       		.byte	0x1
ARM GAS  C:\Users\RYANCA~1\AppData\Local\Temp\cclc5Gbi.s 			page 80


 3722 0e19 8F01     		.2byte	0x18f
 3723 0e1b A6000000 		.4byte	0xa6
 3724 0e1f 0A       		.byte	0xa
 3725 0e20 28       		.uleb128 0x28
 3726 0e21 E7010000 		.4byte	.LASF111
 3727 0e25 01       		.byte	0x1
 3728 0e26 9701     		.2byte	0x197
 3729 0e28 8D030000 		.4byte	0x38d
 3730 0e2c 6C040000 		.4byte	.LLST30
 3731 0e30 20       		.uleb128 0x20
 3732 0e31 54000000 		.4byte	.LBB3
 3733 0e35 CE010000 		.4byte	.LBE3-.LBB3
 3734 0e39 3C110000 		.4byte	0x113c
 3735 0e3d 28       		.uleb128 0x28
 3736 0e3e 6F060000 		.4byte	.LASF116
 3737 0e42 01       		.byte	0x1
 3738 0e43 9B01     		.2byte	0x19b
 3739 0e45 EF000000 		.4byte	0xef
 3740 0e49 C0040000 		.4byte	.LLST31
 3741 0e4d 19       		.uleb128 0x19
 3742 0e4e 84000000 		.4byte	.LVL81
 3743 0e52 DB180000 		.4byte	0x18db
 3744 0e56 7A0E0000 		.4byte	0xe7a
 3745 0e5a 1A       		.uleb128 0x1a
 3746 0e5b 01       		.uleb128 0x1
 3747 0e5c 50       		.byte	0x50
 3748 0e5d 02       		.uleb128 0x2
 3749 0e5e 75       		.byte	0x75
 3750 0e5f 00       		.sleb128 0
 3751 0e60 1A       		.uleb128 0x1a
 3752 0e61 01       		.uleb128 0x1
 3753 0e62 51       		.byte	0x51
 3754 0e63 02       		.uleb128 0x2
 3755 0e64 76       		.byte	0x76
 3756 0e65 00       		.sleb128 0
 3757 0e66 1A       		.uleb128 0x1a
 3758 0e67 01       		.uleb128 0x1
 3759 0e68 52       		.byte	0x52
 3760 0e69 02       		.uleb128 0x2
 3761 0e6a 77       		.byte	0x77
 3762 0e6b 00       		.sleb128 0
 3763 0e6c 1A       		.uleb128 0x1a
 3764 0e6d 01       		.uleb128 0x1
 3765 0e6e 53       		.byte	0x53
 3766 0e6f 02       		.uleb128 0x2
 3767 0e70 78       		.byte	0x78
 3768 0e71 00       		.sleb128 0
 3769 0e72 1A       		.uleb128 0x1a
 3770 0e73 02       		.uleb128 0x2
 3771 0e74 7D       		.byte	0x7d
 3772 0e75 00       		.sleb128 0
 3773 0e76 02       		.uleb128 0x2
 3774 0e77 74       		.byte	0x74
 3775 0e78 00       		.sleb128 0
 3776 0e79 00       		.byte	0
 3777 0e7a 19       		.uleb128 0x19
 3778 0e7b 9C000000 		.4byte	.LVL82
ARM GAS  C:\Users\RYANCA~1\AppData\Local\Temp\cclc5Gbi.s 			page 81


 3779 0e7f 09190000 		.4byte	0x1909
 3780 0e83 AC0E0000 		.4byte	0xeac
 3781 0e87 1A       		.uleb128 0x1a
 3782 0e88 01       		.uleb128 0x1
 3783 0e89 50       		.byte	0x50
 3784 0e8a 02       		.uleb128 0x2
 3785 0e8b 79       		.byte	0x79
 3786 0e8c 00       		.sleb128 0
 3787 0e8d 1A       		.uleb128 0x1a
 3788 0e8e 01       		.uleb128 0x1
 3789 0e8f 51       		.byte	0x51
 3790 0e90 02       		.uleb128 0x2
 3791 0e91 7A       		.byte	0x7a
 3792 0e92 00       		.sleb128 0
 3793 0e93 1A       		.uleb128 0x1a
 3794 0e94 01       		.uleb128 0x1
 3795 0e95 52       		.byte	0x52
 3796 0e96 05       		.uleb128 0x5
 3797 0e97 03       		.byte	0x3
 3798 0e98 48000000 		.4byte	.LC8
 3799 0e9c 1A       		.uleb128 0x1a
 3800 0e9d 01       		.uleb128 0x1
 3801 0e9e 53       		.byte	0x53
 3802 0e9f 01       		.uleb128 0x1
 3803 0ea0 30       		.byte	0x30
 3804 0ea1 1A       		.uleb128 0x1a
 3805 0ea2 02       		.uleb128 0x2
 3806 0ea3 7D       		.byte	0x7d
 3807 0ea4 00       		.sleb128 0
 3808 0ea5 05       		.uleb128 0x5
 3809 0ea6 0C       		.byte	0xc
 3810 0ea7 00FFFF00 		.4byte	0xffff00
 3811 0eab 00       		.byte	0
 3812 0eac 19       		.uleb128 0x19
 3813 0ead BA000000 		.4byte	.LVL85
 3814 0eb1 DB180000 		.4byte	0x18db
 3815 0eb5 D90E0000 		.4byte	0xed9
 3816 0eb9 1A       		.uleb128 0x1a
 3817 0eba 01       		.uleb128 0x1
 3818 0ebb 50       		.byte	0x50
 3819 0ebc 02       		.uleb128 0x2
 3820 0ebd 75       		.byte	0x75
 3821 0ebe 00       		.sleb128 0
 3822 0ebf 1A       		.uleb128 0x1a
 3823 0ec0 01       		.uleb128 0x1
 3824 0ec1 51       		.byte	0x51
 3825 0ec2 02       		.uleb128 0x2
 3826 0ec3 76       		.byte	0x76
 3827 0ec4 00       		.sleb128 0
 3828 0ec5 1A       		.uleb128 0x1a
 3829 0ec6 01       		.uleb128 0x1
 3830 0ec7 52       		.byte	0x52
 3831 0ec8 02       		.uleb128 0x2
 3832 0ec9 77       		.byte	0x77
 3833 0eca 00       		.sleb128 0
 3834 0ecb 1A       		.uleb128 0x1a
 3835 0ecc 01       		.uleb128 0x1
ARM GAS  C:\Users\RYANCA~1\AppData\Local\Temp\cclc5Gbi.s 			page 82


 3836 0ecd 53       		.byte	0x53
 3837 0ece 02       		.uleb128 0x2
 3838 0ecf 78       		.byte	0x78
 3839 0ed0 00       		.sleb128 0
 3840 0ed1 1A       		.uleb128 0x1a
 3841 0ed2 02       		.uleb128 0x2
 3842 0ed3 7D       		.byte	0x7d
 3843 0ed4 00       		.sleb128 0
 3844 0ed5 02       		.uleb128 0x2
 3845 0ed6 74       		.byte	0x74
 3846 0ed7 00       		.sleb128 0
 3847 0ed8 00       		.byte	0
 3848 0ed9 19       		.uleb128 0x19
 3849 0eda D4000000 		.4byte	.LVL86
 3850 0ede 09190000 		.4byte	0x1909
 3851 0ee2 0A0F0000 		.4byte	0xf0a
 3852 0ee6 1A       		.uleb128 0x1a
 3853 0ee7 01       		.uleb128 0x1
 3854 0ee8 50       		.byte	0x50
 3855 0ee9 02       		.uleb128 0x2
 3856 0eea 79       		.byte	0x79
 3857 0eeb 00       		.sleb128 0
 3858 0eec 1A       		.uleb128 0x1a
 3859 0eed 01       		.uleb128 0x1
 3860 0eee 51       		.byte	0x51
 3861 0eef 02       		.uleb128 0x2
 3862 0ef0 7A       		.byte	0x7a
 3863 0ef1 00       		.sleb128 0
 3864 0ef2 1A       		.uleb128 0x1a
 3865 0ef3 01       		.uleb128 0x1
 3866 0ef4 52       		.byte	0x52
 3867 0ef5 05       		.uleb128 0x5
 3868 0ef6 03       		.byte	0x3
 3869 0ef7 54000000 		.4byte	.LC9
 3870 0efb 1A       		.uleb128 0x1a
 3871 0efc 01       		.uleb128 0x1
 3872 0efd 53       		.byte	0x53
 3873 0efe 01       		.uleb128 0x1
 3874 0eff 30       		.byte	0x30
 3875 0f00 1A       		.uleb128 0x1a
 3876 0f01 02       		.uleb128 0x2
 3877 0f02 7D       		.byte	0x7d
 3878 0f03 00       		.sleb128 0
 3879 0f04 04       		.uleb128 0x4
 3880 0f05 08       		.byte	0x8
 3881 0f06 FF       		.byte	0xff
 3882 0f07 40       		.byte	0x40
 3883 0f08 24       		.byte	0x24
 3884 0f09 00       		.byte	0
 3885 0f0a 19       		.uleb128 0x19
 3886 0f0b F2000000 		.4byte	.LVL89
 3887 0f0f DB180000 		.4byte	0x18db
 3888 0f13 370F0000 		.4byte	0xf37
 3889 0f17 1A       		.uleb128 0x1a
 3890 0f18 01       		.uleb128 0x1
 3891 0f19 50       		.byte	0x50
 3892 0f1a 02       		.uleb128 0x2
ARM GAS  C:\Users\RYANCA~1\AppData\Local\Temp\cclc5Gbi.s 			page 83


 3893 0f1b 75       		.byte	0x75
 3894 0f1c 00       		.sleb128 0
 3895 0f1d 1A       		.uleb128 0x1a
 3896 0f1e 01       		.uleb128 0x1
 3897 0f1f 51       		.byte	0x51
 3898 0f20 02       		.uleb128 0x2
 3899 0f21 76       		.byte	0x76
 3900 0f22 00       		.sleb128 0
 3901 0f23 1A       		.uleb128 0x1a
 3902 0f24 01       		.uleb128 0x1
 3903 0f25 52       		.byte	0x52
 3904 0f26 02       		.uleb128 0x2
 3905 0f27 77       		.byte	0x77
 3906 0f28 00       		.sleb128 0
 3907 0f29 1A       		.uleb128 0x1a
 3908 0f2a 01       		.uleb128 0x1
 3909 0f2b 53       		.byte	0x53
 3910 0f2c 02       		.uleb128 0x2
 3911 0f2d 78       		.byte	0x78
 3912 0f2e 00       		.sleb128 0
 3913 0f2f 1A       		.uleb128 0x1a
 3914 0f30 02       		.uleb128 0x2
 3915 0f31 7D       		.byte	0x7d
 3916 0f32 00       		.sleb128 0
 3917 0f33 02       		.uleb128 0x2
 3918 0f34 74       		.byte	0x74
 3919 0f35 00       		.sleb128 0
 3920 0f36 00       		.byte	0
 3921 0f37 19       		.uleb128 0x19
 3922 0f38 0C010000 		.4byte	.LVL90
 3923 0f3c 09190000 		.4byte	0x1909
 3924 0f40 680F0000 		.4byte	0xf68
 3925 0f44 1A       		.uleb128 0x1a
 3926 0f45 01       		.uleb128 0x1
 3927 0f46 50       		.byte	0x50
 3928 0f47 02       		.uleb128 0x2
 3929 0f48 79       		.byte	0x79
 3930 0f49 00       		.sleb128 0
 3931 0f4a 1A       		.uleb128 0x1a
 3932 0f4b 01       		.uleb128 0x1
 3933 0f4c 51       		.byte	0x51
 3934 0f4d 02       		.uleb128 0x2
 3935 0f4e 7A       		.byte	0x7a
 3936 0f4f 00       		.sleb128 0
 3937 0f50 1A       		.uleb128 0x1a
 3938 0f51 01       		.uleb128 0x1
 3939 0f52 52       		.byte	0x52
 3940 0f53 05       		.uleb128 0x5
 3941 0f54 03       		.byte	0x3
 3942 0f55 60000000 		.4byte	.LC10
 3943 0f59 1A       		.uleb128 0x1a
 3944 0f5a 01       		.uleb128 0x1
 3945 0f5b 53       		.byte	0x53
 3946 0f5c 01       		.uleb128 0x1
 3947 0f5d 30       		.byte	0x30
 3948 0f5e 1A       		.uleb128 0x1a
 3949 0f5f 02       		.uleb128 0x2
ARM GAS  C:\Users\RYANCA~1\AppData\Local\Temp\cclc5Gbi.s 			page 84


 3950 0f60 7D       		.byte	0x7d
 3951 0f61 00       		.sleb128 0
 3952 0f62 04       		.uleb128 0x4
 3953 0f63 08       		.byte	0x8
 3954 0f64 FF       		.byte	0xff
 3955 0f65 40       		.byte	0x40
 3956 0f66 24       		.byte	0x24
 3957 0f67 00       		.byte	0
 3958 0f68 19       		.uleb128 0x19
 3959 0f69 2A010000 		.4byte	.LVL93
 3960 0f6d DB180000 		.4byte	0x18db
 3961 0f71 950F0000 		.4byte	0xf95
 3962 0f75 1A       		.uleb128 0x1a
 3963 0f76 01       		.uleb128 0x1
 3964 0f77 50       		.byte	0x50
 3965 0f78 02       		.uleb128 0x2
 3966 0f79 75       		.byte	0x75
 3967 0f7a 00       		.sleb128 0
 3968 0f7b 1A       		.uleb128 0x1a
 3969 0f7c 01       		.uleb128 0x1
 3970 0f7d 51       		.byte	0x51
 3971 0f7e 02       		.uleb128 0x2
 3972 0f7f 76       		.byte	0x76
 3973 0f80 00       		.sleb128 0
 3974 0f81 1A       		.uleb128 0x1a
 3975 0f82 01       		.uleb128 0x1
 3976 0f83 52       		.byte	0x52
 3977 0f84 02       		.uleb128 0x2
 3978 0f85 77       		.byte	0x77
 3979 0f86 00       		.sleb128 0
 3980 0f87 1A       		.uleb128 0x1a
 3981 0f88 01       		.uleb128 0x1
 3982 0f89 53       		.byte	0x53
 3983 0f8a 02       		.uleb128 0x2
 3984 0f8b 78       		.byte	0x78
 3985 0f8c 00       		.sleb128 0
 3986 0f8d 1A       		.uleb128 0x1a
 3987 0f8e 02       		.uleb128 0x2
 3988 0f8f 7D       		.byte	0x7d
 3989 0f90 00       		.sleb128 0
 3990 0f91 02       		.uleb128 0x2
 3991 0f92 74       		.byte	0x74
 3992 0f93 00       		.sleb128 0
 3993 0f94 00       		.byte	0
 3994 0f95 19       		.uleb128 0x19
 3995 0f96 44010000 		.4byte	.LVL94
 3996 0f9a 09190000 		.4byte	0x1909
 3997 0f9e C60F0000 		.4byte	0xfc6
 3998 0fa2 1A       		.uleb128 0x1a
 3999 0fa3 01       		.uleb128 0x1
 4000 0fa4 50       		.byte	0x50
 4001 0fa5 02       		.uleb128 0x2
 4002 0fa6 79       		.byte	0x79
 4003 0fa7 00       		.sleb128 0
 4004 0fa8 1A       		.uleb128 0x1a
 4005 0fa9 01       		.uleb128 0x1
 4006 0faa 51       		.byte	0x51
ARM GAS  C:\Users\RYANCA~1\AppData\Local\Temp\cclc5Gbi.s 			page 85


 4007 0fab 02       		.uleb128 0x2
 4008 0fac 7A       		.byte	0x7a
 4009 0fad 00       		.sleb128 0
 4010 0fae 1A       		.uleb128 0x1a
 4011 0faf 01       		.uleb128 0x1
 4012 0fb0 52       		.byte	0x52
 4013 0fb1 05       		.uleb128 0x5
 4014 0fb2 03       		.byte	0x3
 4015 0fb3 6C000000 		.4byte	.LC11
 4016 0fb7 1A       		.uleb128 0x1a
 4017 0fb8 01       		.uleb128 0x1
 4018 0fb9 53       		.byte	0x53
 4019 0fba 01       		.uleb128 0x1
 4020 0fbb 30       		.byte	0x30
 4021 0fbc 1A       		.uleb128 0x1a
 4022 0fbd 02       		.uleb128 0x2
 4023 0fbe 7D       		.byte	0x7d
 4024 0fbf 00       		.sleb128 0
 4025 0fc0 04       		.uleb128 0x4
 4026 0fc1 08       		.byte	0x8
 4027 0fc2 FF       		.byte	0xff
 4028 0fc3 40       		.byte	0x40
 4029 0fc4 24       		.byte	0x24
 4030 0fc5 00       		.byte	0
 4031 0fc6 19       		.uleb128 0x19
 4032 0fc7 62010000 		.4byte	.LVL97
 4033 0fcb DB180000 		.4byte	0x18db
 4034 0fcf F30F0000 		.4byte	0xff3
 4035 0fd3 1A       		.uleb128 0x1a
 4036 0fd4 01       		.uleb128 0x1
 4037 0fd5 50       		.byte	0x50
 4038 0fd6 02       		.uleb128 0x2
 4039 0fd7 75       		.byte	0x75
 4040 0fd8 00       		.sleb128 0
 4041 0fd9 1A       		.uleb128 0x1a
 4042 0fda 01       		.uleb128 0x1
 4043 0fdb 51       		.byte	0x51
 4044 0fdc 02       		.uleb128 0x2
 4045 0fdd 76       		.byte	0x76
 4046 0fde 00       		.sleb128 0
 4047 0fdf 1A       		.uleb128 0x1a
 4048 0fe0 01       		.uleb128 0x1
 4049 0fe1 52       		.byte	0x52
 4050 0fe2 02       		.uleb128 0x2
 4051 0fe3 77       		.byte	0x77
 4052 0fe4 00       		.sleb128 0
 4053 0fe5 1A       		.uleb128 0x1a
 4054 0fe6 01       		.uleb128 0x1
 4055 0fe7 53       		.byte	0x53
 4056 0fe8 02       		.uleb128 0x2
 4057 0fe9 78       		.byte	0x78
 4058 0fea 00       		.sleb128 0
 4059 0feb 1A       		.uleb128 0x1a
 4060 0fec 02       		.uleb128 0x2
 4061 0fed 7D       		.byte	0x7d
 4062 0fee 00       		.sleb128 0
 4063 0fef 02       		.uleb128 0x2
ARM GAS  C:\Users\RYANCA~1\AppData\Local\Temp\cclc5Gbi.s 			page 86


 4064 0ff0 74       		.byte	0x74
 4065 0ff1 00       		.sleb128 0
 4066 0ff2 00       		.byte	0
 4067 0ff3 19       		.uleb128 0x19
 4068 0ff4 7C010000 		.4byte	.LVL98
 4069 0ff8 09190000 		.4byte	0x1909
 4070 0ffc 24100000 		.4byte	0x1024
 4071 1000 1A       		.uleb128 0x1a
 4072 1001 01       		.uleb128 0x1
 4073 1002 50       		.byte	0x50
 4074 1003 02       		.uleb128 0x2
 4075 1004 79       		.byte	0x79
 4076 1005 00       		.sleb128 0
 4077 1006 1A       		.uleb128 0x1a
 4078 1007 01       		.uleb128 0x1
 4079 1008 51       		.byte	0x51
 4080 1009 02       		.uleb128 0x2
 4081 100a 7A       		.byte	0x7a
 4082 100b 00       		.sleb128 0
 4083 100c 1A       		.uleb128 0x1a
 4084 100d 01       		.uleb128 0x1
 4085 100e 52       		.byte	0x52
 4086 100f 05       		.uleb128 0x5
 4087 1010 03       		.byte	0x3
 4088 1011 78000000 		.4byte	.LC12
 4089 1015 1A       		.uleb128 0x1a
 4090 1016 01       		.uleb128 0x1
 4091 1017 53       		.byte	0x53
 4092 1018 01       		.uleb128 0x1
 4093 1019 30       		.byte	0x30
 4094 101a 1A       		.uleb128 0x1a
 4095 101b 02       		.uleb128 0x2
 4096 101c 7D       		.byte	0x7d
 4097 101d 00       		.sleb128 0
 4098 101e 04       		.uleb128 0x4
 4099 101f 08       		.byte	0x8
 4100 1020 FF       		.byte	0xff
 4101 1021 40       		.byte	0x40
 4102 1022 24       		.byte	0x24
 4103 1023 00       		.byte	0
 4104 1024 19       		.uleb128 0x19
 4105 1025 9A010000 		.4byte	.LVL101
 4106 1029 DB180000 		.4byte	0x18db
 4107 102d 51100000 		.4byte	0x1051
 4108 1031 1A       		.uleb128 0x1a
 4109 1032 01       		.uleb128 0x1
 4110 1033 50       		.byte	0x50
 4111 1034 02       		.uleb128 0x2
 4112 1035 75       		.byte	0x75
 4113 1036 00       		.sleb128 0
 4114 1037 1A       		.uleb128 0x1a
 4115 1038 01       		.uleb128 0x1
 4116 1039 51       		.byte	0x51
 4117 103a 02       		.uleb128 0x2
 4118 103b 76       		.byte	0x76
 4119 103c 00       		.sleb128 0
 4120 103d 1A       		.uleb128 0x1a
ARM GAS  C:\Users\RYANCA~1\AppData\Local\Temp\cclc5Gbi.s 			page 87


 4121 103e 01       		.uleb128 0x1
 4122 103f 52       		.byte	0x52
 4123 1040 02       		.uleb128 0x2
 4124 1041 77       		.byte	0x77
 4125 1042 00       		.sleb128 0
 4126 1043 1A       		.uleb128 0x1a
 4127 1044 01       		.uleb128 0x1
 4128 1045 53       		.byte	0x53
 4129 1046 02       		.uleb128 0x2
 4130 1047 78       		.byte	0x78
 4131 1048 00       		.sleb128 0
 4132 1049 1A       		.uleb128 0x1a
 4133 104a 02       		.uleb128 0x2
 4134 104b 7D       		.byte	0x7d
 4135 104c 00       		.sleb128 0
 4136 104d 02       		.uleb128 0x2
 4137 104e 74       		.byte	0x74
 4138 104f 00       		.sleb128 0
 4139 1050 00       		.byte	0
 4140 1051 19       		.uleb128 0x19
 4141 1052 B4010000 		.4byte	.LVL102
 4142 1056 09190000 		.4byte	0x1909
 4143 105a 82100000 		.4byte	0x1082
 4144 105e 1A       		.uleb128 0x1a
 4145 105f 01       		.uleb128 0x1
 4146 1060 50       		.byte	0x50
 4147 1061 02       		.uleb128 0x2
 4148 1062 79       		.byte	0x79
 4149 1063 00       		.sleb128 0
 4150 1064 1A       		.uleb128 0x1a
 4151 1065 01       		.uleb128 0x1
 4152 1066 51       		.byte	0x51
 4153 1067 02       		.uleb128 0x2
 4154 1068 7A       		.byte	0x7a
 4155 1069 00       		.sleb128 0
 4156 106a 1A       		.uleb128 0x1a
 4157 106b 01       		.uleb128 0x1
 4158 106c 52       		.byte	0x52
 4159 106d 05       		.uleb128 0x5
 4160 106e 03       		.byte	0x3
 4161 106f 84000000 		.4byte	.LC13
 4162 1073 1A       		.uleb128 0x1a
 4163 1074 01       		.uleb128 0x1
 4164 1075 53       		.byte	0x53
 4165 1076 01       		.uleb128 0x1
 4166 1077 30       		.byte	0x30
 4167 1078 1A       		.uleb128 0x1a
 4168 1079 02       		.uleb128 0x2
 4169 107a 7D       		.byte	0x7d
 4170 107b 00       		.sleb128 0
 4171 107c 04       		.uleb128 0x4
 4172 107d 08       		.byte	0x8
 4173 107e FF       		.byte	0xff
 4174 107f 40       		.byte	0x40
 4175 1080 24       		.byte	0x24
 4176 1081 00       		.byte	0
 4177 1082 19       		.uleb128 0x19
ARM GAS  C:\Users\RYANCA~1\AppData\Local\Temp\cclc5Gbi.s 			page 88


 4178 1083 D0010000 		.4byte	.LVL105
 4179 1087 DB180000 		.4byte	0x18db
 4180 108b AF100000 		.4byte	0x10af
 4181 108f 1A       		.uleb128 0x1a
 4182 1090 01       		.uleb128 0x1
 4183 1091 50       		.byte	0x50
 4184 1092 02       		.uleb128 0x2
 4185 1093 75       		.byte	0x75
 4186 1094 00       		.sleb128 0
 4187 1095 1A       		.uleb128 0x1a
 4188 1096 01       		.uleb128 0x1
 4189 1097 51       		.byte	0x51
 4190 1098 02       		.uleb128 0x2
 4191 1099 76       		.byte	0x76
 4192 109a 00       		.sleb128 0
 4193 109b 1A       		.uleb128 0x1a
 4194 109c 01       		.uleb128 0x1
 4195 109d 52       		.byte	0x52
 4196 109e 02       		.uleb128 0x2
 4197 109f 77       		.byte	0x77
 4198 10a0 00       		.sleb128 0
 4199 10a1 1A       		.uleb128 0x1a
 4200 10a2 01       		.uleb128 0x1
 4201 10a3 53       		.byte	0x53
 4202 10a4 02       		.uleb128 0x2
 4203 10a5 78       		.byte	0x78
 4204 10a6 00       		.sleb128 0
 4205 10a7 1A       		.uleb128 0x1a
 4206 10a8 02       		.uleb128 0x2
 4207 10a9 7D       		.byte	0x7d
 4208 10aa 00       		.sleb128 0
 4209 10ab 02       		.uleb128 0x2
 4210 10ac 74       		.byte	0x74
 4211 10ad 00       		.sleb128 0
 4212 10ae 00       		.byte	0
 4213 10af 19       		.uleb128 0x19
 4214 10b0 E8010000 		.4byte	.LVL106
 4215 10b4 09190000 		.4byte	0x1909
 4216 10b8 E1100000 		.4byte	0x10e1
 4217 10bc 1A       		.uleb128 0x1a
 4218 10bd 01       		.uleb128 0x1
 4219 10be 50       		.byte	0x50
 4220 10bf 02       		.uleb128 0x2
 4221 10c0 79       		.byte	0x79
 4222 10c1 00       		.sleb128 0
 4223 10c2 1A       		.uleb128 0x1a
 4224 10c3 01       		.uleb128 0x1
 4225 10c4 51       		.byte	0x51
 4226 10c5 02       		.uleb128 0x2
 4227 10c6 7A       		.byte	0x7a
 4228 10c7 00       		.sleb128 0
 4229 10c8 1A       		.uleb128 0x1a
 4230 10c9 01       		.uleb128 0x1
 4231 10ca 52       		.byte	0x52
 4232 10cb 05       		.uleb128 0x5
 4233 10cc 03       		.byte	0x3
 4234 10cd 90000000 		.4byte	.LC14
ARM GAS  C:\Users\RYANCA~1\AppData\Local\Temp\cclc5Gbi.s 			page 89


 4235 10d1 1A       		.uleb128 0x1a
 4236 10d2 01       		.uleb128 0x1
 4237 10d3 53       		.byte	0x53
 4238 10d4 01       		.uleb128 0x1
 4239 10d5 30       		.byte	0x30
 4240 10d6 1A       		.uleb128 0x1a
 4241 10d7 02       		.uleb128 0x2
 4242 10d8 7D       		.byte	0x7d
 4243 10d9 00       		.sleb128 0
 4244 10da 05       		.uleb128 0x5
 4245 10db 0C       		.byte	0xc
 4246 10dc 00FFFF00 		.4byte	0xffff00
 4247 10e0 00       		.byte	0
 4248 10e1 19       		.uleb128 0x19
 4249 10e2 06020000 		.4byte	.LVL109
 4250 10e6 DB180000 		.4byte	0x18db
 4251 10ea 0E110000 		.4byte	0x110e
 4252 10ee 1A       		.uleb128 0x1a
 4253 10ef 01       		.uleb128 0x1
 4254 10f0 50       		.byte	0x50
 4255 10f1 02       		.uleb128 0x2
 4256 10f2 75       		.byte	0x75
 4257 10f3 00       		.sleb128 0
 4258 10f4 1A       		.uleb128 0x1a
 4259 10f5 01       		.uleb128 0x1
 4260 10f6 51       		.byte	0x51
 4261 10f7 02       		.uleb128 0x2
 4262 10f8 76       		.byte	0x76
 4263 10f9 00       		.sleb128 0
 4264 10fa 1A       		.uleb128 0x1a
 4265 10fb 01       		.uleb128 0x1
 4266 10fc 52       		.byte	0x52
 4267 10fd 02       		.uleb128 0x2
 4268 10fe 77       		.byte	0x77
 4269 10ff 00       		.sleb128 0
 4270 1100 1A       		.uleb128 0x1a
 4271 1101 01       		.uleb128 0x1
 4272 1102 53       		.byte	0x53
 4273 1103 02       		.uleb128 0x2
 4274 1104 78       		.byte	0x78
 4275 1105 00       		.sleb128 0
 4276 1106 1A       		.uleb128 0x1a
 4277 1107 02       		.uleb128 0x2
 4278 1108 7D       		.byte	0x7d
 4279 1109 00       		.sleb128 0
 4280 110a 02       		.uleb128 0x2
 4281 110b 74       		.byte	0x74
 4282 110c 00       		.sleb128 0
 4283 110d 00       		.byte	0
 4284 110e 1B       		.uleb128 0x1b
 4285 110f 20020000 		.4byte	.LVL110
 4286 1113 09190000 		.4byte	0x1909
 4287 1117 1A       		.uleb128 0x1a
 4288 1118 01       		.uleb128 0x1
 4289 1119 50       		.byte	0x50
 4290 111a 02       		.uleb128 0x2
 4291 111b 79       		.byte	0x79
ARM GAS  C:\Users\RYANCA~1\AppData\Local\Temp\cclc5Gbi.s 			page 90


 4292 111c 00       		.sleb128 0
 4293 111d 1A       		.uleb128 0x1a
 4294 111e 01       		.uleb128 0x1
 4295 111f 51       		.byte	0x51
 4296 1120 02       		.uleb128 0x2
 4297 1121 7A       		.byte	0x7a
 4298 1122 00       		.sleb128 0
 4299 1123 1A       		.uleb128 0x1a
 4300 1124 01       		.uleb128 0x1
 4301 1125 52       		.byte	0x52
 4302 1126 05       		.uleb128 0x5
 4303 1127 03       		.byte	0x3
 4304 1128 9C000000 		.4byte	.LC15
 4305 112c 1A       		.uleb128 0x1a
 4306 112d 01       		.uleb128 0x1
 4307 112e 53       		.byte	0x53
 4308 112f 01       		.uleb128 0x1
 4309 1130 30       		.byte	0x30
 4310 1131 1A       		.uleb128 0x1a
 4311 1132 02       		.uleb128 0x2
 4312 1133 7D       		.byte	0x7d
 4313 1134 00       		.sleb128 0
 4314 1135 04       		.uleb128 0x4
 4315 1136 08       		.byte	0x8
 4316 1137 FF       		.byte	0xff
 4317 1138 40       		.byte	0x40
 4318 1139 24       		.byte	0x24
 4319 113a 00       		.byte	0
 4320 113b 00       		.byte	0
 4321 113c 22       		.uleb128 0x22
 4322 113d 4C000000 		.4byte	.LVL77
 4323 1141 15190000 		.4byte	0x1915
 4324 1145 19       		.uleb128 0x19
 4325 1146 40020000 		.4byte	.LVL112
 4326 114a DB180000 		.4byte	0x18db
 4327 114e 72110000 		.4byte	0x1172
 4328 1152 1A       		.uleb128 0x1a
 4329 1153 01       		.uleb128 0x1
 4330 1154 50       		.byte	0x50
 4331 1155 02       		.uleb128 0x2
 4332 1156 75       		.byte	0x75
 4333 1157 00       		.sleb128 0
 4334 1158 1A       		.uleb128 0x1a
 4335 1159 01       		.uleb128 0x1
 4336 115a 51       		.byte	0x51
 4337 115b 02       		.uleb128 0x2
 4338 115c 76       		.byte	0x76
 4339 115d 00       		.sleb128 0
 4340 115e 1A       		.uleb128 0x1a
 4341 115f 01       		.uleb128 0x1
 4342 1160 52       		.byte	0x52
 4343 1161 02       		.uleb128 0x2
 4344 1162 77       		.byte	0x77
 4345 1163 00       		.sleb128 0
 4346 1164 1A       		.uleb128 0x1a
 4347 1165 01       		.uleb128 0x1
 4348 1166 53       		.byte	0x53
ARM GAS  C:\Users\RYANCA~1\AppData\Local\Temp\cclc5Gbi.s 			page 91


 4349 1167 02       		.uleb128 0x2
 4350 1168 78       		.byte	0x78
 4351 1169 00       		.sleb128 0
 4352 116a 1A       		.uleb128 0x1a
 4353 116b 02       		.uleb128 0x2
 4354 116c 7D       		.byte	0x7d
 4355 116d 00       		.sleb128 0
 4356 116e 02       		.uleb128 0x2
 4357 116f 7B       		.byte	0x7b
 4358 1170 00       		.sleb128 0
 4359 1171 00       		.byte	0
 4360 1172 19       		.uleb128 0x19
 4361 1173 68020000 		.4byte	.LVL113
 4362 1177 09190000 		.4byte	0x1909
 4363 117b A2110000 		.4byte	0x11a2
 4364 117f 1A       		.uleb128 0x1a
 4365 1180 01       		.uleb128 0x1
 4366 1181 50       		.byte	0x50
 4367 1182 02       		.uleb128 0x2
 4368 1183 79       		.byte	0x79
 4369 1184 00       		.sleb128 0
 4370 1185 1A       		.uleb128 0x1a
 4371 1186 01       		.uleb128 0x1
 4372 1187 51       		.byte	0x51
 4373 1188 02       		.uleb128 0x2
 4374 1189 7A       		.byte	0x7a
 4375 118a 00       		.sleb128 0
 4376 118b 1A       		.uleb128 0x1a
 4377 118c 01       		.uleb128 0x1
 4378 118d 52       		.byte	0x52
 4379 118e 05       		.uleb128 0x5
 4380 118f 03       		.byte	0x3
 4381 1190 A8000000 		.4byte	.LC16
 4382 1194 1A       		.uleb128 0x1a
 4383 1195 01       		.uleb128 0x1
 4384 1196 53       		.byte	0x53
 4385 1197 01       		.uleb128 0x1
 4386 1198 30       		.byte	0x30
 4387 1199 1A       		.uleb128 0x1a
 4388 119a 02       		.uleb128 0x2
 4389 119b 7D       		.byte	0x7d
 4390 119c 00       		.sleb128 0
 4391 119d 03       		.uleb128 0x3
 4392 119e 0A       		.byte	0xa
 4393 119f 00FF     		.2byte	0xff00
 4394 11a1 00       		.byte	0
 4395 11a2 19       		.uleb128 0x19
 4396 11a3 80020000 		.4byte	.LVL114
 4397 11a7 09190000 		.4byte	0x1909
 4398 11ab D2110000 		.4byte	0x11d2
 4399 11af 1A       		.uleb128 0x1a
 4400 11b0 01       		.uleb128 0x1
 4401 11b1 50       		.byte	0x50
 4402 11b2 02       		.uleb128 0x2
 4403 11b3 79       		.byte	0x79
 4404 11b4 00       		.sleb128 0
 4405 11b5 1A       		.uleb128 0x1a
ARM GAS  C:\Users\RYANCA~1\AppData\Local\Temp\cclc5Gbi.s 			page 92


 4406 11b6 01       		.uleb128 0x1
 4407 11b7 51       		.byte	0x51
 4408 11b8 02       		.uleb128 0x2
 4409 11b9 7A       		.byte	0x7a
 4410 11ba 00       		.sleb128 0
 4411 11bb 1A       		.uleb128 0x1a
 4412 11bc 01       		.uleb128 0x1
 4413 11bd 52       		.byte	0x52
 4414 11be 05       		.uleb128 0x5
 4415 11bf 03       		.byte	0x3
 4416 11c0 B4000000 		.4byte	.LC17
 4417 11c4 1A       		.uleb128 0x1a
 4418 11c5 01       		.uleb128 0x1
 4419 11c6 53       		.byte	0x53
 4420 11c7 01       		.uleb128 0x1
 4421 11c8 30       		.byte	0x30
 4422 11c9 1A       		.uleb128 0x1a
 4423 11ca 02       		.uleb128 0x2
 4424 11cb 7D       		.byte	0x7d
 4425 11cc 00       		.sleb128 0
 4426 11cd 03       		.uleb128 0x3
 4427 11ce 0A       		.byte	0xa
 4428 11cf 00FF     		.2byte	0xff00
 4429 11d1 00       		.byte	0
 4430 11d2 19       		.uleb128 0x19
 4431 11d3 98020000 		.4byte	.LVL115
 4432 11d7 09190000 		.4byte	0x1909
 4433 11db 02120000 		.4byte	0x1202
 4434 11df 1A       		.uleb128 0x1a
 4435 11e0 01       		.uleb128 0x1
 4436 11e1 50       		.byte	0x50
 4437 11e2 02       		.uleb128 0x2
 4438 11e3 79       		.byte	0x79
 4439 11e4 00       		.sleb128 0
 4440 11e5 1A       		.uleb128 0x1a
 4441 11e6 01       		.uleb128 0x1
 4442 11e7 51       		.byte	0x51
 4443 11e8 02       		.uleb128 0x2
 4444 11e9 7A       		.byte	0x7a
 4445 11ea 00       		.sleb128 0
 4446 11eb 1A       		.uleb128 0x1a
 4447 11ec 01       		.uleb128 0x1
 4448 11ed 52       		.byte	0x52
 4449 11ee 05       		.uleb128 0x5
 4450 11ef 03       		.byte	0x3
 4451 11f0 C0000000 		.4byte	.LC18
 4452 11f4 1A       		.uleb128 0x1a
 4453 11f5 01       		.uleb128 0x1
 4454 11f6 53       		.byte	0x53
 4455 11f7 01       		.uleb128 0x1
 4456 11f8 30       		.byte	0x30
 4457 11f9 1A       		.uleb128 0x1a
 4458 11fa 02       		.uleb128 0x2
 4459 11fb 7D       		.byte	0x7d
 4460 11fc 00       		.sleb128 0
 4461 11fd 03       		.uleb128 0x3
 4462 11fe 0A       		.byte	0xa
ARM GAS  C:\Users\RYANCA~1\AppData\Local\Temp\cclc5Gbi.s 			page 93


 4463 11ff 00FF     		.2byte	0xff00
 4464 1201 00       		.byte	0
 4465 1202 19       		.uleb128 0x19
 4466 1203 B0020000 		.4byte	.LVL116
 4467 1207 09190000 		.4byte	0x1909
 4468 120b 32120000 		.4byte	0x1232
 4469 120f 1A       		.uleb128 0x1a
 4470 1210 01       		.uleb128 0x1
 4471 1211 50       		.byte	0x50
 4472 1212 02       		.uleb128 0x2
 4473 1213 79       		.byte	0x79
 4474 1214 00       		.sleb128 0
 4475 1215 1A       		.uleb128 0x1a
 4476 1216 01       		.uleb128 0x1
 4477 1217 51       		.byte	0x51
 4478 1218 02       		.uleb128 0x2
 4479 1219 7A       		.byte	0x7a
 4480 121a 00       		.sleb128 0
 4481 121b 1A       		.uleb128 0x1a
 4482 121c 01       		.uleb128 0x1
 4483 121d 52       		.byte	0x52
 4484 121e 05       		.uleb128 0x5
 4485 121f 03       		.byte	0x3
 4486 1220 CC000000 		.4byte	.LC19
 4487 1224 1A       		.uleb128 0x1a
 4488 1225 01       		.uleb128 0x1
 4489 1226 53       		.byte	0x53
 4490 1227 01       		.uleb128 0x1
 4491 1228 30       		.byte	0x30
 4492 1229 1A       		.uleb128 0x1a
 4493 122a 02       		.uleb128 0x2
 4494 122b 7D       		.byte	0x7d
 4495 122c 00       		.sleb128 0
 4496 122d 03       		.uleb128 0x3
 4497 122e 0A       		.byte	0xa
 4498 122f 00FF     		.2byte	0xff00
 4499 1231 00       		.byte	0
 4500 1232 22       		.uleb128 0x22
 4501 1233 B6020000 		.4byte	.LVL117
 4502 1237 15190000 		.4byte	0x1915
 4503 123b 00       		.byte	0
 4504 123c 25       		.uleb128 0x25
 4505 123d E7020000 		.4byte	.LASF117
 4506 1241 01       		.byte	0x1
 4507 1242 3002     		.2byte	0x230
 4508 1244 00000000 		.4byte	.LFB70
 4509 1248 38010000 		.4byte	.LFE70-.LFB70
 4510 124c 01       		.uleb128 0x1
 4511 124d 9C       		.byte	0x9c
 4512 124e BD130000 		.4byte	0x13bd
 4513 1252 26       		.uleb128 0x26
 4514 1253 6F030000 		.4byte	.LASF62
 4515 1257 01       		.byte	0x1
 4516 1258 3002     		.2byte	0x230
 4517 125a E4000000 		.4byte	0xe4
 4518 125e 20050000 		.4byte	.LLST32
 4519 1262 27       		.uleb128 0x27
ARM GAS  C:\Users\RYANCA~1\AppData\Local\Temp\cclc5Gbi.s 			page 94


 4520 1263 783100   		.ascii	"x1\000"
 4521 1266 01       		.byte	0x1
 4522 1267 3002     		.2byte	0x230
 4523 1269 B8000000 		.4byte	0xb8
 4524 126d 84050000 		.4byte	.LLST33
 4525 1271 27       		.uleb128 0x27
 4526 1272 793100   		.ascii	"y1\000"
 4527 1275 01       		.byte	0x1
 4528 1276 3002     		.2byte	0x230
 4529 1278 B8000000 		.4byte	0xb8
 4530 127c A5050000 		.4byte	.LLST34
 4531 1280 27       		.uleb128 0x27
 4532 1281 783200   		.ascii	"x2\000"
 4533 1284 01       		.byte	0x1
 4534 1285 3002     		.2byte	0x230
 4535 1287 B8000000 		.4byte	0xb8
 4536 128b C6050000 		.4byte	.LLST35
 4537 128f 27       		.uleb128 0x27
 4538 1290 793200   		.ascii	"y2\000"
 4539 1293 01       		.byte	0x1
 4540 1294 3002     		.2byte	0x230
 4541 1296 B8000000 		.4byte	0xb8
 4542 129a E7050000 		.4byte	.LLST36
 4543 129e 26       		.uleb128 0x26
 4544 129f E9030000 		.4byte	.LASF106
 4545 12a3 01       		.byte	0x1
 4546 12a4 3002     		.2byte	0x230
 4547 12a6 B8000000 		.4byte	0xb8
 4548 12aa 07060000 		.4byte	.LLST37
 4549 12ae 28       		.uleb128 0x28
 4550 12af F0040000 		.4byte	.LASF108
 4551 12b3 01       		.byte	0x1
 4552 12b4 3102     		.2byte	0x231
 4553 12b6 A6000000 		.4byte	0xa6
 4554 12ba 27060000 		.4byte	.LLST38
 4555 12be 28       		.uleb128 0x28
 4556 12bf 4C030000 		.4byte	.LASF109
 4557 12c3 01       		.byte	0x1
 4558 12c4 3102     		.2byte	0x231
 4559 12c6 A6000000 		.4byte	0xa6
 4560 12ca 3A060000 		.4byte	.LLST39
 4561 12ce 28       		.uleb128 0x28
 4562 12cf 4A050000 		.4byte	.LASF110
 4563 12d3 01       		.byte	0x1
 4564 12d4 3202     		.2byte	0x232
 4565 12d6 A6000000 		.4byte	0xa6
 4566 12da 98070000 		.4byte	.LLST40
 4567 12de 29       		.uleb128 0x29
 4568 12df D9050000 		.4byte	.LASF107
 4569 12e3 01       		.byte	0x1
 4570 12e4 3302     		.2byte	0x233
 4571 12e6 A6000000 		.4byte	0xa6
 4572 12ea 06       		.byte	0x6
 4573 12eb 28       		.uleb128 0x28
 4574 12ec E7010000 		.4byte	.LASF111
 4575 12f0 01       		.byte	0x1
 4576 12f1 4202     		.2byte	0x242
ARM GAS  C:\Users\RYANCA~1\AppData\Local\Temp\cclc5Gbi.s 			page 95


 4577 12f3 8D030000 		.4byte	0x38d
 4578 12f7 8C080000 		.4byte	.LLST41
 4579 12fb 24       		.uleb128 0x24
 4580 12fc 08000000 		.4byte	.LASF112
 4581 1300 01       		.byte	0x1
 4582 1301 5102     		.2byte	0x251
 4583 1303 BD130000 		.4byte	0x13bd
 4584 1307 02       		.uleb128 0x2
 4585 1308 91       		.byte	0x91
 4586 1309 50       		.sleb128 -48
 4587 130a 19       		.uleb128 0x19
 4588 130b 4E000000 		.4byte	.LVL130
 4589 130f F2180000 		.4byte	0x18f2
 4590 1313 2E130000 		.4byte	0x132e
 4591 1317 1A       		.uleb128 0x1a
 4592 1318 01       		.uleb128 0x1
 4593 1319 50       		.byte	0x50
 4594 131a 03       		.uleb128 0x3
 4595 131b 78       		.byte	0x78
 4596 131c AB7F     		.sleb128 -85
 4597 131e 1A       		.uleb128 0x1a
 4598 131f 01       		.uleb128 0x1
 4599 1320 51       		.byte	0x51
 4600 1321 02       		.uleb128 0x2
 4601 1322 75       		.byte	0x75
 4602 1323 00       		.sleb128 0
 4603 1324 1A       		.uleb128 0x1a
 4604 1325 01       		.uleb128 0x1
 4605 1326 52       		.byte	0x52
 4606 1327 05       		.uleb128 0x5
 4607 1328 03       		.byte	0x3
 4608 1329 20000000 		.4byte	.LC3
 4609 132d 00       		.byte	0
 4610 132e 22       		.uleb128 0x22
 4611 132f 58000000 		.4byte	.LVL131
 4612 1333 15190000 		.4byte	0x1915
 4613 1337 19       		.uleb128 0x19
 4614 1338 AA000000 		.4byte	.LVL143
 4615 133c DB180000 		.4byte	0x18db
 4616 1340 64130000 		.4byte	0x1364
 4617 1344 1A       		.uleb128 0x1a
 4618 1345 01       		.uleb128 0x1
 4619 1346 50       		.byte	0x50
 4620 1347 02       		.uleb128 0x2
 4621 1348 78       		.byte	0x78
 4622 1349 00       		.sleb128 0
 4623 134a 1A       		.uleb128 0x1a
 4624 134b 01       		.uleb128 0x1
 4625 134c 51       		.byte	0x51
 4626 134d 02       		.uleb128 0x2
 4627 134e 79       		.byte	0x79
 4628 134f 00       		.sleb128 0
 4629 1350 1A       		.uleb128 0x1a
 4630 1351 01       		.uleb128 0x1
 4631 1352 52       		.byte	0x52
 4632 1353 02       		.uleb128 0x2
 4633 1354 7A       		.byte	0x7a
ARM GAS  C:\Users\RYANCA~1\AppData\Local\Temp\cclc5Gbi.s 			page 96


 4634 1355 00       		.sleb128 0
 4635 1356 1A       		.uleb128 0x1a
 4636 1357 01       		.uleb128 0x1
 4637 1358 53       		.byte	0x53
 4638 1359 02       		.uleb128 0x2
 4639 135a 7B       		.byte	0x7b
 4640 135b 00       		.sleb128 0
 4641 135c 1A       		.uleb128 0x1a
 4642 135d 02       		.uleb128 0x2
 4643 135e 7D       		.byte	0x7d
 4644 135f 00       		.sleb128 0
 4645 1360 02       		.uleb128 0x2
 4646 1361 77       		.byte	0x77
 4647 1362 00       		.sleb128 0
 4648 1363 00       		.byte	0
 4649 1364 19       		.uleb128 0x19
 4650 1365 B8000000 		.4byte	.LVL144
 4651 1369 FE180000 		.4byte	0x18fe
 4652 136d 87130000 		.4byte	0x1387
 4653 1371 1A       		.uleb128 0x1a
 4654 1372 01       		.uleb128 0x1
 4655 1373 50       		.byte	0x50
 4656 1374 02       		.uleb128 0x2
 4657 1375 91       		.byte	0x91
 4658 1376 50       		.sleb128 -48
 4659 1377 1A       		.uleb128 0x1a
 4660 1378 01       		.uleb128 0x1
 4661 1379 51       		.byte	0x51
 4662 137a 05       		.uleb128 0x5
 4663 137b 03       		.byte	0x3
 4664 137c 44000000 		.4byte	.LC7
 4665 1380 1A       		.uleb128 0x1a
 4666 1381 01       		.uleb128 0x1
 4667 1382 52       		.byte	0x52
 4668 1383 02       		.uleb128 0x2
 4669 1384 74       		.byte	0x74
 4670 1385 00       		.sleb128 0
 4671 1386 00       		.byte	0
 4672 1387 19       		.uleb128 0x19
 4673 1388 0A010000 		.4byte	.LVL145
 4674 138c 09190000 		.4byte	0x1909
 4675 1390 B3130000 		.4byte	0x13b3
 4676 1394 1A       		.uleb128 0x1a
 4677 1395 01       		.uleb128 0x1
 4678 1396 50       		.byte	0x50
 4679 1397 02       		.uleb128 0x2
 4680 1398 76       		.byte	0x76
 4681 1399 00       		.sleb128 0
 4682 139a 1A       		.uleb128 0x1a
 4683 139b 01       		.uleb128 0x1
 4684 139c 51       		.byte	0x51
 4685 139d 02       		.uleb128 0x2
 4686 139e 75       		.byte	0x75
 4687 139f 00       		.sleb128 0
 4688 13a0 1A       		.uleb128 0x1a
 4689 13a1 01       		.uleb128 0x1
 4690 13a2 52       		.byte	0x52
ARM GAS  C:\Users\RYANCA~1\AppData\Local\Temp\cclc5Gbi.s 			page 97


 4691 13a3 02       		.uleb128 0x2
 4692 13a4 91       		.byte	0x91
 4693 13a5 50       		.sleb128 -48
 4694 13a6 1A       		.uleb128 0x1a
 4695 13a7 01       		.uleb128 0x1
 4696 13a8 53       		.byte	0x53
 4697 13a9 01       		.uleb128 0x1
 4698 13aa 30       		.byte	0x30
 4699 13ab 1A       		.uleb128 0x1a
 4700 13ac 02       		.uleb128 0x2
 4701 13ad 7D       		.byte	0x7d
 4702 13ae 00       		.sleb128 0
 4703 13af 02       		.uleb128 0x2
 4704 13b0 77       		.byte	0x77
 4705 13b1 00       		.sleb128 0
 4706 13b2 00       		.byte	0
 4707 13b3 22       		.uleb128 0x22
 4708 13b4 10010000 		.4byte	.LVL146
 4709 13b8 15190000 		.4byte	0x1915
 4710 13bc 00       		.byte	0
 4711 13bd 16       		.uleb128 0x16
 4712 13be 09010000 		.4byte	0x109
 4713 13c2 CD130000 		.4byte	0x13cd
 4714 13c6 17       		.uleb128 0x17
 4715 13c7 17010000 		.4byte	0x117
 4716 13cb 06       		.byte	0x6
 4717 13cc 00       		.byte	0
 4718 13cd 25       		.uleb128 0x25
 4719 13ce 84060000 		.4byte	.LASF118
 4720 13d2 01       		.byte	0x1
 4721 13d3 9B02     		.2byte	0x29b
 4722 13d5 00000000 		.4byte	.LFB73
 4723 13d9 E8000000 		.4byte	.LFE73-.LFB73
 4724 13dd 01       		.uleb128 0x1
 4725 13de 9C       		.byte	0x9c
 4726 13df BC150000 		.4byte	0x15bc
 4727 13e3 26       		.uleb128 0x26
 4728 13e4 6F030000 		.4byte	.LASF62
 4729 13e8 01       		.byte	0x1
 4730 13e9 9B02     		.2byte	0x29b
 4731 13eb CE000000 		.4byte	0xce
 4732 13ef 9F080000 		.4byte	.LLST42
 4733 13f3 27       		.uleb128 0x27
 4734 13f4 783100   		.ascii	"x1\000"
 4735 13f7 01       		.byte	0x1
 4736 13f8 9B02     		.2byte	0x29b
 4737 13fa B8000000 		.4byte	0xb8
 4738 13fe C0080000 		.4byte	.LLST43
 4739 1402 27       		.uleb128 0x27
 4740 1403 793100   		.ascii	"y1\000"
 4741 1406 01       		.byte	0x1
 4742 1407 9B02     		.2byte	0x29b
 4743 1409 B8000000 		.4byte	0xb8
 4744 140d E1080000 		.4byte	.LLST44
 4745 1411 27       		.uleb128 0x27
 4746 1412 783200   		.ascii	"x2\000"
 4747 1415 01       		.byte	0x1
ARM GAS  C:\Users\RYANCA~1\AppData\Local\Temp\cclc5Gbi.s 			page 98


 4748 1416 9B02     		.2byte	0x29b
 4749 1418 B8000000 		.4byte	0xb8
 4750 141c 02090000 		.4byte	.LLST45
 4751 1420 27       		.uleb128 0x27
 4752 1421 793200   		.ascii	"y2\000"
 4753 1424 01       		.byte	0x1
 4754 1425 9B02     		.2byte	0x29b
 4755 1427 B8000000 		.4byte	0xb8
 4756 142b 23090000 		.4byte	.LLST46
 4757 142f 26       		.uleb128 0x26
 4758 1430 E9030000 		.4byte	.LASF106
 4759 1434 01       		.byte	0x1
 4760 1435 9B02     		.2byte	0x29b
 4761 1437 B8000000 		.4byte	0xb8
 4762 143b 43090000 		.4byte	.LLST47
 4763 143f 28       		.uleb128 0x28
 4764 1440 F0040000 		.4byte	.LASF108
 4765 1444 01       		.byte	0x1
 4766 1445 9C02     		.2byte	0x29c
 4767 1447 A6000000 		.4byte	0xa6
 4768 144b 63090000 		.4byte	.LLST48
 4769 144f 28       		.uleb128 0x28
 4770 1450 4C030000 		.4byte	.LASF109
 4771 1454 01       		.byte	0x1
 4772 1455 9C02     		.2byte	0x29c
 4773 1457 A6000000 		.4byte	0xa6
 4774 145b 76090000 		.4byte	.LLST49
 4775 145f 28       		.uleb128 0x28
 4776 1460 4A050000 		.4byte	.LASF110
 4777 1464 01       		.byte	0x1
 4778 1465 9D02     		.2byte	0x29d
 4779 1467 A6000000 		.4byte	0xa6
 4780 146b 89090000 		.4byte	.LLST50
 4781 146f 28       		.uleb128 0x28
 4782 1470 D9050000 		.4byte	.LASF107
 4783 1474 01       		.byte	0x1
 4784 1475 9E02     		.2byte	0x29e
 4785 1477 A6000000 		.4byte	0xa6
 4786 147b E2090000 		.4byte	.LLST51
 4787 147f 20       		.uleb128 0x20
 4788 1480 5A000000 		.4byte	.LBB4
 4789 1484 3A000000 		.4byte	.LBE4-.LBB4
 4790 1488 14150000 		.4byte	0x1514
 4791 148c 24       		.uleb128 0x24
 4792 148d 08000000 		.4byte	.LASF112
 4793 1491 01       		.byte	0x1
 4794 1492 AD02     		.2byte	0x2ad
 4795 1494 BC150000 		.4byte	0x15bc
 4796 1498 02       		.uleb128 0x2
 4797 1499 91       		.byte	0x91
 4798 149a 50       		.sleb128 -48
 4799 149b 19       		.uleb128 0x19
 4800 149c 6E000000 		.4byte	.LVL159
 4801 14a0 DB180000 		.4byte	0x18db
 4802 14a4 C8140000 		.4byte	0x14c8
 4803 14a8 1A       		.uleb128 0x1a
 4804 14a9 01       		.uleb128 0x1
ARM GAS  C:\Users\RYANCA~1\AppData\Local\Temp\cclc5Gbi.s 			page 99


 4805 14aa 50       		.byte	0x50
 4806 14ab 02       		.uleb128 0x2
 4807 14ac 76       		.byte	0x76
 4808 14ad 00       		.sleb128 0
 4809 14ae 1A       		.uleb128 0x1a
 4810 14af 01       		.uleb128 0x1
 4811 14b0 51       		.byte	0x51
 4812 14b1 02       		.uleb128 0x2
 4813 14b2 77       		.byte	0x77
 4814 14b3 00       		.sleb128 0
 4815 14b4 1A       		.uleb128 0x1a
 4816 14b5 01       		.uleb128 0x1
 4817 14b6 52       		.byte	0x52
 4818 14b7 02       		.uleb128 0x2
 4819 14b8 78       		.byte	0x78
 4820 14b9 00       		.sleb128 0
 4821 14ba 1A       		.uleb128 0x1a
 4822 14bb 01       		.uleb128 0x1
 4823 14bc 53       		.byte	0x53
 4824 14bd 02       		.uleb128 0x2
 4825 14be 79       		.byte	0x79
 4826 14bf 00       		.sleb128 0
 4827 14c0 1A       		.uleb128 0x1a
 4828 14c1 02       		.uleb128 0x2
 4829 14c2 7D       		.byte	0x7d
 4830 14c3 00       		.sleb128 0
 4831 14c4 02       		.uleb128 0x2
 4832 14c5 7B       		.byte	0x7b
 4833 14c6 00       		.sleb128 0
 4834 14c7 00       		.byte	0
 4835 14c8 19       		.uleb128 0x19
 4836 14c9 78000000 		.4byte	.LVL160
 4837 14cd FE180000 		.4byte	0x18fe
 4838 14d1 EB140000 		.4byte	0x14eb
 4839 14d5 1A       		.uleb128 0x1a
 4840 14d6 01       		.uleb128 0x1
 4841 14d7 50       		.byte	0x50
 4842 14d8 02       		.uleb128 0x2
 4843 14d9 91       		.byte	0x91
 4844 14da 50       		.sleb128 -48
 4845 14db 1A       		.uleb128 0x1a
 4846 14dc 01       		.uleb128 0x1
 4847 14dd 51       		.byte	0x51
 4848 14de 05       		.uleb128 0x5
 4849 14df 03       		.byte	0x3
 4850 14e0 44000000 		.4byte	.LC7
 4851 14e4 1A       		.uleb128 0x1a
 4852 14e5 01       		.uleb128 0x1
 4853 14e6 52       		.byte	0x52
 4854 14e7 02       		.uleb128 0x2
 4855 14e8 75       		.byte	0x75
 4856 14e9 00       		.sleb128 0
 4857 14ea 00       		.byte	0
 4858 14eb 1B       		.uleb128 0x1b
 4859 14ec 94000000 		.4byte	.LVL161
 4860 14f0 09190000 		.4byte	0x1909
 4861 14f4 1A       		.uleb128 0x1a
ARM GAS  C:\Users\RYANCA~1\AppData\Local\Temp\cclc5Gbi.s 			page 100


 4862 14f5 01       		.uleb128 0x1
 4863 14f6 50       		.byte	0x50
 4864 14f7 02       		.uleb128 0x2
 4865 14f8 74       		.byte	0x74
 4866 14f9 00       		.sleb128 0
 4867 14fa 1A       		.uleb128 0x1a
 4868 14fb 01       		.uleb128 0x1
 4869 14fc 51       		.byte	0x51
 4870 14fd 02       		.uleb128 0x2
 4871 14fe 7A       		.byte	0x7a
 4872 14ff 00       		.sleb128 0
 4873 1500 1A       		.uleb128 0x1a
 4874 1501 01       		.uleb128 0x1
 4875 1502 52       		.byte	0x52
 4876 1503 02       		.uleb128 0x2
 4877 1504 91       		.byte	0x91
 4878 1505 50       		.sleb128 -48
 4879 1506 1A       		.uleb128 0x1a
 4880 1507 01       		.uleb128 0x1
 4881 1508 53       		.byte	0x53
 4882 1509 01       		.uleb128 0x1
 4883 150a 30       		.byte	0x30
 4884 150b 1A       		.uleb128 0x1a
 4885 150c 02       		.uleb128 0x2
 4886 150d 7D       		.byte	0x7d
 4887 150e 00       		.sleb128 0
 4888 150f 02       		.uleb128 0x2
 4889 1510 7B       		.byte	0x7b
 4890 1511 00       		.sleb128 0
 4891 1512 00       		.byte	0
 4892 1513 00       		.byte	0
 4893 1514 20       		.uleb128 0x20
 4894 1515 96000000 		.4byte	.LBB5
 4895 1519 3A000000 		.4byte	.LBE5-.LBB5
 4896 151d A9150000 		.4byte	0x15a9
 4897 1521 24       		.uleb128 0x24
 4898 1522 08000000 		.4byte	.LASF112
 4899 1526 01       		.byte	0x1
 4900 1527 B502     		.2byte	0x2b5
 4901 1529 A60B0000 		.4byte	0xba6
 4902 152d 02       		.uleb128 0x2
 4903 152e 91       		.byte	0x91
 4904 152f 50       		.sleb128 -48
 4905 1530 19       		.uleb128 0x19
 4906 1531 AA000000 		.4byte	.LVL162
 4907 1535 DB180000 		.4byte	0x18db
 4908 1539 5D150000 		.4byte	0x155d
 4909 153d 1A       		.uleb128 0x1a
 4910 153e 01       		.uleb128 0x1
 4911 153f 50       		.byte	0x50
 4912 1540 02       		.uleb128 0x2
 4913 1541 76       		.byte	0x76
 4914 1542 00       		.sleb128 0
 4915 1543 1A       		.uleb128 0x1a
 4916 1544 01       		.uleb128 0x1
 4917 1545 51       		.byte	0x51
 4918 1546 02       		.uleb128 0x2
ARM GAS  C:\Users\RYANCA~1\AppData\Local\Temp\cclc5Gbi.s 			page 101


 4919 1547 77       		.byte	0x77
 4920 1548 00       		.sleb128 0
 4921 1549 1A       		.uleb128 0x1a
 4922 154a 01       		.uleb128 0x1
 4923 154b 52       		.byte	0x52
 4924 154c 02       		.uleb128 0x2
 4925 154d 78       		.byte	0x78
 4926 154e 00       		.sleb128 0
 4927 154f 1A       		.uleb128 0x1a
 4928 1550 01       		.uleb128 0x1
 4929 1551 53       		.byte	0x53
 4930 1552 02       		.uleb128 0x2
 4931 1553 79       		.byte	0x79
 4932 1554 00       		.sleb128 0
 4933 1555 1A       		.uleb128 0x1a
 4934 1556 02       		.uleb128 0x2
 4935 1557 7D       		.byte	0x7d
 4936 1558 00       		.sleb128 0
 4937 1559 02       		.uleb128 0x2
 4938 155a 7B       		.byte	0x7b
 4939 155b 00       		.sleb128 0
 4940 155c 00       		.byte	0
 4941 155d 19       		.uleb128 0x19
 4942 155e B4000000 		.4byte	.LVL163
 4943 1562 FE180000 		.4byte	0x18fe
 4944 1566 80150000 		.4byte	0x1580
 4945 156a 1A       		.uleb128 0x1a
 4946 156b 01       		.uleb128 0x1
 4947 156c 50       		.byte	0x50
 4948 156d 02       		.uleb128 0x2
 4949 156e 91       		.byte	0x91
 4950 156f 50       		.sleb128 -48
 4951 1570 1A       		.uleb128 0x1a
 4952 1571 01       		.uleb128 0x1
 4953 1572 51       		.byte	0x51
 4954 1573 05       		.uleb128 0x5
 4955 1574 03       		.byte	0x3
 4956 1575 44000000 		.4byte	.LC7
 4957 1579 1A       		.uleb128 0x1a
 4958 157a 01       		.uleb128 0x1
 4959 157b 52       		.byte	0x52
 4960 157c 02       		.uleb128 0x2
 4961 157d 75       		.byte	0x75
 4962 157e 00       		.sleb128 0
 4963 157f 00       		.byte	0
 4964 1580 1B       		.uleb128 0x1b
 4965 1581 D0000000 		.4byte	.LVL164
 4966 1585 09190000 		.4byte	0x1909
 4967 1589 1A       		.uleb128 0x1a
 4968 158a 01       		.uleb128 0x1
 4969 158b 50       		.byte	0x50
 4970 158c 02       		.uleb128 0x2
 4971 158d 74       		.byte	0x74
 4972 158e 00       		.sleb128 0
 4973 158f 1A       		.uleb128 0x1a
 4974 1590 01       		.uleb128 0x1
 4975 1591 51       		.byte	0x51
ARM GAS  C:\Users\RYANCA~1\AppData\Local\Temp\cclc5Gbi.s 			page 102


 4976 1592 02       		.uleb128 0x2
 4977 1593 7A       		.byte	0x7a
 4978 1594 00       		.sleb128 0
 4979 1595 1A       		.uleb128 0x1a
 4980 1596 01       		.uleb128 0x1
 4981 1597 52       		.byte	0x52
 4982 1598 02       		.uleb128 0x2
 4983 1599 91       		.byte	0x91
 4984 159a 50       		.sleb128 -48
 4985 159b 1A       		.uleb128 0x1a
 4986 159c 01       		.uleb128 0x1
 4987 159d 53       		.byte	0x53
 4988 159e 01       		.uleb128 0x1
 4989 159f 30       		.byte	0x30
 4990 15a0 1A       		.uleb128 0x1a
 4991 15a1 02       		.uleb128 0x2
 4992 15a2 7D       		.byte	0x7d
 4993 15a3 00       		.sleb128 0
 4994 15a4 02       		.uleb128 0x2
 4995 15a5 7B       		.byte	0x7b
 4996 15a6 00       		.sleb128 0
 4997 15a7 00       		.byte	0
 4998 15a8 00       		.byte	0
 4999 15a9 22       		.uleb128 0x22
 5000 15aa 56000000 		.4byte	.LVL158
 5001 15ae 15190000 		.4byte	0x1915
 5002 15b2 22       		.uleb128 0x22
 5003 15b3 D6000000 		.4byte	.LVL165
 5004 15b7 15190000 		.4byte	0x1915
 5005 15bb 00       		.byte	0
 5006 15bc 16       		.uleb128 0x16
 5007 15bd 09010000 		.4byte	0x109
 5008 15c1 CC150000 		.4byte	0x15cc
 5009 15c5 17       		.uleb128 0x17
 5010 15c6 17010000 		.4byte	0x117
 5011 15ca 04       		.byte	0x4
 5012 15cb 00       		.byte	0
 5013 15cc 25       		.uleb128 0x25
 5014 15cd 8F030000 		.4byte	.LASF119
 5015 15d1 01       		.byte	0x1
 5016 15d2 7C02     		.2byte	0x27c
 5017 15d4 00000000 		.4byte	.LFB71
 5018 15d8 18000000 		.4byte	.LFE71-.LFB71
 5019 15dc 01       		.uleb128 0x1
 5020 15dd 9C       		.byte	0x9c
 5021 15de 57160000 		.4byte	0x1657
 5022 15e2 26       		.uleb128 0x26
 5023 15e3 6F030000 		.4byte	.LASF62
 5024 15e7 01       		.byte	0x1
 5025 15e8 7C02     		.2byte	0x27c
 5026 15ea CE000000 		.4byte	0xce
 5027 15ee F5090000 		.4byte	.LLST52
 5028 15f2 27       		.uleb128 0x27
 5029 15f3 783100   		.ascii	"x1\000"
 5030 15f6 01       		.byte	0x1
 5031 15f7 7C02     		.2byte	0x27c
 5032 15f9 B8000000 		.4byte	0xb8
ARM GAS  C:\Users\RYANCA~1\AppData\Local\Temp\cclc5Gbi.s 			page 103


 5033 15fd 160A0000 		.4byte	.LLST53
 5034 1601 27       		.uleb128 0x27
 5035 1602 793100   		.ascii	"y1\000"
 5036 1605 01       		.byte	0x1
 5037 1606 7C02     		.2byte	0x27c
 5038 1608 B8000000 		.4byte	0xb8
 5039 160c 370A0000 		.4byte	.LLST54
 5040 1610 27       		.uleb128 0x27
 5041 1611 783200   		.ascii	"x2\000"
 5042 1614 01       		.byte	0x1
 5043 1615 7C02     		.2byte	0x27c
 5044 1617 B8000000 		.4byte	0xb8
 5045 161b 580A0000 		.4byte	.LLST55
 5046 161f 2A       		.uleb128 0x2a
 5047 1620 793200   		.ascii	"y2\000"
 5048 1623 01       		.byte	0x1
 5049 1624 7C02     		.2byte	0x27c
 5050 1626 B8000000 		.4byte	0xb8
 5051 162a 02       		.uleb128 0x2
 5052 162b 91       		.byte	0x91
 5053 162c 00       		.sleb128 0
 5054 162d 2B       		.uleb128 0x2b
 5055 162e E9030000 		.4byte	.LASF106
 5056 1632 01       		.byte	0x1
 5057 1633 7C02     		.2byte	0x27c
 5058 1635 B8000000 		.4byte	0xb8
 5059 1639 02       		.uleb128 0x2
 5060 163a 91       		.byte	0x91
 5061 163b 04       		.sleb128 4
 5062 163c 1B       		.uleb128 0x1b
 5063 163d 14000000 		.4byte	.LVL168
 5064 1641 CD130000 		.4byte	0x13cd
 5065 1645 1A       		.uleb128 0x1a
 5066 1646 02       		.uleb128 0x2
 5067 1647 7D       		.byte	0x7d
 5068 1648 00       		.sleb128 0
 5069 1649 02       		.uleb128 0x2
 5070 164a 74       		.byte	0x74
 5071 164b 00       		.sleb128 0
 5072 164c 1A       		.uleb128 0x1a
 5073 164d 02       		.uleb128 0x2
 5074 164e 7D       		.byte	0x7d
 5075 164f 04       		.sleb128 4
 5076 1650 04       		.uleb128 0x4
 5077 1651 91       		.byte	0x91
 5078 1652 04       		.sleb128 4
 5079 1653 94       		.byte	0x94
 5080 1654 01       		.byte	0x1
 5081 1655 00       		.byte	0
 5082 1656 00       		.byte	0
 5083 1657 25       		.uleb128 0x25
 5084 1658 C5040000 		.4byte	.LASF120
 5085 165c 01       		.byte	0x1
 5086 165d 9502     		.2byte	0x295
 5087 165f 00000000 		.4byte	.LFB72
 5088 1663 18000000 		.4byte	.LFE72-.LFB72
 5089 1667 01       		.uleb128 0x1
ARM GAS  C:\Users\RYANCA~1\AppData\Local\Temp\cclc5Gbi.s 			page 104


 5090 1668 9C       		.byte	0x9c
 5091 1669 E2160000 		.4byte	0x16e2
 5092 166d 26       		.uleb128 0x26
 5093 166e 6F030000 		.4byte	.LASF62
 5094 1672 01       		.byte	0x1
 5095 1673 9502     		.2byte	0x295
 5096 1675 CE000000 		.4byte	0xce
 5097 1679 790A0000 		.4byte	.LLST56
 5098 167d 27       		.uleb128 0x27
 5099 167e 783100   		.ascii	"x1\000"
 5100 1681 01       		.byte	0x1
 5101 1682 9502     		.2byte	0x295
 5102 1684 B8000000 		.4byte	0xb8
 5103 1688 9A0A0000 		.4byte	.LLST57
 5104 168c 27       		.uleb128 0x27
 5105 168d 793100   		.ascii	"y1\000"
 5106 1690 01       		.byte	0x1
 5107 1691 9502     		.2byte	0x295
 5108 1693 B8000000 		.4byte	0xb8
 5109 1697 BB0A0000 		.4byte	.LLST58
 5110 169b 27       		.uleb128 0x27
 5111 169c 783200   		.ascii	"x2\000"
 5112 169f 01       		.byte	0x1
 5113 16a0 9502     		.2byte	0x295
 5114 16a2 B8000000 		.4byte	0xb8
 5115 16a6 DC0A0000 		.4byte	.LLST59
 5116 16aa 2A       		.uleb128 0x2a
 5117 16ab 793200   		.ascii	"y2\000"
 5118 16ae 01       		.byte	0x1
 5119 16af 9502     		.2byte	0x295
 5120 16b1 B8000000 		.4byte	0xb8
 5121 16b5 02       		.uleb128 0x2
 5122 16b6 91       		.byte	0x91
 5123 16b7 00       		.sleb128 0
 5124 16b8 2B       		.uleb128 0x2b
 5125 16b9 E9030000 		.4byte	.LASF106
 5126 16bd 01       		.byte	0x1
 5127 16be 9502     		.2byte	0x295
 5128 16c0 B8000000 		.4byte	0xb8
 5129 16c4 02       		.uleb128 0x2
 5130 16c5 91       		.byte	0x91
 5131 16c6 04       		.sleb128 4
 5132 16c7 1B       		.uleb128 0x1b
 5133 16c8 14000000 		.4byte	.LVL170
 5134 16cc CD130000 		.4byte	0x13cd
 5135 16d0 1A       		.uleb128 0x1a
 5136 16d1 02       		.uleb128 0x2
 5137 16d2 7D       		.byte	0x7d
 5138 16d3 00       		.sleb128 0
 5139 16d4 02       		.uleb128 0x2
 5140 16d5 74       		.byte	0x74
 5141 16d6 00       		.sleb128 0
 5142 16d7 1A       		.uleb128 0x1a
 5143 16d8 02       		.uleb128 0x2
 5144 16d9 7D       		.byte	0x7d
 5145 16da 04       		.sleb128 4
 5146 16db 04       		.uleb128 0x4
ARM GAS  C:\Users\RYANCA~1\AppData\Local\Temp\cclc5Gbi.s 			page 105


 5147 16dc 91       		.byte	0x91
 5148 16dd 04       		.sleb128 4
 5149 16de 94       		.byte	0x94
 5150 16df 01       		.byte	0x1
 5151 16e0 00       		.byte	0
 5152 16e1 00       		.byte	0
 5153 16e2 25       		.uleb128 0x25
 5154 16e3 EE030000 		.4byte	.LASF121
 5155 16e7 01       		.byte	0x1
 5156 16e8 BE02     		.2byte	0x2be
 5157 16ea 00000000 		.4byte	.LFB74
 5158 16ee DC000000 		.4byte	.LFE74-.LFB74
 5159 16f2 01       		.uleb128 0x1
 5160 16f3 9C       		.byte	0x9c
 5161 16f4 31180000 		.4byte	0x1831
 5162 16f8 26       		.uleb128 0x26
 5163 16f9 6F030000 		.4byte	.LASF62
 5164 16fd 01       		.byte	0x1
 5165 16fe BE02     		.2byte	0x2be
 5166 1700 CE000000 		.4byte	0xce
 5167 1704 FD0A0000 		.4byte	.LLST60
 5168 1708 27       		.uleb128 0x27
 5169 1709 783100   		.ascii	"x1\000"
 5170 170c 01       		.byte	0x1
 5171 170d BE02     		.2byte	0x2be
 5172 170f B8000000 		.4byte	0xb8
 5173 1713 1E0B0000 		.4byte	.LLST61
 5174 1717 27       		.uleb128 0x27
 5175 1718 793100   		.ascii	"y1\000"
 5176 171b 01       		.byte	0x1
 5177 171c BE02     		.2byte	0x2be
 5178 171e B8000000 		.4byte	0xb8
 5179 1722 3F0B0000 		.4byte	.LLST62
 5180 1726 27       		.uleb128 0x27
 5181 1727 783200   		.ascii	"x2\000"
 5182 172a 01       		.byte	0x1
 5183 172b BE02     		.2byte	0x2be
 5184 172d B8000000 		.4byte	0xb8
 5185 1731 600B0000 		.4byte	.LLST63
 5186 1735 27       		.uleb128 0x27
 5187 1736 793200   		.ascii	"y2\000"
 5188 1739 01       		.byte	0x1
 5189 173a BE02     		.2byte	0x2be
 5190 173c B8000000 		.4byte	0xb8
 5191 1740 810B0000 		.4byte	.LLST64
 5192 1744 26       		.uleb128 0x26
 5193 1745 E9030000 		.4byte	.LASF106
 5194 1749 01       		.byte	0x1
 5195 174a BE02     		.2byte	0x2be
 5196 174c B8000000 		.4byte	0xb8
 5197 1750 A10B0000 		.4byte	.LLST65
 5198 1754 28       		.uleb128 0x28
 5199 1755 F0040000 		.4byte	.LASF108
 5200 1759 01       		.byte	0x1
 5201 175a BF02     		.2byte	0x2bf
 5202 175c A6000000 		.4byte	0xa6
 5203 1760 C10B0000 		.4byte	.LLST66
ARM GAS  C:\Users\RYANCA~1\AppData\Local\Temp\cclc5Gbi.s 			page 106


 5204 1764 28       		.uleb128 0x28
 5205 1765 4C030000 		.4byte	.LASF109
 5206 1769 01       		.byte	0x1
 5207 176a BF02     		.2byte	0x2bf
 5208 176c A6000000 		.4byte	0xa6
 5209 1770 D40B0000 		.4byte	.LLST67
 5210 1774 28       		.uleb128 0x28
 5211 1775 4A050000 		.4byte	.LASF110
 5212 1779 01       		.byte	0x1
 5213 177a C002     		.2byte	0x2c0
 5214 177c A6000000 		.4byte	0xa6
 5215 1780 E70B0000 		.4byte	.LLST68
 5216 1784 29       		.uleb128 0x29
 5217 1785 D9050000 		.4byte	.LASF107
 5218 1789 01       		.byte	0x1
 5219 178a C102     		.2byte	0x2c1
 5220 178c A6000000 		.4byte	0xa6
 5221 1790 06       		.byte	0x6
 5222 1791 24       		.uleb128 0x24
 5223 1792 08000000 		.4byte	.LASF112
 5224 1796 01       		.byte	0x1
 5225 1797 CB02     		.2byte	0x2cb
 5226 1799 BD130000 		.4byte	0x13bd
 5227 179d 02       		.uleb128 0x2
 5228 179e 91       		.byte	0x91
 5229 179f 58       		.sleb128 -40
 5230 17a0 22       		.uleb128 0x22
 5231 17a1 4E000000 		.4byte	.LVL181
 5232 17a5 15190000 		.4byte	0x1915
 5233 17a9 19       		.uleb128 0x19
 5234 17aa 60000000 		.4byte	.LVL182
 5235 17ae DB180000 		.4byte	0x18db
 5236 17b2 D7170000 		.4byte	0x17d7
 5237 17b6 1A       		.uleb128 0x1a
 5238 17b7 01       		.uleb128 0x1
 5239 17b8 50       		.byte	0x50
 5240 17b9 02       		.uleb128 0x2
 5241 17ba 75       		.byte	0x75
 5242 17bb 00       		.sleb128 0
 5243 17bc 1A       		.uleb128 0x1a
 5244 17bd 01       		.uleb128 0x1
 5245 17be 51       		.byte	0x51
 5246 17bf 02       		.uleb128 0x2
 5247 17c0 76       		.byte	0x76
 5248 17c1 00       		.sleb128 0
 5249 17c2 1A       		.uleb128 0x1a
 5250 17c3 01       		.uleb128 0x1
 5251 17c4 52       		.byte	0x52
 5252 17c5 02       		.uleb128 0x2
 5253 17c6 77       		.byte	0x77
 5254 17c7 00       		.sleb128 0
 5255 17c8 1A       		.uleb128 0x1a
 5256 17c9 01       		.uleb128 0x1
 5257 17ca 53       		.byte	0x53
 5258 17cb 02       		.uleb128 0x2
 5259 17cc 78       		.byte	0x78
 5260 17cd 00       		.sleb128 0
ARM GAS  C:\Users\RYANCA~1\AppData\Local\Temp\cclc5Gbi.s 			page 107


 5261 17ce 1A       		.uleb128 0x1a
 5262 17cf 02       		.uleb128 0x2
 5263 17d0 7D       		.byte	0x7d
 5264 17d1 00       		.sleb128 0
 5265 17d2 03       		.uleb128 0x3
 5266 17d3 0A       		.byte	0xa
 5267 17d4 00FF     		.2byte	0xff00
 5268 17d6 00       		.byte	0
 5269 17d7 19       		.uleb128 0x19
 5270 17d8 6A000000 		.4byte	.LVL183
 5271 17dc FE180000 		.4byte	0x18fe
 5272 17e0 FA170000 		.4byte	0x17fa
 5273 17e4 1A       		.uleb128 0x1a
 5274 17e5 01       		.uleb128 0x1
 5275 17e6 50       		.byte	0x50
 5276 17e7 02       		.uleb128 0x2
 5277 17e8 91       		.byte	0x91
 5278 17e9 58       		.sleb128 -40
 5279 17ea 1A       		.uleb128 0x1a
 5280 17eb 01       		.uleb128 0x1
 5281 17ec 51       		.byte	0x51
 5282 17ed 05       		.uleb128 0x5
 5283 17ee 03       		.byte	0x3
 5284 17ef 44000000 		.4byte	.LC7
 5285 17f3 1A       		.uleb128 0x1a
 5286 17f4 01       		.uleb128 0x1
 5287 17f5 52       		.byte	0x52
 5288 17f6 02       		.uleb128 0x2
 5289 17f7 74       		.byte	0x74
 5290 17f8 00       		.sleb128 0
 5291 17f9 00       		.byte	0
 5292 17fa 19       		.uleb128 0x19
 5293 17fb C4000000 		.4byte	.LVL184
 5294 17ff 09190000 		.4byte	0x1909
 5295 1803 27180000 		.4byte	0x1827
 5296 1807 1A       		.uleb128 0x1a
 5297 1808 01       		.uleb128 0x1
 5298 1809 50       		.byte	0x50
 5299 180a 02       		.uleb128 0x2
 5300 180b 79       		.byte	0x79
 5301 180c 00       		.sleb128 0
 5302 180d 1A       		.uleb128 0x1a
 5303 180e 01       		.uleb128 0x1
 5304 180f 51       		.byte	0x51
 5305 1810 02       		.uleb128 0x2
 5306 1811 7A       		.byte	0x7a
 5307 1812 00       		.sleb128 0
 5308 1813 1A       		.uleb128 0x1a
 5309 1814 01       		.uleb128 0x1
 5310 1815 52       		.byte	0x52
 5311 1816 02       		.uleb128 0x2
 5312 1817 91       		.byte	0x91
 5313 1818 58       		.sleb128 -40
 5314 1819 1A       		.uleb128 0x1a
 5315 181a 01       		.uleb128 0x1
 5316 181b 53       		.byte	0x53
 5317 181c 01       		.uleb128 0x1
ARM GAS  C:\Users\RYANCA~1\AppData\Local\Temp\cclc5Gbi.s 			page 108


 5318 181d 30       		.byte	0x30
 5319 181e 1A       		.uleb128 0x1a
 5320 181f 02       		.uleb128 0x2
 5321 1820 7D       		.byte	0x7d
 5322 1821 00       		.sleb128 0
 5323 1822 03       		.uleb128 0x3
 5324 1823 0A       		.byte	0xa
 5325 1824 00FF     		.2byte	0xff00
 5326 1826 00       		.byte	0
 5327 1827 22       		.uleb128 0x22
 5328 1828 CA000000 		.4byte	.LVL185
 5329 182c 15190000 		.4byte	0x1915
 5330 1830 00       		.byte	0
 5331 1831 2C       		.uleb128 0x2c
 5332 1832 B8040000 		.4byte	.LASF122
 5333 1836 08       		.byte	0x8
 5334 1837 1207     		.2byte	0x712
 5335 1839 3D180000 		.4byte	0x183d
 5336 183d 2D       		.uleb128 0x2d
 5337 183e D9000000 		.4byte	0xd9
 5338 1842 2E       		.uleb128 0x2e
 5339 1843 7D010000 		.4byte	.LASF123
 5340 1847 07       		.byte	0x7
 5341 1848 51       		.byte	0x51
 5342 1849 DE030000 		.4byte	0x3de
 5343 184d 2E       		.uleb128 0x2e
 5344 184e 24050000 		.4byte	.LASF124
 5345 1852 07       		.byte	0x7
 5346 1853 60       		.byte	0x60
 5347 1854 DE030000 		.4byte	0x3de
 5348 1858 2F       		.uleb128 0x2f
 5349 1859 5D040000 		.4byte	.LASF125
 5350 185d 09       		.byte	0x9
 5351 185e 33       		.byte	0x33
 5352 185f DE060000 		.4byte	0x6de
 5353 1863 05       		.uleb128 0x5
 5354 1864 03       		.byte	0x3
 5355 1865 00000000 		.4byte	gui1963
 5356 1869 2F       		.uleb128 0x2f
 5357 186a AD020000 		.4byte	.LASF126
 5358 186e 0A       		.byte	0xa
 5359 186f 0F       		.byte	0xf
 5360 1870 8D030000 		.4byte	0x38d
 5361 1874 05       		.uleb128 0x5
 5362 1875 03       		.byte	0x3
 5363 1876 00000000 		.4byte	last_SOC_color
 5364 187a 2F       		.uleb128 0x2f
 5365 187b B0030000 		.4byte	.LASF127
 5366 187f 0A       		.byte	0xa
 5367 1880 10       		.byte	0x10
 5368 1881 8D030000 		.4byte	0x38d
 5369 1885 05       		.uleb128 0x5
 5370 1886 03       		.byte	0x3
 5371 1887 00000000 		.4byte	last_max_pack_temp_color
 5372 188b 2F       		.uleb128 0x2f
 5373 188c 94040000 		.4byte	.LASF128
 5374 1890 0A       		.byte	0xa
ARM GAS  C:\Users\RYANCA~1\AppData\Local\Temp\cclc5Gbi.s 			page 109


 5375 1891 11       		.byte	0x11
 5376 1892 8D030000 		.4byte	0x38d
 5377 1896 05       		.uleb128 0x5
 5378 1897 03       		.byte	0x3
 5379 1898 00000000 		.4byte	last_state_color
 5380 189c 2F       		.uleb128 0x2f
 5381 189d 58050000 		.4byte	.LASF129
 5382 18a1 0A       		.byte	0xa
 5383 18a2 12       		.byte	0x12
 5384 18a3 8D030000 		.4byte	0x38d
 5385 18a7 05       		.uleb128 0x5
 5386 18a8 03       		.byte	0x3
 5387 18a9 00000000 		.4byte	last_glv_v_color
 5388 18ad 2F       		.uleb128 0x2f
 5389 18ae B1050000 		.4byte	.LASF130
 5390 18b2 0A       		.byte	0xa
 5391 18b3 13       		.byte	0x13
 5392 18b4 8D030000 		.4byte	0x38d
 5393 18b8 05       		.uleb128 0x5
 5394 18b9 03       		.byte	0x3
 5395 18ba 00000000 		.4byte	last_mc_temp_color
 5396 18be 2F       		.uleb128 0x2f
 5397 18bf FD020000 		.4byte	.LASF131
 5398 18c3 0A       		.byte	0xa
 5399 18c4 14       		.byte	0x14
 5400 18c5 8D030000 		.4byte	0x38d
 5401 18c9 05       		.uleb128 0x5
 5402 18ca 03       		.byte	0x3
 5403 18cb 00000000 		.4byte	last_motor_temp_color
 5404 18cf 30       		.uleb128 0x30
 5405 18d0 9F020000 		.4byte	.LASF132
 5406 18d4 9F020000 		.4byte	.LASF132
 5407 18d8 07       		.byte	0x7
 5408 18d9 EC02     		.2byte	0x2ec
 5409 18db 30       		.uleb128 0x30
 5410 18dc 09010000 		.4byte	.LASF133
 5411 18e0 09010000 		.4byte	.LASF133
 5412 18e4 07       		.byte	0x7
 5413 18e5 ED02     		.2byte	0x2ed
 5414 18e7 31       		.uleb128 0x31
 5415 18e8 00000000 		.4byte	.LASF134
 5416 18ec 00000000 		.4byte	.LASF134
 5417 18f0 0B       		.byte	0xb
 5418 18f1 76       		.byte	0x76
 5419 18f2 30       		.uleb128 0x30
 5420 18f3 33040000 		.4byte	.LASF135
 5421 18f7 33040000 		.4byte	.LASF135
 5422 18fb 07       		.byte	0x7
 5423 18fc F702     		.2byte	0x2f7
 5424 18fe 31       		.uleb128 0x31
 5425 18ff 4C040000 		.4byte	.LASF136
 5426 1903 4C040000 		.4byte	.LASF136
 5427 1907 0C       		.byte	0xc
 5428 1908 E7       		.byte	0xe7
 5429 1909 30       		.uleb128 0x30
 5430 190a 7B020000 		.4byte	.LASF137
 5431 190e 7B020000 		.4byte	.LASF137
ARM GAS  C:\Users\RYANCA~1\AppData\Local\Temp\cclc5Gbi.s 			page 110


 5432 1912 07       		.byte	0x7
 5433 1913 F802     		.2byte	0x2f8
 5434 1915 30       		.uleb128 0x30
 5435 1916 36060000 		.4byte	.LASF138
 5436 191a 36060000 		.4byte	.LASF138
 5437 191e 07       		.byte	0x7
 5438 191f EB02     		.2byte	0x2eb
 5439 1921 00       		.byte	0
 5440              		.section	.debug_abbrev,"",%progbits
 5441              	.Ldebug_abbrev0:
 5442 0000 01       		.uleb128 0x1
 5443 0001 11       		.uleb128 0x11
 5444 0002 01       		.byte	0x1
 5445 0003 25       		.uleb128 0x25
 5446 0004 0E       		.uleb128 0xe
 5447 0005 13       		.uleb128 0x13
 5448 0006 0B       		.uleb128 0xb
 5449 0007 03       		.uleb128 0x3
 5450 0008 0E       		.uleb128 0xe
 5451 0009 1B       		.uleb128 0x1b
 5452 000a 0E       		.uleb128 0xe
 5453 000b 55       		.uleb128 0x55
 5454 000c 17       		.uleb128 0x17
 5455 000d 11       		.uleb128 0x11
 5456 000e 01       		.uleb128 0x1
 5457 000f 10       		.uleb128 0x10
 5458 0010 17       		.uleb128 0x17
 5459 0011 00       		.byte	0
 5460 0012 00       		.byte	0
 5461 0013 02       		.uleb128 0x2
 5462 0014 24       		.uleb128 0x24
 5463 0015 00       		.byte	0
 5464 0016 0B       		.uleb128 0xb
 5465 0017 0B       		.uleb128 0xb
 5466 0018 3E       		.uleb128 0x3e
 5467 0019 0B       		.uleb128 0xb
 5468 001a 03       		.uleb128 0x3
 5469 001b 0E       		.uleb128 0xe
 5470 001c 00       		.byte	0
 5471 001d 00       		.byte	0
 5472 001e 03       		.uleb128 0x3
 5473 001f 16       		.uleb128 0x16
 5474 0020 00       		.byte	0
 5475 0021 03       		.uleb128 0x3
 5476 0022 0E       		.uleb128 0xe
 5477 0023 3A       		.uleb128 0x3a
 5478 0024 0B       		.uleb128 0xb
 5479 0025 3B       		.uleb128 0x3b
 5480 0026 0B       		.uleb128 0xb
 5481 0027 49       		.uleb128 0x49
 5482 0028 13       		.uleb128 0x13
 5483 0029 00       		.byte	0
 5484 002a 00       		.byte	0
 5485 002b 04       		.uleb128 0x4
 5486 002c 24       		.uleb128 0x24
 5487 002d 00       		.byte	0
 5488 002e 0B       		.uleb128 0xb
ARM GAS  C:\Users\RYANCA~1\AppData\Local\Temp\cclc5Gbi.s 			page 111


 5489 002f 0B       		.uleb128 0xb
 5490 0030 3E       		.uleb128 0x3e
 5491 0031 0B       		.uleb128 0xb
 5492 0032 03       		.uleb128 0x3
 5493 0033 08       		.uleb128 0x8
 5494 0034 00       		.byte	0
 5495 0035 00       		.byte	0
 5496 0036 05       		.uleb128 0x5
 5497 0037 16       		.uleb128 0x16
 5498 0038 00       		.byte	0
 5499 0039 03       		.uleb128 0x3
 5500 003a 0E       		.uleb128 0xe
 5501 003b 3A       		.uleb128 0x3a
 5502 003c 0B       		.uleb128 0xb
 5503 003d 3B       		.uleb128 0x3b
 5504 003e 05       		.uleb128 0x5
 5505 003f 49       		.uleb128 0x49
 5506 0040 13       		.uleb128 0x13
 5507 0041 00       		.byte	0
 5508 0042 00       		.byte	0
 5509 0043 06       		.uleb128 0x6
 5510 0044 0F       		.uleb128 0xf
 5511 0045 00       		.byte	0
 5512 0046 0B       		.uleb128 0xb
 5513 0047 0B       		.uleb128 0xb
 5514 0048 00       		.byte	0
 5515 0049 00       		.byte	0
 5516 004a 07       		.uleb128 0x7
 5517 004b 0F       		.uleb128 0xf
 5518 004c 00       		.byte	0
 5519 004d 0B       		.uleb128 0xb
 5520 004e 0B       		.uleb128 0xb
 5521 004f 49       		.uleb128 0x49
 5522 0050 13       		.uleb128 0x13
 5523 0051 00       		.byte	0
 5524 0052 00       		.byte	0
 5525 0053 08       		.uleb128 0x8
 5526 0054 04       		.uleb128 0x4
 5527 0055 01       		.byte	0x1
 5528 0056 0B       		.uleb128 0xb
 5529 0057 0B       		.uleb128 0xb
 5530 0058 49       		.uleb128 0x49
 5531 0059 13       		.uleb128 0x13
 5532 005a 3A       		.uleb128 0x3a
 5533 005b 0B       		.uleb128 0xb
 5534 005c 3B       		.uleb128 0x3b
 5535 005d 0B       		.uleb128 0xb
 5536 005e 01       		.uleb128 0x1
 5537 005f 13       		.uleb128 0x13
 5538 0060 00       		.byte	0
 5539 0061 00       		.byte	0
 5540 0062 09       		.uleb128 0x9
 5541 0063 28       		.uleb128 0x28
 5542 0064 00       		.byte	0
 5543 0065 03       		.uleb128 0x3
 5544 0066 08       		.uleb128 0x8
 5545 0067 1C       		.uleb128 0x1c
ARM GAS  C:\Users\RYANCA~1\AppData\Local\Temp\cclc5Gbi.s 			page 112


 5546 0068 0B       		.uleb128 0xb
 5547 0069 00       		.byte	0
 5548 006a 00       		.byte	0
 5549 006b 0A       		.uleb128 0xa
 5550 006c 28       		.uleb128 0x28
 5551 006d 00       		.byte	0
 5552 006e 03       		.uleb128 0x3
 5553 006f 0E       		.uleb128 0xe
 5554 0070 1C       		.uleb128 0x1c
 5555 0071 0B       		.uleb128 0xb
 5556 0072 00       		.byte	0
 5557 0073 00       		.byte	0
 5558 0074 0B       		.uleb128 0xb
 5559 0075 13       		.uleb128 0x13
 5560 0076 01       		.byte	0x1
 5561 0077 0B       		.uleb128 0xb
 5562 0078 0B       		.uleb128 0xb
 5563 0079 3A       		.uleb128 0x3a
 5564 007a 0B       		.uleb128 0xb
 5565 007b 3B       		.uleb128 0x3b
 5566 007c 0B       		.uleb128 0xb
 5567 007d 01       		.uleb128 0x1
 5568 007e 13       		.uleb128 0x13
 5569 007f 00       		.byte	0
 5570 0080 00       		.byte	0
 5571 0081 0C       		.uleb128 0xc
 5572 0082 0D       		.uleb128 0xd
 5573 0083 00       		.byte	0
 5574 0084 03       		.uleb128 0x3
 5575 0085 08       		.uleb128 0x8
 5576 0086 3A       		.uleb128 0x3a
 5577 0087 0B       		.uleb128 0xb
 5578 0088 3B       		.uleb128 0x3b
 5579 0089 0B       		.uleb128 0xb
 5580 008a 49       		.uleb128 0x49
 5581 008b 13       		.uleb128 0x13
 5582 008c 38       		.uleb128 0x38
 5583 008d 0B       		.uleb128 0xb
 5584 008e 00       		.byte	0
 5585 008f 00       		.byte	0
 5586 0090 0D       		.uleb128 0xd
 5587 0091 0D       		.uleb128 0xd
 5588 0092 00       		.byte	0
 5589 0093 03       		.uleb128 0x3
 5590 0094 0E       		.uleb128 0xe
 5591 0095 3A       		.uleb128 0x3a
 5592 0096 0B       		.uleb128 0xb
 5593 0097 3B       		.uleb128 0x3b
 5594 0098 0B       		.uleb128 0xb
 5595 0099 49       		.uleb128 0x49
 5596 009a 13       		.uleb128 0x13
 5597 009b 38       		.uleb128 0x38
 5598 009c 0B       		.uleb128 0xb
 5599 009d 00       		.byte	0
 5600 009e 00       		.byte	0
 5601 009f 0E       		.uleb128 0xe
 5602 00a0 13       		.uleb128 0x13
ARM GAS  C:\Users\RYANCA~1\AppData\Local\Temp\cclc5Gbi.s 			page 113


 5603 00a1 01       		.byte	0x1
 5604 00a2 03       		.uleb128 0x3
 5605 00a3 0E       		.uleb128 0xe
 5606 00a4 0B       		.uleb128 0xb
 5607 00a5 0B       		.uleb128 0xb
 5608 00a6 3A       		.uleb128 0x3a
 5609 00a7 0B       		.uleb128 0xb
 5610 00a8 3B       		.uleb128 0x3b
 5611 00a9 0B       		.uleb128 0xb
 5612 00aa 01       		.uleb128 0x1
 5613 00ab 13       		.uleb128 0x13
 5614 00ac 00       		.byte	0
 5615 00ad 00       		.byte	0
 5616 00ae 0F       		.uleb128 0xf
 5617 00af 0D       		.uleb128 0xd
 5618 00b0 00       		.byte	0
 5619 00b1 03       		.uleb128 0x3
 5620 00b2 0E       		.uleb128 0xe
 5621 00b3 3A       		.uleb128 0x3a
 5622 00b4 0B       		.uleb128 0xb
 5623 00b5 3B       		.uleb128 0x3b
 5624 00b6 05       		.uleb128 0x5
 5625 00b7 49       		.uleb128 0x49
 5626 00b8 13       		.uleb128 0x13
 5627 00b9 38       		.uleb128 0x38
 5628 00ba 0B       		.uleb128 0xb
 5629 00bb 00       		.byte	0
 5630 00bc 00       		.byte	0
 5631 00bd 10       		.uleb128 0x10
 5632 00be 13       		.uleb128 0x13
 5633 00bf 01       		.byte	0x1
 5634 00c0 03       		.uleb128 0x3
 5635 00c1 0E       		.uleb128 0xe
 5636 00c2 0B       		.uleb128 0xb
 5637 00c3 0B       		.uleb128 0xb
 5638 00c4 3A       		.uleb128 0x3a
 5639 00c5 0B       		.uleb128 0xb
 5640 00c6 3B       		.uleb128 0x3b
 5641 00c7 05       		.uleb128 0x5
 5642 00c8 01       		.uleb128 0x1
 5643 00c9 13       		.uleb128 0x13
 5644 00ca 00       		.byte	0
 5645 00cb 00       		.byte	0
 5646 00cc 11       		.uleb128 0x11
 5647 00cd 0D       		.uleb128 0xd
 5648 00ce 00       		.byte	0
 5649 00cf 03       		.uleb128 0x3
 5650 00d0 08       		.uleb128 0x8
 5651 00d1 3A       		.uleb128 0x3a
 5652 00d2 0B       		.uleb128 0xb
 5653 00d3 3B       		.uleb128 0x3b
 5654 00d4 05       		.uleb128 0x5
 5655 00d5 49       		.uleb128 0x49
 5656 00d6 13       		.uleb128 0x13
 5657 00d7 38       		.uleb128 0x38
 5658 00d8 0B       		.uleb128 0xb
 5659 00d9 00       		.byte	0
ARM GAS  C:\Users\RYANCA~1\AppData\Local\Temp\cclc5Gbi.s 			page 114


 5660 00da 00       		.byte	0
 5661 00db 12       		.uleb128 0x12
 5662 00dc 26       		.uleb128 0x26
 5663 00dd 00       		.byte	0
 5664 00de 49       		.uleb128 0x49
 5665 00df 13       		.uleb128 0x13
 5666 00e0 00       		.byte	0
 5667 00e1 00       		.byte	0
 5668 00e2 13       		.uleb128 0x13
 5669 00e3 15       		.uleb128 0x15
 5670 00e4 01       		.byte	0x1
 5671 00e5 27       		.uleb128 0x27
 5672 00e6 19       		.uleb128 0x19
 5673 00e7 01       		.uleb128 0x1
 5674 00e8 13       		.uleb128 0x13
 5675 00e9 00       		.byte	0
 5676 00ea 00       		.byte	0
 5677 00eb 14       		.uleb128 0x14
 5678 00ec 05       		.uleb128 0x5
 5679 00ed 00       		.byte	0
 5680 00ee 49       		.uleb128 0x49
 5681 00ef 13       		.uleb128 0x13
 5682 00f0 00       		.byte	0
 5683 00f1 00       		.byte	0
 5684 00f2 15       		.uleb128 0x15
 5685 00f3 13       		.uleb128 0x13
 5686 00f4 01       		.byte	0x1
 5687 00f5 0B       		.uleb128 0xb
 5688 00f6 0B       		.uleb128 0xb
 5689 00f7 3A       		.uleb128 0x3a
 5690 00f8 0B       		.uleb128 0xb
 5691 00f9 3B       		.uleb128 0x3b
 5692 00fa 05       		.uleb128 0x5
 5693 00fb 01       		.uleb128 0x1
 5694 00fc 13       		.uleb128 0x13
 5695 00fd 00       		.byte	0
 5696 00fe 00       		.byte	0
 5697 00ff 16       		.uleb128 0x16
 5698 0100 01       		.uleb128 0x1
 5699 0101 01       		.byte	0x1
 5700 0102 49       		.uleb128 0x49
 5701 0103 13       		.uleb128 0x13
 5702 0104 01       		.uleb128 0x1
 5703 0105 13       		.uleb128 0x13
 5704 0106 00       		.byte	0
 5705 0107 00       		.byte	0
 5706 0108 17       		.uleb128 0x17
 5707 0109 21       		.uleb128 0x21
 5708 010a 00       		.byte	0
 5709 010b 49       		.uleb128 0x49
 5710 010c 13       		.uleb128 0x13
 5711 010d 2F       		.uleb128 0x2f
 5712 010e 0B       		.uleb128 0xb
 5713 010f 00       		.byte	0
 5714 0110 00       		.byte	0
 5715 0111 18       		.uleb128 0x18
 5716 0112 2E       		.uleb128 0x2e
ARM GAS  C:\Users\RYANCA~1\AppData\Local\Temp\cclc5Gbi.s 			page 115


 5717 0113 01       		.byte	0x1
 5718 0114 3F       		.uleb128 0x3f
 5719 0115 19       		.uleb128 0x19
 5720 0116 03       		.uleb128 0x3
 5721 0117 0E       		.uleb128 0xe
 5722 0118 3A       		.uleb128 0x3a
 5723 0119 0B       		.uleb128 0xb
 5724 011a 3B       		.uleb128 0x3b
 5725 011b 0B       		.uleb128 0xb
 5726 011c 11       		.uleb128 0x11
 5727 011d 01       		.uleb128 0x1
 5728 011e 12       		.uleb128 0x12
 5729 011f 06       		.uleb128 0x6
 5730 0120 40       		.uleb128 0x40
 5731 0121 18       		.uleb128 0x18
 5732 0122 9742     		.uleb128 0x2117
 5733 0124 19       		.uleb128 0x19
 5734 0125 01       		.uleb128 0x1
 5735 0126 13       		.uleb128 0x13
 5736 0127 00       		.byte	0
 5737 0128 00       		.byte	0
 5738 0129 19       		.uleb128 0x19
 5739 012a 898201   		.uleb128 0x4109
 5740 012d 01       		.byte	0x1
 5741 012e 11       		.uleb128 0x11
 5742 012f 01       		.uleb128 0x1
 5743 0130 31       		.uleb128 0x31
 5744 0131 13       		.uleb128 0x13
 5745 0132 01       		.uleb128 0x1
 5746 0133 13       		.uleb128 0x13
 5747 0134 00       		.byte	0
 5748 0135 00       		.byte	0
 5749 0136 1A       		.uleb128 0x1a
 5750 0137 8A8201   		.uleb128 0x410a
 5751 013a 00       		.byte	0
 5752 013b 02       		.uleb128 0x2
 5753 013c 18       		.uleb128 0x18
 5754 013d 9142     		.uleb128 0x2111
 5755 013f 18       		.uleb128 0x18
 5756 0140 00       		.byte	0
 5757 0141 00       		.byte	0
 5758 0142 1B       		.uleb128 0x1b
 5759 0143 898201   		.uleb128 0x4109
 5760 0146 01       		.byte	0x1
 5761 0147 11       		.uleb128 0x11
 5762 0148 01       		.uleb128 0x1
 5763 0149 31       		.uleb128 0x31
 5764 014a 13       		.uleb128 0x13
 5765 014b 00       		.byte	0
 5766 014c 00       		.byte	0
 5767 014d 1C       		.uleb128 0x1c
 5768 014e 2E       		.uleb128 0x2e
 5769 014f 01       		.byte	0x1
 5770 0150 3F       		.uleb128 0x3f
 5771 0151 19       		.uleb128 0x19
 5772 0152 03       		.uleb128 0x3
 5773 0153 0E       		.uleb128 0xe
ARM GAS  C:\Users\RYANCA~1\AppData\Local\Temp\cclc5Gbi.s 			page 116


 5774 0154 3A       		.uleb128 0x3a
 5775 0155 0B       		.uleb128 0xb
 5776 0156 3B       		.uleb128 0x3b
 5777 0157 0B       		.uleb128 0xb
 5778 0158 27       		.uleb128 0x27
 5779 0159 19       		.uleb128 0x19
 5780 015a 11       		.uleb128 0x11
 5781 015b 01       		.uleb128 0x1
 5782 015c 12       		.uleb128 0x12
 5783 015d 06       		.uleb128 0x6
 5784 015e 40       		.uleb128 0x40
 5785 015f 18       		.uleb128 0x18
 5786 0160 9742     		.uleb128 0x2117
 5787 0162 19       		.uleb128 0x19
 5788 0163 01       		.uleb128 0x1
 5789 0164 13       		.uleb128 0x13
 5790 0165 00       		.byte	0
 5791 0166 00       		.byte	0
 5792 0167 1D       		.uleb128 0x1d
 5793 0168 05       		.uleb128 0x5
 5794 0169 00       		.byte	0
 5795 016a 03       		.uleb128 0x3
 5796 016b 0E       		.uleb128 0xe
 5797 016c 3A       		.uleb128 0x3a
 5798 016d 0B       		.uleb128 0xb
 5799 016e 3B       		.uleb128 0x3b
 5800 016f 0B       		.uleb128 0xb
 5801 0170 49       		.uleb128 0x49
 5802 0171 13       		.uleb128 0x13
 5803 0172 02       		.uleb128 0x2
 5804 0173 17       		.uleb128 0x17
 5805 0174 00       		.byte	0
 5806 0175 00       		.byte	0
 5807 0176 1E       		.uleb128 0x1e
 5808 0177 05       		.uleb128 0x5
 5809 0178 00       		.byte	0
 5810 0179 03       		.uleb128 0x3
 5811 017a 08       		.uleb128 0x8
 5812 017b 3A       		.uleb128 0x3a
 5813 017c 0B       		.uleb128 0xb
 5814 017d 3B       		.uleb128 0x3b
 5815 017e 0B       		.uleb128 0xb
 5816 017f 49       		.uleb128 0x49
 5817 0180 13       		.uleb128 0x13
 5818 0181 02       		.uleb128 0x2
 5819 0182 17       		.uleb128 0x17
 5820 0183 00       		.byte	0
 5821 0184 00       		.byte	0
 5822 0185 1F       		.uleb128 0x1f
 5823 0186 34       		.uleb128 0x34
 5824 0187 00       		.byte	0
 5825 0188 03       		.uleb128 0x3
 5826 0189 0E       		.uleb128 0xe
 5827 018a 3A       		.uleb128 0x3a
 5828 018b 0B       		.uleb128 0xb
 5829 018c 3B       		.uleb128 0x3b
 5830 018d 0B       		.uleb128 0xb
ARM GAS  C:\Users\RYANCA~1\AppData\Local\Temp\cclc5Gbi.s 			page 117


 5831 018e 49       		.uleb128 0x49
 5832 018f 13       		.uleb128 0x13
 5833 0190 02       		.uleb128 0x2
 5834 0191 17       		.uleb128 0x17
 5835 0192 00       		.byte	0
 5836 0193 00       		.byte	0
 5837 0194 20       		.uleb128 0x20
 5838 0195 0B       		.uleb128 0xb
 5839 0196 01       		.byte	0x1
 5840 0197 11       		.uleb128 0x11
 5841 0198 01       		.uleb128 0x1
 5842 0199 12       		.uleb128 0x12
 5843 019a 06       		.uleb128 0x6
 5844 019b 01       		.uleb128 0x1
 5845 019c 13       		.uleb128 0x13
 5846 019d 00       		.byte	0
 5847 019e 00       		.byte	0
 5848 019f 21       		.uleb128 0x21
 5849 01a0 34       		.uleb128 0x34
 5850 01a1 00       		.byte	0
 5851 01a2 03       		.uleb128 0x3
 5852 01a3 0E       		.uleb128 0xe
 5853 01a4 3A       		.uleb128 0x3a
 5854 01a5 0B       		.uleb128 0xb
 5855 01a6 3B       		.uleb128 0x3b
 5856 01a7 0B       		.uleb128 0xb
 5857 01a8 49       		.uleb128 0x49
 5858 01a9 13       		.uleb128 0x13
 5859 01aa 02       		.uleb128 0x2
 5860 01ab 18       		.uleb128 0x18
 5861 01ac 00       		.byte	0
 5862 01ad 00       		.byte	0
 5863 01ae 22       		.uleb128 0x22
 5864 01af 898201   		.uleb128 0x4109
 5865 01b2 00       		.byte	0
 5866 01b3 11       		.uleb128 0x11
 5867 01b4 01       		.uleb128 0x1
 5868 01b5 31       		.uleb128 0x31
 5869 01b6 13       		.uleb128 0x13
 5870 01b7 00       		.byte	0
 5871 01b8 00       		.byte	0
 5872 01b9 23       		.uleb128 0x23
 5873 01ba 34       		.uleb128 0x34
 5874 01bb 00       		.byte	0
 5875 01bc 03       		.uleb128 0x3
 5876 01bd 0E       		.uleb128 0xe
 5877 01be 3A       		.uleb128 0x3a
 5878 01bf 0B       		.uleb128 0xb
 5879 01c0 3B       		.uleb128 0x3b
 5880 01c1 0B       		.uleb128 0xb
 5881 01c2 49       		.uleb128 0x49
 5882 01c3 13       		.uleb128 0x13
 5883 01c4 1C       		.uleb128 0x1c
 5884 01c5 0B       		.uleb128 0xb
 5885 01c6 00       		.byte	0
 5886 01c7 00       		.byte	0
 5887 01c8 24       		.uleb128 0x24
ARM GAS  C:\Users\RYANCA~1\AppData\Local\Temp\cclc5Gbi.s 			page 118


 5888 01c9 34       		.uleb128 0x34
 5889 01ca 00       		.byte	0
 5890 01cb 03       		.uleb128 0x3
 5891 01cc 0E       		.uleb128 0xe
 5892 01cd 3A       		.uleb128 0x3a
 5893 01ce 0B       		.uleb128 0xb
 5894 01cf 3B       		.uleb128 0x3b
 5895 01d0 05       		.uleb128 0x5
 5896 01d1 49       		.uleb128 0x49
 5897 01d2 13       		.uleb128 0x13
 5898 01d3 02       		.uleb128 0x2
 5899 01d4 18       		.uleb128 0x18
 5900 01d5 00       		.byte	0
 5901 01d6 00       		.byte	0
 5902 01d7 25       		.uleb128 0x25
 5903 01d8 2E       		.uleb128 0x2e
 5904 01d9 01       		.byte	0x1
 5905 01da 3F       		.uleb128 0x3f
 5906 01db 19       		.uleb128 0x19
 5907 01dc 03       		.uleb128 0x3
 5908 01dd 0E       		.uleb128 0xe
 5909 01de 3A       		.uleb128 0x3a
 5910 01df 0B       		.uleb128 0xb
 5911 01e0 3B       		.uleb128 0x3b
 5912 01e1 05       		.uleb128 0x5
 5913 01e2 27       		.uleb128 0x27
 5914 01e3 19       		.uleb128 0x19
 5915 01e4 11       		.uleb128 0x11
 5916 01e5 01       		.uleb128 0x1
 5917 01e6 12       		.uleb128 0x12
 5918 01e7 06       		.uleb128 0x6
 5919 01e8 40       		.uleb128 0x40
 5920 01e9 18       		.uleb128 0x18
 5921 01ea 9742     		.uleb128 0x2117
 5922 01ec 19       		.uleb128 0x19
 5923 01ed 01       		.uleb128 0x1
 5924 01ee 13       		.uleb128 0x13
 5925 01ef 00       		.byte	0
 5926 01f0 00       		.byte	0
 5927 01f1 26       		.uleb128 0x26
 5928 01f2 05       		.uleb128 0x5
 5929 01f3 00       		.byte	0
 5930 01f4 03       		.uleb128 0x3
 5931 01f5 0E       		.uleb128 0xe
 5932 01f6 3A       		.uleb128 0x3a
 5933 01f7 0B       		.uleb128 0xb
 5934 01f8 3B       		.uleb128 0x3b
 5935 01f9 05       		.uleb128 0x5
 5936 01fa 49       		.uleb128 0x49
 5937 01fb 13       		.uleb128 0x13
 5938 01fc 02       		.uleb128 0x2
 5939 01fd 17       		.uleb128 0x17
 5940 01fe 00       		.byte	0
 5941 01ff 00       		.byte	0
 5942 0200 27       		.uleb128 0x27
 5943 0201 05       		.uleb128 0x5
 5944 0202 00       		.byte	0
ARM GAS  C:\Users\RYANCA~1\AppData\Local\Temp\cclc5Gbi.s 			page 119


 5945 0203 03       		.uleb128 0x3
 5946 0204 08       		.uleb128 0x8
 5947 0205 3A       		.uleb128 0x3a
 5948 0206 0B       		.uleb128 0xb
 5949 0207 3B       		.uleb128 0x3b
 5950 0208 05       		.uleb128 0x5
 5951 0209 49       		.uleb128 0x49
 5952 020a 13       		.uleb128 0x13
 5953 020b 02       		.uleb128 0x2
 5954 020c 17       		.uleb128 0x17
 5955 020d 00       		.byte	0
 5956 020e 00       		.byte	0
 5957 020f 28       		.uleb128 0x28
 5958 0210 34       		.uleb128 0x34
 5959 0211 00       		.byte	0
 5960 0212 03       		.uleb128 0x3
 5961 0213 0E       		.uleb128 0xe
 5962 0214 3A       		.uleb128 0x3a
 5963 0215 0B       		.uleb128 0xb
 5964 0216 3B       		.uleb128 0x3b
 5965 0217 05       		.uleb128 0x5
 5966 0218 49       		.uleb128 0x49
 5967 0219 13       		.uleb128 0x13
 5968 021a 02       		.uleb128 0x2
 5969 021b 17       		.uleb128 0x17
 5970 021c 00       		.byte	0
 5971 021d 00       		.byte	0
 5972 021e 29       		.uleb128 0x29
 5973 021f 34       		.uleb128 0x34
 5974 0220 00       		.byte	0
 5975 0221 03       		.uleb128 0x3
 5976 0222 0E       		.uleb128 0xe
 5977 0223 3A       		.uleb128 0x3a
 5978 0224 0B       		.uleb128 0xb
 5979 0225 3B       		.uleb128 0x3b
 5980 0226 05       		.uleb128 0x5
 5981 0227 49       		.uleb128 0x49
 5982 0228 13       		.uleb128 0x13
 5983 0229 1C       		.uleb128 0x1c
 5984 022a 0B       		.uleb128 0xb
 5985 022b 00       		.byte	0
 5986 022c 00       		.byte	0
 5987 022d 2A       		.uleb128 0x2a
 5988 022e 05       		.uleb128 0x5
 5989 022f 00       		.byte	0
 5990 0230 03       		.uleb128 0x3
 5991 0231 08       		.uleb128 0x8
 5992 0232 3A       		.uleb128 0x3a
 5993 0233 0B       		.uleb128 0xb
 5994 0234 3B       		.uleb128 0x3b
 5995 0235 05       		.uleb128 0x5
 5996 0236 49       		.uleb128 0x49
 5997 0237 13       		.uleb128 0x13
 5998 0238 02       		.uleb128 0x2
 5999 0239 18       		.uleb128 0x18
 6000 023a 00       		.byte	0
 6001 023b 00       		.byte	0
ARM GAS  C:\Users\RYANCA~1\AppData\Local\Temp\cclc5Gbi.s 			page 120


 6002 023c 2B       		.uleb128 0x2b
 6003 023d 05       		.uleb128 0x5
 6004 023e 00       		.byte	0
 6005 023f 03       		.uleb128 0x3
 6006 0240 0E       		.uleb128 0xe
 6007 0241 3A       		.uleb128 0x3a
 6008 0242 0B       		.uleb128 0xb
 6009 0243 3B       		.uleb128 0x3b
 6010 0244 05       		.uleb128 0x5
 6011 0245 49       		.uleb128 0x49
 6012 0246 13       		.uleb128 0x13
 6013 0247 02       		.uleb128 0x2
 6014 0248 18       		.uleb128 0x18
 6015 0249 00       		.byte	0
 6016 024a 00       		.byte	0
 6017 024b 2C       		.uleb128 0x2c
 6018 024c 34       		.uleb128 0x34
 6019 024d 00       		.byte	0
 6020 024e 03       		.uleb128 0x3
 6021 024f 0E       		.uleb128 0xe
 6022 0250 3A       		.uleb128 0x3a
 6023 0251 0B       		.uleb128 0xb
 6024 0252 3B       		.uleb128 0x3b
 6025 0253 05       		.uleb128 0x5
 6026 0254 49       		.uleb128 0x49
 6027 0255 13       		.uleb128 0x13
 6028 0256 3F       		.uleb128 0x3f
 6029 0257 19       		.uleb128 0x19
 6030 0258 3C       		.uleb128 0x3c
 6031 0259 19       		.uleb128 0x19
 6032 025a 00       		.byte	0
 6033 025b 00       		.byte	0
 6034 025c 2D       		.uleb128 0x2d
 6035 025d 35       		.uleb128 0x35
 6036 025e 00       		.byte	0
 6037 025f 49       		.uleb128 0x49
 6038 0260 13       		.uleb128 0x13
 6039 0261 00       		.byte	0
 6040 0262 00       		.byte	0
 6041 0263 2E       		.uleb128 0x2e
 6042 0264 34       		.uleb128 0x34
 6043 0265 00       		.byte	0
 6044 0266 03       		.uleb128 0x3
 6045 0267 0E       		.uleb128 0xe
 6046 0268 3A       		.uleb128 0x3a
 6047 0269 0B       		.uleb128 0xb
 6048 026a 3B       		.uleb128 0x3b
 6049 026b 0B       		.uleb128 0xb
 6050 026c 49       		.uleb128 0x49
 6051 026d 13       		.uleb128 0x13
 6052 026e 3F       		.uleb128 0x3f
 6053 026f 19       		.uleb128 0x19
 6054 0270 3C       		.uleb128 0x3c
 6055 0271 19       		.uleb128 0x19
 6056 0272 00       		.byte	0
 6057 0273 00       		.byte	0
 6058 0274 2F       		.uleb128 0x2f
ARM GAS  C:\Users\RYANCA~1\AppData\Local\Temp\cclc5Gbi.s 			page 121


 6059 0275 34       		.uleb128 0x34
 6060 0276 00       		.byte	0
 6061 0277 03       		.uleb128 0x3
 6062 0278 0E       		.uleb128 0xe
 6063 0279 3A       		.uleb128 0x3a
 6064 027a 0B       		.uleb128 0xb
 6065 027b 3B       		.uleb128 0x3b
 6066 027c 0B       		.uleb128 0xb
 6067 027d 49       		.uleb128 0x49
 6068 027e 13       		.uleb128 0x13
 6069 027f 3F       		.uleb128 0x3f
 6070 0280 19       		.uleb128 0x19
 6071 0281 02       		.uleb128 0x2
 6072 0282 18       		.uleb128 0x18
 6073 0283 00       		.byte	0
 6074 0284 00       		.byte	0
 6075 0285 30       		.uleb128 0x30
 6076 0286 2E       		.uleb128 0x2e
 6077 0287 00       		.byte	0
 6078 0288 3F       		.uleb128 0x3f
 6079 0289 19       		.uleb128 0x19
 6080 028a 3C       		.uleb128 0x3c
 6081 028b 19       		.uleb128 0x19
 6082 028c 6E       		.uleb128 0x6e
 6083 028d 0E       		.uleb128 0xe
 6084 028e 03       		.uleb128 0x3
 6085 028f 0E       		.uleb128 0xe
 6086 0290 3A       		.uleb128 0x3a
 6087 0291 0B       		.uleb128 0xb
 6088 0292 3B       		.uleb128 0x3b
 6089 0293 05       		.uleb128 0x5
 6090 0294 00       		.byte	0
 6091 0295 00       		.byte	0
 6092 0296 31       		.uleb128 0x31
 6093 0297 2E       		.uleb128 0x2e
 6094 0298 00       		.byte	0
 6095 0299 3F       		.uleb128 0x3f
 6096 029a 19       		.uleb128 0x19
 6097 029b 3C       		.uleb128 0x3c
 6098 029c 19       		.uleb128 0x19
 6099 029d 6E       		.uleb128 0x6e
 6100 029e 0E       		.uleb128 0xe
 6101 029f 03       		.uleb128 0x3
 6102 02a0 0E       		.uleb128 0xe
 6103 02a1 3A       		.uleb128 0x3a
 6104 02a2 0B       		.uleb128 0xb
 6105 02a3 3B       		.uleb128 0x3b
 6106 02a4 0B       		.uleb128 0xb
 6107 02a5 00       		.byte	0
 6108 02a6 00       		.byte	0
 6109 02a7 00       		.byte	0
 6110              		.section	.debug_loc,"",%progbits
 6111              	.Ldebug_loc0:
 6112              	.LLST0:
 6113 0000 00000000 		.4byte	.LVL17
 6114 0004 58000000 		.4byte	.LVL30
 6115 0008 0100     		.2byte	0x1
ARM GAS  C:\Users\RYANCA~1\AppData\Local\Temp\cclc5Gbi.s 			page 122


 6116 000a 50       		.byte	0x50
 6117 000b 58000000 		.4byte	.LVL30
 6118 000f 70010000 		.4byte	.LFE67
 6119 0013 0400     		.2byte	0x4
 6120 0015 F3       		.byte	0xf3
 6121 0016 01       		.uleb128 0x1
 6122 0017 50       		.byte	0x50
 6123 0018 9F       		.byte	0x9f
 6124 0019 00000000 		.4byte	0
 6125 001d 00000000 		.4byte	0
 6126              	.LLST1:
 6127 0021 00000000 		.4byte	.LVL17
 6128 0025 28000000 		.4byte	.LVL21
 6129 0029 0100     		.2byte	0x1
 6130 002b 51       		.byte	0x51
 6131 002c 28000000 		.4byte	.LVL21
 6132 0030 2A000000 		.4byte	.LVL22
 6133 0034 0400     		.2byte	0x4
 6134 0036 F3       		.byte	0xf3
 6135 0037 01       		.uleb128 0x1
 6136 0038 51       		.byte	0x51
 6137 0039 9F       		.byte	0x9f
 6138 003a 2A000000 		.4byte	.LVL22
 6139 003e 2C000000 		.4byte	.LVL23
 6140 0042 0100     		.2byte	0x1
 6141 0044 51       		.byte	0x51
 6142 0045 2C000000 		.4byte	.LVL23
 6143 0049 2E000000 		.4byte	.LVL24
 6144 004d 0400     		.2byte	0x4
 6145 004f F3       		.byte	0xf3
 6146 0050 01       		.uleb128 0x1
 6147 0051 51       		.byte	0x51
 6148 0052 9F       		.byte	0x9f
 6149 0053 2E000000 		.4byte	.LVL24
 6150 0057 30000000 		.4byte	.LVL25
 6151 005b 0100     		.2byte	0x1
 6152 005d 51       		.byte	0x51
 6153 005e 30000000 		.4byte	.LVL25
 6154 0062 70010000 		.4byte	.LFE67
 6155 0066 0400     		.2byte	0x4
 6156 0068 F3       		.byte	0xf3
 6157 0069 01       		.uleb128 0x1
 6158 006a 51       		.byte	0x51
 6159 006b 9F       		.byte	0x9f
 6160 006c 00000000 		.4byte	0
 6161 0070 00000000 		.4byte	0
 6162              	.LLST2:
 6163 0074 00000000 		.4byte	.LVL17
 6164 0078 1A000000 		.4byte	.LVL19
 6165 007c 0100     		.2byte	0x1
 6166 007e 52       		.byte	0x52
 6167 007f 1A000000 		.4byte	.LVL19
 6168 0083 70010000 		.4byte	.LFE67
 6169 0087 0400     		.2byte	0x4
 6170 0089 F3       		.byte	0xf3
 6171 008a 01       		.uleb128 0x1
 6172 008b 52       		.byte	0x52
ARM GAS  C:\Users\RYANCA~1\AppData\Local\Temp\cclc5Gbi.s 			page 123


 6173 008c 9F       		.byte	0x9f
 6174 008d 00000000 		.4byte	0
 6175 0091 00000000 		.4byte	0
 6176              	.LLST3:
 6177 0095 00000000 		.4byte	.LVL17
 6178 0099 16000000 		.4byte	.LVL18
 6179 009d 0100     		.2byte	0x1
 6180 009f 53       		.byte	0x53
 6181 00a0 16000000 		.4byte	.LVL18
 6182 00a4 70010000 		.4byte	.LFE67
 6183 00a8 0400     		.2byte	0x4
 6184 00aa F3       		.byte	0xf3
 6185 00ab 01       		.uleb128 0x1
 6186 00ac 53       		.byte	0x53
 6187 00ad 9F       		.byte	0x9f
 6188 00ae 00000000 		.4byte	0
 6189 00b2 00000000 		.4byte	0
 6190              	.LLST4:
 6191 00b6 00000000 		.4byte	.LVL17
 6192 00ba 52010000 		.4byte	.LVL46
 6193 00be 0200     		.2byte	0x2
 6194 00c0 91       		.byte	0x91
 6195 00c1 00       		.sleb128 0
 6196 00c2 52010000 		.4byte	.LVL46
 6197 00c6 70010000 		.4byte	.LFE67
 6198 00ca 0200     		.2byte	0x2
 6199 00cc 7D       		.byte	0x7d
 6200 00cd 00       		.sleb128 0
 6201 00ce 00000000 		.4byte	0
 6202 00d2 00000000 		.4byte	0
 6203              	.LLST5:
 6204 00d6 00000000 		.4byte	.LVL17
 6205 00da 52010000 		.4byte	.LVL46
 6206 00de 0200     		.2byte	0x2
 6207 00e0 91       		.byte	0x91
 6208 00e1 04       		.sleb128 4
 6209 00e2 52010000 		.4byte	.LVL46
 6210 00e6 70010000 		.4byte	.LFE67
 6211 00ea 0200     		.2byte	0x2
 6212 00ec 7D       		.byte	0x7d
 6213 00ed 04       		.sleb128 4
 6214 00ee 00000000 		.4byte	0
 6215 00f2 00000000 		.4byte	0
 6216              	.LLST6:
 6217 00f6 30000000 		.4byte	.LVL25
 6218 00fa 4A000000 		.4byte	.LVL28
 6219 00fe 0100     		.2byte	0x1
 6220 0100 51       		.byte	0x51
 6221 0101 00000000 		.4byte	0
 6222 0105 00000000 		.4byte	0
 6223              	.LLST7:
 6224 0109 3E000000 		.4byte	.LVL27
 6225 010d 52010000 		.4byte	.LVL46
 6226 0111 0100     		.2byte	0x1
 6227 0113 54       		.byte	0x54
 6228 0114 00000000 		.4byte	0
 6229 0118 00000000 		.4byte	0
ARM GAS  C:\Users\RYANCA~1\AppData\Local\Temp\cclc5Gbi.s 			page 124


 6230              	.LLST8:
 6231 011c 52000000 		.4byte	.LVL29
 6232 0120 52010000 		.4byte	.LVL46
 6233 0124 0100     		.2byte	0x1
 6234 0126 5A       		.byte	0x5a
 6235 0127 00000000 		.4byte	0
 6236 012b 00000000 		.4byte	0
 6237              	.LLST9:
 6238 012f 1E000000 		.4byte	.LVL20
 6239 0133 38000000 		.4byte	.LVL26
 6240 0137 0100     		.2byte	0x1
 6241 0139 54       		.byte	0x54
 6242 013a 38000000 		.4byte	.LVL26
 6243 013e 5B000000 		.4byte	.LVL31-1
 6244 0142 0C00     		.2byte	0xc
 6245 0144 73       		.byte	0x73
 6246 0145 00       		.sleb128 0
 6247 0146 32       		.byte	0x32
 6248 0147 24       		.byte	0x24
 6249 0148 73       		.byte	0x73
 6250 0149 00       		.sleb128 0
 6251 014a 22       		.byte	0x22
 6252 014b 32       		.byte	0x32
 6253 014c 24       		.byte	0x24
 6254 014d 23       		.byte	0x23
 6255 014e 0C       		.uleb128 0xc
 6256 014f 9F       		.byte	0x9f
 6257 0150 5B000000 		.4byte	.LVL31-1
 6258 0154 52010000 		.4byte	.LVL46
 6259 0158 0E00     		.2byte	0xe
 6260 015a 91       		.byte	0x91
 6261 015b 04       		.sleb128 4
 6262 015c 94       		.byte	0x94
 6263 015d 01       		.byte	0x1
 6264 015e 08       		.byte	0x8
 6265 015f FF       		.byte	0xff
 6266 0160 1A       		.byte	0x1a
 6267 0161 35       		.byte	0x35
 6268 0162 1E       		.byte	0x1e
 6269 0163 32       		.byte	0x32
 6270 0164 24       		.byte	0x24
 6271 0165 23       		.byte	0x23
 6272 0166 0C       		.uleb128 0xc
 6273 0167 9F       		.byte	0x9f
 6274 0168 52010000 		.4byte	.LVL46
 6275 016c 70010000 		.4byte	.LFE67
 6276 0170 0E00     		.2byte	0xe
 6277 0172 7D       		.byte	0x7d
 6278 0173 04       		.sleb128 4
 6279 0174 94       		.byte	0x94
 6280 0175 01       		.byte	0x1
 6281 0176 08       		.byte	0x8
 6282 0177 FF       		.byte	0xff
 6283 0178 1A       		.byte	0x1a
 6284 0179 35       		.byte	0x35
 6285 017a 1E       		.byte	0x1e
 6286 017b 32       		.byte	0x32
ARM GAS  C:\Users\RYANCA~1\AppData\Local\Temp\cclc5Gbi.s 			page 125


 6287 017c 24       		.byte	0x24
 6288 017d 23       		.byte	0x23
 6289 017e 0C       		.uleb128 0xc
 6290 017f 9F       		.byte	0x9f
 6291 0180 00000000 		.4byte	0
 6292 0184 00000000 		.4byte	0
 6293              	.LLST10:
 6294 0188 60000000 		.4byte	.LVL32
 6295 018c 96000000 		.4byte	.LVL35
 6296 0190 0400     		.2byte	0x4
 6297 0192 0A       		.byte	0xa
 6298 0193 00FF     		.2byte	0xff00
 6299 0195 9F       		.byte	0x9f
 6300 0196 C2000000 		.4byte	.LVL37
 6301 019a FA000000 		.4byte	.LVL40
 6302 019e 0100     		.2byte	0x1
 6303 01a0 55       		.byte	0x55
 6304 01a1 06010000 		.4byte	.LVL41
 6305 01a5 46010000 		.4byte	.LVL44
 6306 01a9 0500     		.2byte	0x5
 6307 01ab 08       		.byte	0x8
 6308 01ac FF       		.byte	0xff
 6309 01ad 40       		.byte	0x40
 6310 01ae 24       		.byte	0x24
 6311 01af 9F       		.byte	0x9f
 6312 01b0 00000000 		.4byte	0
 6313 01b4 00000000 		.4byte	0
 6314              	.LLST11:
 6315 01b8 00000000 		.4byte	.LVL47
 6316 01bc 44000000 		.4byte	.LVL55
 6317 01c0 0100     		.2byte	0x1
 6318 01c2 50       		.byte	0x50
 6319 01c3 44000000 		.4byte	.LVL55
 6320 01c7 F4000000 		.4byte	.LFE68
 6321 01cb 0400     		.2byte	0x4
 6322 01cd F3       		.byte	0xf3
 6323 01ce 01       		.uleb128 0x1
 6324 01cf 50       		.byte	0x50
 6325 01d0 9F       		.byte	0x9f
 6326 01d1 00000000 		.4byte	0
 6327 01d5 00000000 		.4byte	0
 6328              	.LLST12:
 6329 01d9 00000000 		.4byte	.LVL47
 6330 01dd 1A000000 		.4byte	.LVL49
 6331 01e1 0100     		.2byte	0x1
 6332 01e3 51       		.byte	0x51
 6333 01e4 1A000000 		.4byte	.LVL49
 6334 01e8 F4000000 		.4byte	.LFE68
 6335 01ec 0400     		.2byte	0x4
 6336 01ee F3       		.byte	0xf3
 6337 01ef 01       		.uleb128 0x1
 6338 01f0 51       		.byte	0x51
 6339 01f1 9F       		.byte	0x9f
 6340 01f2 00000000 		.4byte	0
 6341 01f6 00000000 		.4byte	0
 6342              	.LLST13:
 6343 01fa 00000000 		.4byte	.LVL47
ARM GAS  C:\Users\RYANCA~1\AppData\Local\Temp\cclc5Gbi.s 			page 126


 6344 01fe 16000000 		.4byte	.LVL48
 6345 0202 0100     		.2byte	0x1
 6346 0204 52       		.byte	0x52
 6347 0205 16000000 		.4byte	.LVL48
 6348 0209 F4000000 		.4byte	.LFE68
 6349 020d 0400     		.2byte	0x4
 6350 020f F3       		.byte	0xf3
 6351 0210 01       		.uleb128 0x1
 6352 0211 52       		.byte	0x52
 6353 0212 9F       		.byte	0x9f
 6354 0213 00000000 		.4byte	0
 6355 0217 00000000 		.4byte	0
 6356              	.LLST14:
 6357 021b 00000000 		.4byte	.LVL47
 6358 021f 1C000000 		.4byte	.LVL50
 6359 0223 0100     		.2byte	0x1
 6360 0225 53       		.byte	0x53
 6361 0226 1C000000 		.4byte	.LVL50
 6362 022a F4000000 		.4byte	.LFE68
 6363 022e 0400     		.2byte	0x4
 6364 0230 F3       		.byte	0xf3
 6365 0231 01       		.uleb128 0x1
 6366 0232 53       		.byte	0x53
 6367 0233 9F       		.byte	0x9f
 6368 0234 00000000 		.4byte	0
 6369 0238 00000000 		.4byte	0
 6370              	.LLST15:
 6371 023c 00000000 		.4byte	.LVL47
 6372 0240 DC000000 		.4byte	.LVL66
 6373 0244 0200     		.2byte	0x2
 6374 0246 91       		.byte	0x91
 6375 0247 00       		.sleb128 0
 6376 0248 DC000000 		.4byte	.LVL66
 6377 024c F4000000 		.4byte	.LFE68
 6378 0250 0200     		.2byte	0x2
 6379 0252 7D       		.byte	0x7d
 6380 0253 00       		.sleb128 0
 6381 0254 00000000 		.4byte	0
 6382 0258 00000000 		.4byte	0
 6383              	.LLST16:
 6384 025c 00000000 		.4byte	.LVL47
 6385 0260 DC000000 		.4byte	.LVL66
 6386 0264 0200     		.2byte	0x2
 6387 0266 91       		.byte	0x91
 6388 0267 04       		.sleb128 4
 6389 0268 DC000000 		.4byte	.LVL66
 6390 026c F4000000 		.4byte	.LFE68
 6391 0270 0200     		.2byte	0x2
 6392 0272 7D       		.byte	0x7d
 6393 0273 04       		.sleb128 4
 6394 0274 00000000 		.4byte	0
 6395 0278 00000000 		.4byte	0
 6396              	.LLST17:
 6397 027c 2C000000 		.4byte	.LVL53
 6398 0280 DC000000 		.4byte	.LVL66
 6399 0284 0100     		.2byte	0x1
 6400 0286 54       		.byte	0x54
ARM GAS  C:\Users\RYANCA~1\AppData\Local\Temp\cclc5Gbi.s 			page 127


 6401 0287 00000000 		.4byte	0
 6402 028b 00000000 		.4byte	0
 6403              	.LLST18:
 6404 028f 3E000000 		.4byte	.LVL54
 6405 0293 DC000000 		.4byte	.LVL66
 6406 0297 0100     		.2byte	0x1
 6407 0299 55       		.byte	0x55
 6408 029a 00000000 		.4byte	0
 6409 029e 00000000 		.4byte	0
 6410              	.LLST19:
 6411 02a2 1E000000 		.4byte	.LVL51
 6412 02a6 26000000 		.4byte	.LVL52
 6413 02aa 0100     		.2byte	0x1
 6414 02ac 53       		.byte	0x53
 6415 02ad 26000000 		.4byte	.LVL52
 6416 02b1 47000000 		.4byte	.LVL56-1
 6417 02b5 0700     		.2byte	0x7
 6418 02b7 71       		.byte	0x71
 6419 02b8 00       		.sleb128 0
 6420 02b9 32       		.byte	0x32
 6421 02ba 24       		.byte	0x24
 6422 02bb 23       		.byte	0x23
 6423 02bc 0C       		.uleb128 0xc
 6424 02bd 9F       		.byte	0x9f
 6425 02be 47000000 		.4byte	.LVL56-1
 6426 02c2 DC000000 		.4byte	.LVL66
 6427 02c6 0E00     		.2byte	0xe
 6428 02c8 91       		.byte	0x91
 6429 02c9 04       		.sleb128 4
 6430 02ca 94       		.byte	0x94
 6431 02cb 01       		.byte	0x1
 6432 02cc 08       		.byte	0x8
 6433 02cd FF       		.byte	0xff
 6434 02ce 1A       		.byte	0x1a
 6435 02cf 35       		.byte	0x35
 6436 02d0 1E       		.byte	0x1e
 6437 02d1 32       		.byte	0x32
 6438 02d2 24       		.byte	0x24
 6439 02d3 23       		.byte	0x23
 6440 02d4 0C       		.uleb128 0xc
 6441 02d5 9F       		.byte	0x9f
 6442 02d6 DC000000 		.4byte	.LVL66
 6443 02da F4000000 		.4byte	.LFE68
 6444 02de 0E00     		.2byte	0xe
 6445 02e0 7D       		.byte	0x7d
 6446 02e1 04       		.sleb128 4
 6447 02e2 94       		.byte	0x94
 6448 02e3 01       		.byte	0x1
 6449 02e4 08       		.byte	0x8
 6450 02e5 FF       		.byte	0xff
 6451 02e6 1A       		.byte	0x1a
 6452 02e7 35       		.byte	0x35
 6453 02e8 1E       		.byte	0x1e
 6454 02e9 32       		.byte	0x32
 6455 02ea 24       		.byte	0x24
 6456 02eb 23       		.byte	0x23
 6457 02ec 0C       		.uleb128 0xc
ARM GAS  C:\Users\RYANCA~1\AppData\Local\Temp\cclc5Gbi.s 			page 128


 6458 02ed 9F       		.byte	0x9f
 6459 02ee 00000000 		.4byte	0
 6460 02f2 00000000 		.4byte	0
 6461              	.LLST20:
 6462 02f6 54000000 		.4byte	.LVL57
 6463 02fa 88000000 		.4byte	.LVL60
 6464 02fe 0500     		.2byte	0x5
 6465 0300 08       		.byte	0x8
 6466 0301 FF       		.byte	0xff
 6467 0302 40       		.byte	0x40
 6468 0303 24       		.byte	0x24
 6469 0304 9F       		.byte	0x9f
 6470 0305 94000000 		.4byte	.LVL61
 6471 0309 DC000000 		.4byte	.LVL66
 6472 030d 0100     		.2byte	0x1
 6473 030f 56       		.byte	0x56
 6474 0310 00000000 		.4byte	0
 6475 0314 00000000 		.4byte	0
 6476              	.LLST21:
 6477 0318 00000000 		.4byte	.LVL67
 6478 031c 48000000 		.4byte	.LVL76
 6479 0320 0100     		.2byte	0x1
 6480 0322 50       		.byte	0x50
 6481 0323 48000000 		.4byte	.LVL76
 6482 0327 FC020000 		.4byte	.LFE69
 6483 032b 0400     		.2byte	0x4
 6484 032d F3       		.byte	0xf3
 6485 032e 01       		.uleb128 0x1
 6486 032f 50       		.byte	0x50
 6487 0330 9F       		.byte	0x9f
 6488 0331 00000000 		.4byte	0
 6489 0335 00000000 		.4byte	0
 6490              	.LLST22:
 6491 0339 00000000 		.4byte	.LVL67
 6492 033d 1A000000 		.4byte	.LVL69
 6493 0341 0100     		.2byte	0x1
 6494 0343 51       		.byte	0x51
 6495 0344 1A000000 		.4byte	.LVL69
 6496 0348 FC020000 		.4byte	.LFE69
 6497 034c 0400     		.2byte	0x4
 6498 034e F3       		.byte	0xf3
 6499 034f 01       		.uleb128 0x1
 6500 0350 51       		.byte	0x51
 6501 0351 9F       		.byte	0x9f
 6502 0352 00000000 		.4byte	0
 6503 0356 00000000 		.4byte	0
 6504              	.LLST23:
 6505 035a 00000000 		.4byte	.LVL67
 6506 035e 16000000 		.4byte	.LVL68
 6507 0362 0100     		.2byte	0x1
 6508 0364 52       		.byte	0x52
 6509 0365 16000000 		.4byte	.LVL68
 6510 0369 FC020000 		.4byte	.LFE69
 6511 036d 0400     		.2byte	0x4
 6512 036f F3       		.byte	0xf3
 6513 0370 01       		.uleb128 0x1
 6514 0371 52       		.byte	0x52
ARM GAS  C:\Users\RYANCA~1\AppData\Local\Temp\cclc5Gbi.s 			page 129


 6515 0372 9F       		.byte	0x9f
 6516 0373 00000000 		.4byte	0
 6517 0377 00000000 		.4byte	0
 6518              	.LLST24:
 6519 037b 00000000 		.4byte	.LVL67
 6520 037f 1C000000 		.4byte	.LVL70
 6521 0383 0100     		.2byte	0x1
 6522 0385 53       		.byte	0x53
 6523 0386 1C000000 		.4byte	.LVL70
 6524 038a FC020000 		.4byte	.LFE69
 6525 038e 0400     		.2byte	0x4
 6526 0390 F3       		.byte	0xf3
 6527 0391 01       		.uleb128 0x1
 6528 0392 53       		.byte	0x53
 6529 0393 9F       		.byte	0x9f
 6530 0394 00000000 		.4byte	0
 6531 0398 00000000 		.4byte	0
 6532              	.LLST25:
 6533 039c 00000000 		.4byte	.LVL67
 6534 03a0 BC020000 		.4byte	.LVL118
 6535 03a4 0200     		.2byte	0x2
 6536 03a6 91       		.byte	0x91
 6537 03a7 00       		.sleb128 0
 6538 03a8 BC020000 		.4byte	.LVL118
 6539 03ac FC020000 		.4byte	.LFE69
 6540 03b0 0200     		.2byte	0x2
 6541 03b2 7D       		.byte	0x7d
 6542 03b3 00       		.sleb128 0
 6543 03b4 00000000 		.4byte	0
 6544 03b8 00000000 		.4byte	0
 6545              	.LLST26:
 6546 03bc 00000000 		.4byte	.LVL67
 6547 03c0 BC020000 		.4byte	.LVL118
 6548 03c4 0200     		.2byte	0x2
 6549 03c6 91       		.byte	0x91
 6550 03c7 04       		.sleb128 4
 6551 03c8 BC020000 		.4byte	.LVL118
 6552 03cc FC020000 		.4byte	.LFE69
 6553 03d0 0200     		.2byte	0x2
 6554 03d2 7D       		.byte	0x7d
 6555 03d3 04       		.sleb128 4
 6556 03d4 00000000 		.4byte	0
 6557 03d8 00000000 		.4byte	0
 6558              	.LLST27:
 6559 03dc 2E000000 		.4byte	.LVL74
 6560 03e0 BC020000 		.4byte	.LVL118
 6561 03e4 0100     		.2byte	0x1
 6562 03e6 59       		.byte	0x59
 6563 03e7 00000000 		.4byte	0
 6564 03eb 00000000 		.4byte	0
 6565              	.LLST28:
 6566 03ef 42000000 		.4byte	.LVL75
 6567 03f3 BC020000 		.4byte	.LVL118
 6568 03f7 0100     		.2byte	0x1
 6569 03f9 5A       		.byte	0x5a
 6570 03fa 00000000 		.4byte	0
 6571 03fe 00000000 		.4byte	0
ARM GAS  C:\Users\RYANCA~1\AppData\Local\Temp\cclc5Gbi.s 			page 130


 6572              	.LLST29:
 6573 0402 1E000000 		.4byte	.LVL71
 6574 0406 26000000 		.4byte	.LVL72
 6575 040a 0100     		.2byte	0x1
 6576 040c 53       		.byte	0x53
 6577 040d 26000000 		.4byte	.LVL72
 6578 0411 28000000 		.4byte	.LVL73
 6579 0415 0700     		.2byte	0x7
 6580 0417 71       		.byte	0x71
 6581 0418 00       		.sleb128 0
 6582 0419 32       		.byte	0x32
 6583 041a 24       		.byte	0x24
 6584 041b 23       		.byte	0x23
 6585 041c 0C       		.uleb128 0xc
 6586 041d 9F       		.byte	0x9f
 6587 041e 28000000 		.4byte	.LVL73
 6588 0422 4B000000 		.4byte	.LVL77-1
 6589 0426 0C00     		.2byte	0xc
 6590 0428 72       		.byte	0x72
 6591 0429 00       		.sleb128 0
 6592 042a 32       		.byte	0x32
 6593 042b 24       		.byte	0x24
 6594 042c 72       		.byte	0x72
 6595 042d 00       		.sleb128 0
 6596 042e 22       		.byte	0x22
 6597 042f 32       		.byte	0x32
 6598 0430 24       		.byte	0x24
 6599 0431 23       		.byte	0x23
 6600 0432 0C       		.uleb128 0xc
 6601 0433 9F       		.byte	0x9f
 6602 0434 4B000000 		.4byte	.LVL77-1
 6603 0438 BC020000 		.4byte	.LVL118
 6604 043c 0E00     		.2byte	0xe
 6605 043e 91       		.byte	0x91
 6606 043f 04       		.sleb128 4
 6607 0440 94       		.byte	0x94
 6608 0441 01       		.byte	0x1
 6609 0442 08       		.byte	0x8
 6610 0443 FF       		.byte	0xff
 6611 0444 1A       		.byte	0x1a
 6612 0445 35       		.byte	0x35
 6613 0446 1E       		.byte	0x1e
 6614 0447 32       		.byte	0x32
 6615 0448 24       		.byte	0x24
 6616 0449 23       		.byte	0x23
 6617 044a 0C       		.uleb128 0xc
 6618 044b 9F       		.byte	0x9f
 6619 044c BC020000 		.4byte	.LVL118
 6620 0450 FC020000 		.4byte	.LFE69
 6621 0454 0E00     		.2byte	0xe
 6622 0456 7D       		.byte	0x7d
 6623 0457 04       		.sleb128 4
 6624 0458 94       		.byte	0x94
 6625 0459 01       		.byte	0x1
 6626 045a 08       		.byte	0x8
 6627 045b FF       		.byte	0xff
 6628 045c 1A       		.byte	0x1a
ARM GAS  C:\Users\RYANCA~1\AppData\Local\Temp\cclc5Gbi.s 			page 131


 6629 045d 35       		.byte	0x35
 6630 045e 1E       		.byte	0x1e
 6631 045f 32       		.byte	0x32
 6632 0460 24       		.byte	0x24
 6633 0461 23       		.byte	0x23
 6634 0462 0C       		.uleb128 0xc
 6635 0463 9F       		.byte	0x9f
 6636 0464 00000000 		.4byte	0
 6637 0468 00000000 		.4byte	0
 6638              	.LLST30:
 6639 046c 6A000000 		.4byte	.LVL79
 6640 0470 9E000000 		.4byte	.LVL83
 6641 0474 0600     		.2byte	0x6
 6642 0476 0C       		.byte	0xc
 6643 0477 00FFFF00 		.4byte	0xffff00
 6644 047b 9F       		.byte	0x9f
 6645 047c 9E000000 		.4byte	.LVL83
 6646 0480 B6010000 		.4byte	.LVL103
 6647 0484 0500     		.2byte	0x5
 6648 0486 08       		.byte	0x8
 6649 0487 FF       		.byte	0xff
 6650 0488 40       		.byte	0x40
 6651 0489 24       		.byte	0x24
 6652 048a 9F       		.byte	0x9f
 6653 048b B6010000 		.4byte	.LVL103
 6654 048f EA010000 		.4byte	.LVL107
 6655 0493 0600     		.2byte	0x6
 6656 0495 0C       		.byte	0xc
 6657 0496 00FFFF00 		.4byte	0xffff00
 6658 049a 9F       		.byte	0x9f
 6659 049b EA010000 		.4byte	.LVL107
 6660 049f 22020000 		.4byte	.LVL111
 6661 04a3 0500     		.2byte	0x5
 6662 04a5 08       		.byte	0x8
 6663 04a6 FF       		.byte	0xff
 6664 04a7 40       		.byte	0x40
 6665 04a8 24       		.byte	0x24
 6666 04a9 9F       		.byte	0x9f
 6667 04aa 22020000 		.4byte	.LVL111
 6668 04ae B0020000 		.4byte	.LVL116
 6669 04b2 0400     		.2byte	0x4
 6670 04b4 0A       		.byte	0xa
 6671 04b5 00FF     		.2byte	0xff00
 6672 04b7 9F       		.byte	0x9f
 6673 04b8 00000000 		.4byte	0
 6674 04bc 00000000 		.4byte	0
 6675              	.LLST31:
 6676 04c0 58000000 		.4byte	.LVL78
 6677 04c4 76000000 		.4byte	.LVL80
 6678 04c8 0100     		.2byte	0x1
 6679 04ca 54       		.byte	0x54
 6680 04cb 9E000000 		.4byte	.LVL83
 6681 04cf AC000000 		.4byte	.LVL84
 6682 04d3 0100     		.2byte	0x1
 6683 04d5 54       		.byte	0x54
 6684 04d6 D6000000 		.4byte	.LVL87
 6685 04da E4000000 		.4byte	.LVL88
ARM GAS  C:\Users\RYANCA~1\AppData\Local\Temp\cclc5Gbi.s 			page 132


 6686 04de 0100     		.2byte	0x1
 6687 04e0 54       		.byte	0x54
 6688 04e1 0E010000 		.4byte	.LVL91
 6689 04e5 1C010000 		.4byte	.LVL92
 6690 04e9 0100     		.2byte	0x1
 6691 04eb 54       		.byte	0x54
 6692 04ec 46010000 		.4byte	.LVL95
 6693 04f0 54010000 		.4byte	.LVL96
 6694 04f4 0100     		.2byte	0x1
 6695 04f6 54       		.byte	0x54
 6696 04f7 7E010000 		.4byte	.LVL99
 6697 04fb 8C010000 		.4byte	.LVL100
 6698 04ff 0100     		.2byte	0x1
 6699 0501 54       		.byte	0x54
 6700 0502 B6010000 		.4byte	.LVL103
 6701 0506 C2010000 		.4byte	.LVL104
 6702 050a 0100     		.2byte	0x1
 6703 050c 54       		.byte	0x54
 6704 050d EA010000 		.4byte	.LVL107
 6705 0511 F8010000 		.4byte	.LVL108
 6706 0515 0100     		.2byte	0x1
 6707 0517 54       		.byte	0x54
 6708 0518 00000000 		.4byte	0
 6709 051c 00000000 		.4byte	0
 6710              	.LLST32:
 6711 0520 00000000 		.4byte	.LVL119
 6712 0524 4A000000 		.4byte	.LVL129
 6713 0528 0100     		.2byte	0x1
 6714 052a 50       		.byte	0x50
 6715 052b 4A000000 		.4byte	.LVL129
 6716 052f 66000000 		.4byte	.LVL133
 6717 0533 0100     		.2byte	0x1
 6718 0535 54       		.byte	0x54
 6719 0536 66000000 		.4byte	.LVL133
 6720 053a 68000000 		.4byte	.LVL134
 6721 053e 0800     		.2byte	0x8
 6722 0540 F3       		.byte	0xf3
 6723 0541 01       		.uleb128 0x1
 6724 0542 50       		.byte	0x50
 6725 0543 0A       		.byte	0xa
 6726 0544 5B03     		.2byte	0x35b
 6727 0546 1E       		.byte	0x1e
 6728 0547 9F       		.byte	0x9f
 6729 0548 68000000 		.4byte	.LVL134
 6730 054c 16010000 		.4byte	.LVL147
 6731 0550 0100     		.2byte	0x1
 6732 0552 54       		.byte	0x54
 6733 0553 16010000 		.4byte	.LVL147
 6734 0557 38010000 		.4byte	.LFE70
 6735 055b 1F00     		.2byte	0x1f
 6736 055d F3       		.byte	0xf3
 6737 055e 01       		.uleb128 0x1
 6738 055f 50       		.byte	0x50
 6739 0560 0A       		.byte	0xa
 6740 0561 5B03     		.2byte	0x35b
 6741 0563 1E       		.byte	0x1e
 6742 0564 F7       		.byte	0xf7
ARM GAS  C:\Users\RYANCA~1\AppData\Local\Temp\cclc5Gbi.s 			page 133


 6743 0565 2C       		.uleb128 0x2c
 6744 0566 F7       		.byte	0xf7
 6745 0567 25       		.uleb128 0x25
 6746 0568 0C       		.byte	0xc
 6747 0569 D34D6210 		.4byte	0x10624dd3
 6748 056d F7       		.byte	0xf7
 6749 056e 25       		.uleb128 0x25
 6750 056f 1E       		.byte	0x1e
 6751 0570 08       		.byte	0x8
 6752 0571 20       		.byte	0x20
 6753 0572 F7       		.byte	0xf7
 6754 0573 25       		.uleb128 0x25
 6755 0574 25       		.byte	0x25
 6756 0575 F7       		.byte	0xf7
 6757 0576 2C       		.uleb128 0x2c
 6758 0577 37       		.byte	0x37
 6759 0578 25       		.byte	0x25
 6760 0579 23       		.byte	0x23
 6761 057a 12       		.uleb128 0x12
 6762 057b 9F       		.byte	0x9f
 6763 057c 00000000 		.4byte	0
 6764 0580 00000000 		.4byte	0
 6765              	.LLST33:
 6766 0584 00000000 		.4byte	.LVL119
 6767 0588 46000000 		.4byte	.LVL128
 6768 058c 0100     		.2byte	0x1
 6769 058e 51       		.byte	0x51
 6770 058f 46000000 		.4byte	.LVL128
 6771 0593 38010000 		.4byte	.LFE70
 6772 0597 0400     		.2byte	0x4
 6773 0599 F3       		.byte	0xf3
 6774 059a 01       		.uleb128 0x1
 6775 059b 51       		.byte	0x51
 6776 059c 9F       		.byte	0x9f
 6777 059d 00000000 		.4byte	0
 6778 05a1 00000000 		.4byte	0
 6779              	.LLST34:
 6780 05a5 00000000 		.4byte	.LVL119
 6781 05a9 1A000000 		.4byte	.LVL120
 6782 05ad 0100     		.2byte	0x1
 6783 05af 52       		.byte	0x52
 6784 05b0 1A000000 		.4byte	.LVL120
 6785 05b4 38010000 		.4byte	.LFE70
 6786 05b8 0400     		.2byte	0x4
 6787 05ba F3       		.byte	0xf3
 6788 05bb 01       		.uleb128 0x1
 6789 05bc 52       		.byte	0x52
 6790 05bd 9F       		.byte	0x9f
 6791 05be 00000000 		.4byte	0
 6792 05c2 00000000 		.4byte	0
 6793              	.LLST35:
 6794 05c6 00000000 		.4byte	.LVL119
 6795 05ca 1C000000 		.4byte	.LVL121
 6796 05ce 0100     		.2byte	0x1
 6797 05d0 53       		.byte	0x53
 6798 05d1 1C000000 		.4byte	.LVL121
 6799 05d5 38010000 		.4byte	.LFE70
ARM GAS  C:\Users\RYANCA~1\AppData\Local\Temp\cclc5Gbi.s 			page 134


 6800 05d9 0400     		.2byte	0x4
 6801 05db F3       		.byte	0xf3
 6802 05dc 01       		.uleb128 0x1
 6803 05dd 53       		.byte	0x53
 6804 05de 9F       		.byte	0x9f
 6805 05df 00000000 		.4byte	0
 6806 05e3 00000000 		.4byte	0
 6807              	.LLST36:
 6808 05e7 00000000 		.4byte	.LVL119
 6809 05eb 16010000 		.4byte	.LVL147
 6810 05ef 0200     		.2byte	0x2
 6811 05f1 91       		.byte	0x91
 6812 05f2 00       		.sleb128 0
 6813 05f3 16010000 		.4byte	.LVL147
 6814 05f7 38010000 		.4byte	.LFE70
 6815 05fb 0200     		.2byte	0x2
 6816 05fd 7D       		.byte	0x7d
 6817 05fe 00       		.sleb128 0
 6818 05ff 00000000 		.4byte	0
 6819 0603 00000000 		.4byte	0
 6820              	.LLST37:
 6821 0607 00000000 		.4byte	.LVL119
 6822 060b 16010000 		.4byte	.LVL147
 6823 060f 0200     		.2byte	0x2
 6824 0611 91       		.byte	0x91
 6825 0612 04       		.sleb128 4
 6826 0613 16010000 		.4byte	.LVL147
 6827 0617 38010000 		.4byte	.LFE70
 6828 061b 0200     		.2byte	0x2
 6829 061d 7D       		.byte	0x7d
 6830 061e 04       		.sleb128 4
 6831 061f 00000000 		.4byte	0
 6832 0623 00000000 		.4byte	0
 6833              	.LLST38:
 6834 0627 2E000000 		.4byte	.LVL125
 6835 062b 16010000 		.4byte	.LVL147
 6836 062f 0100     		.2byte	0x1
 6837 0631 56       		.byte	0x56
 6838 0632 00000000 		.4byte	0
 6839 0636 00000000 		.4byte	0
 6840              	.LLST39:
 6841 063a 40000000 		.4byte	.LVL126
 6842 063e 42000000 		.4byte	.LVL127
 6843 0642 0100     		.2byte	0x1
 6844 0644 55       		.byte	0x55
 6845 0645 42000000 		.4byte	.LVL127
 6846 0649 4D000000 		.4byte	.LVL130-1
 6847 064d 0D00     		.2byte	0xd
 6848 064f 79       		.byte	0x79
 6849 0650 00       		.sleb128 0
 6850 0651 7B       		.byte	0x7b
 6851 0652 00       		.sleb128 0
 6852 0653 22       		.byte	0x22
 6853 0654 31       		.byte	0x31
 6854 0655 26       		.byte	0x26
 6855 0656 73       		.byte	0x73
 6856 0657 00       		.sleb128 0
ARM GAS  C:\Users\RYANCA~1\AppData\Local\Temp\cclc5Gbi.s 			page 135


 6857 0658 22       		.byte	0x22
 6858 0659 35       		.byte	0x35
 6859 065a 1C       		.byte	0x1c
 6860 065b 9F       		.byte	0x9f
 6861 065c 4D000000 		.4byte	.LVL130-1
 6862 0660 84000000 		.4byte	.LVL136
 6863 0664 1700     		.2byte	0x17
 6864 0666 79       		.byte	0x79
 6865 0667 00       		.sleb128 0
 6866 0668 7B       		.byte	0x7b
 6867 0669 00       		.sleb128 0
 6868 066a 22       		.byte	0x22
 6869 066b 31       		.byte	0x31
 6870 066c 26       		.byte	0x26
 6871 066d 77       		.byte	0x77
 6872 066e 00       		.sleb128 0
 6873 066f 4C       		.byte	0x4c
 6874 0670 24       		.byte	0x24
 6875 0671 77       		.byte	0x77
 6876 0672 00       		.sleb128 0
 6877 0673 1C       		.byte	0x1c
 6878 0674 34       		.byte	0x34
 6879 0675 24       		.byte	0x24
 6880 0676 22       		.byte	0x22
 6881 0677 77       		.byte	0x77
 6882 0678 00       		.sleb128 0
 6883 0679 1C       		.byte	0x1c
 6884 067a 35       		.byte	0x35
 6885 067b 1C       		.byte	0x1c
 6886 067c 9F       		.byte	0x9f
 6887 067d 84000000 		.4byte	.LVL136
 6888 0681 86000000 		.4byte	.LVL137
 6889 0685 2200     		.2byte	0x22
 6890 0687 79       		.byte	0x79
 6891 0688 00       		.sleb128 0
 6892 0689 7B       		.byte	0x7b
 6893 068a 00       		.sleb128 0
 6894 068b 22       		.byte	0x22
 6895 068c 31       		.byte	0x31
 6896 068d 26       		.byte	0x26
 6897 068e 91       		.byte	0x91
 6898 068f 04       		.sleb128 4
 6899 0690 94       		.byte	0x94
 6900 0691 01       		.byte	0x1
 6901 0692 08       		.byte	0x8
 6902 0693 FF       		.byte	0xff
 6903 0694 1A       		.byte	0x1a
 6904 0695 0C       		.byte	0xc
 6905 0696 FFFFFF0F 		.4byte	0xfffffff
 6906 069a 1E       		.byte	0x1e
 6907 069b 34       		.byte	0x34
 6908 069c 24       		.byte	0x24
 6909 069d 22       		.byte	0x22
 6910 069e 91       		.byte	0x91
 6911 069f 04       		.sleb128 4
 6912 06a0 94       		.byte	0x94
 6913 06a1 01       		.byte	0x1
ARM GAS  C:\Users\RYANCA~1\AppData\Local\Temp\cclc5Gbi.s 			page 136


 6914 06a2 08       		.byte	0x8
 6915 06a3 FF       		.byte	0xff
 6916 06a4 1A       		.byte	0x1a
 6917 06a5 1C       		.byte	0x1c
 6918 06a6 35       		.byte	0x35
 6919 06a7 1C       		.byte	0x1c
 6920 06a8 9F       		.byte	0x9f
 6921 06a9 86000000 		.4byte	.LVL137
 6922 06ad 8A000000 		.4byte	.LVL138
 6923 06b1 1700     		.2byte	0x17
 6924 06b3 79       		.byte	0x79
 6925 06b4 00       		.sleb128 0
 6926 06b5 7B       		.byte	0x7b
 6927 06b6 00       		.sleb128 0
 6928 06b7 22       		.byte	0x22
 6929 06b8 31       		.byte	0x31
 6930 06b9 26       		.byte	0x26
 6931 06ba 77       		.byte	0x77
 6932 06bb 00       		.sleb128 0
 6933 06bc 4C       		.byte	0x4c
 6934 06bd 24       		.byte	0x24
 6935 06be 77       		.byte	0x77
 6936 06bf 00       		.sleb128 0
 6937 06c0 1C       		.byte	0x1c
 6938 06c1 34       		.byte	0x34
 6939 06c2 24       		.byte	0x24
 6940 06c3 22       		.byte	0x22
 6941 06c4 77       		.byte	0x77
 6942 06c5 00       		.sleb128 0
 6943 06c6 1C       		.byte	0x1c
 6944 06c7 35       		.byte	0x35
 6945 06c8 1C       		.byte	0x1c
 6946 06c9 9F       		.byte	0x9f
 6947 06ca 8A000000 		.4byte	.LVL138
 6948 06ce 8C000000 		.4byte	.LVL139
 6949 06d2 2200     		.2byte	0x22
 6950 06d4 79       		.byte	0x79
 6951 06d5 00       		.sleb128 0
 6952 06d6 7B       		.byte	0x7b
 6953 06d7 00       		.sleb128 0
 6954 06d8 22       		.byte	0x22
 6955 06d9 31       		.byte	0x31
 6956 06da 26       		.byte	0x26
 6957 06db 91       		.byte	0x91
 6958 06dc 04       		.sleb128 4
 6959 06dd 94       		.byte	0x94
 6960 06de 01       		.byte	0x1
 6961 06df 08       		.byte	0x8
 6962 06e0 FF       		.byte	0xff
 6963 06e1 1A       		.byte	0x1a
 6964 06e2 0C       		.byte	0xc
 6965 06e3 FFFFFF0F 		.4byte	0xfffffff
 6966 06e7 1E       		.byte	0x1e
 6967 06e8 34       		.byte	0x34
 6968 06e9 24       		.byte	0x24
 6969 06ea 22       		.byte	0x22
 6970 06eb 91       		.byte	0x91
ARM GAS  C:\Users\RYANCA~1\AppData\Local\Temp\cclc5Gbi.s 			page 137


 6971 06ec 04       		.sleb128 4
 6972 06ed 94       		.byte	0x94
 6973 06ee 01       		.byte	0x1
 6974 06ef 08       		.byte	0x8
 6975 06f0 FF       		.byte	0xff
 6976 06f1 1A       		.byte	0x1a
 6977 06f2 1C       		.byte	0x1c
 6978 06f3 35       		.byte	0x35
 6979 06f4 1C       		.byte	0x1c
 6980 06f5 9F       		.byte	0x9f
 6981 06f6 8C000000 		.4byte	.LVL139
 6982 06fa 8E000000 		.4byte	.LVL140
 6983 06fe 1700     		.2byte	0x17
 6984 0700 79       		.byte	0x79
 6985 0701 00       		.sleb128 0
 6986 0702 7B       		.byte	0x7b
 6987 0703 00       		.sleb128 0
 6988 0704 22       		.byte	0x22
 6989 0705 31       		.byte	0x31
 6990 0706 26       		.byte	0x26
 6991 0707 77       		.byte	0x77
 6992 0708 00       		.sleb128 0
 6993 0709 4C       		.byte	0x4c
 6994 070a 24       		.byte	0x24
 6995 070b 77       		.byte	0x77
 6996 070c 00       		.sleb128 0
 6997 070d 1C       		.byte	0x1c
 6998 070e 34       		.byte	0x34
 6999 070f 24       		.byte	0x24
 7000 0710 22       		.byte	0x22
 7001 0711 77       		.byte	0x77
 7002 0712 00       		.sleb128 0
 7003 0713 1C       		.byte	0x1c
 7004 0714 35       		.byte	0x35
 7005 0715 1C       		.byte	0x1c
 7006 0716 9F       		.byte	0x9f
 7007 0717 8E000000 		.4byte	.LVL140
 7008 071b 90000000 		.4byte	.LVL141
 7009 071f 2200     		.2byte	0x22
 7010 0721 79       		.byte	0x79
 7011 0722 00       		.sleb128 0
 7012 0723 7B       		.byte	0x7b
 7013 0724 00       		.sleb128 0
 7014 0725 22       		.byte	0x22
 7015 0726 31       		.byte	0x31
 7016 0727 26       		.byte	0x26
 7017 0728 91       		.byte	0x91
 7018 0729 04       		.sleb128 4
 7019 072a 94       		.byte	0x94
 7020 072b 01       		.byte	0x1
 7021 072c 08       		.byte	0x8
 7022 072d FF       		.byte	0xff
 7023 072e 1A       		.byte	0x1a
 7024 072f 0C       		.byte	0xc
 7025 0730 FFFFFF0F 		.4byte	0xfffffff
 7026 0734 1E       		.byte	0x1e
 7027 0735 34       		.byte	0x34
ARM GAS  C:\Users\RYANCA~1\AppData\Local\Temp\cclc5Gbi.s 			page 138


 7028 0736 24       		.byte	0x24
 7029 0737 22       		.byte	0x22
 7030 0738 91       		.byte	0x91
 7031 0739 04       		.sleb128 4
 7032 073a 94       		.byte	0x94
 7033 073b 01       		.byte	0x1
 7034 073c 08       		.byte	0x8
 7035 073d FF       		.byte	0xff
 7036 073e 1A       		.byte	0x1a
 7037 073f 1C       		.byte	0x1c
 7038 0740 35       		.byte	0x35
 7039 0741 1C       		.byte	0x1c
 7040 0742 9F       		.byte	0x9f
 7041 0743 90000000 		.4byte	.LVL141
 7042 0747 94000000 		.4byte	.LVL142
 7043 074b 1700     		.2byte	0x17
 7044 074d 79       		.byte	0x79
 7045 074e 00       		.sleb128 0
 7046 074f 7B       		.byte	0x7b
 7047 0750 00       		.sleb128 0
 7048 0751 22       		.byte	0x22
 7049 0752 31       		.byte	0x31
 7050 0753 26       		.byte	0x26
 7051 0754 77       		.byte	0x77
 7052 0755 00       		.sleb128 0
 7053 0756 4C       		.byte	0x4c
 7054 0757 24       		.byte	0x24
 7055 0758 77       		.byte	0x77
 7056 0759 00       		.sleb128 0
 7057 075a 1C       		.byte	0x1c
 7058 075b 34       		.byte	0x34
 7059 075c 24       		.byte	0x24
 7060 075d 22       		.byte	0x22
 7061 075e 77       		.byte	0x77
 7062 075f 00       		.sleb128 0
 7063 0760 1C       		.byte	0x1c
 7064 0761 35       		.byte	0x35
 7065 0762 1C       		.byte	0x1c
 7066 0763 9F       		.byte	0x9f
 7067 0764 94000000 		.4byte	.LVL142
 7068 0768 16010000 		.4byte	.LVL147
 7069 076c 2200     		.2byte	0x22
 7070 076e 79       		.byte	0x79
 7071 076f 00       		.sleb128 0
 7072 0770 7B       		.byte	0x7b
 7073 0771 00       		.sleb128 0
 7074 0772 22       		.byte	0x22
 7075 0773 31       		.byte	0x31
 7076 0774 26       		.byte	0x26
 7077 0775 91       		.byte	0x91
 7078 0776 04       		.sleb128 4
 7079 0777 94       		.byte	0x94
 7080 0778 01       		.byte	0x1
 7081 0779 08       		.byte	0x8
 7082 077a FF       		.byte	0xff
 7083 077b 1A       		.byte	0x1a
 7084 077c 0C       		.byte	0xc
ARM GAS  C:\Users\RYANCA~1\AppData\Local\Temp\cclc5Gbi.s 			page 139


 7085 077d FFFFFF0F 		.4byte	0xfffffff
 7086 0781 1E       		.byte	0x1e
 7087 0782 34       		.byte	0x34
 7088 0783 24       		.byte	0x24
 7089 0784 22       		.byte	0x22
 7090 0785 91       		.byte	0x91
 7091 0786 04       		.sleb128 4
 7092 0787 94       		.byte	0x94
 7093 0788 01       		.byte	0x1
 7094 0789 08       		.byte	0x8
 7095 078a FF       		.byte	0xff
 7096 078b 1A       		.byte	0x1a
 7097 078c 1C       		.byte	0x1c
 7098 078d 35       		.byte	0x35
 7099 078e 1C       		.byte	0x1c
 7100 078f 9F       		.byte	0x9f
 7101 0790 00000000 		.4byte	0
 7102 0794 00000000 		.4byte	0
 7103              	.LLST40:
 7104 0798 1E000000 		.4byte	.LVL122
 7105 079c 26000000 		.4byte	.LVL123
 7106 07a0 0100     		.2byte	0x1
 7107 07a2 53       		.byte	0x53
 7108 07a3 26000000 		.4byte	.LVL123
 7109 07a7 28000000 		.4byte	.LVL124
 7110 07ab 0700     		.2byte	0x7
 7111 07ad 72       		.byte	0x72
 7112 07ae 00       		.sleb128 0
 7113 07af 32       		.byte	0x32
 7114 07b0 24       		.byte	0x24
 7115 07b1 23       		.byte	0x23
 7116 07b2 0C       		.uleb128 0xc
 7117 07b3 9F       		.byte	0x9f
 7118 07b4 28000000 		.4byte	.LVL124
 7119 07b8 84000000 		.4byte	.LVL136
 7120 07bc 0C00     		.2byte	0xc
 7121 07be 77       		.byte	0x77
 7122 07bf 00       		.sleb128 0
 7123 07c0 32       		.byte	0x32
 7124 07c1 24       		.byte	0x24
 7125 07c2 77       		.byte	0x77
 7126 07c3 00       		.sleb128 0
 7127 07c4 22       		.byte	0x22
 7128 07c5 32       		.byte	0x32
 7129 07c6 24       		.byte	0x24
 7130 07c7 23       		.byte	0x23
 7131 07c8 0C       		.uleb128 0xc
 7132 07c9 9F       		.byte	0x9f
 7133 07ca 84000000 		.4byte	.LVL136
 7134 07ce 86000000 		.4byte	.LVL137
 7135 07d2 0E00     		.2byte	0xe
 7136 07d4 91       		.byte	0x91
 7137 07d5 04       		.sleb128 4
 7138 07d6 94       		.byte	0x94
 7139 07d7 01       		.byte	0x1
 7140 07d8 08       		.byte	0x8
 7141 07d9 FF       		.byte	0xff
ARM GAS  C:\Users\RYANCA~1\AppData\Local\Temp\cclc5Gbi.s 			page 140


 7142 07da 1A       		.byte	0x1a
 7143 07db 35       		.byte	0x35
 7144 07dc 1E       		.byte	0x1e
 7145 07dd 32       		.byte	0x32
 7146 07de 24       		.byte	0x24
 7147 07df 23       		.byte	0x23
 7148 07e0 0C       		.uleb128 0xc
 7149 07e1 9F       		.byte	0x9f
 7150 07e2 86000000 		.4byte	.LVL137
 7151 07e6 8A000000 		.4byte	.LVL138
 7152 07ea 0C00     		.2byte	0xc
 7153 07ec 77       		.byte	0x77
 7154 07ed 00       		.sleb128 0
 7155 07ee 32       		.byte	0x32
 7156 07ef 24       		.byte	0x24
 7157 07f0 77       		.byte	0x77
 7158 07f1 00       		.sleb128 0
 7159 07f2 22       		.byte	0x22
 7160 07f3 32       		.byte	0x32
 7161 07f4 24       		.byte	0x24
 7162 07f5 23       		.byte	0x23
 7163 07f6 0C       		.uleb128 0xc
 7164 07f7 9F       		.byte	0x9f
 7165 07f8 8A000000 		.4byte	.LVL138
 7166 07fc 8C000000 		.4byte	.LVL139
 7167 0800 0E00     		.2byte	0xe
 7168 0802 91       		.byte	0x91
 7169 0803 04       		.sleb128 4
 7170 0804 94       		.byte	0x94
 7171 0805 01       		.byte	0x1
 7172 0806 08       		.byte	0x8
 7173 0807 FF       		.byte	0xff
 7174 0808 1A       		.byte	0x1a
 7175 0809 35       		.byte	0x35
 7176 080a 1E       		.byte	0x1e
 7177 080b 32       		.byte	0x32
 7178 080c 24       		.byte	0x24
 7179 080d 23       		.byte	0x23
 7180 080e 0C       		.uleb128 0xc
 7181 080f 9F       		.byte	0x9f
 7182 0810 8C000000 		.4byte	.LVL139
 7183 0814 8E000000 		.4byte	.LVL140
 7184 0818 0C00     		.2byte	0xc
 7185 081a 77       		.byte	0x77
 7186 081b 00       		.sleb128 0
 7187 081c 32       		.byte	0x32
 7188 081d 24       		.byte	0x24
 7189 081e 77       		.byte	0x77
 7190 081f 00       		.sleb128 0
 7191 0820 22       		.byte	0x22
 7192 0821 32       		.byte	0x32
 7193 0822 24       		.byte	0x24
 7194 0823 23       		.byte	0x23
 7195 0824 0C       		.uleb128 0xc
 7196 0825 9F       		.byte	0x9f
 7197 0826 8E000000 		.4byte	.LVL140
 7198 082a 90000000 		.4byte	.LVL141
ARM GAS  C:\Users\RYANCA~1\AppData\Local\Temp\cclc5Gbi.s 			page 141


 7199 082e 0E00     		.2byte	0xe
 7200 0830 91       		.byte	0x91
 7201 0831 04       		.sleb128 4
 7202 0832 94       		.byte	0x94
 7203 0833 01       		.byte	0x1
 7204 0834 08       		.byte	0x8
 7205 0835 FF       		.byte	0xff
 7206 0836 1A       		.byte	0x1a
 7207 0837 35       		.byte	0x35
 7208 0838 1E       		.byte	0x1e
 7209 0839 32       		.byte	0x32
 7210 083a 24       		.byte	0x24
 7211 083b 23       		.byte	0x23
 7212 083c 0C       		.uleb128 0xc
 7213 083d 9F       		.byte	0x9f
 7214 083e 90000000 		.4byte	.LVL141
 7215 0842 94000000 		.4byte	.LVL142
 7216 0846 0C00     		.2byte	0xc
 7217 0848 77       		.byte	0x77
 7218 0849 00       		.sleb128 0
 7219 084a 32       		.byte	0x32
 7220 084b 24       		.byte	0x24
 7221 084c 77       		.byte	0x77
 7222 084d 00       		.sleb128 0
 7223 084e 22       		.byte	0x22
 7224 084f 32       		.byte	0x32
 7225 0850 24       		.byte	0x24
 7226 0851 23       		.byte	0x23
 7227 0852 0C       		.uleb128 0xc
 7228 0853 9F       		.byte	0x9f
 7229 0854 94000000 		.4byte	.LVL142
 7230 0858 16010000 		.4byte	.LVL147
 7231 085c 0E00     		.2byte	0xe
 7232 085e 91       		.byte	0x91
 7233 085f 04       		.sleb128 4
 7234 0860 94       		.byte	0x94
 7235 0861 01       		.byte	0x1
 7236 0862 08       		.byte	0x8
 7237 0863 FF       		.byte	0xff
 7238 0864 1A       		.byte	0x1a
 7239 0865 35       		.byte	0x35
 7240 0866 1E       		.byte	0x1e
 7241 0867 32       		.byte	0x32
 7242 0868 24       		.byte	0x24
 7243 0869 23       		.byte	0x23
 7244 086a 0C       		.uleb128 0xc
 7245 086b 9F       		.byte	0x9f
 7246 086c 16010000 		.4byte	.LVL147
 7247 0870 38010000 		.4byte	.LFE70
 7248 0874 0E00     		.2byte	0xe
 7249 0876 7D       		.byte	0x7d
 7250 0877 04       		.sleb128 4
 7251 0878 94       		.byte	0x94
 7252 0879 01       		.byte	0x1
 7253 087a 08       		.byte	0x8
 7254 087b FF       		.byte	0xff
 7255 087c 1A       		.byte	0x1a
ARM GAS  C:\Users\RYANCA~1\AppData\Local\Temp\cclc5Gbi.s 			page 142


 7256 087d 35       		.byte	0x35
 7257 087e 1E       		.byte	0x1e
 7258 087f 32       		.byte	0x32
 7259 0880 24       		.byte	0x24
 7260 0881 23       		.byte	0x23
 7261 0882 0C       		.uleb128 0xc
 7262 0883 9F       		.byte	0x9f
 7263 0884 00000000 		.4byte	0
 7264 0888 00000000 		.4byte	0
 7265              	.LLST41:
 7266 088c 94000000 		.4byte	.LVL142
 7267 0890 16010000 		.4byte	.LVL147
 7268 0894 0100     		.2byte	0x1
 7269 0896 57       		.byte	0x57
 7270 0897 00000000 		.4byte	0
 7271 089b 00000000 		.4byte	0
 7272              	.LLST42:
 7273 089f 00000000 		.4byte	.LVL148
 7274 08a3 52000000 		.4byte	.LVL157
 7275 08a7 0100     		.2byte	0x1
 7276 08a9 50       		.byte	0x50
 7277 08aa 52000000 		.4byte	.LVL157
 7278 08ae E8000000 		.4byte	.LFE73
 7279 08b2 0400     		.2byte	0x4
 7280 08b4 F3       		.byte	0xf3
 7281 08b5 01       		.uleb128 0x1
 7282 08b6 50       		.byte	0x50
 7283 08b7 9F       		.byte	0x9f
 7284 08b8 00000000 		.4byte	0
 7285 08bc 00000000 		.4byte	0
 7286              	.LLST43:
 7287 08c0 00000000 		.4byte	.LVL148
 7288 08c4 1A000000 		.4byte	.LVL150
 7289 08c8 0100     		.2byte	0x1
 7290 08ca 51       		.byte	0x51
 7291 08cb 1A000000 		.4byte	.LVL150
 7292 08cf E8000000 		.4byte	.LFE73
 7293 08d3 0400     		.2byte	0x4
 7294 08d5 F3       		.byte	0xf3
 7295 08d6 01       		.uleb128 0x1
 7296 08d7 51       		.byte	0x51
 7297 08d8 9F       		.byte	0x9f
 7298 08d9 00000000 		.4byte	0
 7299 08dd 00000000 		.4byte	0
 7300              	.LLST44:
 7301 08e1 00000000 		.4byte	.LVL148
 7302 08e5 16000000 		.4byte	.LVL149
 7303 08e9 0100     		.2byte	0x1
 7304 08eb 52       		.byte	0x52
 7305 08ec 16000000 		.4byte	.LVL149
 7306 08f0 E8000000 		.4byte	.LFE73
 7307 08f4 0400     		.2byte	0x4
 7308 08f6 F3       		.byte	0xf3
 7309 08f7 01       		.uleb128 0x1
 7310 08f8 52       		.byte	0x52
 7311 08f9 9F       		.byte	0x9f
 7312 08fa 00000000 		.4byte	0
ARM GAS  C:\Users\RYANCA~1\AppData\Local\Temp\cclc5Gbi.s 			page 143


 7313 08fe 00000000 		.4byte	0
 7314              	.LLST45:
 7315 0902 00000000 		.4byte	.LVL148
 7316 0906 1C000000 		.4byte	.LVL151
 7317 090a 0100     		.2byte	0x1
 7318 090c 53       		.byte	0x53
 7319 090d 1C000000 		.4byte	.LVL151
 7320 0911 E8000000 		.4byte	.LFE73
 7321 0915 0400     		.2byte	0x4
 7322 0917 F3       		.byte	0xf3
 7323 0918 01       		.uleb128 0x1
 7324 0919 53       		.byte	0x53
 7325 091a 9F       		.byte	0x9f
 7326 091b 00000000 		.4byte	0
 7327 091f 00000000 		.4byte	0
 7328              	.LLST46:
 7329 0923 00000000 		.4byte	.LVL148
 7330 0927 DC000000 		.4byte	.LVL166
 7331 092b 0200     		.2byte	0x2
 7332 092d 91       		.byte	0x91
 7333 092e 00       		.sleb128 0
 7334 092f DC000000 		.4byte	.LVL166
 7335 0933 E8000000 		.4byte	.LFE73
 7336 0937 0200     		.2byte	0x2
 7337 0939 7D       		.byte	0x7d
 7338 093a 00       		.sleb128 0
 7339 093b 00000000 		.4byte	0
 7340 093f 00000000 		.4byte	0
 7341              	.LLST47:
 7342 0943 00000000 		.4byte	.LVL148
 7343 0947 DC000000 		.4byte	.LVL166
 7344 094b 0200     		.2byte	0x2
 7345 094d 91       		.byte	0x91
 7346 094e 04       		.sleb128 4
 7347 094f DC000000 		.4byte	.LVL166
 7348 0953 E8000000 		.4byte	.LFE73
 7349 0957 0200     		.2byte	0x2
 7350 0959 7D       		.byte	0x7d
 7351 095a 04       		.sleb128 4
 7352 095b 00000000 		.4byte	0
 7353 095f 00000000 		.4byte	0
 7354              	.LLST48:
 7355 0963 36000000 		.4byte	.LVL155
 7356 0967 DC000000 		.4byte	.LVL166
 7357 096b 0100     		.2byte	0x1
 7358 096d 54       		.byte	0x54
 7359 096e 00000000 		.4byte	0
 7360 0972 00000000 		.4byte	0
 7361              	.LLST49:
 7362 0976 4C000000 		.4byte	.LVL156
 7363 097a DC000000 		.4byte	.LVL166
 7364 097e 0100     		.2byte	0x1
 7365 0980 5A       		.byte	0x5a
 7366 0981 00000000 		.4byte	0
 7367 0985 00000000 		.4byte	0
 7368              	.LLST50:
 7369 0989 1E000000 		.4byte	.LVL152
ARM GAS  C:\Users\RYANCA~1\AppData\Local\Temp\cclc5Gbi.s 			page 144


 7370 098d 30000000 		.4byte	.LVL154
 7371 0991 0100     		.2byte	0x1
 7372 0993 53       		.byte	0x53
 7373 0994 30000000 		.4byte	.LVL154
 7374 0998 55000000 		.4byte	.LVL158-1
 7375 099c 0C00     		.2byte	0xc
 7376 099e 72       		.byte	0x72
 7377 099f 00       		.sleb128 0
 7378 09a0 32       		.byte	0x32
 7379 09a1 24       		.byte	0x24
 7380 09a2 72       		.byte	0x72
 7381 09a3 00       		.sleb128 0
 7382 09a4 22       		.byte	0x22
 7383 09a5 32       		.byte	0x32
 7384 09a6 24       		.byte	0x24
 7385 09a7 23       		.byte	0x23
 7386 09a8 0C       		.uleb128 0xc
 7387 09a9 9F       		.byte	0x9f
 7388 09aa 55000000 		.4byte	.LVL158-1
 7389 09ae DC000000 		.4byte	.LVL166
 7390 09b2 0E00     		.2byte	0xe
 7391 09b4 91       		.byte	0x91
 7392 09b5 04       		.sleb128 4
 7393 09b6 94       		.byte	0x94
 7394 09b7 01       		.byte	0x1
 7395 09b8 08       		.byte	0x8
 7396 09b9 FF       		.byte	0xff
 7397 09ba 1A       		.byte	0x1a
 7398 09bb 35       		.byte	0x35
 7399 09bc 1E       		.byte	0x1e
 7400 09bd 32       		.byte	0x32
 7401 09be 24       		.byte	0x24
 7402 09bf 23       		.byte	0x23
 7403 09c0 0C       		.uleb128 0xc
 7404 09c1 9F       		.byte	0x9f
 7405 09c2 DC000000 		.4byte	.LVL166
 7406 09c6 E8000000 		.4byte	.LFE73
 7407 09ca 0E00     		.2byte	0xe
 7408 09cc 7D       		.byte	0x7d
 7409 09cd 04       		.sleb128 4
 7410 09ce 94       		.byte	0x94
 7411 09cf 01       		.byte	0x1
 7412 09d0 08       		.byte	0x8
 7413 09d1 FF       		.byte	0xff
 7414 09d2 1A       		.byte	0x1a
 7415 09d3 35       		.byte	0x35
 7416 09d4 1E       		.byte	0x1e
 7417 09d5 32       		.byte	0x32
 7418 09d6 24       		.byte	0x24
 7419 09d7 23       		.byte	0x23
 7420 09d8 0C       		.uleb128 0xc
 7421 09d9 9F       		.byte	0x9f
 7422 09da 00000000 		.4byte	0
 7423 09de 00000000 		.4byte	0
 7424              	.LLST51:
 7425 09e2 28000000 		.4byte	.LVL153
 7426 09e6 55000000 		.4byte	.LVL158-1
ARM GAS  C:\Users\RYANCA~1\AppData\Local\Temp\cclc5Gbi.s 			page 145


 7427 09ea 0100     		.2byte	0x1
 7428 09ec 51       		.byte	0x51
 7429 09ed 00000000 		.4byte	0
 7430 09f1 00000000 		.4byte	0
 7431              	.LLST52:
 7432 09f5 00000000 		.4byte	.LVL167
 7433 09f9 13000000 		.4byte	.LVL168-1
 7434 09fd 0100     		.2byte	0x1
 7435 09ff 50       		.byte	0x50
 7436 0a00 13000000 		.4byte	.LVL168-1
 7437 0a04 18000000 		.4byte	.LFE71
 7438 0a08 0400     		.2byte	0x4
 7439 0a0a F3       		.byte	0xf3
 7440 0a0b 01       		.uleb128 0x1
 7441 0a0c 50       		.byte	0x50
 7442 0a0d 9F       		.byte	0x9f
 7443 0a0e 00000000 		.4byte	0
 7444 0a12 00000000 		.4byte	0
 7445              	.LLST53:
 7446 0a16 00000000 		.4byte	.LVL167
 7447 0a1a 13000000 		.4byte	.LVL168-1
 7448 0a1e 0100     		.2byte	0x1
 7449 0a20 51       		.byte	0x51
 7450 0a21 13000000 		.4byte	.LVL168-1
 7451 0a25 18000000 		.4byte	.LFE71
 7452 0a29 0400     		.2byte	0x4
 7453 0a2b F3       		.byte	0xf3
 7454 0a2c 01       		.uleb128 0x1
 7455 0a2d 51       		.byte	0x51
 7456 0a2e 9F       		.byte	0x9f
 7457 0a2f 00000000 		.4byte	0
 7458 0a33 00000000 		.4byte	0
 7459              	.LLST54:
 7460 0a37 00000000 		.4byte	.LVL167
 7461 0a3b 13000000 		.4byte	.LVL168-1
 7462 0a3f 0100     		.2byte	0x1
 7463 0a41 52       		.byte	0x52
 7464 0a42 13000000 		.4byte	.LVL168-1
 7465 0a46 18000000 		.4byte	.LFE71
 7466 0a4a 0400     		.2byte	0x4
 7467 0a4c F3       		.byte	0xf3
 7468 0a4d 01       		.uleb128 0x1
 7469 0a4e 52       		.byte	0x52
 7470 0a4f 9F       		.byte	0x9f
 7471 0a50 00000000 		.4byte	0
 7472 0a54 00000000 		.4byte	0
 7473              	.LLST55:
 7474 0a58 00000000 		.4byte	.LVL167
 7475 0a5c 13000000 		.4byte	.LVL168-1
 7476 0a60 0100     		.2byte	0x1
 7477 0a62 53       		.byte	0x53
 7478 0a63 13000000 		.4byte	.LVL168-1
 7479 0a67 18000000 		.4byte	.LFE71
 7480 0a6b 0400     		.2byte	0x4
 7481 0a6d F3       		.byte	0xf3
 7482 0a6e 01       		.uleb128 0x1
 7483 0a6f 53       		.byte	0x53
ARM GAS  C:\Users\RYANCA~1\AppData\Local\Temp\cclc5Gbi.s 			page 146


 7484 0a70 9F       		.byte	0x9f
 7485 0a71 00000000 		.4byte	0
 7486 0a75 00000000 		.4byte	0
 7487              	.LLST56:
 7488 0a79 00000000 		.4byte	.LVL169
 7489 0a7d 13000000 		.4byte	.LVL170-1
 7490 0a81 0100     		.2byte	0x1
 7491 0a83 50       		.byte	0x50
 7492 0a84 13000000 		.4byte	.LVL170-1
 7493 0a88 18000000 		.4byte	.LFE72
 7494 0a8c 0400     		.2byte	0x4
 7495 0a8e F3       		.byte	0xf3
 7496 0a8f 01       		.uleb128 0x1
 7497 0a90 50       		.byte	0x50
 7498 0a91 9F       		.byte	0x9f
 7499 0a92 00000000 		.4byte	0
 7500 0a96 00000000 		.4byte	0
 7501              	.LLST57:
 7502 0a9a 00000000 		.4byte	.LVL169
 7503 0a9e 13000000 		.4byte	.LVL170-1
 7504 0aa2 0100     		.2byte	0x1
 7505 0aa4 51       		.byte	0x51
 7506 0aa5 13000000 		.4byte	.LVL170-1
 7507 0aa9 18000000 		.4byte	.LFE72
 7508 0aad 0400     		.2byte	0x4
 7509 0aaf F3       		.byte	0xf3
 7510 0ab0 01       		.uleb128 0x1
 7511 0ab1 51       		.byte	0x51
 7512 0ab2 9F       		.byte	0x9f
 7513 0ab3 00000000 		.4byte	0
 7514 0ab7 00000000 		.4byte	0
 7515              	.LLST58:
 7516 0abb 00000000 		.4byte	.LVL169
 7517 0abf 13000000 		.4byte	.LVL170-1
 7518 0ac3 0100     		.2byte	0x1
 7519 0ac5 52       		.byte	0x52
 7520 0ac6 13000000 		.4byte	.LVL170-1
 7521 0aca 18000000 		.4byte	.LFE72
 7522 0ace 0400     		.2byte	0x4
 7523 0ad0 F3       		.byte	0xf3
 7524 0ad1 01       		.uleb128 0x1
 7525 0ad2 52       		.byte	0x52
 7526 0ad3 9F       		.byte	0x9f
 7527 0ad4 00000000 		.4byte	0
 7528 0ad8 00000000 		.4byte	0
 7529              	.LLST59:
 7530 0adc 00000000 		.4byte	.LVL169
 7531 0ae0 13000000 		.4byte	.LVL170-1
 7532 0ae4 0100     		.2byte	0x1
 7533 0ae6 53       		.byte	0x53
 7534 0ae7 13000000 		.4byte	.LVL170-1
 7535 0aeb 18000000 		.4byte	.LFE72
 7536 0aef 0400     		.2byte	0x4
 7537 0af1 F3       		.byte	0xf3
 7538 0af2 01       		.uleb128 0x1
 7539 0af3 53       		.byte	0x53
 7540 0af4 9F       		.byte	0x9f
ARM GAS  C:\Users\RYANCA~1\AppData\Local\Temp\cclc5Gbi.s 			page 147


 7541 0af5 00000000 		.4byte	0
 7542 0af9 00000000 		.4byte	0
 7543              	.LLST60:
 7544 0afd 00000000 		.4byte	.LVL171
 7545 0b01 4A000000 		.4byte	.LVL180
 7546 0b05 0100     		.2byte	0x1
 7547 0b07 50       		.byte	0x50
 7548 0b08 4A000000 		.4byte	.LVL180
 7549 0b0c DC000000 		.4byte	.LFE74
 7550 0b10 0400     		.2byte	0x4
 7551 0b12 F3       		.byte	0xf3
 7552 0b13 01       		.uleb128 0x1
 7553 0b14 50       		.byte	0x50
 7554 0b15 9F       		.byte	0x9f
 7555 0b16 00000000 		.4byte	0
 7556 0b1a 00000000 		.4byte	0
 7557              	.LLST61:
 7558 0b1e 00000000 		.4byte	.LVL171
 7559 0b22 1A000000 		.4byte	.LVL173
 7560 0b26 0100     		.2byte	0x1
 7561 0b28 51       		.byte	0x51
 7562 0b29 1A000000 		.4byte	.LVL173
 7563 0b2d DC000000 		.4byte	.LFE74
 7564 0b31 0400     		.2byte	0x4
 7565 0b33 F3       		.byte	0xf3
 7566 0b34 01       		.uleb128 0x1
 7567 0b35 51       		.byte	0x51
 7568 0b36 9F       		.byte	0x9f
 7569 0b37 00000000 		.4byte	0
 7570 0b3b 00000000 		.4byte	0
 7571              	.LLST62:
 7572 0b3f 00000000 		.4byte	.LVL171
 7573 0b43 16000000 		.4byte	.LVL172
 7574 0b47 0100     		.2byte	0x1
 7575 0b49 52       		.byte	0x52
 7576 0b4a 16000000 		.4byte	.LVL172
 7577 0b4e DC000000 		.4byte	.LFE74
 7578 0b52 0400     		.2byte	0x4
 7579 0b54 F3       		.byte	0xf3
 7580 0b55 01       		.uleb128 0x1
 7581 0b56 52       		.byte	0x52
 7582 0b57 9F       		.byte	0x9f
 7583 0b58 00000000 		.4byte	0
 7584 0b5c 00000000 		.4byte	0
 7585              	.LLST63:
 7586 0b60 00000000 		.4byte	.LVL171
 7587 0b64 1C000000 		.4byte	.LVL174
 7588 0b68 0100     		.2byte	0x1
 7589 0b6a 53       		.byte	0x53
 7590 0b6b 1C000000 		.4byte	.LVL174
 7591 0b6f DC000000 		.4byte	.LFE74
 7592 0b73 0400     		.2byte	0x4
 7593 0b75 F3       		.byte	0xf3
 7594 0b76 01       		.uleb128 0x1
 7595 0b77 53       		.byte	0x53
 7596 0b78 9F       		.byte	0x9f
 7597 0b79 00000000 		.4byte	0
ARM GAS  C:\Users\RYANCA~1\AppData\Local\Temp\cclc5Gbi.s 			page 148


 7598 0b7d 00000000 		.4byte	0
 7599              	.LLST64:
 7600 0b81 00000000 		.4byte	.LVL171
 7601 0b85 D0000000 		.4byte	.LVL186
 7602 0b89 0200     		.2byte	0x2
 7603 0b8b 91       		.byte	0x91
 7604 0b8c 00       		.sleb128 0
 7605 0b8d D0000000 		.4byte	.LVL186
 7606 0b91 DC000000 		.4byte	.LFE74
 7607 0b95 0200     		.2byte	0x2
 7608 0b97 7D       		.byte	0x7d
 7609 0b98 00       		.sleb128 0
 7610 0b99 00000000 		.4byte	0
 7611 0b9d 00000000 		.4byte	0
 7612              	.LLST65:
 7613 0ba1 00000000 		.4byte	.LVL171
 7614 0ba5 D0000000 		.4byte	.LVL186
 7615 0ba9 0200     		.2byte	0x2
 7616 0bab 91       		.byte	0x91
 7617 0bac 04       		.sleb128 4
 7618 0bad D0000000 		.4byte	.LVL186
 7619 0bb1 DC000000 		.4byte	.LFE74
 7620 0bb5 0200     		.2byte	0x2
 7621 0bb7 7D       		.byte	0x7d
 7622 0bb8 04       		.sleb128 4
 7623 0bb9 00000000 		.4byte	0
 7624 0bbd 00000000 		.4byte	0
 7625              	.LLST66:
 7626 0bc1 2E000000 		.4byte	.LVL178
 7627 0bc5 D0000000 		.4byte	.LVL186
 7628 0bc9 0100     		.2byte	0x1
 7629 0bcb 59       		.byte	0x59
 7630 0bcc 00000000 		.4byte	0
 7631 0bd0 00000000 		.4byte	0
 7632              	.LLST67:
 7633 0bd4 44000000 		.4byte	.LVL179
 7634 0bd8 D0000000 		.4byte	.LVL186
 7635 0bdc 0100     		.2byte	0x1
 7636 0bde 5A       		.byte	0x5a
 7637 0bdf 00000000 		.4byte	0
 7638 0be3 00000000 		.4byte	0
 7639              	.LLST68:
 7640 0be7 1E000000 		.4byte	.LVL175
 7641 0beb 26000000 		.4byte	.LVL176
 7642 0bef 0100     		.2byte	0x1
 7643 0bf1 53       		.byte	0x53
 7644 0bf2 26000000 		.4byte	.LVL176
 7645 0bf6 28000000 		.4byte	.LVL177
 7646 0bfa 0700     		.2byte	0x7
 7647 0bfc 71       		.byte	0x71
 7648 0bfd 00       		.sleb128 0
 7649 0bfe 32       		.byte	0x32
 7650 0bff 24       		.byte	0x24
 7651 0c00 23       		.byte	0x23
 7652 0c01 0C       		.uleb128 0xc
 7653 0c02 9F       		.byte	0x9f
 7654 0c03 28000000 		.4byte	.LVL177
ARM GAS  C:\Users\RYANCA~1\AppData\Local\Temp\cclc5Gbi.s 			page 149


 7655 0c07 4D000000 		.4byte	.LVL181-1
 7656 0c0b 0C00     		.2byte	0xc
 7657 0c0d 72       		.byte	0x72
 7658 0c0e 00       		.sleb128 0
 7659 0c0f 32       		.byte	0x32
 7660 0c10 24       		.byte	0x24
 7661 0c11 72       		.byte	0x72
 7662 0c12 00       		.sleb128 0
 7663 0c13 22       		.byte	0x22
 7664 0c14 32       		.byte	0x32
 7665 0c15 24       		.byte	0x24
 7666 0c16 23       		.byte	0x23
 7667 0c17 0C       		.uleb128 0xc
 7668 0c18 9F       		.byte	0x9f
 7669 0c19 4D000000 		.4byte	.LVL181-1
 7670 0c1d D0000000 		.4byte	.LVL186
 7671 0c21 0E00     		.2byte	0xe
 7672 0c23 91       		.byte	0x91
 7673 0c24 04       		.sleb128 4
 7674 0c25 94       		.byte	0x94
 7675 0c26 01       		.byte	0x1
 7676 0c27 08       		.byte	0x8
 7677 0c28 FF       		.byte	0xff
 7678 0c29 1A       		.byte	0x1a
 7679 0c2a 35       		.byte	0x35
 7680 0c2b 1E       		.byte	0x1e
 7681 0c2c 32       		.byte	0x32
 7682 0c2d 24       		.byte	0x24
 7683 0c2e 23       		.byte	0x23
 7684 0c2f 0C       		.uleb128 0xc
 7685 0c30 9F       		.byte	0x9f
 7686 0c31 D0000000 		.4byte	.LVL186
 7687 0c35 DC000000 		.4byte	.LFE74
 7688 0c39 0E00     		.2byte	0xe
 7689 0c3b 7D       		.byte	0x7d
 7690 0c3c 04       		.sleb128 4
 7691 0c3d 94       		.byte	0x94
 7692 0c3e 01       		.byte	0x1
 7693 0c3f 08       		.byte	0x8
 7694 0c40 FF       		.byte	0xff
 7695 0c41 1A       		.byte	0x1a
 7696 0c42 35       		.byte	0x35
 7697 0c43 1E       		.byte	0x1e
 7698 0c44 32       		.byte	0x32
 7699 0c45 24       		.byte	0x24
 7700 0c46 23       		.byte	0x23
 7701 0c47 0C       		.uleb128 0xc
 7702 0c48 9F       		.byte	0x9f
 7703 0c49 00000000 		.4byte	0
 7704 0c4d 00000000 		.4byte	0
 7705              		.section	.debug_aranges,"",%progbits
 7706 0000 6C000000 		.4byte	0x6c
 7707 0004 0200     		.2byte	0x2
 7708 0006 00000000 		.4byte	.Ldebug_info0
 7709 000a 04       		.byte	0x4
 7710 000b 00       		.byte	0
 7711 000c 0000     		.2byte	0
ARM GAS  C:\Users\RYANCA~1\AppData\Local\Temp\cclc5Gbi.s 			page 150


 7712 000e 0000     		.2byte	0
 7713 0010 00000000 		.4byte	.LFB64
 7714 0014 74000000 		.4byte	.LFE64-.LFB64
 7715 0018 00000000 		.4byte	.LFB65
 7716 001c 64000000 		.4byte	.LFE65-.LFB65
 7717 0020 00000000 		.4byte	.LFB66
 7718 0024 38000000 		.4byte	.LFE66-.LFB66
 7719 0028 00000000 		.4byte	.LFB67
 7720 002c 70010000 		.4byte	.LFE67-.LFB67
 7721 0030 00000000 		.4byte	.LFB68
 7722 0034 F4000000 		.4byte	.LFE68-.LFB68
 7723 0038 00000000 		.4byte	.LFB69
 7724 003c FC020000 		.4byte	.LFE69-.LFB69
 7725 0040 00000000 		.4byte	.LFB70
 7726 0044 38010000 		.4byte	.LFE70-.LFB70
 7727 0048 00000000 		.4byte	.LFB73
 7728 004c E8000000 		.4byte	.LFE73-.LFB73
 7729 0050 00000000 		.4byte	.LFB71
 7730 0054 18000000 		.4byte	.LFE71-.LFB71
 7731 0058 00000000 		.4byte	.LFB72
 7732 005c 18000000 		.4byte	.LFE72-.LFB72
 7733 0060 00000000 		.4byte	.LFB74
 7734 0064 DC000000 		.4byte	.LFE74-.LFB74
 7735 0068 00000000 		.4byte	0
 7736 006c 00000000 		.4byte	0
 7737              		.section	.debug_ranges,"",%progbits
 7738              	.Ldebug_ranges0:
 7739 0000 00000000 		.4byte	.LFB64
 7740 0004 74000000 		.4byte	.LFE64
 7741 0008 00000000 		.4byte	.LFB65
 7742 000c 64000000 		.4byte	.LFE65
 7743 0010 00000000 		.4byte	.LFB66
 7744 0014 38000000 		.4byte	.LFE66
 7745 0018 00000000 		.4byte	.LFB67
 7746 001c 70010000 		.4byte	.LFE67
 7747 0020 00000000 		.4byte	.LFB68
 7748 0024 F4000000 		.4byte	.LFE68
 7749 0028 00000000 		.4byte	.LFB69
 7750 002c FC020000 		.4byte	.LFE69
 7751 0030 00000000 		.4byte	.LFB70
 7752 0034 38010000 		.4byte	.LFE70
 7753 0038 00000000 		.4byte	.LFB73
 7754 003c E8000000 		.4byte	.LFE73
 7755 0040 00000000 		.4byte	.LFB71
 7756 0044 18000000 		.4byte	.LFE71
 7757 0048 00000000 		.4byte	.LFB72
 7758 004c 18000000 		.4byte	.LFE72
 7759 0050 00000000 		.4byte	.LFB74
 7760 0054 DC000000 		.4byte	.LFE74
 7761 0058 00000000 		.4byte	0
 7762 005c 00000000 		.4byte	0
 7763              		.section	.debug_line,"",%progbits
 7764              	.Ldebug_line0:
 7765 0000 AA030000 		.section	.debug_str,"MS",%progbits,1
 7765      02001D02 
 7765      00000201 
 7765      FB0E0D00 
ARM GAS  C:\Users\RYANCA~1\AppData\Local\Temp\cclc5Gbi.s 			page 151


 7765      01010101 
 7766              	.LASF134:
 7767 0000 43794465 		.ascii	"CyDelay\000"
 7767      6C617900 
 7768              	.LASF112:
 7769 0008 64617461 		.ascii	"data_s\000"
 7769      5F7300
 7770              	.LASF45:
 7771 000f 464F4E54 		.ascii	"FONT_TYPE_8BPP\000"
 7771      5F545950 
 7771      455F3842 
 7771      505000
 7772              	.LASF101:
 7773 001e 6465736B 		.ascii	"desktop_color\000"
 7773      746F705F 
 7773      636F6C6F 
 7773      7200
 7774              	.LASF141:
 7775 002c 5C5C4D61 		.ascii	"\\\\Mac\\Home\\Downloads\\Dashboard-Firmware-FE9-FE"
 7775      635C486F 
 7775      6D655C44 
 7775      6F776E6C 
 7775      6F616473 
 7776 005a 372D426F 		.ascii	"7-Board-main\\Dashboard.cydsn\000"
 7776      6172642D 
 7776      6D61696E 
 7776      5C446173 
 7776      68626F61 
 7777              	.LASF56:
 7778 0077 746F7563 		.ascii	"touch_state\000"
 7778      685F7374 
 7778      61746500 
 7779              	.LASF70:
 7780 0083 55475F43 		.ascii	"UG_COLOR\000"
 7780      4F4C4F52 
 7780      00
 7781              	.LASF41:
 7782 008c 55475F55 		.ascii	"UG_U16\000"
 7782      313600
 7783              	.LASF1:
 7784 0093 756E7369 		.ascii	"unsigned int\000"
 7784      676E6564 
 7784      20696E74 
 7784      00
 7785              	.LASF100:
 7786 00a0 63686172 		.ascii	"char_v_space\000"
 7786      5F765F73 
 7786      70616365 
 7786      00
 7787              	.LASF31:
 7788 00ad 4E4F4E45 		.ascii	"NONE\000"
 7788      00
 7789              	.LASF10:
 7790 00b2 5F5F696E 		.ascii	"__int32_t\000"
 7790      7433325F 
 7790      7400
 7791              	.LASF98:
ARM GAS  C:\Users\RYANCA~1\AppData\Local\Temp\cclc5Gbi.s 			page 152


 7792 00bc 636F6E73 		.ascii	"console\000"
 7792      6F6C6500 
 7793              	.LASF65:
 7794 00c4 535F5749 		.ascii	"S_WINDOW\000"
 7794      4E444F57 
 7794      00
 7795              	.LASF36:
 7796 00cd 53454E53 		.ascii	"SENSOR_DISCREPANCY\000"
 7796      4F525F44 
 7796      49534352 
 7796      4550414E 
 7796      435900
 7797              	.LASF57:
 7798 00e0 75706461 		.ascii	"update\000"
 7798      746500
 7799              	.LASF93:
 7800 00e7 795F6469 		.ascii	"y_dim\000"
 7800      6D00
 7801              	.LASF46:
 7802 00ed 464F4E54 		.ascii	"FONT_TYPE\000"
 7802      5F545950 
 7802      4500
 7803              	.LASF37:
 7804 00f7 4252414B 		.ascii	"BRAKE_IMPLAUSIBLE\000"
 7804      455F494D 
 7804      504C4155 
 7804      5349424C 
 7804      4500
 7805              	.LASF133:
 7806 0109 55475F46 		.ascii	"UG_FillFrame\000"
 7806      696C6C46 
 7806      72616D65 
 7806      00
 7807              	.LASF67:
 7808 0116 6F626A6C 		.ascii	"objlst\000"
 7808      737400
 7809              	.LASF95:
 7810 011d 6E657874 		.ascii	"next_window\000"
 7810      5F77696E 
 7810      646F7700 
 7811              	.LASF69:
 7812 0129 7469746C 		.ascii	"title\000"
 7812      6500
 7813              	.LASF20:
 7814 012f 75696E74 		.ascii	"uint32_t\000"
 7814      33325F74 
 7814      00
 7815              	.LASF15:
 7816 0138 696E7438 		.ascii	"int8_t\000"
 7816      5F7400
 7817              	.LASF43:
 7818 013f 55475F55 		.ascii	"UG_U32\000"
 7818      333200
 7819              	.LASF87:
 7820 0146 785F656E 		.ascii	"x_end\000"
 7820      6400
 7821              	.LASF22:
ARM GAS  C:\Users\RYANCA~1\AppData\Local\Temp\cclc5Gbi.s 			page 153


 7822 014c 666C6F61 		.ascii	"float\000"
 7822      7400
 7823              	.LASF61:
 7824 0152 6576656E 		.ascii	"event\000"
 7824      7400
 7825              	.LASF97:
 7826 0158 6C617374 		.ascii	"last_window\000"
 7826      5F77696E 
 7826      646F7700 
 7827              	.LASF90:
 7828 0164 6261636B 		.ascii	"back_color\000"
 7828      5F636F6C 
 7828      6F7200
 7829              	.LASF29:
 7830 016f 44524956 		.ascii	"DRIVE\000"
 7830      4500
 7831              	.LASF17:
 7832 0175 696E7431 		.ascii	"int16_t\000"
 7832      365F7400 
 7833              	.LASF123:
 7834 017d 464F4E54 		.ascii	"FONT_12X16\000"
 7834      5F313258 
 7834      313600
 7835              	.LASF0:
 7836 0188 6C6F6E67 		.ascii	"long long unsigned int\000"
 7836      206C6F6E 
 7836      6720756E 
 7836      7369676E 
 7836      65642069 
 7837              	.LASF103:
 7838 019f 63616C69 		.ascii	"calibrateScreen\000"
 7838      62726174 
 7838      65536372 
 7838      65656E00 
 7839              	.LASF8:
 7840 01af 5F5F7569 		.ascii	"__uint16_t\000"
 7840      6E743136 
 7840      5F7400
 7841              	.LASF96:
 7842 01ba 61637469 		.ascii	"active_window\000"
 7842      76655F77 
 7842      696E646F 
 7842      7700
 7843              	.LASF66:
 7844 01c8 6F626A63 		.ascii	"objcnt\000"
 7844      6E7400
 7845              	.LASF42:
 7846 01cf 55475F53 		.ascii	"UG_S16\000"
 7846      313600
 7847              	.LASF89:
 7848 01d6 666F7265 		.ascii	"fore_color\000"
 7848      5F636F6C 
 7848      6F7200
 7849              	.LASF84:
 7850 01e1 795F706F 		.ascii	"y_pos\000"
 7850      7300
 7851              	.LASF111:
ARM GAS  C:\Users\RYANCA~1\AppData\Local\Temp\cclc5Gbi.s 			page 154


 7852 01e7 636F6C6F 		.ascii	"color\000"
 7852      7200
 7853              	.LASF139:
 7854 01ed 474E5520 		.ascii	"GNU C11 5.4.1 20160609 (release) [ARM/embedded-5-br"
 7854      43313120 
 7854      352E342E 
 7854      31203230 
 7854      31363036 
 7855 0220 616E6368 		.ascii	"anch revision 237715] -mcpu=cortex-m3 -mthumb -g -O"
 7855      20726576 
 7855      6973696F 
 7855      6E203233 
 7855      37373135 
 7856 0253 67202D66 		.ascii	"g -ffunction-sections -ffat-lto-objects\000"
 7856      66756E63 
 7856      74696F6E 
 7856      2D736563 
 7856      74696F6E 
 7857              	.LASF137:
 7858 027b 55475F50 		.ascii	"UG_PutColorString\000"
 7858      7574436F 
 7858      6C6F7253 
 7858      7472696E 
 7858      6700
 7859              	.LASF34:
 7860 028d 4252414B 		.ascii	"BRAKE_NOT_PRESSED\000"
 7860      455F4E4F 
 7860      545F5052 
 7860      45535345 
 7860      4400
 7861              	.LASF132:
 7862 029f 55475F46 		.ascii	"UG_FillScreen\000"
 7862      696C6C53 
 7862      63726565 
 7862      6E00
 7863              	.LASF126:
 7864 02ad 6C617374 		.ascii	"last_SOC_color\000"
 7864      5F534F43 
 7864      5F636F6C 
 7864      6F7200
 7865              	.LASF48:
 7866 02bc 63686172 		.ascii	"char_width\000"
 7866      5F776964 
 7866      746800
 7867              	.LASF35:
 7868 02c7 48565F44 		.ascii	"HV_DISABLED_WHILE_DRIVING\000"
 7868      49534142 
 7868      4C45445F 
 7868      5748494C 
 7868      455F4452 
 7869              	.LASF38:
 7870 02e1 4553544F 		.ascii	"ESTOP\000"
 7870      5000
 7871              	.LASF117:
 7872 02e7 64697370 		.ascii	"disp_glv_v\000"
 7872      5F676C76 
 7872      5F7600
ARM GAS  C:\Users\RYANCA~1\AppData\Local\Temp\cclc5Gbi.s 			page 155


 7873              	.LASF115:
 7874 02f2 64697370 		.ascii	"disp_state\000"
 7874      5F737461 
 7874      746500
 7875              	.LASF131:
 7876 02fd 6C617374 		.ascii	"last_motor_temp_color\000"
 7876      5F6D6F74 
 7876      6F725F74 
 7876      656D705F 
 7876      636F6C6F 
 7877              	.LASF28:
 7878 0313 48565F45 		.ascii	"HV_ENABLED\000"
 7878      4E41424C 
 7878      454400
 7879              	.LASF86:
 7880 031e 795F7374 		.ascii	"y_start\000"
 7880      61727400 
 7881              	.LASF77:
 7882 0326 765F7370 		.ascii	"v_space\000"
 7882      61636500 
 7883              	.LASF24:
 7884 032e 63686172 		.ascii	"char\000"
 7884      00
 7885              	.LASF33:
 7886 0333 434F4E53 		.ascii	"CONSERVATIVE_TIMER_MAXED\000"
 7886      45525641 
 7886      54495645 
 7886      5F54494D 
 7886      45525F4D 
 7887              	.LASF109:
 7888 034c 79466F6E 		.ascii	"yFont\000"
 7888      7400
 7889              	.LASF47:
 7890 0352 666F6E74 		.ascii	"font_type\000"
 7890      5F747970 
 7890      6500
 7891              	.LASF71:
 7892 035c 55475F41 		.ascii	"UG_AREA\000"
 7892      52454100 
 7893              	.LASF73:
 7894 0364 55475F4D 		.ascii	"UG_MESSAGE\000"
 7894      45535341 
 7894      474500
 7895              	.LASF62:
 7896 036f 64617461 		.ascii	"data\000"
 7896      00
 7897              	.LASF16:
 7898 0374 75696E74 		.ascii	"uint8_t\000"
 7898      385F7400 
 7899              	.LASF94:
 7900 037c 746F7563 		.ascii	"touch\000"
 7900      6800
 7901              	.LASF81:
 7902 0382 64726976 		.ascii	"driver\000"
 7902      657200
 7903              	.LASF40:
 7904 0389 55475F53 		.ascii	"UG_S8\000"
ARM GAS  C:\Users\RYANCA~1\AppData\Local\Temp\cclc5Gbi.s 			page 156


 7904      3800
 7905              	.LASF119:
 7906 038f 64697370 		.ascii	"disp_mc_temp\000"
 7906      5F6D635F 
 7906      74656D70 
 7906      00
 7907              	.LASF92:
 7908 039c 785F6469 		.ascii	"x_dim\000"
 7908      6D00
 7909              	.LASF14:
 7910 03a2 6C6F6E67 		.ascii	"long long int\000"
 7910      206C6F6E 
 7910      6720696E 
 7910      7400
 7911              	.LASF127:
 7912 03b0 6C617374 		.ascii	"last_max_pack_temp_color\000"
 7912      5F6D6178 
 7912      5F706163 
 7912      6B5F7465 
 7912      6D705F63 
 7913              	.LASF6:
 7914 03c9 5F5F696E 		.ascii	"__int16_t\000"
 7914      7431365F 
 7914      7400
 7915              	.LASF54:
 7916 03d3 55475F4F 		.ascii	"UG_OBJECT\000"
 7916      424A4543 
 7916      5400
 7917              	.LASF91:
 7918 03dd 70736574 		.ascii	"pset\000"
 7918      00
 7919              	.LASF72:
 7920 03e2 7375625F 		.ascii	"sub_id\000"
 7920      696400
 7921              	.LASF106:
 7922 03e9 73697A65 		.ascii	"size\000"
 7922      00
 7923              	.LASF121:
 7924 03ee 64697370 		.ascii	"disp_gen_voltage\000"
 7924      5F67656E 
 7924      5F766F6C 
 7924      74616765 
 7924      00
 7925              	.LASF79:
 7926 03ff 68656967 		.ascii	"height\000"
 7926      687400
 7927              	.LASF50:
 7928 0406 73746172 		.ascii	"start_char\000"
 7928      745F6368 
 7928      617200
 7929              	.LASF27:
 7930 0411 50524543 		.ascii	"PRECHARGING\000"
 7930      48415247 
 7930      494E4700 
 7931              	.LASF39:
 7932 041d 55475F55 		.ascii	"UG_U8\000"
 7932      3800
ARM GAS  C:\Users\RYANCA~1\AppData\Local\Temp\cclc5Gbi.s 			page 157


 7933              	.LASF3:
 7934 0423 5F5F696E 		.ascii	"__int8_t\000"
 7934      74385F74 
 7934      00
 7935              	.LASF52:
 7936 042c 77696474 		.ascii	"widths\000"
 7936      687300
 7937              	.LASF135:
 7938 0433 55475F50 		.ascii	"UG_PutString\000"
 7938      75745374 
 7938      72696E67 
 7938      00
 7939              	.LASF25:
 7940 0440 6C6F6E67 		.ascii	"long double\000"
 7940      20646F75 
 7940      626C6500 
 7941              	.LASF136:
 7942 044c 73707269 		.ascii	"sprintf\000"
 7942      6E746600 
 7943              	.LASF18:
 7944 0454 75696E74 		.ascii	"uint16_t\000"
 7944      31365F74 
 7944      00
 7945              	.LASF125:
 7946 045d 67756931 		.ascii	"gui1963\000"
 7946      39363300 
 7947              	.LASF80:
 7948 0465 55475F54 		.ascii	"UG_TITLE\000"
 7948      49544C45 
 7948      00
 7949              	.LASF82:
 7950 046e 55475F44 		.ascii	"UG_DRIVER\000"
 7950      52495645 
 7950      5200
 7951              	.LASF83:
 7952 0478 785F706F 		.ascii	"x_pos\000"
 7952      7300
 7953              	.LASF49:
 7954 047e 63686172 		.ascii	"char_height\000"
 7954      5F686569 
 7954      67687400 
 7955              	.LASF7:
 7956 048a 73686F72 		.ascii	"short int\000"
 7956      7420696E 
 7956      7400
 7957              	.LASF128:
 7958 0494 6C617374 		.ascii	"last_state_color\000"
 7958      5F737461 
 7958      74655F63 
 7958      6F6C6F72 
 7958      00
 7959              	.LASF11:
 7960 04a5 6C6F6E67 		.ascii	"long int\000"
 7960      20696E74 
 7960      00
 7961              	.LASF63:
 7962 04ae 55475F57 		.ascii	"UG_WINDOW\000"
ARM GAS  C:\Users\RYANCA~1\AppData\Local\Temp\cclc5Gbi.s 			page 158


 7962      494E444F 
 7962      5700
 7963              	.LASF122:
 7964 04b8 49544D5F 		.ascii	"ITM_RxBuffer\000"
 7964      52784275 
 7964      66666572 
 7964      00
 7965              	.LASF120:
 7966 04c5 64697370 		.ascii	"disp_motor_temp\000"
 7966      5F6D6F74 
 7966      6F725F74 
 7966      656D7000 
 7967              	.LASF51:
 7968 04d5 656E645F 		.ascii	"end_char\000"
 7968      63686172 
 7968      00
 7969              	.LASF53:
 7970 04de 55475F46 		.ascii	"UG_FONT\000"
 7970      4F4E5400 
 7971              	.LASF4:
 7972 04e6 5F5F7569 		.ascii	"__uint8_t\000"
 7972      6E74385F 
 7972      7400
 7973              	.LASF108:
 7974 04f0 78466F6E 		.ascii	"xFont\000"
 7974      7400
 7975              	.LASF75:
 7976 04f6 666F6E74 		.ascii	"font\000"
 7976      00
 7977              	.LASF26:
 7978 04fb 73697A65 		.ascii	"sizetype\000"
 7978      74797065 
 7978      00
 7979              	.LASF13:
 7980 0504 6C6F6E67 		.ascii	"long unsigned int\000"
 7980      20756E73 
 7980      69676E65 
 7980      6420696E 
 7980      7400
 7981              	.LASF104:
 7982 0516 64656275 		.ascii	"debugTemplate\000"
 7982      6754656D 
 7982      706C6174 
 7982      6500
 7983              	.LASF124:
 7984 0524 464F4E54 		.ascii	"FONT_32X53\000"
 7984      5F333258 
 7984      353300
 7985              	.LASF19:
 7986 052f 696E7433 		.ascii	"int32_t\000"
 7986      325F7400 
 7987              	.LASF114:
 7988 0537 64697370 		.ascii	"disp_max_pack_temp\000"
 7988      5F6D6178 
 7988      5F706163 
 7988      6B5F7465 
 7988      6D7000
ARM GAS  C:\Users\RYANCA~1\AppData\Local\Temp\cclc5Gbi.s 			page 159


 7989              	.LASF110:
 7990 054a 686F7269 		.ascii	"horizFontSize\000"
 7990      7A466F6E 
 7990      7453697A 
 7990      6500
 7991              	.LASF129:
 7992 0558 6C617374 		.ascii	"last_glv_v_color\000"
 7992      5F676C76 
 7992      5F765F63 
 7992      6F6C6F72 
 7992      00
 7993              	.LASF60:
 7994 0569 74797065 		.ascii	"type\000"
 7994      00
 7995              	.LASF5:
 7996 056e 756E7369 		.ascii	"unsigned char\000"
 7996      676E6564 
 7996      20636861 
 7996      7200
 7997              	.LASF12:
 7998 057c 5F5F7569 		.ascii	"__uint32_t\000"
 7998      6E743332 
 7998      5F7400
 7999              	.LASF76:
 8000 0587 685F7370 		.ascii	"h_space\000"
 8000      61636500 
 8001              	.LASF105:
 8002 058f 64726976 		.ascii	"driveTemplate\000"
 8002      6554656D 
 8002      706C6174 
 8002      6500
 8003              	.LASF85:
 8004 059d 785F7374 		.ascii	"x_start\000"
 8004      61727400 
 8005              	.LASF30:
 8006 05a5 4641554C 		.ascii	"FAULT\000"
 8006      5400
 8007              	.LASF88:
 8008 05ab 795F656E 		.ascii	"y_end\000"
 8008      6400
 8009              	.LASF130:
 8010 05b1 6C617374 		.ascii	"last_mc_temp_color\000"
 8010      5F6D635F 
 8010      74656D70 
 8010      5F636F6C 
 8010      6F7200
 8011              	.LASF68:
 8012 05c4 7374796C 		.ascii	"style\000"
 8012      6500
 8013              	.LASF55:
 8014 05ca 73746174 		.ascii	"state\000"
 8014      6500
 8015              	.LASF113:
 8016 05d0 64697370 		.ascii	"disp_SOC\000"
 8016      5F534F43 
 8016      00
 8017              	.LASF107:
ARM GAS  C:\Users\RYANCA~1\AppData\Local\Temp\cclc5Gbi.s 			page 160


 8018 05d9 73747269 		.ascii	"stringSize\000"
 8018      6E675369 
 8018      7A6500
 8019              	.LASF102:
 8020 05e4 55475F47 		.ascii	"UG_GUI\000"
 8020      554900
 8021              	.LASF59:
 8022 05eb 615F7265 		.ascii	"a_rel\000"
 8022      6C00
 8023              	.LASF74:
 8024 05f1 55475F54 		.ascii	"UG_TOUCH\000"
 8024      4F554348 
 8024      00
 8025              	.LASF2:
 8026 05fa 7369676E 		.ascii	"signed char\000"
 8026      65642063 
 8026      68617200 
 8027              	.LASF9:
 8028 0606 73686F72 		.ascii	"short unsigned int\000"
 8028      7420756E 
 8028      7369676E 
 8028      65642069 
 8028      6E7400
 8029              	.LASF140:
 8030 0619 66727563 		.ascii	"frucd_display.c\000"
 8030      645F6469 
 8030      73706C61 
 8030      792E6300 
 8031              	.LASF21:
 8032 0629 75696E74 		.ascii	"uint8\000"
 8032      3800
 8033              	.LASF23:
 8034 062f 646F7562 		.ascii	"double\000"
 8034      6C6500
 8035              	.LASF138:
 8036 0636 55475F46 		.ascii	"UG_FontSelect\000"
 8036      6F6E7453 
 8036      656C6563 
 8036      7400
 8037              	.LASF32:
 8038 0644 44524956 		.ascii	"DRIVE_REQUEST_FROM_LV\000"
 8038      455F5245 
 8038      51554553 
 8038      545F4652 
 8038      4F4D5F4C 
 8039              	.LASF64:
 8040 065a 535F4F42 		.ascii	"S_OBJECT\000"
 8040      4A454354 
 8040      00
 8041              	.LASF78:
 8042 0663 616C6967 		.ascii	"align\000"
 8042      6E00
 8043              	.LASF58:
 8044 0669 615F6162 		.ascii	"a_abs\000"
 8044      7300
 8045              	.LASF116:
 8046 066f 6661756C 		.ascii	"fault\000"
ARM GAS  C:\Users\RYANCA~1\AppData\Local\Temp\cclc5Gbi.s 			page 161


 8046      7400
 8047              	.LASF44:
 8048 0675 464F4E54 		.ascii	"FONT_TYPE_1BPP\000"
 8048      5F545950 
 8048      455F3142 
 8048      505000
 8049              	.LASF118:
 8050 0684 64697370 		.ascii	"disp_gen_temp\000"
 8050      5F67656E 
 8050      5F74656D 
 8050      7000
 8051              	.LASF99:
 8052 0692 63686172 		.ascii	"char_h_space\000"
 8052      5F685F73 
 8052      70616365 
 8052      00
 8053              		.ident	"GCC: (GNU Tools for ARM Embedded Processors) 5.4.1 20160609 (release) [ARM/embedded-5-bran
