ARM GAS  C:\Users\RYANCA~1\AppData\Local\Temp\cclc5Gbi.s 			page 1


   1              		.syntax unified
   2              		.cpu cortex-m3
   3              		.fpu softvfp
   4              		.eabi_attribute 20, 1
   5              		.eabi_attribute 21, 1
   6              		.eabi_attribute 23, 3
   7              		.eabi_attribute 24, 1
   8              		.eabi_attribute 25, 1
   9              		.eabi_attribute 26, 1
  10              		.eabi_attribute 30, 1
  11              		.eabi_attribute 34, 1
  12              		.eabi_attribute 18, 4
  13              		.thumb
  14              		.syntax unified
  15              		.file	"frucd_display.c"
  16              		.text
  17              	.Ltext0:
  18              		.cfi_sections	.debug_frame
  19              		.section	.text.calibrateScreen,"ax",%progbits
  20              		.align	2
  21              		.global	calibrateScreen
  22              		.thumb
  23              		.thumb_func
  24              		.type	calibrateScreen, %function
  25              	calibrateScreen:
  26              	.LFB64:
  27              		.file 1 "frucd_display.c"
   1:frucd_display.c **** /* ========================================
   2:frucd_display.c ****  *
   3:frucd_display.c ****  * APIs for updating FRUCD Dashboard display
   4:frucd_display.c ****  *
   5:frucd_display.c ****  * ========================================
   6:frucd_display.c **** */
   7:frucd_display.c **** #include "frucd_display.h"
   8:frucd_display.c **** 
   9:frucd_display.c **** // Just a test function that displays elements at the supposed corners of the screen
  10:frucd_display.c **** void calibrateScreen() {
  28              		.loc 1 10 0
  29              		.cfi_startproc
  30              		@ args = 0, pretend = 0, frame = 0
  31              		@ frame_needed = 0, uses_anonymous_args = 0
  32 0000 00B5     		push	{lr}
  33              		.cfi_def_cfa_offset 4
  34              		.cfi_offset 14, -4
  35 0002 83B0     		sub	sp, sp, #12
  36              		.cfi_def_cfa_offset 16
  11:frucd_display.c ****     UG_FillScreen(C_WHITE);
  37              		.loc 1 11 0
  38 0004 6FF07F40 		mvn	r0, #-16777216
  39 0008 FFF7FEFF 		bl	UG_FillScreen
  40              	.LVL0:
  12:frucd_display.c ****     //libTFT_FillRectangle(0, 0, 10, 10, RED);
  13:frucd_display.c ****     UG_FillFrame(0, 0, 10, 10, C_RED);
  41              		.loc 1 13 0
  42 000c 4FF47F03 		mov	r3, #16711680
  43 0010 0093     		str	r3, [sp]
  44 0012 0A23     		movs	r3, #10
ARM GAS  C:\Users\RYANCA~1\AppData\Local\Temp\cclc5Gbi.s 			page 2


  45 0014 1A46     		mov	r2, r3
  46 0016 0021     		movs	r1, #0
  47 0018 0846     		mov	r0, r1
  48 001a FFF7FEFF 		bl	UG_FillFrame
  49              	.LVL1:
  14:frucd_display.c ****     //libTFT_FillRectangle(0, 262, 10, 10, BLUE);
  15:frucd_display.c ****     UG_FillFrame(0, 262, 10, 272, C_BLUE);
  50              		.loc 1 15 0
  51 001e FF23     		movs	r3, #255
  52 0020 0093     		str	r3, [sp]
  53 0022 4FF48873 		mov	r3, #272
  54 0026 0A22     		movs	r2, #10
  55 0028 4FF48371 		mov	r1, #262
  56 002c 0020     		movs	r0, #0
  57 002e FFF7FEFF 		bl	UG_FillFrame
  58              	.LVL2:
  16:frucd_display.c ****     //libTFT_FillRectangle(470, 0, 10, 10, GREEN);
  17:frucd_display.c ****     UG_FillFrame(470, 0, 480, 10, C_GREEN);
  59              		.loc 1 17 0
  60 0032 4FF47F43 		mov	r3, #65280
  61 0036 0093     		str	r3, [sp]
  62 0038 0A23     		movs	r3, #10
  63 003a 4FF4F072 		mov	r2, #480
  64 003e 0021     		movs	r1, #0
  65 0040 4FF4EB70 		mov	r0, #470
  66 0044 FFF7FEFF 		bl	UG_FillFrame
  67              	.LVL3:
  18:frucd_display.c ****     //libTFT_FillRectangle(470, 262, 10, 10, YELLOW);
  19:frucd_display.c ****     UG_FillFrame(470, 262, 480, 272, C_YELLOW);
  68              		.loc 1 19 0
  69 0048 094B     		ldr	r3, .L3
  70 004a 0093     		str	r3, [sp]
  71 004c 4FF48873 		mov	r3, #272
  72 0050 4FF4F072 		mov	r2, #480
  73 0054 4FF48371 		mov	r1, #262
  74 0058 4FF4EB70 		mov	r0, #470
  75 005c FFF7FEFF 		bl	UG_FillFrame
  76              	.LVL4:
  20:frucd_display.c ****     CyDelay(300);
  77              		.loc 1 20 0
  78 0060 4FF49670 		mov	r0, #300
  79 0064 FFF7FEFF 		bl	CyDelay
  80              	.LVL5:
  21:frucd_display.c **** }
  81              		.loc 1 21 0
  82 0068 03B0     		add	sp, sp, #12
  83              		.cfi_def_cfa_offset 4
  84              		@ sp needed
  85 006a 5DF804FB 		ldr	pc, [sp], #4
  86              	.L4:
  87 006e 00BF     		.align	2
  88              	.L3:
  89 0070 00FFFF00 		.word	16776960
  90              		.cfi_endproc
  91              	.LFE64:
  92              		.size	calibrateScreen, .-calibrateScreen
  93              		.section	.text.debugTemplate,"ax",%progbits
ARM GAS  C:\Users\RYANCA~1\AppData\Local\Temp\cclc5Gbi.s 			page 3


  94              		.align	2
  95              		.global	debugTemplate
  96              		.thumb
  97              		.thumb_func
  98              		.type	debugTemplate, %function
  99              	debugTemplate:
 100              	.LFB65:
  22:frucd_display.c **** 
  23:frucd_display.c **** // Initializes dashboard layout/labels
  24:frucd_display.c **** /*
  25:frucd_display.c **** void initDashTemplate() {
  26:frucd_display.c ****     UG_FillScreen(C_BLACK);
  27:frucd_display.c ****     UG_PutString(68, 10, "PACK SOC");
  28:frucd_display.c ****     UG_PutString(297, 10, "MAX PACK T");
  29:frucd_display.c ****     UG_PutString(10, 195, "STATE:");
  30:frucd_display.c ****     UG_PutString(10, 240, "GLV V:");
  31:frucd_display.c ****     UG_PutString(339, 195, "MC T:");
  32:frucd_display.c ****     UG_PutString(300, 240, "MOTOR T:");
  33:frucd_display.c **** }
  34:frucd_display.c **** */
  35:frucd_display.c **** 
  36:frucd_display.c **** void debugTemplate(){
 101              		.loc 1 36 0
 102              		.cfi_startproc
 103              		@ args = 0, pretend = 0, frame = 0
 104              		@ frame_needed = 0, uses_anonymous_args = 0
 105 0000 08B5     		push	{r3, lr}
 106              		.cfi_def_cfa_offset 8
 107              		.cfi_offset 3, -8
 108              		.cfi_offset 14, -4
  37:frucd_display.c ****     UG_FillScreen(C_BLACK);
 109              		.loc 1 37 0
 110 0002 0020     		movs	r0, #0
 111 0004 FFF7FEFF 		bl	UG_FillScreen
 112              	.LVL6:
  38:frucd_display.c ****     UG_PutString(68, 10, "PACK SOC");
 113              		.loc 1 38 0
 114 0008 104A     		ldr	r2, .L7
 115 000a 0A21     		movs	r1, #10
 116 000c 4420     		movs	r0, #68
 117 000e FFF7FEFF 		bl	UG_PutString
 118              	.LVL7:
  39:frucd_display.c ****     UG_PutString(297, 10, "MAX PACK T");
 119              		.loc 1 39 0
 120 0012 0F4A     		ldr	r2, .L7+4
 121 0014 0A21     		movs	r1, #10
 122 0016 40F22910 		movw	r0, #297
 123 001a FFF7FEFF 		bl	UG_PutString
 124              	.LVL8:
  40:frucd_display.c ****     UG_PutString(10, 195, "STATE:");
 125              		.loc 1 40 0
 126 001e 0D4A     		ldr	r2, .L7+8
 127 0020 C321     		movs	r1, #195
 128 0022 0A20     		movs	r0, #10
 129 0024 FFF7FEFF 		bl	UG_PutString
 130              	.LVL9:
  41:frucd_display.c ****     UG_PutString(10, 240, "GLV V:");
ARM GAS  C:\Users\RYANCA~1\AppData\Local\Temp\cclc5Gbi.s 			page 4


 131              		.loc 1 41 0
 132 0028 0B4A     		ldr	r2, .L7+12
 133 002a F021     		movs	r1, #240
 134 002c 0A20     		movs	r0, #10
 135 002e FFF7FEFF 		bl	UG_PutString
 136              	.LVL10:
  42:frucd_display.c ****     UG_PutString(339, 195, "MC T:");
 137              		.loc 1 42 0
 138 0032 0A4A     		ldr	r2, .L7+16
 139 0034 C321     		movs	r1, #195
 140 0036 40F25310 		movw	r0, #339
 141 003a FFF7FEFF 		bl	UG_PutString
 142              	.LVL11:
  43:frucd_display.c ****     UG_PutString(300, 240, "MOTOR T:");
 143              		.loc 1 43 0
 144 003e 084A     		ldr	r2, .L7+20
 145 0040 F021     		movs	r1, #240
 146 0042 4FF49670 		mov	r0, #300
 147 0046 FFF7FEFF 		bl	UG_PutString
 148              	.LVL12:
 149 004a 08BD     		pop	{r3, pc}
 150              	.L8:
 151              		.align	2
 152              	.L7:
 153 004c 00000000 		.word	.LC0
 154 0050 0C000000 		.word	.LC1
 155 0054 18000000 		.word	.LC2
 156 0058 20000000 		.word	.LC3
 157 005c 28000000 		.word	.LC4
 158 0060 30000000 		.word	.LC5
 159              		.cfi_endproc
 160              	.LFE65:
 161              		.size	debugTemplate, .-debugTemplate
 162              		.section	.text.driveTemplate,"ax",%progbits
 163              		.align	2
 164              		.global	driveTemplate
 165              		.thumb
 166              		.thumb_func
 167              		.type	driveTemplate, %function
 168              	driveTemplate:
 169              	.LFB66:
  44:frucd_display.c ****     
  45:frucd_display.c ****     
  46:frucd_display.c ****     
  47:frucd_display.c **** }
  48:frucd_display.c **** void driveTemplate(){
 170              		.loc 1 48 0
 171              		.cfi_startproc
 172              		@ args = 0, pretend = 0, frame = 0
 173              		@ frame_needed = 0, uses_anonymous_args = 0
 174 0000 08B5     		push	{r3, lr}
 175              		.cfi_def_cfa_offset 8
 176              		.cfi_offset 3, -8
 177              		.cfi_offset 14, -4
  49:frucd_display.c ****     UG_FillScreen(C_BLACK);
 178              		.loc 1 49 0
 179 0002 0020     		movs	r0, #0
ARM GAS  C:\Users\RYANCA~1\AppData\Local\Temp\cclc5Gbi.s 			page 5


 180 0004 FFF7FEFF 		bl	UG_FillScreen
 181              	.LVL13:
  50:frucd_display.c ****     UG_PutString(68, 10, "PACK SOC");
 182              		.loc 1 50 0
 183 0008 084A     		ldr	r2, .L11
 184 000a 0A21     		movs	r1, #10
 185 000c 4420     		movs	r0, #68
 186 000e FFF7FEFF 		bl	UG_PutString
 187              	.LVL14:
  51:frucd_display.c ****     UG_PutString(297, 10, "MAX PACK T");
 188              		.loc 1 51 0
 189 0012 074A     		ldr	r2, .L11+4
 190 0014 0A21     		movs	r1, #10
 191 0016 40F22910 		movw	r0, #297
 192 001a FFF7FEFF 		bl	UG_PutString
 193              	.LVL15:
  52:frucd_display.c ****     UG_PutString(35, 225, "STATE:");
 194              		.loc 1 52 0
 195 001e 054A     		ldr	r2, .L11+8
 196 0020 E121     		movs	r1, #225
 197 0022 2320     		movs	r0, #35
 198 0024 FFF7FEFF 		bl	UG_PutString
 199              	.LVL16:
 200 0028 08BD     		pop	{r3, pc}
 201              	.L12:
 202 002a 00BF     		.align	2
 203              	.L11:
 204 002c 00000000 		.word	.LC0
 205 0030 0C000000 		.word	.LC1
 206 0034 18000000 		.word	.LC2
 207              		.cfi_endproc
 208              	.LFE66:
 209              		.size	driveTemplate, .-driveTemplate
 210              		.section	.text.disp_SOC,"ax",%progbits
 211              		.align	2
 212              		.global	disp_SOC
 213              		.thumb
 214              		.thumb_func
 215              		.type	disp_SOC, %function
 216              	disp_SOC:
 217              	.LFB67:
  53:frucd_display.c ****     
  54:frucd_display.c **** }
  55:frucd_display.c **** /*
  56:frucd_display.c ****  * BEGIN: functions to show data on dash
  57:frucd_display.c ****  * - handle variety of digit counts
  58:frucd_display.c ****  * - color decision logic is in here
  59:frucd_display.c ****  */
  60:frucd_display.c **** 
  61:frucd_display.c **** /*
  62:frucd_display.c **** void disp_SOC(uint8_t data) {
  63:frucd_display.c ****     UG_FontSelect(&FONT_32X53);
  64:frucd_display.c ****     UG_COLOR color;
  65:frucd_display.c ****     if (data == 100) {
  66:frucd_display.c ****         // handle 100% case
  67:frucd_display.c ****         color = C_GREEN;
  68:frucd_display.c ****         if (color != last_SOC_color) {
ARM GAS  C:\Users\RYANCA~1\AppData\Local\Temp\cclc5Gbi.s 			page 6


  69:frucd_display.c ****             // only draw rectangle if color changed
  70:frucd_display.c ****             UG_FillFrame(30, 35, 210, 170, color);
  71:frucd_display.c ****             last_SOC_color = color;
  72:frucd_display.c ****         }
  73:frucd_display.c ****         UG_PutColorString(55, 80, "100%", C_BLACK, C_GREEN);
  74:frucd_display.c ****     } else {
  75:frucd_display.c ****         // handle other cases
  76:frucd_display.c ****         char data_s[4];
  77:frucd_display.c ****         sprintf(data_s, "%d", data);
  78:frucd_display.c ****         if (data >= 10) {
  79:frucd_display.c ****             // handle 2 digit cases
  80:frucd_display.c ****             // choose color
  81:frucd_display.c ****             if (data > 75) {
  82:frucd_display.c ****                 color = C_GREEN;
  83:frucd_display.c ****             } else if (data > 50) {
  84:frucd_display.c ****                 color = C_YELLOW;
  85:frucd_display.c ****             } else if (data > 25) {
  86:frucd_display.c ****                 color = C_ORANGE;
  87:frucd_display.c ****             } else {
  88:frucd_display.c ****                 color = C_RED;
  89:frucd_display.c ****             }
  90:frucd_display.c ****             data_s[2] = '%';
  91:frucd_display.c ****             data_s[3] = '\0';
  92:frucd_display.c ****             if (color != last_SOC_color) {
  93:frucd_display.c ****                 // only draw rectangle if color changed
  94:frucd_display.c ****                 UG_FillFrame(30, 35, 210, 170, color);
  95:frucd_display.c ****                 last_SOC_color = color;
  96:frucd_display.c ****             }
  97:frucd_display.c ****             UG_PutColorString(70, 80, data_s, C_BLACK, color);
  98:frucd_display.c ****         } else {
  99:frucd_display.c ****             // handle 1 digit cases
 100:frucd_display.c ****             data_s[1] = '%';
 101:frucd_display.c ****             data_s[2] = '\0';
 102:frucd_display.c ****             color = C_RED;
 103:frucd_display.c ****             
 104:frucd_display.c ****             
 105:frucd_display.c ****             
 106:frucd_display.c ****             
 107:frucd_display.c ****             //why is this here?
 108:frucd_display.c ****             UG_FillFrame(30, 35, 210, 170, C_BLACK);
 109:frucd_display.c ****             
 110:frucd_display.c ****             
 111:frucd_display.c ****             
 112:frucd_display.c ****             
 113:frucd_display.c ****             
 114:frucd_display.c ****             
 115:frucd_display.c ****             
 116:frucd_display.c ****             UG_FillFrame(30, 35, 210, 170, color);
 117:frucd_display.c ****             UG_PutColorString(90, 80, data_s, C_BLACK, color);
 118:frucd_display.c ****         }   
 119:frucd_display.c ****     }
 120:frucd_display.c ****     UG_FontSelect(&FONT_12X16);
 121:frucd_display.c **** }
 122:frucd_display.c **** 
 123:frucd_display.c **** 
 124:frucd_display.c **** */
 125:frucd_display.c **** 
ARM GAS  C:\Users\RYANCA~1\AppData\Local\Temp\cclc5Gbi.s 			page 7


 126:frucd_display.c **** 
 127:frucd_display.c **** // size is big if 1, small if not
 128:frucd_display.c **** void disp_SOC(uint8_t data, uint8_t x1, uint8_t y1, uint8_t x2, uint8_t y2, uint8_t size) {
 218              		.loc 1 128 0
 219              		.cfi_startproc
 220              		@ args = 8, pretend = 0, frame = 8
 221              		@ frame_needed = 0, uses_anonymous_args = 0
 222              	.LVL17:
 223 0000 2DE9F04F 		push	{r4, r5, r6, r7, r8, r9, r10, fp, lr}
 224              		.cfi_def_cfa_offset 36
 225              		.cfi_offset 4, -36
 226              		.cfi_offset 5, -32
 227              		.cfi_offset 6, -28
 228              		.cfi_offset 7, -24
 229              		.cfi_offset 8, -20
 230              		.cfi_offset 9, -16
 231              		.cfi_offset 10, -12
 232              		.cfi_offset 11, -8
 233              		.cfi_offset 14, -4
 234 0004 85B0     		sub	sp, sp, #20
 235              		.cfi_def_cfa_offset 56
 236 0006 0546     		mov	r5, r0
 237 0008 0E46     		mov	r6, r1
 238 000a 1746     		mov	r7, r2
 239 000c 9846     		mov	r8, r3
 240 000e 9DF83890 		ldrb	r9, [sp, #56]	@ zero_extendqisi2
 241 0012 9DF83C30 		ldrb	r3, [sp, #60]	@ zero_extendqisi2
 242              	.LVL18:
 129:frucd_display.c ****     int stringSize;
 130:frucd_display.c ****     int xFont, yFont;
 131:frucd_display.c ****     int horizFontSize = 12 + 20*size;
 243              		.loc 1 131 0
 244 0016 03EB8302 		add	r2, r3, r3, lsl #2
 245              	.LVL19:
 246 001a 9400     		lsls	r4, r2, #2
 247 001c 0C34     		adds	r4, r4, #12
 248              	.LVL20:
 132:frucd_display.c ****     if (data >= 100) {
 249              		.loc 1 132 0
 250 001e 6328     		cmp	r0, #99
 251 0020 03D8     		bhi	.L23
 133:frucd_display.c ****         stringSize = 4;
 134:frucd_display.c ****     }else if (data >= 10){
 252              		.loc 1 134 0
 253 0022 0928     		cmp	r0, #9
 254 0024 03D9     		bls	.L24
 135:frucd_display.c ****         stringSize = 3;
 255              		.loc 1 135 0
 256 0026 0321     		movs	r1, #3
 257              	.LVL21:
 258 0028 02E0     		b	.L14
 259              	.LVL22:
 260              	.L23:
 133:frucd_display.c ****         stringSize = 4;
 261              		.loc 1 133 0
 262 002a 0421     		movs	r1, #4
 263              	.LVL23:
ARM GAS  C:\Users\RYANCA~1\AppData\Local\Temp\cclc5Gbi.s 			page 8


 264 002c 00E0     		b	.L14
 265              	.LVL24:
 266              	.L24:
 136:frucd_display.c ****     }else{
 137:frucd_display.c ****         stringSize = 2;
 267              		.loc 1 137 0
 268 002e 0221     		movs	r1, #2
 269              	.LVL25:
 270              	.L14:
 138:frucd_display.c ****     }
 139:frucd_display.c ****     
 140:frucd_display.c ****     xFont = (x1 + x2)/2 - ((horizFontSize*stringSize)/2);
 271              		.loc 1 140 0
 272 0030 06EB0802 		add	r2, r6, r8
 273 0034 04FB01F4 		mul	r4, r4, r1
 274              	.LVL26:
 275 0038 6410     		asrs	r4, r4, #1
 276 003a C4EB6204 		rsb	r4, r4, r2, asr #1
 277              	.LVL27:
 141:frucd_display.c ****     yFont = (y1 + y2)/2 - 5 - (size*17);    
 278              		.loc 1 141 0
 279 003e 07EB0902 		add	r2, r7, r9
 280 0042 5210     		asrs	r2, r2, #1
 281 0044 053A     		subs	r2, r2, #5
 282 0046 C3EB0371 		rsb	r1, r3, r3, lsl #28
 283              	.LVL28:
 284 004a C3EB0111 		rsb	r1, r3, r1, lsl #4
 285 004e 02EB010A 		add	r10, r2, r1
 286              	.LVL29:
 142:frucd_display.c ****     if(size == 1){
 287              		.loc 1 142 0
 288 0052 012B     		cmp	r3, #1
 289 0054 02D1     		bne	.L15
 143:frucd_display.c ****         UG_FontSelect(&FONT_32X53);
 290              		.loc 1 143 0
 291 0056 3F48     		ldr	r0, .L29
 292              	.LVL30:
 293 0058 FFF7FEFF 		bl	UG_FontSelect
 294              	.LVL31:
 295              	.L15:
 144:frucd_display.c ****        
 145:frucd_display.c ****     }
 146:frucd_display.c ****         
 147:frucd_display.c ****     UG_COLOR color;
 148:frucd_display.c ****     if (data == 100) {
 296              		.loc 1 148 0
 297 005c 642D     		cmp	r5, #100
 298 005e 1AD1     		bne	.L16
 299              	.LVL32:
 149:frucd_display.c ****         // handle 100% case
 150:frucd_display.c ****         color = C_GREEN;
 151:frucd_display.c ****         if (color != last_SOC_color) {
 300              		.loc 1 151 0
 301 0060 3D4B     		ldr	r3, .L29+4
 302 0062 1B68     		ldr	r3, [r3]
 303 0064 B3F57F4F 		cmp	r3, #65280
 304 0068 0AD0     		beq	.L17
ARM GAS  C:\Users\RYANCA~1\AppData\Local\Temp\cclc5Gbi.s 			page 9


 152:frucd_display.c ****             // only draw rectangle if color changed
 153:frucd_display.c ****             UG_FillFrame(x1, y1, x2, y2, color);
 305              		.loc 1 153 0
 306 006a 4FF47F45 		mov	r5, #65280
 307 006e 0095     		str	r5, [sp]
 308 0070 4B46     		mov	r3, r9
 309 0072 4246     		mov	r2, r8
 310 0074 3946     		mov	r1, r7
 311 0076 3046     		mov	r0, r6
 312 0078 FFF7FEFF 		bl	UG_FillFrame
 313              	.LVL33:
 154:frucd_display.c ****             last_SOC_color = color;
 314              		.loc 1 154 0
 315 007c 364B     		ldr	r3, .L29+4
 316 007e 1D60     		str	r5, [r3]
 317              	.L17:
 155:frucd_display.c ****         }
 156:frucd_display.c ****         
 157:frucd_display.c ****         UG_PutColorString(xFont, yFont, "100%", C_BLACK, C_GREEN);
 318              		.loc 1 157 0
 319 0080 4FF47F43 		mov	r3, #65280
 320 0084 0093     		str	r3, [sp]
 321 0086 0023     		movs	r3, #0
 322 0088 344A     		ldr	r2, .L29+8
 323 008a 0FFA8AF1 		sxth	r1, r10
 324 008e 20B2     		sxth	r0, r4
 325 0090 FFF7FEFF 		bl	UG_PutColorString
 326              	.LVL34:
 327 0094 57E0     		b	.L18
 328              	.LVL35:
 329              	.L16:
 330              	.LBB2:
 158:frucd_display.c ****     } else {
 159:frucd_display.c ****         // handle other cases
 160:frucd_display.c ****         char data_s[4];
 161:frucd_display.c ****         sprintf(data_s, "%d", data);
 331              		.loc 1 161 0
 332 0096 2A46     		mov	r2, r5
 333 0098 3149     		ldr	r1, .L29+12
 334 009a 03A8     		add	r0, sp, #12
 335 009c FFF7FEFF 		bl	sprintf
 336              	.LVL36:
 162:frucd_display.c ****         if (data >= 10) {
 337              		.loc 1 162 0
 338 00a0 092D     		cmp	r5, #9
 339 00a2 2AD9     		bls	.L19
 163:frucd_display.c ****             // handle 2 digit cases
 164:frucd_display.c ****             // choose color
 165:frucd_display.c ****             if (data > 75) {
 340              		.loc 1 165 0
 341 00a4 4B2D     		cmp	r5, #75
 342 00a6 05D8     		bhi	.L25
 166:frucd_display.c ****                 color = C_GREEN;
 167:frucd_display.c ****             } else if (data > 50) {
 343              		.loc 1 167 0
 344 00a8 322D     		cmp	r5, #50
 345 00aa 06D8     		bhi	.L26
ARM GAS  C:\Users\RYANCA~1\AppData\Local\Temp\cclc5Gbi.s 			page 10


 168:frucd_display.c ****                 color = C_YELLOW;
 169:frucd_display.c ****             } else if (data > 25) {
 346              		.loc 1 169 0
 347 00ac 192D     		cmp	r5, #25
 348 00ae 06D9     		bls	.L27
 170:frucd_display.c ****                 color = C_ORANGE;
 349              		.loc 1 170 0
 350 00b0 2C4D     		ldr	r5, .L29+16
 351 00b2 06E0     		b	.L20
 352              	.L25:
 166:frucd_display.c ****                 color = C_GREEN;
 353              		.loc 1 166 0
 354 00b4 4FF47F45 		mov	r5, #65280
 355 00b8 03E0     		b	.L20
 356              	.L26:
 168:frucd_display.c ****                 color = C_YELLOW;
 357              		.loc 1 168 0
 358 00ba 2B4D     		ldr	r5, .L29+20
 359 00bc 01E0     		b	.L20
 360              	.L27:
 171:frucd_display.c ****             } else {
 172:frucd_display.c ****                 color = C_RED;
 361              		.loc 1 172 0
 362 00be 4FF47F05 		mov	r5, #16711680
 363              	.L20:
 364              	.LVL37:
 173:frucd_display.c ****             }
 174:frucd_display.c ****             data_s[2] = '%';
 365              		.loc 1 174 0
 366 00c2 2523     		movs	r3, #37
 367 00c4 8DF80E30 		strb	r3, [sp, #14]
 175:frucd_display.c ****             data_s[3] = '\0';
 368              		.loc 1 175 0
 369 00c8 0023     		movs	r3, #0
 370 00ca 8DF80F30 		strb	r3, [sp, #15]
 176:frucd_display.c ****             if (color != last_SOC_color) {
 371              		.loc 1 176 0
 372 00ce 224B     		ldr	r3, .L29+4
 373 00d0 1B68     		ldr	r3, [r3]
 374 00d2 9D42     		cmp	r5, r3
 375 00d4 08D0     		beq	.L21
 177:frucd_display.c ****                 // only draw rectangle if color changed
 178:frucd_display.c ****                 UG_FillFrame(x1, y1, x2, y2, color);
 376              		.loc 1 178 0
 377 00d6 0095     		str	r5, [sp]
 378 00d8 4B46     		mov	r3, r9
 379 00da 4246     		mov	r2, r8
 380 00dc 3946     		mov	r1, r7
 381 00de 3046     		mov	r0, r6
 382 00e0 FFF7FEFF 		bl	UG_FillFrame
 383              	.LVL38:
 179:frucd_display.c ****                 last_SOC_color = color;
 384              		.loc 1 179 0
 385 00e4 1C4B     		ldr	r3, .L29+4
 386 00e6 1D60     		str	r5, [r3]
 387              	.L21:
 180:frucd_display.c ****             }
ARM GAS  C:\Users\RYANCA~1\AppData\Local\Temp\cclc5Gbi.s 			page 11


 181:frucd_display.c ****             UG_PutColorString(xFont, yFont, data_s, C_BLACK, color);
 388              		.loc 1 181 0
 389 00e8 0095     		str	r5, [sp]
 390 00ea 0023     		movs	r3, #0
 391 00ec 03AA     		add	r2, sp, #12
 392 00ee 0FFA8AF1 		sxth	r1, r10
 393 00f2 20B2     		sxth	r0, r4
 394 00f4 FFF7FEFF 		bl	UG_PutColorString
 395              	.LVL39:
 396 00f8 25E0     		b	.L18
 397              	.LVL40:
 398              	.L19:
 182:frucd_display.c ****         } else {
 183:frucd_display.c ****             // handle 1 digit cases
 184:frucd_display.c ****             data_s[1] = '%';
 399              		.loc 1 184 0
 400 00fa 2523     		movs	r3, #37
 401 00fc 8DF80D30 		strb	r3, [sp, #13]
 185:frucd_display.c ****             data_s[2] = '\0';
 402              		.loc 1 185 0
 403 0100 0025     		movs	r5, #0
 404 0102 8DF80E50 		strb	r5, [sp, #14]
 405              	.LVL41:
 186:frucd_display.c ****             color = C_RED;
 187:frucd_display.c ****             UG_FillFrame(x1, y1, x2, y2, C_BLACK);
 406              		.loc 1 187 0
 407 0106 36B2     		sxth	r6, r6
 408 0108 3FB2     		sxth	r7, r7
 409 010a 0FFA88F8 		sxth	r8, r8
 410 010e 0FFA89F9 		sxth	r9, r9
 411 0112 0095     		str	r5, [sp]
 412 0114 4B46     		mov	r3, r9
 413 0116 4246     		mov	r2, r8
 414 0118 3946     		mov	r1, r7
 415 011a 3046     		mov	r0, r6
 416 011c FFF7FEFF 		bl	UG_FillFrame
 417              	.LVL42:
 188:frucd_display.c ****             UG_FillFrame(x1, y1, x2, y2, color);
 418              		.loc 1 188 0
 419 0120 4FF47F0B 		mov	fp, #16711680
 420 0124 CDF800B0 		str	fp, [sp]
 421 0128 4B46     		mov	r3, r9
 422 012a 4246     		mov	r2, r8
 423 012c 3946     		mov	r1, r7
 424 012e 3046     		mov	r0, r6
 425 0130 FFF7FEFF 		bl	UG_FillFrame
 426              	.LVL43:
 189:frucd_display.c ****             UG_PutColorString(xFont, yFont, data_s, C_BLACK, color);
 427              		.loc 1 189 0
 428 0134 CDF800B0 		str	fp, [sp]
 429 0138 2B46     		mov	r3, r5
 430 013a 03AA     		add	r2, sp, #12
 431 013c 0FFA8AF1 		sxth	r1, r10
 432 0140 20B2     		sxth	r0, r4
 433 0142 FFF7FEFF 		bl	UG_PutColorString
 434              	.LVL44:
 435              	.L18:
ARM GAS  C:\Users\RYANCA~1\AppData\Local\Temp\cclc5Gbi.s 			page 12


 436              	.LBE2:
 190:frucd_display.c ****         }   
 191:frucd_display.c ****     }
 192:frucd_display.c ****     UG_FontSelect(&FONT_12X16);
 437              		.loc 1 192 0
 438 0146 0948     		ldr	r0, .L29+24
 439 0148 FFF7FEFF 		bl	UG_FontSelect
 440              	.LVL45:
 193:frucd_display.c **** }
 441              		.loc 1 193 0
 442 014c 05B0     		add	sp, sp, #20
 443              		.cfi_def_cfa_offset 36
 444              		@ sp needed
 445 014e BDE8F08F 		pop	{r4, r5, r6, r7, r8, r9, r10, fp, pc}
 446              	.LVL46:
 447              	.L30:
 448 0152 00BF     		.align	2
 449              	.L29:
 450 0154 00000000 		.word	FONT_32X53
 451 0158 00000000 		.word	last_SOC_color
 452 015c 3C000000 		.word	.LC6
 453 0160 44000000 		.word	.LC7
 454 0164 00A5FF00 		.word	16753920
 455 0168 00FFFF00 		.word	16776960
 456 016c 00000000 		.word	FONT_12X16
 457              		.cfi_endproc
 458              	.LFE67:
 459              		.size	disp_SOC, .-disp_SOC
 460              		.section	.text.disp_max_pack_temp,"ax",%progbits
 461              		.align	2
 462              		.global	disp_max_pack_temp
 463              		.thumb
 464              		.thumb_func
 465              		.type	disp_max_pack_temp, %function
 466              	disp_max_pack_temp:
 467              	.LFB68:
 194:frucd_display.c **** 
 195:frucd_display.c **** /*
 196:frucd_display.c **** 
 197:frucd_display.c **** void disp_max_pack_temp(uint8_t data) {
 198:frucd_display.c ****     // choose color
 199:frucd_display.c ****     UG_COLOR color;
 200:frucd_display.c ****     if (data < 45) {
 201:frucd_display.c ****         color = C_GREEN;
 202:frucd_display.c ****     } else if (data < 50) {
 203:frucd_display.c ****         color = C_YELLOW;
 204:frucd_display.c ****     } else if (data < 55) {
 205:frucd_display.c ****         color = C_ORANGE;
 206:frucd_display.c ****     } else {
 207:frucd_display.c ****         color = C_RED;
 208:frucd_display.c ****         
 209:frucd_display.c ****         
 210:frucd_display.c ****         
 211:frucd_display.c ****         
 212:frucd_display.c ****         //whats up with the first line here?
 213:frucd_display.c ****         UG_FillFrame(270, 35, 450, 170, C_BLACK);
 214:frucd_display.c ****         UG_FillFrame(270, 35, 450, 170, color);
ARM GAS  C:\Users\RYANCA~1\AppData\Local\Temp\cclc5Gbi.s 			page 13


 215:frucd_display.c ****         
 216:frucd_display.c ****         
 217:frucd_display.c ****         
 218:frucd_display.c ****         
 219:frucd_display.c ****         
 220:frucd_display.c ****         
 221:frucd_display.c ****         
 222:frucd_display.c ****     }
 223:frucd_display.c ****     
 224:frucd_display.c ****     if (color != last_max_pack_temp_color) {
 225:frucd_display.c ****         // only draw rectangle if color changed
 226:frucd_display.c ****         UG_FillFrame(270, 35, 450, 170, color);
 227:frucd_display.c ****         last_max_pack_temp_color = color;
 228:frucd_display.c ****     }
 229:frucd_display.c ****     UG_FontSelect(&FONT_32X53);
 230:frucd_display.c ****     char data_s[4];
 231:frucd_display.c ****     sprintf(data_s, "%d", data);
 232:frucd_display.c ****     data_s[2] = 'C';
 233:frucd_display.c ****     data_s[3] = '\0';
 234:frucd_display.c ****     UG_PutColorString(310, 80, data_s, C_BLACK, color);
 235:frucd_display.c ****     UG_FontSelect(&FONT_12X16);
 236:frucd_display.c **** }
 237:frucd_display.c **** 
 238:frucd_display.c **** */
 239:frucd_display.c **** 
 240:frucd_display.c **** 
 241:frucd_display.c **** void disp_max_pack_temp(uint8_t data, uint8_t x1, uint8_t y1, uint8_t x2, uint8_t y2, uint8_t size)
 468              		.loc 1 241 0
 469              		.cfi_startproc
 470              		@ args = 8, pretend = 0, frame = 24
 471              		@ frame_needed = 0, uses_anonymous_args = 0
 472              	.LVL47:
 473 0000 2DE9F04F 		push	{r4, r5, r6, r7, r8, r9, r10, fp, lr}
 474              		.cfi_def_cfa_offset 36
 475              		.cfi_offset 4, -36
 476              		.cfi_offset 5, -32
 477              		.cfi_offset 6, -28
 478              		.cfi_offset 7, -24
 479              		.cfi_offset 8, -20
 480              		.cfi_offset 9, -16
 481              		.cfi_offset 10, -12
 482              		.cfi_offset 11, -8
 483              		.cfi_offset 14, -4
 484 0004 89B0     		sub	sp, sp, #36
 485              		.cfi_def_cfa_offset 72
 486 0006 0746     		mov	r7, r0
 487 0008 8846     		mov	r8, r1
 488 000a 9146     		mov	r9, r2
 489 000c 9A46     		mov	r10, r3
 490 000e 9DF848B0 		ldrb	fp, [sp, #72]	@ zero_extendqisi2
 491 0012 9DF84C20 		ldrb	r2, [sp, #76]	@ zero_extendqisi2
 492              	.LVL48:
 242:frucd_display.c ****     int xFont, yFont;
 243:frucd_display.c ****     int horizFontSize = 12 + 20*size;
 493              		.loc 1 243 0
 494 0016 02EB8201 		add	r1, r2, r2, lsl #2
 495              	.LVL49:
ARM GAS  C:\Users\RYANCA~1\AppData\Local\Temp\cclc5Gbi.s 			page 14


 496 001a 8B00     		lsls	r3, r1, #2
 497              	.LVL50:
 498 001c 0C33     		adds	r3, r3, #12
 499              	.LVL51:
 244:frucd_display.c ****     int stringSize;
 245:frucd_display.c ****     stringSize = 3;
 246:frucd_display.c ****     xFont = (x1 + x2)/2 - ((horizFontSize*stringSize)/2);
 500              		.loc 1 246 0
 501 001e 08EB0A04 		add	r4, r8, r10
 502 0022 03EB4303 		add	r3, r3, r3, lsl #1
 503              	.LVL52:
 504 0026 5B10     		asrs	r3, r3, #1
 505 0028 C3EB6404 		rsb	r4, r3, r4, asr #1
 506              	.LVL53:
 247:frucd_display.c ****     yFont = (y1 + y2)/2 - 5 - (size*17);    
 507              		.loc 1 247 0
 508 002c 09EB0B05 		add	r5, r9, fp
 509 0030 6D10     		asrs	r5, r5, #1
 510 0032 6B1F     		subs	r3, r5, #5
 511 0034 C2EB0275 		rsb	r5, r2, r2, lsl #28
 512 0038 C2EB0515 		rsb	r5, r2, r5, lsl #4
 513 003c 1D44     		add	r5, r5, r3
 514              	.LVL54:
 248:frucd_display.c ****     if(size == 1){
 515              		.loc 1 248 0
 516 003e 012A     		cmp	r2, #1
 517 0040 02D1     		bne	.L32
 249:frucd_display.c ****         UG_FontSelect(&FONT_32X53);
 518              		.loc 1 249 0
 519 0042 2648     		ldr	r0, .L39
 520              	.LVL55:
 521 0044 FFF7FEFF 		bl	UG_FontSelect
 522              	.LVL56:
 523              	.L32:
 250:frucd_display.c ****     }
 251:frucd_display.c ****     
 252:frucd_display.c ****     // choose color
 253:frucd_display.c ****     UG_COLOR color;
 254:frucd_display.c ****     if (data < 45) {
 524              		.loc 1 254 0
 525 0048 2C2F     		cmp	r7, #44
 526 004a 1DD9     		bls	.L35
 255:frucd_display.c ****         color = C_GREEN;
 256:frucd_display.c ****     } else if (data < 50) {
 527              		.loc 1 256 0
 528 004c 312F     		cmp	r7, #49
 529 004e 1ED9     		bls	.L36
 257:frucd_display.c ****         color = C_YELLOW;
 258:frucd_display.c ****     } else if (data < 55) {
 530              		.loc 1 258 0
 531 0050 362F     		cmp	r7, #54
 532 0052 1ED9     		bls	.L37
 533              	.LVL57:
 259:frucd_display.c ****         color = C_ORANGE;
 260:frucd_display.c ****     } else {
 261:frucd_display.c ****         color = C_RED; 
 262:frucd_display.c ****         UG_FillFrame(x1, y1, x2, y2, C_BLACK);
ARM GAS  C:\Users\RYANCA~1\AppData\Local\Temp\cclc5Gbi.s 			page 15


 534              		.loc 1 262 0
 535 0054 0FFA88F0 		sxth	r0, r8
 536 0058 0FFA89F1 		sxth	r1, r9
 537 005c 0FFA8AF2 		sxth	r2, r10
 538 0060 0FFA8BF3 		sxth	r3, fp
 539 0064 0026     		movs	r6, #0
 540 0066 0096     		str	r6, [sp]
 541 0068 0593     		str	r3, [sp, #20]
 542 006a 0492     		str	r2, [sp, #16]
 543 006c 0391     		str	r1, [sp, #12]
 544 006e 0290     		str	r0, [sp, #8]
 545 0070 FFF7FEFF 		bl	UG_FillFrame
 546              	.LVL58:
 263:frucd_display.c ****         UG_FillFrame(x1, y1, x2, y2, color);
 547              		.loc 1 263 0
 548 0074 4FF47F06 		mov	r6, #16711680
 549 0078 0096     		str	r6, [sp]
 550 007a 059B     		ldr	r3, [sp, #20]
 551 007c 049A     		ldr	r2, [sp, #16]
 552 007e 0399     		ldr	r1, [sp, #12]
 553 0080 0298     		ldr	r0, [sp, #8]
 554 0082 FFF7FEFF 		bl	UG_FillFrame
 555              	.LVL59:
 556 0086 05E0     		b	.L33
 557              	.LVL60:
 558              	.L35:
 255:frucd_display.c ****     } else if (data < 50) {
 559              		.loc 1 255 0
 560 0088 4FF47F46 		mov	r6, #65280
 561 008c 02E0     		b	.L33
 562              	.L36:
 257:frucd_display.c ****     } else if (data < 55) {
 563              		.loc 1 257 0
 564 008e 144E     		ldr	r6, .L39+4
 565 0090 00E0     		b	.L33
 566              	.L37:
 259:frucd_display.c ****     } else {
 567              		.loc 1 259 0
 568 0092 144E     		ldr	r6, .L39+8
 569              	.L33:
 570              	.LVL61:
 264:frucd_display.c ****     
 265:frucd_display.c ****     }
 266:frucd_display.c ****     
 267:frucd_display.c ****     if (color != last_max_pack_temp_color) {
 571              		.loc 1 267 0
 572 0094 144B     		ldr	r3, .L39+12
 573 0096 1B68     		ldr	r3, [r3]
 574 0098 9E42     		cmp	r6, r3
 575 009a 08D0     		beq	.L34
 268:frucd_display.c ****         // only draw rectangle if color changed
 269:frucd_display.c ****         UG_FillFrame(x1, y1, x2, y2, color);
 576              		.loc 1 269 0
 577 009c 0096     		str	r6, [sp]
 578 009e 5B46     		mov	r3, fp
 579 00a0 5246     		mov	r2, r10
 580 00a2 4946     		mov	r1, r9
ARM GAS  C:\Users\RYANCA~1\AppData\Local\Temp\cclc5Gbi.s 			page 16


 581 00a4 4046     		mov	r0, r8
 582 00a6 FFF7FEFF 		bl	UG_FillFrame
 583              	.LVL62:
 270:frucd_display.c ****         last_max_pack_temp_color = color;
 584              		.loc 1 270 0
 585 00aa 0F4B     		ldr	r3, .L39+12
 586 00ac 1E60     		str	r6, [r3]
 587              	.L34:
 271:frucd_display.c ****     }
 272:frucd_display.c **** 
 273:frucd_display.c ****     char data_s[4];
 274:frucd_display.c ****     sprintf(data_s, "%d", data);
 588              		.loc 1 274 0
 589 00ae 3A46     		mov	r2, r7
 590 00b0 0E49     		ldr	r1, .L39+16
 591 00b2 07A8     		add	r0, sp, #28
 592 00b4 FFF7FEFF 		bl	sprintf
 593              	.LVL63:
 275:frucd_display.c ****     data_s[2] = 'C';
 594              		.loc 1 275 0
 595 00b8 4323     		movs	r3, #67
 596 00ba 8DF81E30 		strb	r3, [sp, #30]
 276:frucd_display.c ****     data_s[3] = '\0';
 597              		.loc 1 276 0
 598 00be 0023     		movs	r3, #0
 599 00c0 8DF81F30 		strb	r3, [sp, #31]
 277:frucd_display.c ****     UG_PutColorString(xFont, yFont, data_s, C_BLACK, color);
 600              		.loc 1 277 0
 601 00c4 0096     		str	r6, [sp]
 602 00c6 07AA     		add	r2, sp, #28
 603 00c8 29B2     		sxth	r1, r5
 604 00ca 20B2     		sxth	r0, r4
 605 00cc FFF7FEFF 		bl	UG_PutColorString
 606              	.LVL64:
 278:frucd_display.c ****     UG_FontSelect(&FONT_12X16);
 607              		.loc 1 278 0
 608 00d0 0748     		ldr	r0, .L39+20
 609 00d2 FFF7FEFF 		bl	UG_FontSelect
 610              	.LVL65:
 279:frucd_display.c **** }
 611              		.loc 1 279 0
 612 00d6 09B0     		add	sp, sp, #36
 613              		.cfi_def_cfa_offset 36
 614              		@ sp needed
 615 00d8 BDE8F08F 		pop	{r4, r5, r6, r7, r8, r9, r10, fp, pc}
 616              	.LVL66:
 617              	.L40:
 618              		.align	2
 619              	.L39:
 620 00dc 00000000 		.word	FONT_32X53
 621 00e0 00FFFF00 		.word	16776960
 622 00e4 00A5FF00 		.word	16753920
 623 00e8 00000000 		.word	last_max_pack_temp_color
 624 00ec 44000000 		.word	.LC7
 625 00f0 00000000 		.word	FONT_12X16
 626              		.cfi_endproc
 627              	.LFE68:
ARM GAS  C:\Users\RYANCA~1\AppData\Local\Temp\cclc5Gbi.s 			page 17


 628              		.size	disp_max_pack_temp, .-disp_max_pack_temp
 629              		.section	.text.disp_state,"ax",%progbits
 630              		.align	2
 631              		.global	disp_state
 632              		.thumb
 633              		.thumb_func
 634              		.type	disp_state, %function
 635              	disp_state:
 636              	.LFB69:
 280:frucd_display.c **** 
 281:frucd_display.c **** 
 282:frucd_display.c **** /*
 283:frucd_display.c **** 
 284:frucd_display.c **** void disp_state(uint8_t state) { // TODO
 285:frucd_display.c ****     UG_COLOR color;
 286:frucd_display.c ****     // check fault bit
 287:frucd_display.c ****     if (state & 0x80) {
 288:frucd_display.c ****         // *************** FAULTS ***************
 289:frucd_display.c ****         uint8 fault = state & 0x7f; // mask off fault bit
 290:frucd_display.c ****         switch(fault) {
 291:frucd_display.c ****             case NONE: // STARTUP (effectively)
 292:frucd_display.c ****                 // not obtainable via CAN
 293:frucd_display.c ****                 // would only show when hardcoded on startup
 294:frucd_display.c ****                 color = C_YELLOW;
 295:frucd_display.c ****                 if (color != last_state_color) {
 296:frucd_display.c ****                     // only draw rectangle if color changed
 297:frucd_display.c ****                     UG_FillFrame(95, 185, 240, 215, color);
 298:frucd_display.c ****                     last_state_color = color;
 299:frucd_display.c ****                 }
 300:frucd_display.c ****                 UG_PutColorString(100, 195, " STARTUP  ", C_BLACK, color);
 301:frucd_display.c ****                 break;
 302:frucd_display.c ****             case DRIVE_REQUEST_FROM_LV:
 303:frucd_display.c ****                 color = C_RED;
 304:frucd_display.c ****                 if (color != last_state_color) {
 305:frucd_display.c ****                     // only draw rectangle if color changed
 306:frucd_display.c ****                     UG_FillFrame(95, 185, 240, 215, color);
 307:frucd_display.c ****                     last_state_color = color;
 308:frucd_display.c ****                 }
 309:frucd_display.c ****                 UG_PutColorString(100, 195, "DRV FRM LV", C_BLACK, color);
 310:frucd_display.c ****                 break;
 311:frucd_display.c ****             case CONSERVATIVE_TIMER_MAXED:
 312:frucd_display.c ****                 color = C_RED;
 313:frucd_display.c ****                 if (color != last_state_color) {
 314:frucd_display.c ****                     // only draw rectangle if color changed
 315:frucd_display.c ****                     UG_FillFrame(95, 185, 240, 215, color);
 316:frucd_display.c ****                     last_state_color = color;
 317:frucd_display.c ****                 }
 318:frucd_display.c ****                 UG_PutColorString(100, 195, "PRE TM OUT", C_BLACK, color);
 319:frucd_display.c ****                 break;
 320:frucd_display.c ****             case BRAKE_NOT_PRESSED:
 321:frucd_display.c ****                 color = C_RED;
 322:frucd_display.c ****                 if (color != last_state_color) {
 323:frucd_display.c ****                     // only draw rectangle if color changed
 324:frucd_display.c ****                     UG_FillFrame(95, 185, 240, 215, color);
 325:frucd_display.c ****                     last_state_color = color;
 326:frucd_display.c ****                 }
 327:frucd_display.c ****                 UG_PutColorString(100, 195, "BR NOT PRS", C_BLACK, color);
ARM GAS  C:\Users\RYANCA~1\AppData\Local\Temp\cclc5Gbi.s 			page 18


 328:frucd_display.c ****                 break;
 329:frucd_display.c ****             case HV_DISABLED_WHILE_DRIVING:
 330:frucd_display.c ****                 color = C_RED;
 331:frucd_display.c ****                 if (color != last_state_color) {
 332:frucd_display.c ****                     // only draw rectangle if color changed
 333:frucd_display.c ****                     UG_FillFrame(95, 185, 240, 215, color);
 334:frucd_display.c ****                     last_state_color = color;
 335:frucd_display.c ****                 }
 336:frucd_display.c ****                 UG_PutColorString(100, 195, "HV OFF DRV", C_BLACK, color);
 337:frucd_display.c ****                 break;
 338:frucd_display.c ****             case SENSOR_DISCREPANCY:
 339:frucd_display.c ****                 color = C_RED;
 340:frucd_display.c ****                 if (color != last_state_color) {
 341:frucd_display.c ****                     // only draw rectangle if color changed
 342:frucd_display.c ****                     UG_FillFrame(95, 185, 240, 215, color);
 343:frucd_display.c ****                     last_state_color = color;
 344:frucd_display.c ****                 }
 345:frucd_display.c ****                 UG_PutColorString(100, 195, "SNSR DSCRP", C_BLACK, color);
 346:frucd_display.c ****                 break;
 347:frucd_display.c ****             case BRAKE_IMPLAUSIBLE:
 348:frucd_display.c ****                 color = C_YELLOW;
 349:frucd_display.c ****                 if (color != last_state_color) {
 350:frucd_display.c ****                     // only draw rectangle if color changed
 351:frucd_display.c ****                     UG_FillFrame(95, 185, 240, 215, color);
 352:frucd_display.c ****                     last_state_color = color;
 353:frucd_display.c ****                 }
 354:frucd_display.c ****                 UG_PutColorString(100, 195, "BSPD TRIPD", C_BLACK, color); //whitespace to clear
 355:frucd_display.c ****                 break;
 356:frucd_display.c ****             case ESTOP:
 357:frucd_display.c ****                 color = C_RED;
 358:frucd_display.c ****                 if (color != last_state_color) {
 359:frucd_display.c ****                     // only draw rectangle if color changed
 360:frucd_display.c ****                     UG_FillFrame(95, 185, 240, 215, color);
 361:frucd_display.c ****                     last_state_color = color;
 362:frucd_display.c ****                 }
 363:frucd_display.c ****                 UG_PutColorString(100, 195, "SHTDWN OPN", C_BLACK, color); //whitespace to clear
 364:frucd_display.c ****                 break;
 365:frucd_display.c ****         }
 366:frucd_display.c ****         
 367:frucd_display.c ****     } else {
 368:frucd_display.c ****         // *************** NO FAULTS ***************
 369:frucd_display.c ****         color = C_GREEN;
 370:frucd_display.c ****         if (color != last_state_color) {
 371:frucd_display.c ****             // only draw rectangle if color changed
 372:frucd_display.c ****             UG_FillFrame(95, 185, 240, 215, color);
 373:frucd_display.c ****             last_state_color = color;
 374:frucd_display.c ****         }
 375:frucd_display.c ****         switch(state) {
 376:frucd_display.c ****             case LV:
 377:frucd_display.c ****                 UG_PutColorString(100, 195, "    LV    ", C_BLACK, color);
 378:frucd_display.c ****                 break;
 379:frucd_display.c ****             case PRECHARGING:
 380:frucd_display.c ****                 UG_PutColorString(100, 195, "PRECHARGE ", C_BLACK, color);
 381:frucd_display.c ****                 break;
 382:frucd_display.c ****             case HV_ENABLED:
 383:frucd_display.c ****                 UG_PutColorString(100, 195, "HV ENABLED", C_BLACK, color);
 384:frucd_display.c ****                 break;
ARM GAS  C:\Users\RYANCA~1\AppData\Local\Temp\cclc5Gbi.s 			page 19


 385:frucd_display.c ****             case DRIVE:
 386:frucd_display.c ****                 UG_PutColorString(100, 195, "  DRIVE   ", C_BLACK, color);
 387:frucd_display.c ****                 break;
 388:frucd_display.c ****         }
 389:frucd_display.c ****     }
 390:frucd_display.c **** }
 391:frucd_display.c **** 
 392:frucd_display.c **** 
 393:frucd_display.c **** */
 394:frucd_display.c **** 
 395:frucd_display.c **** 
 396:frucd_display.c **** void disp_state(uint8_t state, uint8_t x1, uint8_t y1, uint8_t x2, uint8_t y2, uint8_t size) { // T
 637              		.loc 1 396 0
 638              		.cfi_startproc
 639              		@ args = 8, pretend = 0, frame = 0
 640              		@ frame_needed = 0, uses_anonymous_args = 0
 641              	.LVL67:
 642 0000 2DE9F04F 		push	{r4, r5, r6, r7, r8, r9, r10, fp, lr}
 643              		.cfi_def_cfa_offset 36
 644              		.cfi_offset 4, -36
 645              		.cfi_offset 5, -32
 646              		.cfi_offset 6, -28
 647              		.cfi_offset 7, -24
 648              		.cfi_offset 8, -20
 649              		.cfi_offset 9, -16
 650              		.cfi_offset 10, -12
 651              		.cfi_offset 11, -8
 652              		.cfi_offset 14, -4
 653 0004 83B0     		sub	sp, sp, #12
 654              		.cfi_def_cfa_offset 48
 655 0006 0446     		mov	r4, r0
 656 0008 0D46     		mov	r5, r1
 657 000a 1646     		mov	r6, r2
 658 000c 1F46     		mov	r7, r3
 659 000e 9DF83080 		ldrb	r8, [sp, #48]	@ zero_extendqisi2
 660 0012 9DF83420 		ldrb	r2, [sp, #52]	@ zero_extendqisi2
 661              	.LVL68:
 397:frucd_display.c ****     int xFont, yFont;
 398:frucd_display.c ****     int horizFontSize = 12 + 20*size;
 662              		.loc 1 398 0
 663 0016 02EB8201 		add	r1, r2, r2, lsl #2
 664              	.LVL69:
 665 001a 8B00     		lsls	r3, r1, #2
 666              	.LVL70:
 667 001c 0C33     		adds	r3, r3, #12
 668              	.LVL71:
 399:frucd_display.c ****     int stringSize;
 400:frucd_display.c ****     stringSize = 10;
 401:frucd_display.c ****     xFont = (x1 + x2)/2 - ((horizFontSize*stringSize)/2);
 669              		.loc 1 401 0
 670 001e 05EB0709 		add	r9, r5, r7
 671 0022 03EB8303 		add	r3, r3, r3, lsl #2
 672              	.LVL72:
 673 0026 5900     		lsls	r1, r3, #1
 674              	.LVL73:
 675 0028 4910     		asrs	r1, r1, #1
 676 002a C1EB6909 		rsb	r9, r1, r9, asr #1
ARM GAS  C:\Users\RYANCA~1\AppData\Local\Temp\cclc5Gbi.s 			page 20


 677              	.LVL74:
 402:frucd_display.c ****     yFont = (y1 + y2)/2 - 5 - (size*17);    
 678              		.loc 1 402 0
 679 002e 06EB0803 		add	r3, r6, r8
 680 0032 5B10     		asrs	r3, r3, #1
 681 0034 053B     		subs	r3, r3, #5
 682 0036 C2EB0271 		rsb	r1, r2, r2, lsl #28
 683 003a C2EB0111 		rsb	r1, r2, r1, lsl #4
 684 003e 03EB010A 		add	r10, r3, r1
 685              	.LVL75:
 403:frucd_display.c ****     if(size == 1){
 686              		.loc 1 403 0
 687 0042 012A     		cmp	r2, #1
 688 0044 02D1     		bne	.L42
 404:frucd_display.c ****         UG_FontSelect(&FONT_32X53);
 689              		.loc 1 404 0
 690 0046 9D48     		ldr	r0, .L69
 691              	.LVL76:
 692 0048 FFF7FEFF 		bl	UG_FontSelect
 693              	.LVL77:
 694              	.L42:
 405:frucd_display.c ****         
 406:frucd_display.c ****     }
 407:frucd_display.c ****     UG_COLOR color;
 408:frucd_display.c ****     // check fault bit
 409:frucd_display.c ****     if (state & 0x80) {
 695              		.loc 1 409 0
 696 004c 14F0800F 		tst	r4, #128
 697 0050 00F0E780 		beq	.L43
 698              	.LBB3:
 410:frucd_display.c ****         // *************** FAULTS ***************
 411:frucd_display.c ****         uint8 fault = state & 0x7f; // mask off fault bit
 699              		.loc 1 411 0
 700 0054 04F07F04 		and	r4, r4, #127
 701              	.LVL78:
 412:frucd_display.c ****         switch(fault) {
 702              		.loc 1 412 0
 703 0058 072C     		cmp	r4, #7
 704 005a 00F22981 		bhi	.L44
 705 005e DFE804F0 		tbb	[pc, r4]
 706              	.L46:
 707 0062 04       		.byte	(.L45-.L46)/2
 708 0063 1E       		.byte	(.L47-.L46)/2
 709 0064 3A       		.byte	(.L48-.L46)/2
 710 0065 56       		.byte	(.L49-.L46)/2
 711 0066 72       		.byte	(.L50-.L46)/2
 712 0067 8E       		.byte	(.L51-.L46)/2
 713 0068 AA       		.byte	(.L52-.L46)/2
 714 0069 C4       		.byte	(.L53-.L46)/2
 715              		.p2align 1
 716              	.L45:
 717              	.LVL79:
 413:frucd_display.c ****             case NONE: // STARTUP (effectively)
 414:frucd_display.c ****                 // not obtainable via CAN
 415:frucd_display.c ****                 // would only show when hardcoded on startup
 416:frucd_display.c ****                 color = C_YELLOW;
 417:frucd_display.c ****                 if (color != last_state_color) {
ARM GAS  C:\Users\RYANCA~1\AppData\Local\Temp\cclc5Gbi.s 			page 21


 718              		.loc 1 417 0
 719 006a 954B     		ldr	r3, .L69+4
 720 006c 1A68     		ldr	r2, [r3]
 721 006e 954B     		ldr	r3, .L69+8
 722 0070 9A42     		cmp	r2, r3
 723 0072 09D0     		beq	.L54
 418:frucd_display.c ****                     // only draw rectangle if color changed
 419:frucd_display.c ****                     UG_FillFrame(x1, y1, x2, y2, color);
 724              		.loc 1 419 0
 725 0074 1C46     		mov	r4, r3
 726              	.LVL80:
 727 0076 0093     		str	r3, [sp]
 728 0078 4346     		mov	r3, r8
 729 007a 3A46     		mov	r2, r7
 730 007c 3146     		mov	r1, r6
 731 007e 2846     		mov	r0, r5
 732 0080 FFF7FEFF 		bl	UG_FillFrame
 733              	.LVL81:
 420:frucd_display.c ****                     last_state_color = color;
 734              		.loc 1 420 0
 735 0084 8E4B     		ldr	r3, .L69+4
 736 0086 1C60     		str	r4, [r3]
 737              	.L54:
 421:frucd_display.c ****                 }
 422:frucd_display.c ****                 UG_PutColorString(xFont, yFont, " STARTUP  ", C_BLACK, color);
 738              		.loc 1 422 0
 739 0088 8E4B     		ldr	r3, .L69+8
 740 008a 0093     		str	r3, [sp]
 741 008c 0023     		movs	r3, #0
 742 008e 8E4A     		ldr	r2, .L69+12
 743 0090 0FFA8AF1 		sxth	r1, r10
 744 0094 0FFA89F0 		sxth	r0, r9
 745 0098 FFF7FEFF 		bl	UG_PutColorString
 746              	.LVL82:
 423:frucd_display.c ****                 break;
 747              		.loc 1 423 0
 748 009c 08E1     		b	.L44
 749              	.LVL83:
 750              	.L47:
 424:frucd_display.c ****             case DRIVE_REQUEST_FROM_LV:
 425:frucd_display.c ****                 color = C_RED;
 426:frucd_display.c ****                 if (color != last_state_color) {
 751              		.loc 1 426 0
 752 009e 884B     		ldr	r3, .L69+4
 753 00a0 1B68     		ldr	r3, [r3]
 754 00a2 B3F57F0F 		cmp	r3, #16711680
 755 00a6 0AD0     		beq	.L55
 427:frucd_display.c ****                     // only draw rectangle if color changed
 428:frucd_display.c ****                     UG_FillFrame(x1, y1, x2, y2, color);
 756              		.loc 1 428 0
 757 00a8 4FF47F04 		mov	r4, #16711680
 758              	.LVL84:
 759 00ac 0094     		str	r4, [sp]
 760 00ae 4346     		mov	r3, r8
 761 00b0 3A46     		mov	r2, r7
 762 00b2 3146     		mov	r1, r6
 763 00b4 2846     		mov	r0, r5
ARM GAS  C:\Users\RYANCA~1\AppData\Local\Temp\cclc5Gbi.s 			page 22


 764 00b6 FFF7FEFF 		bl	UG_FillFrame
 765              	.LVL85:
 429:frucd_display.c ****                     last_state_color = color;
 766              		.loc 1 429 0
 767 00ba 814B     		ldr	r3, .L69+4
 768 00bc 1C60     		str	r4, [r3]
 769              	.L55:
 430:frucd_display.c ****                 }
 431:frucd_display.c ****                 UG_PutColorString(xFont, yFont, "DRV FRM LV", C_BLACK, color);
 770              		.loc 1 431 0
 771 00be 4FF47F03 		mov	r3, #16711680
 772 00c2 0093     		str	r3, [sp]
 773 00c4 0023     		movs	r3, #0
 774 00c6 814A     		ldr	r2, .L69+16
 775 00c8 0FFA8AF1 		sxth	r1, r10
 776 00cc 0FFA89F0 		sxth	r0, r9
 777 00d0 FFF7FEFF 		bl	UG_PutColorString
 778              	.LVL86:
 432:frucd_display.c ****                 break;
 779              		.loc 1 432 0
 780 00d4 ECE0     		b	.L44
 781              	.LVL87:
 782              	.L48:
 433:frucd_display.c ****             case CONSERVATIVE_TIMER_MAXED:
 434:frucd_display.c ****                 color = C_RED;
 435:frucd_display.c ****                 if (color != last_state_color) {
 783              		.loc 1 435 0
 784 00d6 7A4B     		ldr	r3, .L69+4
 785 00d8 1B68     		ldr	r3, [r3]
 786 00da B3F57F0F 		cmp	r3, #16711680
 787 00de 0AD0     		beq	.L56
 436:frucd_display.c ****                     // only draw rectangle if color changed
 437:frucd_display.c ****                     UG_FillFrame(x1, y1, x2, y2, color);
 788              		.loc 1 437 0
 789 00e0 4FF47F04 		mov	r4, #16711680
 790              	.LVL88:
 791 00e4 0094     		str	r4, [sp]
 792 00e6 4346     		mov	r3, r8
 793 00e8 3A46     		mov	r2, r7
 794 00ea 3146     		mov	r1, r6
 795 00ec 2846     		mov	r0, r5
 796 00ee FFF7FEFF 		bl	UG_FillFrame
 797              	.LVL89:
 438:frucd_display.c ****                     last_state_color = color;
 798              		.loc 1 438 0
 799 00f2 734B     		ldr	r3, .L69+4
 800 00f4 1C60     		str	r4, [r3]
 801              	.L56:
 439:frucd_display.c ****                 }
 440:frucd_display.c ****                 UG_PutColorString(xFont, yFont, "PRE TM OUT", C_BLACK, color);
 802              		.loc 1 440 0
 803 00f6 4FF47F03 		mov	r3, #16711680
 804 00fa 0093     		str	r3, [sp]
 805 00fc 0023     		movs	r3, #0
 806 00fe 744A     		ldr	r2, .L69+20
 807 0100 0FFA8AF1 		sxth	r1, r10
 808 0104 0FFA89F0 		sxth	r0, r9
ARM GAS  C:\Users\RYANCA~1\AppData\Local\Temp\cclc5Gbi.s 			page 23


 809 0108 FFF7FEFF 		bl	UG_PutColorString
 810              	.LVL90:
 441:frucd_display.c ****                 break;
 811              		.loc 1 441 0
 812 010c D0E0     		b	.L44
 813              	.LVL91:
 814              	.L49:
 442:frucd_display.c ****             case BRAKE_NOT_PRESSED:
 443:frucd_display.c ****                 color = C_RED;
 444:frucd_display.c ****                 if (color != last_state_color) {
 815              		.loc 1 444 0
 816 010e 6C4B     		ldr	r3, .L69+4
 817 0110 1B68     		ldr	r3, [r3]
 818 0112 B3F57F0F 		cmp	r3, #16711680
 819 0116 0AD0     		beq	.L57
 445:frucd_display.c ****                     // only draw rectangle if color changed
 446:frucd_display.c ****                     UG_FillFrame(x1, y1, x2, y2, color);
 820              		.loc 1 446 0
 821 0118 4FF47F04 		mov	r4, #16711680
 822              	.LVL92:
 823 011c 0094     		str	r4, [sp]
 824 011e 4346     		mov	r3, r8
 825 0120 3A46     		mov	r2, r7
 826 0122 3146     		mov	r1, r6
 827 0124 2846     		mov	r0, r5
 828 0126 FFF7FEFF 		bl	UG_FillFrame
 829              	.LVL93:
 447:frucd_display.c ****                     last_state_color = color;
 830              		.loc 1 447 0
 831 012a 654B     		ldr	r3, .L69+4
 832 012c 1C60     		str	r4, [r3]
 833              	.L57:
 448:frucd_display.c ****                 }
 449:frucd_display.c ****                 UG_PutColorString(xFont, yFont, "BR NOT PRS", C_BLACK, color);
 834              		.loc 1 449 0
 835 012e 4FF47F03 		mov	r3, #16711680
 836 0132 0093     		str	r3, [sp]
 837 0134 0023     		movs	r3, #0
 838 0136 674A     		ldr	r2, .L69+24
 839 0138 0FFA8AF1 		sxth	r1, r10
 840 013c 0FFA89F0 		sxth	r0, r9
 841 0140 FFF7FEFF 		bl	UG_PutColorString
 842              	.LVL94:
 450:frucd_display.c ****                 break;
 843              		.loc 1 450 0
 844 0144 B4E0     		b	.L44
 845              	.LVL95:
 846              	.L50:
 451:frucd_display.c ****             case HV_DISABLED_WHILE_DRIVING:
 452:frucd_display.c ****                 color = C_RED;
 453:frucd_display.c ****                 if (color != last_state_color) {
 847              		.loc 1 453 0
 848 0146 5E4B     		ldr	r3, .L69+4
 849 0148 1B68     		ldr	r3, [r3]
 850 014a B3F57F0F 		cmp	r3, #16711680
 851 014e 0AD0     		beq	.L58
 454:frucd_display.c ****                     // only draw rectangle if color changed
ARM GAS  C:\Users\RYANCA~1\AppData\Local\Temp\cclc5Gbi.s 			page 24


 455:frucd_display.c ****                     UG_FillFrame(x1, y1, x2, y2, color);
 852              		.loc 1 455 0
 853 0150 4FF47F04 		mov	r4, #16711680
 854              	.LVL96:
 855 0154 0094     		str	r4, [sp]
 856 0156 4346     		mov	r3, r8
 857 0158 3A46     		mov	r2, r7
 858 015a 3146     		mov	r1, r6
 859 015c 2846     		mov	r0, r5
 860 015e FFF7FEFF 		bl	UG_FillFrame
 861              	.LVL97:
 456:frucd_display.c ****                     last_state_color = color;
 862              		.loc 1 456 0
 863 0162 574B     		ldr	r3, .L69+4
 864 0164 1C60     		str	r4, [r3]
 865              	.L58:
 457:frucd_display.c ****                 }
 458:frucd_display.c ****                 UG_PutColorString(xFont, yFont, "HV OFF DRV", C_BLACK, color);
 866              		.loc 1 458 0
 867 0166 4FF47F03 		mov	r3, #16711680
 868 016a 0093     		str	r3, [sp]
 869 016c 0023     		movs	r3, #0
 870 016e 5A4A     		ldr	r2, .L69+28
 871 0170 0FFA8AF1 		sxth	r1, r10
 872 0174 0FFA89F0 		sxth	r0, r9
 873 0178 FFF7FEFF 		bl	UG_PutColorString
 874              	.LVL98:
 459:frucd_display.c ****                 break;
 875              		.loc 1 459 0
 876 017c 98E0     		b	.L44
 877              	.LVL99:
 878              	.L51:
 460:frucd_display.c ****             case SENSOR_DISCREPANCY:
 461:frucd_display.c ****                 color = C_RED;
 462:frucd_display.c ****                 if (color != last_state_color) {
 879              		.loc 1 462 0
 880 017e 504B     		ldr	r3, .L69+4
 881 0180 1B68     		ldr	r3, [r3]
 882 0182 B3F57F0F 		cmp	r3, #16711680
 883 0186 0AD0     		beq	.L59
 463:frucd_display.c ****                     // only draw rectangle if color changed
 464:frucd_display.c ****                     UG_FillFrame(x1, y1, x2, y2, color);
 884              		.loc 1 464 0
 885 0188 4FF47F04 		mov	r4, #16711680
 886              	.LVL100:
 887 018c 0094     		str	r4, [sp]
 888 018e 4346     		mov	r3, r8
 889 0190 3A46     		mov	r2, r7
 890 0192 3146     		mov	r1, r6
 891 0194 2846     		mov	r0, r5
 892 0196 FFF7FEFF 		bl	UG_FillFrame
 893              	.LVL101:
 465:frucd_display.c ****                     last_state_color = color;
 894              		.loc 1 465 0
 895 019a 494B     		ldr	r3, .L69+4
 896 019c 1C60     		str	r4, [r3]
 897              	.L59:
ARM GAS  C:\Users\RYANCA~1\AppData\Local\Temp\cclc5Gbi.s 			page 25


 466:frucd_display.c ****                 }
 467:frucd_display.c ****                 UG_PutColorString(xFont, yFont, "SNSR DSCRP", C_BLACK, color);
 898              		.loc 1 467 0
 899 019e 4FF47F03 		mov	r3, #16711680
 900 01a2 0093     		str	r3, [sp]
 901 01a4 0023     		movs	r3, #0
 902 01a6 4D4A     		ldr	r2, .L69+32
 903 01a8 0FFA8AF1 		sxth	r1, r10
 904 01ac 0FFA89F0 		sxth	r0, r9
 905 01b0 FFF7FEFF 		bl	UG_PutColorString
 906              	.LVL102:
 468:frucd_display.c ****                 break;
 907              		.loc 1 468 0
 908 01b4 7CE0     		b	.L44
 909              	.LVL103:
 910              	.L52:
 469:frucd_display.c ****             case BRAKE_IMPLAUSIBLE:
 470:frucd_display.c ****                 color = C_YELLOW;
 471:frucd_display.c ****                 if (color != last_state_color) {
 911              		.loc 1 471 0
 912 01b6 424B     		ldr	r3, .L69+4
 913 01b8 1A68     		ldr	r2, [r3]
 914 01ba 424B     		ldr	r3, .L69+8
 915 01bc 9A42     		cmp	r2, r3
 916 01be 09D0     		beq	.L60
 472:frucd_display.c ****                     // only draw rectangle if color changed
 473:frucd_display.c ****                     UG_FillFrame(x1, y1, x2, y2, color);
 917              		.loc 1 473 0
 918 01c0 1C46     		mov	r4, r3
 919              	.LVL104:
 920 01c2 0093     		str	r3, [sp]
 921 01c4 4346     		mov	r3, r8
 922 01c6 3A46     		mov	r2, r7
 923 01c8 3146     		mov	r1, r6
 924 01ca 2846     		mov	r0, r5
 925 01cc FFF7FEFF 		bl	UG_FillFrame
 926              	.LVL105:
 474:frucd_display.c ****                     last_state_color = color;
 927              		.loc 1 474 0
 928 01d0 3B4B     		ldr	r3, .L69+4
 929 01d2 1C60     		str	r4, [r3]
 930              	.L60:
 475:frucd_display.c ****                 }
 476:frucd_display.c ****                 UG_PutColorString(xFont, yFont, "BSPD TRIPD", C_BLACK, color); //whitespace to clea
 931              		.loc 1 476 0
 932 01d4 3B4B     		ldr	r3, .L69+8
 933 01d6 0093     		str	r3, [sp]
 934 01d8 0023     		movs	r3, #0
 935 01da 414A     		ldr	r2, .L69+36
 936 01dc 0FFA8AF1 		sxth	r1, r10
 937 01e0 0FFA89F0 		sxth	r0, r9
 938 01e4 FFF7FEFF 		bl	UG_PutColorString
 939              	.LVL106:
 477:frucd_display.c ****                 break;
 940              		.loc 1 477 0
 941 01e8 62E0     		b	.L44
 942              	.LVL107:
ARM GAS  C:\Users\RYANCA~1\AppData\Local\Temp\cclc5Gbi.s 			page 26


 943              	.L53:
 478:frucd_display.c ****             case ESTOP:
 479:frucd_display.c ****                 color = C_RED;
 480:frucd_display.c ****                 if (color != last_state_color) {
 944              		.loc 1 480 0
 945 01ea 354B     		ldr	r3, .L69+4
 946 01ec 1B68     		ldr	r3, [r3]
 947 01ee B3F57F0F 		cmp	r3, #16711680
 948 01f2 0AD0     		beq	.L61
 481:frucd_display.c ****                     // only draw rectangle if color changed
 482:frucd_display.c ****                     UG_FillFrame(x1, y1, x2, y2, color);
 949              		.loc 1 482 0
 950 01f4 4FF47F04 		mov	r4, #16711680
 951              	.LVL108:
 952 01f8 0094     		str	r4, [sp]
 953 01fa 4346     		mov	r3, r8
 954 01fc 3A46     		mov	r2, r7
 955 01fe 3146     		mov	r1, r6
 956 0200 2846     		mov	r0, r5
 957 0202 FFF7FEFF 		bl	UG_FillFrame
 958              	.LVL109:
 483:frucd_display.c ****                     last_state_color = color;
 959              		.loc 1 483 0
 960 0206 2E4B     		ldr	r3, .L69+4
 961 0208 1C60     		str	r4, [r3]
 962              	.L61:
 484:frucd_display.c ****                 }
 485:frucd_display.c ****                 UG_PutColorString(xFont, yFont, "SHTDWN OPN", C_BLACK, color); //whitespace to clea
 963              		.loc 1 485 0
 964 020a 4FF47F03 		mov	r3, #16711680
 965 020e 0093     		str	r3, [sp]
 966 0210 0023     		movs	r3, #0
 967 0212 344A     		ldr	r2, .L69+40
 968 0214 0FFA8AF1 		sxth	r1, r10
 969 0218 0FFA89F0 		sxth	r0, r9
 970 021c FFF7FEFF 		bl	UG_PutColorString
 971              	.LVL110:
 486:frucd_display.c ****                 break;
 972              		.loc 1 486 0
 973 0220 46E0     		b	.L44
 974              	.LVL111:
 975              	.L43:
 976              	.LBE3:
 487:frucd_display.c ****         }
 488:frucd_display.c ****         
 489:frucd_display.c ****     } else {
 490:frucd_display.c ****         // *************** NO FAULTS ***************
 491:frucd_display.c ****         color = C_GREEN;
 492:frucd_display.c ****         if (color != last_state_color) {
 977              		.loc 1 492 0
 978 0222 274B     		ldr	r3, .L69+4
 979 0224 1B68     		ldr	r3, [r3]
 980 0226 B3F57F4F 		cmp	r3, #65280
 981 022a 0CD0     		beq	.L62
 493:frucd_display.c ****             // only draw rectangle if color changed
 494:frucd_display.c ****             UG_FillFrame(x1, y1, x2, y2, color);
 982              		.loc 1 494 0
ARM GAS  C:\Users\RYANCA~1\AppData\Local\Temp\cclc5Gbi.s 			page 27


 983 022c 4FF47F4B 		mov	fp, #65280
 984 0230 CDF800B0 		str	fp, [sp]
 985 0234 4346     		mov	r3, r8
 986 0236 3A46     		mov	r2, r7
 987 0238 3146     		mov	r1, r6
 988 023a 2846     		mov	r0, r5
 989 023c FFF7FEFF 		bl	UG_FillFrame
 990              	.LVL112:
 495:frucd_display.c ****             last_state_color = color;
 991              		.loc 1 495 0
 992 0240 1F4B     		ldr	r3, .L69+4
 993 0242 C3F800B0 		str	fp, [r3]
 994              	.L62:
 496:frucd_display.c ****         }
 497:frucd_display.c ****         switch(state) {
 995              		.loc 1 497 0
 996 0246 032C     		cmp	r4, #3
 997 0248 32D8     		bhi	.L44
 998 024a DFE804F0 		tbb	[pc, r4]
 999              	.L64:
 1000 024e 02       		.byte	(.L63-.L64)/2
 1001 024f 0E       		.byte	(.L65-.L64)/2
 1002 0250 1A       		.byte	(.L66-.L64)/2
 1003 0251 26       		.byte	(.L67-.L64)/2
 1004              		.p2align 1
 1005              	.L63:
 498:frucd_display.c ****             case LV:
 499:frucd_display.c ****                 UG_PutColorString(xFont, yFont, "    LV    ", C_BLACK, color);
 1006              		.loc 1 499 0
 1007 0252 4FF47F43 		mov	r3, #65280
 1008 0256 0093     		str	r3, [sp]
 1009 0258 0023     		movs	r3, #0
 1010 025a 234A     		ldr	r2, .L69+44
 1011 025c 0FFA8AF1 		sxth	r1, r10
 1012 0260 0FFA89F0 		sxth	r0, r9
 1013 0264 FFF7FEFF 		bl	UG_PutColorString
 1014              	.LVL113:
 500:frucd_display.c ****                 break;
 1015              		.loc 1 500 0
 1016 0268 22E0     		b	.L44
 1017              	.L65:
 501:frucd_display.c ****             case PRECHARGING:
 502:frucd_display.c ****                 UG_PutColorString(xFont, yFont, "PRECHARGE ", C_BLACK, color);
 1018              		.loc 1 502 0
 1019 026a 4FF47F43 		mov	r3, #65280
 1020 026e 0093     		str	r3, [sp]
 1021 0270 0023     		movs	r3, #0
 1022 0272 1E4A     		ldr	r2, .L69+48
 1023 0274 0FFA8AF1 		sxth	r1, r10
 1024 0278 0FFA89F0 		sxth	r0, r9
 1025 027c FFF7FEFF 		bl	UG_PutColorString
 1026              	.LVL114:
 503:frucd_display.c ****                 break;
 1027              		.loc 1 503 0
 1028 0280 16E0     		b	.L44
 1029              	.L66:
 504:frucd_display.c ****             case HV_ENABLED:
ARM GAS  C:\Users\RYANCA~1\AppData\Local\Temp\cclc5Gbi.s 			page 28


 505:frucd_display.c ****                 UG_PutColorString(xFont, yFont, "HV ENABLED", C_BLACK, color);
 1030              		.loc 1 505 0
 1031 0282 4FF47F43 		mov	r3, #65280
 1032 0286 0093     		str	r3, [sp]
 1033 0288 0023     		movs	r3, #0
 1034 028a 194A     		ldr	r2, .L69+52
 1035 028c 0FFA8AF1 		sxth	r1, r10
 1036 0290 0FFA89F0 		sxth	r0, r9
 1037 0294 FFF7FEFF 		bl	UG_PutColorString
 1038              	.LVL115:
 506:frucd_display.c ****                 break;
 1039              		.loc 1 506 0
 1040 0298 0AE0     		b	.L44
 1041              	.L67:
 507:frucd_display.c ****             case DRIVE:
 508:frucd_display.c ****                 UG_PutColorString(xFont, yFont, "  DRIVE   ", C_BLACK, color);
 1042              		.loc 1 508 0
 1043 029a 4FF47F43 		mov	r3, #65280
 1044 029e 0093     		str	r3, [sp]
 1045 02a0 0023     		movs	r3, #0
 1046 02a2 144A     		ldr	r2, .L69+56
 1047 02a4 0FFA8AF1 		sxth	r1, r10
 1048 02a8 0FFA89F0 		sxth	r0, r9
 1049 02ac FFF7FEFF 		bl	UG_PutColorString
 1050              	.LVL116:
 1051              	.L44:
 509:frucd_display.c ****                 break;
 510:frucd_display.c ****         }
 511:frucd_display.c ****     }
 512:frucd_display.c ****      UG_FontSelect(&FONT_12X16);
 1052              		.loc 1 512 0
 1053 02b0 1148     		ldr	r0, .L69+60
 1054 02b2 FFF7FEFF 		bl	UG_FontSelect
 1055              	.LVL117:
 513:frucd_display.c **** }
 1056              		.loc 1 513 0
 1057 02b6 03B0     		add	sp, sp, #12
 1058              		.cfi_def_cfa_offset 36
 1059              		@ sp needed
 1060 02b8 BDE8F08F 		pop	{r4, r5, r6, r7, r8, r9, r10, fp, pc}
 1061              	.LVL118:
 1062              	.L70:
 1063              		.align	2
 1064              	.L69:
 1065 02bc 00000000 		.word	FONT_32X53
 1066 02c0 00000000 		.word	last_state_color
 1067 02c4 00FFFF00 		.word	16776960
 1068 02c8 48000000 		.word	.LC8
 1069 02cc 54000000 		.word	.LC9
 1070 02d0 60000000 		.word	.LC10
 1071 02d4 6C000000 		.word	.LC11
 1072 02d8 78000000 		.word	.LC12
 1073 02dc 84000000 		.word	.LC13
 1074 02e0 90000000 		.word	.LC14
 1075 02e4 9C000000 		.word	.LC15
 1076 02e8 A8000000 		.word	.LC16
 1077 02ec B4000000 		.word	.LC17
ARM GAS  C:\Users\RYANCA~1\AppData\Local\Temp\cclc5Gbi.s 			page 29


 1078 02f0 C0000000 		.word	.LC18
 1079 02f4 CC000000 		.word	.LC19
 1080 02f8 00000000 		.word	FONT_12X16
 1081              		.cfi_endproc
 1082              	.LFE69:
 1083              		.size	disp_state, .-disp_state
 1084              		.section	.text.disp_glv_v,"ax",%progbits
 1085              		.align	2
 1086              		.global	disp_glv_v
 1087              		.thumb
 1088              		.thumb_func
 1089              		.type	disp_glv_v, %function
 1090              	disp_glv_v:
 1091              	.LFB70:
 514:frucd_display.c **** 
 515:frucd_display.c **** /*
 516:frucd_display.c **** 
 517:frucd_display.c **** void disp_glv_v(uint32_t data) {
 518:frucd_display.c ****     // translate from voltage divider measurement to true voltage
 519:frucd_display.c ****     // y = 0.4295x + 18.254
 520:frucd_display.c ****     data *= 859;
 521:frucd_display.c ****     data /= 2000; // 0.4295
 522:frucd_display.c ****     data += 18;
 523:frucd_display.c ****     UG_COLOR color;
 524:frucd_display.c ****     if (data > 1150) {
 525:frucd_display.c ****         color = C_GREEN;
 526:frucd_display.c ****     } else if (data > 1100) {
 527:frucd_display.c ****         color = C_YELLOW;
 528:frucd_display.c ****     } else if (data > 1050) {
 529:frucd_display.c ****         color = C_ORANGE;
 530:frucd_display.c ****     } else {
 531:frucd_display.c ****         color = C_RED;
 532:frucd_display.c ****     }
 533:frucd_display.c ****     if (color != last_glv_v_color) {
 534:frucd_display.c ****         // only draw rectangle if color changed
 535:frucd_display.c ****         UG_FillFrame(95, 230, 182, 260, color);
 536:frucd_display.c ****         last_glv_v_color = color;
 537:frucd_display.c ****     }
 538:frucd_display.c ****     char data_s[7];
 539:frucd_display.c ****     sprintf(data_s, "%d", data);
 540:frucd_display.c ****     // handle 3 digit cases; 2 and 1 are practically impossible
 541:frucd_display.c ****     if (data < 1000) {
 542:frucd_display.c ****         data_s[3] = data_s[2];
 543:frucd_display.c ****         data_s[2] = data_s[1];
 544:frucd_display.c ****         data_s[1] = data_s[0];  
 545:frucd_display.c ****         data_s[0] = ' ';
 546:frucd_display.c ****     }
 547:frucd_display.c ****     // shift over fractional part
 548:frucd_display.c ****     data_s[4] = data_s[3];
 549:frucd_display.c ****     data_s[3] = data_s[2];
 550:frucd_display.c ****     // add syntax
 551:frucd_display.c ****     data_s[2] = '.';
 552:frucd_display.c ****     data_s[5] = 'V';
 553:frucd_display.c ****     data_s[6] = '\0';
 554:frucd_display.c ****     UG_PutColorString(100, 240, data_s, C_BLACK, color);
 555:frucd_display.c **** }
 556:frucd_display.c **** 
ARM GAS  C:\Users\RYANCA~1\AppData\Local\Temp\cclc5Gbi.s 			page 30


 557:frucd_display.c **** */
 558:frucd_display.c **** 
 559:frucd_display.c **** 
 560:frucd_display.c **** void disp_glv_v(uint32_t data, uint8_t x1, uint8_t y1, uint8_t x2, uint8_t y2, uint8_t size) {   
 1092              		.loc 1 560 0
 1093              		.cfi_startproc
 1094              		@ args = 8, pretend = 0, frame = 8
 1095              		@ frame_needed = 0, uses_anonymous_args = 0
 1096              	.LVL119:
 1097 0000 2DE9F04F 		push	{r4, r5, r6, r7, r8, r9, r10, fp, lr}
 1098              		.cfi_def_cfa_offset 36
 1099              		.cfi_offset 4, -36
 1100              		.cfi_offset 5, -32
 1101              		.cfi_offset 6, -28
 1102              		.cfi_offset 7, -24
 1103              		.cfi_offset 8, -20
 1104              		.cfi_offset 9, -16
 1105              		.cfi_offset 10, -12
 1106              		.cfi_offset 11, -8
 1107              		.cfi_offset 14, -4
 1108 0004 85B0     		sub	sp, sp, #20
 1109              		.cfi_def_cfa_offset 56
 1110 0006 0446     		mov	r4, r0
 1111 0008 8846     		mov	r8, r1
 1112 000a 9146     		mov	r9, r2
 1113 000c 9A46     		mov	r10, r3
 1114 000e 9DF838B0 		ldrb	fp, [sp, #56]	@ zero_extendqisi2
 1115 0012 9DF83C70 		ldrb	r7, [sp, #60]	@ zero_extendqisi2
 561:frucd_display.c ****     int xFont, yFont;
 562:frucd_display.c ****     int horizFontSize = 12 + 20*size;
 1116              		.loc 1 562 0
 1117 0016 07EB8702 		add	r2, r7, r7, lsl #2
 1118              	.LVL120:
 1119 001a 9300     		lsls	r3, r2, #2
 1120              	.LVL121:
 1121 001c 0C33     		adds	r3, r3, #12
 1122              	.LVL122:
 563:frucd_display.c ****     int stringSize;
 564:frucd_display.c ****     stringSize = 6;
 565:frucd_display.c ****     xFont = (x1 + x2)/2 - ((horizFontSize*stringSize)/2);
 1123              		.loc 1 565 0
 1124 001e 01EB0A06 		add	r6, r1, r10
 1125 0022 03EB4303 		add	r3, r3, r3, lsl #1
 1126              	.LVL123:
 1127 0026 5A00     		lsls	r2, r3, #1
 1128              	.LVL124:
 1129 0028 5210     		asrs	r2, r2, #1
 1130 002a C2EB6606 		rsb	r6, r2, r6, asr #1
 1131              	.LVL125:
 566:frucd_display.c ****     yFont = (y1 + y2)/2 - 5 - (size*17);    
 1132              		.loc 1 566 0
 1133 002e 09EB0B05 		add	r5, r9, fp
 1134 0032 6D10     		asrs	r5, r5, #1
 1135 0034 053D     		subs	r5, r5, #5
 1136 0036 C7EB0773 		rsb	r3, r7, r7, lsl #28
 1137 003a C7EB0313 		rsb	r3, r7, r3, lsl #4
 1138 003e 1D44     		add	r5, r5, r3
ARM GAS  C:\Users\RYANCA~1\AppData\Local\Temp\cclc5Gbi.s 			page 31


 1139              	.LVL126:
 567:frucd_display.c ****     
 568:frucd_display.c ****     UG_PutString(x1 - 85, yFont, "GLV V:");
 1140              		.loc 1 568 0
 1141 0040 2DB2     		sxth	r5, r5
 1142              	.LVL127:
 1143 0042 354A     		ldr	r2, .L80
 1144 0044 2946     		mov	r1, r5
 1145              	.LVL128:
 1146 0046 A8F15500 		sub	r0, r8, #85
 1147              	.LVL129:
 1148 004a FFF7FEFF 		bl	UG_PutString
 1149              	.LVL130:
 569:frucd_display.c ****     
 570:frucd_display.c ****     if(size == 1){
 1150              		.loc 1 570 0
 1151 004e 012F     		cmp	r7, #1
 1152 0050 02D1     		bne	.L72
 571:frucd_display.c ****         UG_FontSelect(&FONT_32X53);  
 1153              		.loc 1 571 0
 1154 0052 3248     		ldr	r0, .L80+4
 1155 0054 FFF7FEFF 		bl	UG_FontSelect
 1156              	.LVL131:
 1157              	.L72:
 572:frucd_display.c ****     }
 573:frucd_display.c ****     // translate from voltage divider measurement to true voltage
 574:frucd_display.c ****     // y = 0.4295x + 18.254
 575:frucd_display.c ****     data *= 859;
 1158              		.loc 1 575 0
 1159 0058 40F25B33 		movw	r3, #859
 1160 005c 03FB04F4 		mul	r4, r3, r4
 1161              	.LVL132:
 576:frucd_display.c ****     data /= 2000; // 0.4295
 1162              		.loc 1 576 0
 1163 0060 2F4B     		ldr	r3, .L80+8
 1164 0062 A3FB0434 		umull	r3, r4, r3, r4
 1165              	.LVL133:
 1166 0066 E409     		lsrs	r4, r4, #7
 1167              	.LVL134:
 577:frucd_display.c ****     data += 18;
 1168              		.loc 1 577 0
 1169 0068 1234     		adds	r4, r4, #18
 1170              	.LVL135:
 578:frucd_display.c ****     UG_COLOR color;
 579:frucd_display.c ****     if (data > 1150) {
 1171              		.loc 1 579 0
 1172 006a 40F27E43 		movw	r3, #1150
 1173 006e 9C42     		cmp	r4, r3
 1174 0070 09D8     		bhi	.L76
 580:frucd_display.c ****         color = C_GREEN;
 581:frucd_display.c ****     } else if (data > 1100) {
 1175              		.loc 1 581 0
 1176 0072 40F24C43 		movw	r3, #1100
 1177 0076 9C42     		cmp	r4, r3
 1178 0078 08D8     		bhi	.L77
 582:frucd_display.c ****         color = C_YELLOW;
 583:frucd_display.c ****     } else if (data > 1050) {
ARM GAS  C:\Users\RYANCA~1\AppData\Local\Temp\cclc5Gbi.s 			page 32


 1179              		.loc 1 583 0
 1180 007a 40F21A43 		movw	r3, #1050
 1181 007e 9C42     		cmp	r4, r3
 1182 0080 06D9     		bls	.L78
 584:frucd_display.c ****         color = C_ORANGE;
 1183              		.loc 1 584 0
 1184 0082 284F     		ldr	r7, .L80+12
 1185              	.LVL136:
 1186 0084 06E0     		b	.L73
 1187              	.LVL137:
 1188              	.L76:
 580:frucd_display.c ****         color = C_GREEN;
 1189              		.loc 1 580 0
 1190 0086 4FF47F47 		mov	r7, #65280
 1191              	.LVL138:
 1192 008a 03E0     		b	.L73
 1193              	.LVL139:
 1194              	.L77:
 582:frucd_display.c ****         color = C_YELLOW;
 1195              		.loc 1 582 0
 1196 008c 264F     		ldr	r7, .L80+16
 1197              	.LVL140:
 1198 008e 01E0     		b	.L73
 1199              	.LVL141:
 1200              	.L78:
 585:frucd_display.c ****     } else {
 586:frucd_display.c ****         color = C_RED;
 1201              		.loc 1 586 0
 1202 0090 4FF47F07 		mov	r7, #16711680
 1203              	.LVL142:
 1204              	.L73:
 587:frucd_display.c ****     }
 588:frucd_display.c ****     if (color != last_glv_v_color) {
 1205              		.loc 1 588 0
 1206 0094 254B     		ldr	r3, .L80+20
 1207 0096 1B68     		ldr	r3, [r3]
 1208 0098 9F42     		cmp	r7, r3
 1209 009a 08D0     		beq	.L74
 589:frucd_display.c ****         // only draw rectangle if color changed
 590:frucd_display.c ****         UG_FillFrame(x1, y1, x2, y2, color);
 1210              		.loc 1 590 0
 1211 009c 0097     		str	r7, [sp]
 1212 009e 5B46     		mov	r3, fp
 1213 00a0 5246     		mov	r2, r10
 1214 00a2 4946     		mov	r1, r9
 1215 00a4 4046     		mov	r0, r8
 1216 00a6 FFF7FEFF 		bl	UG_FillFrame
 1217              	.LVL143:
 591:frucd_display.c ****         last_glv_v_color = color;
 1218              		.loc 1 591 0
 1219 00aa 204B     		ldr	r3, .L80+20
 1220 00ac 1F60     		str	r7, [r3]
 1221              	.L74:
 592:frucd_display.c ****     }
 593:frucd_display.c ****     char data_s[7];
 594:frucd_display.c ****     sprintf(data_s, "%d", data);
 1222              		.loc 1 594 0
ARM GAS  C:\Users\RYANCA~1\AppData\Local\Temp\cclc5Gbi.s 			page 33


 1223 00ae 2246     		mov	r2, r4
 1224 00b0 1F49     		ldr	r1, .L80+24
 1225 00b2 02A8     		add	r0, sp, #8
 1226 00b4 FFF7FEFF 		bl	sprintf
 1227              	.LVL144:
 595:frucd_display.c ****     // handle 3 digit cases; 2 and 1 are practically impossible
 596:frucd_display.c ****     if (data < 1000) {
 1228              		.loc 1 596 0
 1229 00b8 B4F57A7F 		cmp	r4, #1000
 1230 00bc 0ED2     		bcs	.L75
 597:frucd_display.c ****         data_s[3] = data_s[2];
 1231              		.loc 1 597 0
 1232 00be 9DF80A30 		ldrb	r3, [sp, #10]	@ zero_extendqisi2
 1233 00c2 8DF80B30 		strb	r3, [sp, #11]
 598:frucd_display.c ****         data_s[2] = data_s[1];
 1234              		.loc 1 598 0
 1235 00c6 9DF80930 		ldrb	r3, [sp, #9]	@ zero_extendqisi2
 1236 00ca 8DF80A30 		strb	r3, [sp, #10]
 599:frucd_display.c ****         data_s[1] = data_s[0];  
 1237              		.loc 1 599 0
 1238 00ce 9DF80830 		ldrb	r3, [sp, #8]	@ zero_extendqisi2
 1239 00d2 8DF80930 		strb	r3, [sp, #9]
 600:frucd_display.c ****         data_s[0] = ' ';
 1240              		.loc 1 600 0
 1241 00d6 2023     		movs	r3, #32
 1242 00d8 8DF80830 		strb	r3, [sp, #8]
 1243              	.L75:
 601:frucd_display.c ****     }
 602:frucd_display.c ****     // shift over fractional part
 603:frucd_display.c ****     data_s[4] = data_s[3];
 1244              		.loc 1 603 0
 1245 00dc 9DF80B30 		ldrb	r3, [sp, #11]	@ zero_extendqisi2
 1246 00e0 8DF80C30 		strb	r3, [sp, #12]
 604:frucd_display.c ****     data_s[3] = data_s[2];
 1247              		.loc 1 604 0
 1248 00e4 9DF80A30 		ldrb	r3, [sp, #10]	@ zero_extendqisi2
 1249 00e8 8DF80B30 		strb	r3, [sp, #11]
 605:frucd_display.c ****     // add syntax
 606:frucd_display.c ****     data_s[2] = '.';
 1250              		.loc 1 606 0
 1251 00ec 2E23     		movs	r3, #46
 1252 00ee 8DF80A30 		strb	r3, [sp, #10]
 607:frucd_display.c ****     data_s[5] = 'V';
 1253              		.loc 1 607 0
 1254 00f2 5623     		movs	r3, #86
 1255 00f4 8DF80D30 		strb	r3, [sp, #13]
 608:frucd_display.c ****     data_s[6] = '\0';
 1256              		.loc 1 608 0
 1257 00f8 0023     		movs	r3, #0
 1258 00fa 8DF80E30 		strb	r3, [sp, #14]
 609:frucd_display.c ****     UG_PutColorString(xFont, yFont, data_s, C_BLACK, color);
 1259              		.loc 1 609 0
 1260 00fe 0097     		str	r7, [sp]
 1261 0100 02AA     		add	r2, sp, #8
 1262 0102 2946     		mov	r1, r5
 1263 0104 30B2     		sxth	r0, r6
 1264 0106 FFF7FEFF 		bl	UG_PutColorString
ARM GAS  C:\Users\RYANCA~1\AppData\Local\Temp\cclc5Gbi.s 			page 34


 1265              	.LVL145:
 610:frucd_display.c ****     UG_FontSelect(&FONT_12X16);
 1266              		.loc 1 610 0
 1267 010a 0A48     		ldr	r0, .L80+28
 1268 010c FFF7FEFF 		bl	UG_FontSelect
 1269              	.LVL146:
 611:frucd_display.c **** }
 1270              		.loc 1 611 0
 1271 0110 05B0     		add	sp, sp, #20
 1272              		.cfi_def_cfa_offset 36
 1273              		@ sp needed
 1274 0112 BDE8F08F 		pop	{r4, r5, r6, r7, r8, r9, r10, fp, pc}
 1275              	.LVL147:
 1276              	.L81:
 1277 0116 00BF     		.align	2
 1278              	.L80:
 1279 0118 20000000 		.word	.LC3
 1280 011c 00000000 		.word	FONT_32X53
 1281 0120 D34D6210 		.word	274877907
 1282 0124 00A5FF00 		.word	16753920
 1283 0128 00FFFF00 		.word	16776960
 1284 012c 00000000 		.word	last_glv_v_color
 1285 0130 44000000 		.word	.LC7
 1286 0134 00000000 		.word	FONT_12X16
 1287              		.cfi_endproc
 1288              	.LFE70:
 1289              		.size	disp_glv_v, .-disp_glv_v
 1290              		.section	.text.disp_gen_temp,"ax",%progbits
 1291              		.align	2
 1292              		.global	disp_gen_temp
 1293              		.thumb
 1294              		.thumb_func
 1295              		.type	disp_gen_temp, %function
 1296              	disp_gen_temp:
 1297              	.LFB73:
 612:frucd_display.c **** 
 613:frucd_display.c **** 
 614:frucd_display.c **** /*
 615:frucd_display.c **** void disp_mc_temp(uint16_t data) {
 616:frucd_display.c ****     if (data >= 100) {
 617:frucd_display.c ****         // handle 3 digit cases
 618:frucd_display.c ****         UG_FillFrame(410, 185, 470, 215, C_GREEN);
 619:frucd_display.c ****         char data_s[5];
 620:frucd_display.c ****         sprintf(data_s, "%d", data);
 621:frucd_display.c ****         data_s[3] = 'C';
 622:frucd_display.c ****         data_s[4] = '\0';
 623:frucd_display.c ****         UG_PutColorString(415, 195, data_s, C_BLACK, C_GREEN);
 624:frucd_display.c ****     } else {
 625:frucd_display.c ****         // handle 2 digit cases
 626:frucd_display.c ****         UG_FillFrame(410, 185, 470, 215, C_GREEN);
 627:frucd_display.c ****         char data_s[4];
 628:frucd_display.c ****         sprintf(data_s, "%d", data);
 629:frucd_display.c ****         data_s[2] = 'C';
 630:frucd_display.c ****         data_s[3] = '\0';
 631:frucd_display.c ****         UG_PutColorString(422, 195, data_s, C_BLACK, C_GREEN);
 632:frucd_display.c ****     }
 633:frucd_display.c **** }
ARM GAS  C:\Users\RYANCA~1\AppData\Local\Temp\cclc5Gbi.s 			page 35


 634:frucd_display.c **** */
 635:frucd_display.c **** 
 636:frucd_display.c **** void disp_mc_temp(uint16_t data, uint8_t x1, uint8_t y1, uint8_t x2, uint8_t y2, uint8_t size){
 637:frucd_display.c ****     disp_gen_temp(data, x1, y1, x2, y2, size);
 638:frucd_display.c **** }
 639:frucd_display.c **** /*
 640:frucd_display.c **** void disp_motor_temp(uint16_t data) {
 641:frucd_display.c ****     if (data >= 100) {
 642:frucd_display.c ****         // handle 3 digit cases
 643:frucd_display.c ****         UG_FillFrame(410, 230, 470, 260, C_GREEN);
 644:frucd_display.c ****         char data_s[5];
 645:frucd_display.c ****         sprintf(data_s, "%d", data);
 646:frucd_display.c ****         data_s[3] = 'C';
 647:frucd_display.c ****         data_s[4] = '\0';
 648:frucd_display.c ****         UG_PutColorString(415, 240, data_s, C_BLACK, C_GREEN);
 649:frucd_display.c ****     } else {
 650:frucd_display.c ****         // handle 2 digit cases
 651:frucd_display.c ****         UG_FillFrame(410, 230, 470, 260, C_GREEN);
 652:frucd_display.c ****         char data_s[4];
 653:frucd_display.c ****         sprintf(data_s, "%d", data);
 654:frucd_display.c ****         data_s[2] = 'C';
 655:frucd_display.c ****         data_s[3] = '\0';
 656:frucd_display.c ****         UG_PutColorString(422, 240, data_s, C_BLACK, C_GREEN);
 657:frucd_display.c ****     }
 658:frucd_display.c **** }
 659:frucd_display.c **** */
 660:frucd_display.c **** 
 661:frucd_display.c **** void disp_motor_temp(uint16_t data, uint8_t x1, uint8_t y1, uint8_t x2, uint8_t y2, uint8_t size){
 662:frucd_display.c ****     disp_gen_temp(data, x1, y1, x2, y2, size);
 663:frucd_display.c **** }
 664:frucd_display.c **** 
 665:frucd_display.c **** 
 666:frucd_display.c **** 
 667:frucd_display.c **** void disp_gen_temp(uint16_t data, uint8_t x1, uint8_t y1, uint8_t x2, uint8_t y2, uint8_t size){
 1298              		.loc 1 667 0
 1299              		.cfi_startproc
 1300              		@ args = 8, pretend = 0, frame = 8
 1301              		@ frame_needed = 0, uses_anonymous_args = 0
 1302              	.LVL148:
 1303 0000 2DE9F04F 		push	{r4, r5, r6, r7, r8, r9, r10, fp, lr}
 1304              		.cfi_def_cfa_offset 36
 1305              		.cfi_offset 4, -36
 1306              		.cfi_offset 5, -32
 1307              		.cfi_offset 6, -28
 1308              		.cfi_offset 7, -24
 1309              		.cfi_offset 8, -20
 1310              		.cfi_offset 9, -16
 1311              		.cfi_offset 10, -12
 1312              		.cfi_offset 11, -8
 1313              		.cfi_offset 14, -4
 1314 0004 85B0     		sub	sp, sp, #20
 1315              		.cfi_def_cfa_offset 56
 1316 0006 0546     		mov	r5, r0
 1317 0008 0E46     		mov	r6, r1
 1318 000a 1746     		mov	r7, r2
 1319 000c 9846     		mov	r8, r3
 1320 000e 9DF83890 		ldrb	r9, [sp, #56]	@ zero_extendqisi2
ARM GAS  C:\Users\RYANCA~1\AppData\Local\Temp\cclc5Gbi.s 			page 36


 1321 0012 9DF83C20 		ldrb	r2, [sp, #60]	@ zero_extendqisi2
 1322              	.LVL149:
 668:frucd_display.c ****     int xFont, yFont;
 669:frucd_display.c ****     int horizFontSize = 12 + 20*size;
 1323              		.loc 1 669 0
 1324 0016 02EB8201 		add	r1, r2, r2, lsl #2
 1325              	.LVL150:
 1326 001a 8B00     		lsls	r3, r1, #2
 1327              	.LVL151:
 1328 001c 0C33     		adds	r3, r3, #12
 1329              	.LVL152:
 670:frucd_display.c ****     int stringSize;
 671:frucd_display.c ****     if (data >= 100) {
 1330              		.loc 1 671 0
 1331 001e 6328     		cmp	r0, #99
 1332 0020 01D9     		bls	.L87
 672:frucd_display.c ****         stringSize = 4;
 1333              		.loc 1 672 0
 1334 0022 0421     		movs	r1, #4
 1335 0024 00E0     		b	.L83
 1336              	.L87:
 673:frucd_display.c ****     }else{
 674:frucd_display.c ****         stringSize = 3;
 1337              		.loc 1 674 0
 1338 0026 0321     		movs	r1, #3
 1339              	.L83:
 1340              	.LVL153:
 675:frucd_display.c ****     }
 676:frucd_display.c ****     xFont = (x1 + x2)/2 - ((horizFontSize*stringSize)/2);
 1341              		.loc 1 676 0
 1342 0028 06EB0804 		add	r4, r6, r8
 1343 002c 03FB01F3 		mul	r3, r3, r1
 1344              	.LVL154:
 1345 0030 5B10     		asrs	r3, r3, #1
 1346 0032 C3EB6404 		rsb	r4, r3, r4, asr #1
 1347              	.LVL155:
 677:frucd_display.c ****     yFont = (y1 + y2)/2 - 5 - (size*17);    
 1348              		.loc 1 677 0
 1349 0036 07EB090A 		add	r10, r7, r9
 1350 003a 4FEA6A0A 		asr	r10, r10, #1
 1351 003e AAF10503 		sub	r3, r10, #5
 1352 0042 C2EB027A 		rsb	r10, r2, r2, lsl #28
 1353 0046 C2EB0A1A 		rsb	r10, r2, r10, lsl #4
 1354 004a 9A44     		add	r10, r10, r3
 1355              	.LVL156:
 678:frucd_display.c ****     if(size == 1){
 1356              		.loc 1 678 0
 1357 004c 012A     		cmp	r2, #1
 1358 004e 02D1     		bne	.L84
 679:frucd_display.c ****         UG_FontSelect(&FONT_32X53);
 1359              		.loc 1 679 0
 1360 0050 2248     		ldr	r0, .L89
 1361              	.LVL157:
 1362 0052 FFF7FEFF 		bl	UG_FontSelect
 1363              	.LVL158:
 1364              	.L84:
 680:frucd_display.c ****         
ARM GAS  C:\Users\RYANCA~1\AppData\Local\Temp\cclc5Gbi.s 			page 37


 681:frucd_display.c ****     }
 682:frucd_display.c ****     if (data >= 100) {
 1365              		.loc 1 682 0
 1366 0056 632D     		cmp	r5, #99
 1367 0058 1DD9     		bls	.L85
 1368              	.LBB4:
 683:frucd_display.c ****         // handle 3 digit cases
 684:frucd_display.c ****         UG_FillFrame(x1, y1, x2, y2, C_GREEN);
 1369              		.loc 1 684 0
 1370 005a 4FF47F4B 		mov	fp, #65280
 1371 005e CDF800B0 		str	fp, [sp]
 1372 0062 4B46     		mov	r3, r9
 1373 0064 4246     		mov	r2, r8
 1374 0066 3946     		mov	r1, r7
 1375 0068 3046     		mov	r0, r6
 1376 006a FFF7FEFF 		bl	UG_FillFrame
 1377              	.LVL159:
 685:frucd_display.c ****         char data_s[5];
 686:frucd_display.c ****         sprintf(data_s, "%d", data);
 1378              		.loc 1 686 0
 1379 006e 2A46     		mov	r2, r5
 1380 0070 1B49     		ldr	r1, .L89+4
 1381 0072 02A8     		add	r0, sp, #8
 1382 0074 FFF7FEFF 		bl	sprintf
 1383              	.LVL160:
 687:frucd_display.c ****         data_s[3] = 'C';
 1384              		.loc 1 687 0
 1385 0078 4323     		movs	r3, #67
 1386 007a 8DF80B30 		strb	r3, [sp, #11]
 688:frucd_display.c ****         data_s[4] = '\0';
 1387              		.loc 1 688 0
 1388 007e 0023     		movs	r3, #0
 1389 0080 8DF80C30 		strb	r3, [sp, #12]
 689:frucd_display.c ****         UG_PutColorString(xFont, yFont, data_s, C_BLACK, C_GREEN);
 1390              		.loc 1 689 0
 1391 0084 CDF800B0 		str	fp, [sp]
 1392 0088 02AA     		add	r2, sp, #8
 1393 008a 0FFA8AF1 		sxth	r1, r10
 1394 008e 20B2     		sxth	r0, r4
 1395 0090 FFF7FEFF 		bl	UG_PutColorString
 1396              	.LVL161:
 1397              	.LBE4:
 1398 0094 1CE0     		b	.L86
 1399              	.L85:
 1400              	.LBB5:
 690:frucd_display.c ****     } else {
 691:frucd_display.c ****         // handle 2 digit cases
 692:frucd_display.c ****         UG_FillFrame(x1, y1, x2, y2, C_GREEN);
 1401              		.loc 1 692 0
 1402 0096 4FF47F4B 		mov	fp, #65280
 1403 009a CDF800B0 		str	fp, [sp]
 1404 009e 4B46     		mov	r3, r9
 1405 00a0 4246     		mov	r2, r8
 1406 00a2 3946     		mov	r1, r7
 1407 00a4 3046     		mov	r0, r6
 1408 00a6 FFF7FEFF 		bl	UG_FillFrame
 1409              	.LVL162:
ARM GAS  C:\Users\RYANCA~1\AppData\Local\Temp\cclc5Gbi.s 			page 38


 693:frucd_display.c ****         char data_s[4];
 694:frucd_display.c ****         sprintf(data_s, "%d", data);
 1410              		.loc 1 694 0
 1411 00aa 2A46     		mov	r2, r5
 1412 00ac 0C49     		ldr	r1, .L89+4
 1413 00ae 02A8     		add	r0, sp, #8
 1414 00b0 FFF7FEFF 		bl	sprintf
 1415              	.LVL163:
 695:frucd_display.c ****         data_s[2] = 'C';
 1416              		.loc 1 695 0
 1417 00b4 4323     		movs	r3, #67
 1418 00b6 8DF80A30 		strb	r3, [sp, #10]
 696:frucd_display.c ****         data_s[3] = '\0';
 1419              		.loc 1 696 0
 1420 00ba 0023     		movs	r3, #0
 1421 00bc 8DF80B30 		strb	r3, [sp, #11]
 697:frucd_display.c ****         UG_PutColorString(xFont, yFont, data_s, C_BLACK, C_GREEN);
 1422              		.loc 1 697 0
 1423 00c0 CDF800B0 		str	fp, [sp]
 1424 00c4 02AA     		add	r2, sp, #8
 1425 00c6 0FFA8AF1 		sxth	r1, r10
 1426 00ca 20B2     		sxth	r0, r4
 1427 00cc FFF7FEFF 		bl	UG_PutColorString
 1428              	.LVL164:
 1429              	.L86:
 1430              	.LBE5:
 698:frucd_display.c ****     }
 699:frucd_display.c ****      UG_FontSelect(&FONT_12X16);
 1431              		.loc 1 699 0
 1432 00d0 0448     		ldr	r0, .L89+8
 1433 00d2 FFF7FEFF 		bl	UG_FontSelect
 1434              	.LVL165:
 700:frucd_display.c **** }
 1435              		.loc 1 700 0
 1436 00d6 05B0     		add	sp, sp, #20
 1437              		.cfi_def_cfa_offset 36
 1438              		@ sp needed
 1439 00d8 BDE8F08F 		pop	{r4, r5, r6, r7, r8, r9, r10, fp, pc}
 1440              	.LVL166:
 1441              	.L90:
 1442              		.align	2
 1443              	.L89:
 1444 00dc 00000000 		.word	FONT_32X53
 1445 00e0 44000000 		.word	.LC7
 1446 00e4 00000000 		.word	FONT_12X16
 1447              		.cfi_endproc
 1448              	.LFE73:
 1449              		.size	disp_gen_temp, .-disp_gen_temp
 1450              		.section	.text.disp_mc_temp,"ax",%progbits
 1451              		.align	2
 1452              		.global	disp_mc_temp
 1453              		.thumb
 1454              		.thumb_func
 1455              		.type	disp_mc_temp, %function
 1456              	disp_mc_temp:
 1457              	.LFB71:
 636:frucd_display.c ****     disp_gen_temp(data, x1, y1, x2, y2, size);
ARM GAS  C:\Users\RYANCA~1\AppData\Local\Temp\cclc5Gbi.s 			page 39


 1458              		.loc 1 636 0
 1459              		.cfi_startproc
 1460              		@ args = 8, pretend = 0, frame = 0
 1461              		@ frame_needed = 0, uses_anonymous_args = 0
 1462              	.LVL167:
 1463 0000 10B5     		push	{r4, lr}
 1464              		.cfi_def_cfa_offset 8
 1465              		.cfi_offset 4, -8
 1466              		.cfi_offset 14, -4
 1467 0002 82B0     		sub	sp, sp, #8
 1468              		.cfi_def_cfa_offset 16
 637:frucd_display.c **** }
 1469              		.loc 1 637 0
 1470 0004 9DF81440 		ldrb	r4, [sp, #20]	@ zero_extendqisi2
 1471 0008 0194     		str	r4, [sp, #4]
 1472 000a 9DF81040 		ldrb	r4, [sp, #16]	@ zero_extendqisi2
 1473 000e 0094     		str	r4, [sp]
 1474 0010 FFF7FEFF 		bl	disp_gen_temp
 1475              	.LVL168:
 638:frucd_display.c **** /*
 1476              		.loc 1 638 0
 1477 0014 02B0     		add	sp, sp, #8
 1478              		.cfi_def_cfa_offset 8
 1479              		@ sp needed
 1480 0016 10BD     		pop	{r4, pc}
 1481              		.cfi_endproc
 1482              	.LFE71:
 1483              		.size	disp_mc_temp, .-disp_mc_temp
 1484              		.section	.text.disp_motor_temp,"ax",%progbits
 1485              		.align	2
 1486              		.global	disp_motor_temp
 1487              		.thumb
 1488              		.thumb_func
 1489              		.type	disp_motor_temp, %function
 1490              	disp_motor_temp:
 1491              	.LFB72:
 661:frucd_display.c ****     disp_gen_temp(data, x1, y1, x2, y2, size);
 1492              		.loc 1 661 0
 1493              		.cfi_startproc
 1494              		@ args = 8, pretend = 0, frame = 0
 1495              		@ frame_needed = 0, uses_anonymous_args = 0
 1496              	.LVL169:
 1497 0000 10B5     		push	{r4, lr}
 1498              		.cfi_def_cfa_offset 8
 1499              		.cfi_offset 4, -8
 1500              		.cfi_offset 14, -4
 1501 0002 82B0     		sub	sp, sp, #8
 1502              		.cfi_def_cfa_offset 16
 662:frucd_display.c **** }
 1503              		.loc 1 662 0
 1504 0004 9DF81440 		ldrb	r4, [sp, #20]	@ zero_extendqisi2
 1505 0008 0194     		str	r4, [sp, #4]
 1506 000a 9DF81040 		ldrb	r4, [sp, #16]	@ zero_extendqisi2
 1507 000e 0094     		str	r4, [sp]
 1508 0010 FFF7FEFF 		bl	disp_gen_temp
 1509              	.LVL170:
 663:frucd_display.c **** 
ARM GAS  C:\Users\RYANCA~1\AppData\Local\Temp\cclc5Gbi.s 			page 40


 1510              		.loc 1 663 0
 1511 0014 02B0     		add	sp, sp, #8
 1512              		.cfi_def_cfa_offset 8
 1513              		@ sp needed
 1514 0016 10BD     		pop	{r4, pc}
 1515              		.cfi_endproc
 1516              	.LFE72:
 1517              		.size	disp_motor_temp, .-disp_motor_temp
 1518              		.section	.text.disp_gen_voltage,"ax",%progbits
 1519              		.align	2
 1520              		.global	disp_gen_voltage
 1521              		.thumb
 1522              		.thumb_func
 1523              		.type	disp_gen_voltage, %function
 1524              	disp_gen_voltage:
 1525              	.LFB74:
 701:frucd_display.c **** 
 702:frucd_display.c **** void disp_gen_voltage(uint16_t data, uint8_t x1, uint8_t y1, uint8_t x2, uint8_t y2, uint8_t size){
 1526              		.loc 1 702 0
 1527              		.cfi_startproc
 1528              		@ args = 8, pretend = 0, frame = 8
 1529              		@ frame_needed = 0, uses_anonymous_args = 0
 1530              	.LVL171:
 1531 0000 2DE9F047 		push	{r4, r5, r6, r7, r8, r9, r10, lr}
 1532              		.cfi_def_cfa_offset 32
 1533              		.cfi_offset 4, -32
 1534              		.cfi_offset 5, -28
 1535              		.cfi_offset 6, -24
 1536              		.cfi_offset 7, -20
 1537              		.cfi_offset 8, -16
 1538              		.cfi_offset 9, -12
 1539              		.cfi_offset 10, -8
 1540              		.cfi_offset 14, -4
 1541 0004 84B0     		sub	sp, sp, #16
 1542              		.cfi_def_cfa_offset 48
 1543 0006 0446     		mov	r4, r0
 1544 0008 0D46     		mov	r5, r1
 1545 000a 1646     		mov	r6, r2
 1546 000c 1F46     		mov	r7, r3
 1547 000e 9DF83080 		ldrb	r8, [sp, #48]	@ zero_extendqisi2
 1548 0012 9DF83420 		ldrb	r2, [sp, #52]	@ zero_extendqisi2
 1549              	.LVL172:
 703:frucd_display.c ****     int xFont, yFont;
 704:frucd_display.c ****     int horizFontSize = 12 + 20*size;
 1550              		.loc 1 704 0
 1551 0016 02EB8201 		add	r1, r2, r2, lsl #2
 1552              	.LVL173:
 1553 001a 8B00     		lsls	r3, r1, #2
 1554              	.LVL174:
 1555 001c 0C33     		adds	r3, r3, #12
 1556              	.LVL175:
 705:frucd_display.c ****     int stringSize;
 706:frucd_display.c ****     stringSize = 6;
 707:frucd_display.c ****    
 708:frucd_display.c ****     xFont = (x1 + x2)/2 - ((horizFontSize*stringSize)/2);
 1557              		.loc 1 708 0
 1558 001e 05EB0709 		add	r9, r5, r7
ARM GAS  C:\Users\RYANCA~1\AppData\Local\Temp\cclc5Gbi.s 			page 41


 1559 0022 03EB4303 		add	r3, r3, r3, lsl #1
 1560              	.LVL176:
 1561 0026 5900     		lsls	r1, r3, #1
 1562              	.LVL177:
 1563 0028 4910     		asrs	r1, r1, #1
 1564 002a C1EB6909 		rsb	r9, r1, r9, asr #1
 1565              	.LVL178:
 709:frucd_display.c ****     yFont = (y1 + y2)/2 - 5 - (size*17);    
 1566              		.loc 1 709 0
 1567 002e 06EB080A 		add	r10, r6, r8
 1568 0032 4FEA6A0A 		asr	r10, r10, #1
 1569 0036 AAF10503 		sub	r3, r10, #5
 1570 003a C2EB027A 		rsb	r10, r2, r2, lsl #28
 1571 003e C2EB0A1A 		rsb	r10, r2, r10, lsl #4
 1572 0042 9A44     		add	r10, r10, r3
 1573              	.LVL179:
 710:frucd_display.c ****     if(size == 1){
 1574              		.loc 1 710 0
 1575 0044 012A     		cmp	r2, #1
 1576 0046 02D1     		bne	.L96
 711:frucd_display.c ****         UG_FontSelect(&FONT_32X53);
 1577              		.loc 1 711 0
 1578 0048 2148     		ldr	r0, .L99
 1579              	.LVL180:
 1580 004a FFF7FEFF 		bl	UG_FontSelect
 1581              	.LVL181:
 1582              	.L96:
 712:frucd_display.c ****         
 713:frucd_display.c ****     }
 714:frucd_display.c ****     UG_FillFrame(x1, y1, x2, y2, C_GREEN);
 1583              		.loc 1 714 0
 1584 004e 4FF47F43 		mov	r3, #65280
 1585 0052 0093     		str	r3, [sp]
 1586 0054 4346     		mov	r3, r8
 1587 0056 3A46     		mov	r2, r7
 1588 0058 3146     		mov	r1, r6
 1589 005a 2846     		mov	r0, r5
 1590 005c FFF7FEFF 		bl	UG_FillFrame
 1591              	.LVL182:
 715:frucd_display.c ****     char data_s[7];
 716:frucd_display.c ****     sprintf(data_s, "%d", data);
 1592              		.loc 1 716 0
 1593 0060 2246     		mov	r2, r4
 1594 0062 1C49     		ldr	r1, .L99+4
 1595 0064 02A8     		add	r0, sp, #8
 1596 0066 FFF7FEFF 		bl	sprintf
 1597              	.LVL183:
 717:frucd_display.c ****     // handle 3 digit cases; 2 and 1 are practically impossible
 718:frucd_display.c ****     if (data < 1000) {
 1598              		.loc 1 718 0
 1599 006a B4F57A7F 		cmp	r4, #1000
 1600 006e 0ED2     		bcs	.L97
 719:frucd_display.c ****         data_s[3] = data_s[2];
 1601              		.loc 1 719 0
 1602 0070 9DF80A30 		ldrb	r3, [sp, #10]	@ zero_extendqisi2
 1603 0074 8DF80B30 		strb	r3, [sp, #11]
 720:frucd_display.c ****         data_s[2] = data_s[1];
ARM GAS  C:\Users\RYANCA~1\AppData\Local\Temp\cclc5Gbi.s 			page 42


 1604              		.loc 1 720 0
 1605 0078 9DF80930 		ldrb	r3, [sp, #9]	@ zero_extendqisi2
 1606 007c 8DF80A30 		strb	r3, [sp, #10]
 721:frucd_display.c ****         data_s[1] = data_s[0];  
 1607              		.loc 1 721 0
 1608 0080 9DF80830 		ldrb	r3, [sp, #8]	@ zero_extendqisi2
 1609 0084 8DF80930 		strb	r3, [sp, #9]
 722:frucd_display.c ****         data_s[0] = ' ';
 1610              		.loc 1 722 0
 1611 0088 2023     		movs	r3, #32
 1612 008a 8DF80830 		strb	r3, [sp, #8]
 1613              	.L97:
 723:frucd_display.c ****     }
 724:frucd_display.c ****     // shift over fractional part
 725:frucd_display.c ****     data_s[4] = data_s[3];
 1614              		.loc 1 725 0
 1615 008e 9DF80B30 		ldrb	r3, [sp, #11]	@ zero_extendqisi2
 1616 0092 8DF80C30 		strb	r3, [sp, #12]
 726:frucd_display.c ****     data_s[3] = data_s[2];
 1617              		.loc 1 726 0
 1618 0096 9DF80A30 		ldrb	r3, [sp, #10]	@ zero_extendqisi2
 1619 009a 8DF80B30 		strb	r3, [sp, #11]
 727:frucd_display.c ****     // add syntax
 728:frucd_display.c ****     data_s[2] = '.';
 1620              		.loc 1 728 0
 1621 009e 2E23     		movs	r3, #46
 1622 00a0 8DF80A30 		strb	r3, [sp, #10]
 729:frucd_display.c ****     data_s[5] = 'V';
 1623              		.loc 1 729 0
 1624 00a4 5623     		movs	r3, #86
 1625 00a6 8DF80D30 		strb	r3, [sp, #13]
 730:frucd_display.c ****     data_s[6] = '\0';
 1626              		.loc 1 730 0
 1627 00aa 0023     		movs	r3, #0
 1628 00ac 8DF80E30 		strb	r3, [sp, #14]
 731:frucd_display.c ****     UG_PutColorString(xFont, yFont, data_s, C_BLACK, C_GREEN);
 1629              		.loc 1 731 0
 1630 00b0 4FF47F42 		mov	r2, #65280
 1631 00b4 0092     		str	r2, [sp]
 1632 00b6 02AA     		add	r2, sp, #8
 1633 00b8 0FFA8AF1 		sxth	r1, r10
 1634 00bc 0FFA89F0 		sxth	r0, r9
 1635 00c0 FFF7FEFF 		bl	UG_PutColorString
 1636              	.LVL184:
 732:frucd_display.c ****     
 733:frucd_display.c ****     UG_FontSelect(&FONT_12X16);
 1637              		.loc 1 733 0
 1638 00c4 0448     		ldr	r0, .L99+8
 1639 00c6 FFF7FEFF 		bl	UG_FontSelect
 1640              	.LVL185:
 734:frucd_display.c **** }
 1641              		.loc 1 734 0
 1642 00ca 04B0     		add	sp, sp, #16
 1643              		.cfi_def_cfa_offset 32
 1644              		@ sp needed
 1645 00cc BDE8F087 		pop	{r4, r5, r6, r7, r8, r9, r10, pc}
 1646              	.LVL186:
ARM GAS  C:\Users\RYANCA~1\AppData\Local\Temp\cclc5Gbi.s 			page 43


 1647              	.L100:
 1648              		.align	2
 1649              	.L99:
 1650 00d0 00000000 		.word	FONT_32X53
 1651 00d4 44000000 		.word	.LC7
 1652 00d8 00000000 		.word	FONT_12X16
 1653              		.cfi_endproc
 1654              	.LFE74:
 1655              		.size	disp_gen_voltage, .-disp_gen_voltage
 1656              		.comm	last_motor_temp_color,4,4
 1657              		.comm	last_mc_temp_color,4,4
 1658              		.comm	last_glv_v_color,4,4
 1659              		.comm	last_state_color,4,4
 1660              		.comm	last_max_pack_temp_color,4,4
 1661              		.comm	last_SOC_color,4,4
 1662              		.comm	gui1963,120,4
 1663              		.section	.rodata.str1.4,"aMS",%progbits,1
 1664              		.align	2
 1665              	.LC0:
 1666 0000 5041434B 		.ascii	"PACK SOC\000"
 1666      20534F43 
 1666      00
 1667 0009 000000   		.space	3
 1668              	.LC1:
 1669 000c 4D415820 		.ascii	"MAX PACK T\000"
 1669      5041434B 
 1669      205400
 1670 0017 00       		.space	1
 1671              	.LC2:
 1672 0018 53544154 		.ascii	"STATE:\000"
 1672      453A00
 1673 001f 00       		.space	1
 1674              	.LC3:
 1675 0020 474C5620 		.ascii	"GLV V:\000"
 1675      563A00
 1676 0027 00       		.space	1
 1677              	.LC4:
 1678 0028 4D432054 		.ascii	"MC T:\000"
 1678      3A00
 1679 002e 0000     		.space	2
 1680              	.LC5:
 1681 0030 4D4F544F 		.ascii	"MOTOR T:\000"
 1681      5220543A 
 1681      00
 1682 0039 000000   		.space	3
 1683              	.LC6:
 1684 003c 31303025 		.ascii	"100%\000"
 1684      00
 1685 0041 000000   		.space	3
 1686              	.LC7:
 1687 0044 256400   		.ascii	"%d\000"
 1688 0047 00       		.space	1
 1689              	.LC8:
 1690 0048 20535441 		.ascii	" STARTUP  \000"
 1690      52545550 
 1690      202000
 1691 0053 00       		.space	1
ARM GAS  C:\Users\RYANCA~1\AppData\Local\Temp\cclc5Gbi.s 			page 44


 1692              	.LC9:
 1693 0054 44525620 		.ascii	"DRV FRM LV\000"
 1693      46524D20 
 1693      4C5600
 1694 005f 00       		.space	1
 1695              	.LC10:
 1696 0060 50524520 		.ascii	"PRE TM OUT\000"
 1696      544D204F 
 1696      555400
 1697 006b 00       		.space	1
 1698              	.LC11:
 1699 006c 4252204E 		.ascii	"BR NOT PRS\000"
 1699      4F542050 
 1699      525300
 1700 0077 00       		.space	1
 1701              	.LC12:
 1702 0078 4856204F 		.ascii	"HV OFF DRV\000"
 1702      46462044 
 1702      525600
 1703 0083 00       		.space	1
 1704              	.LC13:
 1705 0084 534E5352 		.ascii	"SNSR DSCRP\000"
 1705      20445343 
 1705      525000
 1706 008f 00       		.space	1
 1707              	.LC14:
 1708 0090 42535044 		.ascii	"BSPD TRIPD\000"
 1708      20545249 
 1708      504400
 1709 009b 00       		.space	1
 1710              	.LC15:
 1711 009c 53485444 		.ascii	"SHTDWN OPN\000"
 1711      574E204F 
 1711      504E00
 1712 00a7 00       		.space	1
 1713              	.LC16:
 1714 00a8 20202020 		.ascii	"    LV    \000"
 1714      4C562020 
 1714      202000
 1715 00b3 00       		.space	1
 1716              	.LC17:
 1717 00b4 50524543 		.ascii	"PRECHARGE \000"
 1717      48415247 
 1717      452000
 1718 00bf 00       		.space	1
 1719              	.LC18:
 1720 00c0 48562045 		.ascii	"HV ENABLED\000"
 1720      4E41424C 
 1720      454400
 1721 00cb 00       		.space	1
 1722              	.LC19:
 1723 00cc 20204452 		.ascii	"  DRIVE   \000"
 1723      49564520 
 1723      202000
 1724              		.text
 1725              	.Letext0:
 1726              		.file 2 "c:\\program files (x86)\\cypress\\psoc creator\\4.4\\psoc creator\\import\\gnu\\arm\\5.4.
ARM GAS  C:\Users\RYANCA~1\AppData\Local\Temp\cclc5Gbi.s 			page 45


 1727              		.file 3 "c:\\program files (x86)\\cypress\\psoc creator\\4.4\\psoc creator\\import\\gnu\\arm\\5.4.
 1728              		.file 4 "Generated_Source\\PSoC5/cytypes.h"
 1729              		.file 5 "data.h"
 1730              		.file 6 "ugui_config.h"
 1731              		.file 7 "ugui.h"
 1732              		.file 8 "Generated_Source\\PSoC5/core_cm3.h"
 1733              		.file 9 "ugui_SSD1963.h"
 1734              		.file 10 "frucd_display.h"
 1735              		.file 11 "Generated_Source\\PSoC5/CyLib.h"
 1736              		.file 12 "c:\\program files (x86)\\cypress\\psoc creator\\4.4\\psoc creator\\import\\gnu\\arm\\5.4